
ArmsPic.elf:     file format elf32-avr

Sections:
Idx Name          Size      VMA       LMA       File off  Algn
  0 .data         00000658  00800200  0000819c  00008230  2**0
                  CONTENTS, ALLOC, LOAD, DATA
  1 .text         0000819c  00000000  00000000  00000094  2**1
                  CONTENTS, ALLOC, LOAD, READONLY, CODE
  2 .bss          0000097e  00800858  00800858  00008888  2**0
                  ALLOC
  3 .debug_aranges 00000060  00000000  00000000  00008888  2**0
                  CONTENTS, READONLY, DEBUGGING
  4 .debug_pubnames 00000a1d  00000000  00000000  000088e8  2**0
                  CONTENTS, READONLY, DEBUGGING
  5 .debug_info   00002d50  00000000  00000000  00009305  2**0
                  CONTENTS, READONLY, DEBUGGING
  6 .debug_abbrev 00000796  00000000  00000000  0000c055  2**0
                  CONTENTS, READONLY, DEBUGGING
  7 .debug_line   000028db  00000000  00000000  0000c7eb  2**0
                  CONTENTS, READONLY, DEBUGGING
  8 .debug_frame  00000620  00000000  00000000  0000f0c8  2**2
                  CONTENTS, READONLY, DEBUGGING
  9 .debug_str    00000b5e  00000000  00000000  0000f6e8  2**0
                  CONTENTS, READONLY, DEBUGGING
 10 .debug_loc    00001dd4  00000000  00000000  00010246  2**0
                  CONTENTS, READONLY, DEBUGGING
 11 .debug_ranges 000000e0  00000000  00000000  0001201a  2**0
                  CONTENTS, READONLY, DEBUGGING

Disassembly of section .text:

00000000 <__vectors>:
       0:	0c 94 7f 01 	jmp	0x2fe	; 0x2fe <__ctors_end>
       4:	0c 94 a0 01 	jmp	0x340	; 0x340 <__bad_interrupt>
       8:	0c 94 a0 01 	jmp	0x340	; 0x340 <__bad_interrupt>
       c:	0c 94 a0 01 	jmp	0x340	; 0x340 <__bad_interrupt>
      10:	0c 94 a0 01 	jmp	0x340	; 0x340 <__bad_interrupt>
      14:	0c 94 a0 01 	jmp	0x340	; 0x340 <__bad_interrupt>
      18:	0c 94 a0 01 	jmp	0x340	; 0x340 <__bad_interrupt>
      1c:	0c 94 a0 01 	jmp	0x340	; 0x340 <__bad_interrupt>
      20:	0c 94 a0 01 	jmp	0x340	; 0x340 <__bad_interrupt>
      24:	0c 94 a0 01 	jmp	0x340	; 0x340 <__bad_interrupt>
      28:	0c 94 a0 01 	jmp	0x340	; 0x340 <__bad_interrupt>
      2c:	0c 94 a0 01 	jmp	0x340	; 0x340 <__bad_interrupt>
      30:	0c 94 a0 01 	jmp	0x340	; 0x340 <__bad_interrupt>
      34:	0c 94 a0 01 	jmp	0x340	; 0x340 <__bad_interrupt>
      38:	0c 94 a0 01 	jmp	0x340	; 0x340 <__bad_interrupt>
      3c:	0c 94 a0 01 	jmp	0x340	; 0x340 <__bad_interrupt>
      40:	0c 94 a0 01 	jmp	0x340	; 0x340 <__bad_interrupt>
      44:	0c 94 a0 01 	jmp	0x340	; 0x340 <__bad_interrupt>
      48:	0c 94 a0 01 	jmp	0x340	; 0x340 <__bad_interrupt>
      4c:	0c 94 a0 01 	jmp	0x340	; 0x340 <__bad_interrupt>
      50:	0c 94 a0 01 	jmp	0x340	; 0x340 <__bad_interrupt>
      54:	0c 94 a0 01 	jmp	0x340	; 0x340 <__bad_interrupt>
      58:	0c 94 a0 01 	jmp	0x340	; 0x340 <__bad_interrupt>
      5c:	0c 94 a0 01 	jmp	0x340	; 0x340 <__bad_interrupt>
      60:	0c 94 a0 01 	jmp	0x340	; 0x340 <__bad_interrupt>
      64:	0c 94 95 34 	jmp	0x692a	; 0x692a <__vector_25>
      68:	0c 94 a0 01 	jmp	0x340	; 0x340 <__bad_interrupt>
      6c:	0c 94 a0 01 	jmp	0x340	; 0x340 <__bad_interrupt>
      70:	0c 94 a0 01 	jmp	0x340	; 0x340 <__bad_interrupt>
      74:	0c 94 a0 01 	jmp	0x340	; 0x340 <__bad_interrupt>
      78:	0c 94 a0 01 	jmp	0x340	; 0x340 <__bad_interrupt>
      7c:	0c 94 a0 01 	jmp	0x340	; 0x340 <__bad_interrupt>
      80:	0c 94 a0 01 	jmp	0x340	; 0x340 <__bad_interrupt>
      84:	0c 94 a0 01 	jmp	0x340	; 0x340 <__bad_interrupt>
      88:	0c 94 a0 01 	jmp	0x340	; 0x340 <__bad_interrupt>
      8c:	0c 94 a0 01 	jmp	0x340	; 0x340 <__bad_interrupt>
      90:	0c 94 b1 08 	jmp	0x1162	; 0x1162 <__vector_36>
      94:	0c 94 a0 01 	jmp	0x340	; 0x340 <__bad_interrupt>
      98:	0c 94 a0 01 	jmp	0x340	; 0x340 <__bad_interrupt>
      9c:	0c 94 a0 01 	jmp	0x340	; 0x340 <__bad_interrupt>
      a0:	0c 94 a0 01 	jmp	0x340	; 0x340 <__bad_interrupt>
      a4:	0c 94 a0 01 	jmp	0x340	; 0x340 <__bad_interrupt>
      a8:	0c 94 a0 01 	jmp	0x340	; 0x340 <__bad_interrupt>
      ac:	0c 94 a0 01 	jmp	0x340	; 0x340 <__bad_interrupt>
      b0:	0c 94 a0 01 	jmp	0x340	; 0x340 <__bad_interrupt>
      b4:	0c 94 a0 01 	jmp	0x340	; 0x340 <__bad_interrupt>
      b8:	0c 94 a0 01 	jmp	0x340	; 0x340 <__bad_interrupt>
      bc:	0c 94 a0 01 	jmp	0x340	; 0x340 <__bad_interrupt>
      c0:	0c 94 a0 01 	jmp	0x340	; 0x340 <__bad_interrupt>
      c4:	0c 94 a0 01 	jmp	0x340	; 0x340 <__bad_interrupt>
      c8:	0c 94 a0 01 	jmp	0x340	; 0x340 <__bad_interrupt>
      cc:	6f 2c       	mov	r6, r15
      ce:	30 30       	cpi	r19, 0x00	; 0
      d0:	30 30       	cpi	r19, 0x00	; 0
      d2:	30 30       	cpi	r19, 0x00	; 0
      d4:	75 2d       	mov	r23, r5
      d6:	30 30       	cpi	r19, 0x00	; 0
      d8:	30 30       	cpi	r19, 0x00	; 0
      da:	30 30       	cpi	r19, 0x00	; 0
      dc:	30 30       	cpi	r19, 0x00	; 0
      de:	ed 2d       	mov	r30, r13
      e0:	30 30       	cpi	r19, 0x00	; 0
      e2:	30 30       	cpi	r19, 0x00	; 0
      e4:	30 30       	cpi	r19, 0x00	; 0
      e6:	30 30       	cpi	r19, 0x00	; 0
      e8:	30 30       	cpi	r19, 0x00	; 0
      ea:	16 2f       	mov	r17, r22
      ec:	5e 2f       	mov	r21, r30
      ee:	30 30       	cpi	r19, 0x00	; 0
      f0:	30 30       	cpi	r19, 0x00	; 0
      f2:	30 30       	cpi	r19, 0x00	; 0
      f4:	30 30       	cpi	r19, 0x00	; 0
      f6:	30 30       	cpi	r19, 0x00	; 0
      f8:	30 30       	cpi	r19, 0x00	; 0
      fa:	30 30       	cpi	r19, 0x00	; 0
      fc:	30 30       	cpi	r19, 0x00	; 0
      fe:	30 30       	cpi	r19, 0x00	; 0
     100:	30 30       	cpi	r19, 0x00	; 0
     102:	30 30       	cpi	r19, 0x00	; 0
     104:	30 30       	cpi	r19, 0x00	; 0
     106:	30 30       	cpi	r19, 0x00	; 0
     108:	30 30       	cpi	r19, 0x00	; 0
     10a:	30 30       	cpi	r19, 0x00	; 0
     10c:	60 2c       	mov	r6, r0
     10e:	84 2c       	mov	r8, r4
     110:	30 30       	cpi	r19, 0x00	; 0
     112:	d9 2c       	mov	r13, r9
     114:	f0 2c       	mov	r15, r0
     116:	ae 2d       	mov	r26, r14
     118:	30 30       	cpi	r19, 0x00	; 0
     11a:	30 30       	cpi	r19, 0x00	; 0
     11c:	b1 2d       	mov	r27, r1
     11e:	30 30       	cpi	r19, 0x00	; 0
     120:	30 30       	cpi	r19, 0x00	; 0
     122:	30 30       	cpi	r19, 0x00	; 0
     124:	11 2e       	mov	r1, r17
     126:	20 2e       	mov	r2, r16
     128:	95 2e       	mov	r9, r21
     12a:	30 30       	cpi	r19, 0x00	; 0
     12c:	47 2f       	mov	r20, r23
     12e:	61 2f       	mov	r22, r17
     130:	30 30       	cpi	r19, 0x00	; 0
     132:	8b 2f       	mov	r24, r27
     134:	30 30       	cpi	r19, 0x00	; 0
     136:	30 30       	cpi	r19, 0x00	; 0
     138:	b4 2f       	mov	r27, r20
     13a:	03 6e       	ori	r16, 0xE3	; 227
     13c:	db 36       	cpi	r29, 0x6B	; 107
     13e:	3d 9a       	sbi	0x07, 5	; 7
     140:	99 99       	sbic	0x13, 1	; 19
     142:	99 3d       	cpi	r25, 0xD9	; 217
     144:	ab aa       	std	Y+51, r10	; 0x33
     146:	aa 2a       	or	r10, r26
     148:	3e 00       	.word	0x003e	; ????
     14a:	00 00       	nop
     14c:	80 3f       	cpi	r24, 0xF0	; 240
     14e:	08 4a       	sbci	r16, 0xA8	; 168
     150:	d7 3b       	cpi	r29, 0xB7	; 183
     152:	3b ce       	rjmp	.-906    	; 0xfffffdca <__eeprom_end+0xff7efdca>
     154:	01 6e       	ori	r16, 0xE1	; 225
     156:	84 bc       	out	0x24, r8	; 36
     158:	bf fd       	.word	0xfdbf	; ????
     15a:	c1 2f       	mov	r28, r17
     15c:	3d 6c       	ori	r19, 0xCD	; 205
     15e:	74 31       	cpi	r23, 0x14	; 20
     160:	9a bd       	out	0x2a, r25	; 42
     162:	56 83       	std	Z+6, r21	; 0x06
     164:	3d da       	rcall	.-2950   	; 0xfffff5e0 <__eeprom_end+0xff7ef5e0>
     166:	3d 00       	.word	0x003d	; ????
     168:	c7 7f       	andi	r28, 0xF7	; 247
     16a:	11 be       	out	0x31, r1	; 49
     16c:	d9 e4       	ldi	r29, 0x49	; 73
     16e:	bb 4c       	sbci	r27, 0xCB	; 203
     170:	3e 91       	ld	r19, -X
     172:	6b aa       	std	Y+51, r6	; 0x33
     174:	aa be       	out	0x3a, r10	; 58
     176:	00 00       	nop
     178:	00 80       	ld	r0, Z
     17a:	3f 07       	cpc	r19, r31
     17c:	2c 7a       	andi	r18, 0xAC	; 172
     17e:	a5 ba       	out	0x15, r10	; 21
     180:	6c c5       	rjmp	.+2776   	; 0xc5a <SetKConstants+0xac>
     182:	90 da       	rcall	.-2784   	; 0xfffff6a4 <__eeprom_end+0xff7ef6a4>
     184:	3b 93       	.word	0x933b	; ????
     186:	65 fc       	sbrc	r6, 5
     188:	8b bc       	out	0x2b, r8	; 43
     18a:	53 f8       	bld	r5, 3
     18c:	10 fd       	sbrc	r17, 0
     18e:	3c 56       	subi	r19, 0x6C	; 108
     190:	92 83       	std	Z+2, r25	; 0x02
     192:	4d bd       	out	0x2d, r20	; 45
     194:	87 9d       	mul	r24, r7
     196:	3a b6       	in	r3, 0x3a	; 58
     198:	3d cb       	rjmp	.-2438   	; 0xfffff814 <__eeprom_end+0xff7ef814>
     19a:	c9 bf       	out	0x39, r28	; 57
     19c:	5b be       	out	0x3b, r5	; 59
     19e:	73 da       	rcall	.-2842   	; 0xfffff686 <__eeprom_end+0xff7ef686>
     1a0:	0f c9       	rjmp	.-3554   	; 0xfffff3c0 <__eeprom_end+0xff7ef3c0>
     1a2:	3f 05       	cpc	r19, r15
     1a4:	a8 4c       	sbci	r26, 0xC8	; 200
     1a6:	cd b2       	in	r12, 0x1d	; 29
     1a8:	d4 4e       	sbci	r29, 0xE4	; 228
     1aa:	b9 38       	cpi	r27, 0x89	; 137
     1ac:	36 a9       	ldd	r19, Z+54	; 0x36
     1ae:	02 0c       	add	r0, r2
     1b0:	50 b9       	out	0x00, r21	; 0
     1b2:	91 86       	std	Z+9, r9	; 0x09
     1b4:	88 08       	sbc	r8, r8
     1b6:	3c a6       	std	Y+44, r3	; 0x2c
     1b8:	aa aa       	std	Y+50, r10	; 0x32
     1ba:	2a be       	out	0x3a, r2	; 58
     1bc:	00 00       	nop
     1be:	00 80       	ld	r0, Z
     1c0:	3f 6e       	ori	r19, 0xEF	; 239

000001c1 <__c.1790>:
     1c1:	6e 61 6e 00                                         nan.

000001c5 <__c.1788>:
     1c5:	69 6e 66 00                                         inf.

000001c9 <pstr_inf>:
     1c9:	49 4e 46                                            INF

000001cc <pstr_inity>:
     1cc:	49 4e 49 54 59                                      INITY

000001d1 <pstr_nan>:
     1d1:	4e 41 4e                                            NAN

000001d4 <pwr_m10>:
     1d4:	cd cc cc 3d 0a d7 23 3c 17 b7 d1 38 77 cc 2b 32     ...=..#<...8w.+2
     1e4:	95 95 e6 24 1f b1 4f 0a                             ...$..O.

000001ec <pwr_p10>:
     1ec:	00 00 20 41 00 00 c8 42 00 40 1c 46 20 bc be 4c     .. A...B.@.F ..L
     1fc:	ca 1b 0e 5a ae c5 9d 74 00 40 7a 10 f3 5a 00 a0     ...Z...t.@z..Z..
     20c:	72 4e 18 09 00 10 a5 d4 e8 00 00 e8 76 48 17 00     rN..........vH..
     21c:	00 e4 0b 54 02 00 00 ca 9a 3b 00 00 00 e1 f5 05     ...T.....;......
     22c:	00 00 80 96 98 00 00 00 40 42 0f 00 00 00 a0 86     ........@B......
     23c:	01 00 00 00 10 27 00 00 00 00 e8 03 00 00 00 00     .....'..........
     24c:	64 00 00 00 00 00 0a 00 00 00 00 00 01 00 00 00     d...............
     25c:	00 00 2c 76 d8 88 dc 67 4f 08 23 df c1 df ae 59     ..,v...gO.#....Y
     26c:	e1 b1 b7 96 e5 e3 e4 53 c6 3a e6 51 99 76 96 e8     .......S.:.Q.v..
     27c:	e6 c2 84 26 eb 89 8c 9b 62 ed 40 7c 6f fc ef bc     ...&....b.@|o...
     28c:	9c 9f 40 f2 ba a5 6f a5 f4 90 05 5a 2a f7 5c 93     ..@...o....Z*.\.
     29c:	6b 6c f9 67 6d c1 1b fc e0 e4 0d 47 fe f5 20 e6     kl.gm......G.. .
     2ac:	b5 00 d0 ed 90 2e 03 00 94 35 77 05 00 80 84 1e     .........5w.....
     2bc:	08 00 00 20 4e 0a 00 00 00 c8 0c 33 33 33 33 0f     ... N......3333.
     2cc:	98 6e 12 83 11 41 ef 8d 21 14 89 3b e6 55 16 cf     .n...A..!..;.U..
     2dc:	fe e6 db 18 d1 84 4b 38 1b f7 7c 1d 90 1d a4 bb     ......K8..|.....
     2ec:	e4 24 20 32 84 72 5e 22 81 00 c9 f1 24 ec a1 e5     .$ 2.r^"....$...
     2fc:	3d 27                                               ='

000002fe <__ctors_end>:
     2fe:	11 24       	eor	r1, r1
     300:	1f be       	out	0x3f, r1	; 63
     302:	cf ef       	ldi	r28, 0xFF	; 255
     304:	d1 e2       	ldi	r29, 0x21	; 33
     306:	de bf       	out	0x3e, r29	; 62
     308:	cd bf       	out	0x3d, r28	; 61
     30a:	00 e0       	ldi	r16, 0x00	; 0
     30c:	0c bf       	out	0x3c, r16	; 60

0000030e <__do_copy_data>:
     30e:	18 e0       	ldi	r17, 0x08	; 8
     310:	a0 e0       	ldi	r26, 0x00	; 0
     312:	b2 e0       	ldi	r27, 0x02	; 2
     314:	ec e9       	ldi	r30, 0x9C	; 156
     316:	f1 e8       	ldi	r31, 0x81	; 129
     318:	00 e0       	ldi	r16, 0x00	; 0
     31a:	0b bf       	out	0x3b, r16	; 59
     31c:	02 c0       	rjmp	.+4      	; 0x322 <__do_copy_data+0x14>
     31e:	07 90       	elpm	r0, Z+
     320:	0d 92       	st	X+, r0
     322:	a8 35       	cpi	r26, 0x58	; 88
     324:	b1 07       	cpc	r27, r17
     326:	d9 f7       	brne	.-10     	; 0x31e <__do_copy_data+0x10>

00000328 <__do_clear_bss>:
     328:	11 e1       	ldi	r17, 0x11	; 17
     32a:	a8 e5       	ldi	r26, 0x58	; 88
     32c:	b8 e0       	ldi	r27, 0x08	; 8
     32e:	01 c0       	rjmp	.+2      	; 0x332 <.do_clear_bss_start>

00000330 <.do_clear_bss_loop>:
     330:	1d 92       	st	X+, r1

00000332 <.do_clear_bss_start>:
     332:	a6 3d       	cpi	r26, 0xD6	; 214
     334:	b1 07       	cpc	r27, r17
     336:	e1 f7       	brne	.-8      	; 0x330 <.do_clear_bss_loop>
     338:	0e 94 4f 30 	call	0x609e	; 0x609e <main>
     33c:	0c 94 73 3d 	jmp	0x7ae6	; 0x7ae6 <exit>

00000340 <__bad_interrupt>:
     340:	0c 94 00 00 	jmp	0	; 0x0 <__vectors>

00000344 <SetPosition>:



///// METHODS
int SetPosition(int id, float position)
{
     344:	2f 92       	push	r2
     346:	3f 92       	push	r3
     348:	4f 92       	push	r4
     34a:	5f 92       	push	r5
     34c:	6f 92       	push	r6
     34e:	7f 92       	push	r7
     350:	8f 92       	push	r8
     352:	9f 92       	push	r9
     354:	af 92       	push	r10
     356:	bf 92       	push	r11
     358:	cf 92       	push	r12
     35a:	df 92       	push	r13
     35c:	ef 92       	push	r14
     35e:	ff 92       	push	r15
     360:	0f 93       	push	r16
     362:	1f 93       	push	r17
     364:	1a 01       	movw	r2, r20
     366:	2b 01       	movw	r4, r22
	int bits;
	if(cw[id]==1)
     368:	fc 01       	movw	r30, r24
     36a:	ee 0f       	add	r30, r30
     36c:	ff 1f       	adc	r31, r31
     36e:	ef 5f       	subi	r30, 0xFF	; 255
     370:	fe 4e       	sbci	r31, 0xEE	; 238
     372:	01 90       	ld	r0, Z+
     374:	f0 81       	ld	r31, Z
     376:	e0 2d       	mov	r30, r0
     378:	e1 30       	cpi	r30, 0x01	; 1
     37a:	f1 05       	cpc	r31, r1
     37c:	09 f0       	breq	.+2      	; 0x380 <SetPosition+0x3c>
     37e:	60 c0       	rjmp	.+192    	; 0x440 <SetPosition+0xfc>
	{
	bits = ((maxDegrees[id] -  ceroPosition[id] - ((maxDegrees[id] - 180.0) / 2.0) + (position * 57.2957)) * (maxBits[id] / maxDegrees[id]));
     380:	dc 01       	movw	r26, r24
     382:	aa 0f       	add	r26, r26
     384:	bb 1f       	adc	r27, r27
     386:	aa 0f       	add	r26, r26
     388:	bb 1f       	adc	r27, r27
     38a:	fd 01       	movw	r30, r26
     38c:	e5 5c       	subi	r30, 0xC5	; 197
     38e:	f4 4f       	sbci	r31, 0xF4	; 244
     390:	a0 80       	ld	r10, Z
     392:	b1 80       	ldd	r11, Z+1	; 0x01
     394:	c2 80       	ldd	r12, Z+2	; 0x02
     396:	d3 80       	ldd	r13, Z+3	; 0x03
     398:	fd 01       	movw	r30, r26
     39a:	e5 54       	subi	r30, 0x45	; 69
     39c:	f4 4f       	sbci	r31, 0xF4	; 244
     39e:	60 80       	ld	r6, Z
     3a0:	71 80       	ldd	r7, Z+1	; 0x01
     3a2:	82 80       	ldd	r8, Z+2	; 0x02
     3a4:	93 80       	ldd	r9, Z+3	; 0x03
	bits = maxBits[id] - bits;
     3a6:	a9 5e       	subi	r26, 0xE9	; 233
     3a8:	b4 4f       	sbci	r27, 0xF4	; 244
     3aa:	c6 01       	movw	r24, r12
     3ac:	b5 01       	movw	r22, r10
     3ae:	2d 91       	ld	r18, X+
     3b0:	3d 91       	ld	r19, X+
     3b2:	4d 91       	ld	r20, X+
     3b4:	5c 91       	ld	r21, X
     3b6:	0e 94 7d 38 	call	0x70fa	; 0x70fa <__subsf3>
     3ba:	7b 01       	movw	r14, r22
     3bc:	8c 01       	movw	r16, r24
     3be:	c6 01       	movw	r24, r12
     3c0:	b5 01       	movw	r22, r10
     3c2:	20 e0       	ldi	r18, 0x00	; 0
     3c4:	30 e0       	ldi	r19, 0x00	; 0
     3c6:	44 e3       	ldi	r20, 0x34	; 52
     3c8:	53 e4       	ldi	r21, 0x43	; 67
     3ca:	0e 94 7d 38 	call	0x70fa	; 0x70fa <__subsf3>
     3ce:	20 e0       	ldi	r18, 0x00	; 0
     3d0:	30 e0       	ldi	r19, 0x00	; 0
     3d2:	40 e0       	ldi	r20, 0x00	; 0
     3d4:	5f eb       	ldi	r21, 0xBF	; 191
     3d6:	0e 94 42 3b 	call	0x7684	; 0x7684 <__mulsf3>
     3da:	9b 01       	movw	r18, r22
     3dc:	ac 01       	movw	r20, r24
     3de:	c8 01       	movw	r24, r16
     3e0:	b7 01       	movw	r22, r14
     3e2:	0e 94 7e 38 	call	0x70fc	; 0x70fc <__addsf3>
     3e6:	7b 01       	movw	r14, r22
     3e8:	8c 01       	movw	r16, r24
     3ea:	c2 01       	movw	r24, r4
     3ec:	b1 01       	movw	r22, r2
     3ee:	2c ec       	ldi	r18, 0xCC	; 204
     3f0:	3e e2       	ldi	r19, 0x2E	; 46
     3f2:	45 e6       	ldi	r20, 0x65	; 101
     3f4:	52 e4       	ldi	r21, 0x42	; 66
     3f6:	0e 94 42 3b 	call	0x7684	; 0x7684 <__mulsf3>
     3fa:	9b 01       	movw	r18, r22
     3fc:	ac 01       	movw	r20, r24
     3fe:	c8 01       	movw	r24, r16
     400:	b7 01       	movw	r22, r14
     402:	0e 94 7e 38 	call	0x70fc	; 0x70fc <__addsf3>
     406:	7b 01       	movw	r14, r22
     408:	8c 01       	movw	r16, r24
     40a:	c4 01       	movw	r24, r8
     40c:	b3 01       	movw	r22, r6
     40e:	a6 01       	movw	r20, r12
     410:	95 01       	movw	r18, r10
     412:	0e 94 62 39 	call	0x72c4	; 0x72c4 <__divsf3>
     416:	9b 01       	movw	r18, r22
     418:	ac 01       	movw	r20, r24
     41a:	c8 01       	movw	r24, r16
     41c:	b7 01       	movw	r22, r14
     41e:	0e 94 42 3b 	call	0x7684	; 0x7684 <__mulsf3>
     422:	0e 94 ca 39 	call	0x7394	; 0x7394 <__fixsfsi>
     426:	88 27       	eor	r24, r24
     428:	77 fd       	sbrc	r23, 7
     42a:	80 95       	com	r24
     42c:	98 2f       	mov	r25, r24
     42e:	0e 94 fd 39 	call	0x73fa	; 0x73fa <__floatsisf>
     432:	9b 01       	movw	r18, r22
     434:	ac 01       	movw	r20, r24
     436:	c4 01       	movw	r24, r8
     438:	b3 01       	movw	r22, r6
     43a:	0e 94 7d 38 	call	0x70fa	; 0x70fa <__subsf3>
     43e:	4b c0       	rjmp	.+150    	; 0x4d6 <SetPosition+0x192>
	//printf("CW ");
	}
	else if(cw[id] == 0){
     440:	ef 2b       	or	r30, r31
     442:	09 f0       	breq	.+2      	; 0x446 <SetPosition+0x102>
     444:	4b c0       	rjmp	.+150    	; 0x4dc <SetPosition+0x198>
	bits = ((position * 57.2957) + ceroPosition[id] + ((maxDegrees[id] - 180.0) / 2.0)) * (maxBits[id] / maxDegrees[id]);
     446:	6c 01       	movw	r12, r24
     448:	cc 0c       	add	r12, r12
     44a:	dd 1c       	adc	r13, r13
     44c:	cc 0c       	add	r12, r12
     44e:	dd 1c       	adc	r13, r13
     450:	f6 01       	movw	r30, r12
     452:	e5 5c       	subi	r30, 0xC5	; 197
     454:	f4 4f       	sbci	r31, 0xF4	; 244
     456:	80 80       	ld	r8, Z
     458:	91 80       	ldd	r9, Z+1	; 0x01
     45a:	a2 80       	ldd	r10, Z+2	; 0x02
     45c:	b3 80       	ldd	r11, Z+3	; 0x03
     45e:	cb 01       	movw	r24, r22
     460:	ba 01       	movw	r22, r20
     462:	2c ec       	ldi	r18, 0xCC	; 204
     464:	3e e2       	ldi	r19, 0x2E	; 46
     466:	45 e6       	ldi	r20, 0x65	; 101
     468:	52 e4       	ldi	r21, 0x42	; 66
     46a:	0e 94 42 3b 	call	0x7684	; 0x7684 <__mulsf3>
     46e:	f6 01       	movw	r30, r12
     470:	e9 5e       	subi	r30, 0xE9	; 233
     472:	f4 4f       	sbci	r31, 0xF4	; 244
     474:	20 81       	ld	r18, Z
     476:	31 81       	ldd	r19, Z+1	; 0x01
     478:	42 81       	ldd	r20, Z+2	; 0x02
     47a:	53 81       	ldd	r21, Z+3	; 0x03
     47c:	0e 94 7e 38 	call	0x70fc	; 0x70fc <__addsf3>
     480:	7b 01       	movw	r14, r22
     482:	8c 01       	movw	r16, r24
     484:	c5 01       	movw	r24, r10
     486:	b4 01       	movw	r22, r8
     488:	20 e0       	ldi	r18, 0x00	; 0
     48a:	30 e0       	ldi	r19, 0x00	; 0
     48c:	44 e3       	ldi	r20, 0x34	; 52
     48e:	53 e4       	ldi	r21, 0x43	; 67
     490:	0e 94 7d 38 	call	0x70fa	; 0x70fa <__subsf3>
     494:	20 e0       	ldi	r18, 0x00	; 0
     496:	30 e0       	ldi	r19, 0x00	; 0
     498:	40 e0       	ldi	r20, 0x00	; 0
     49a:	5f e3       	ldi	r21, 0x3F	; 63
     49c:	0e 94 42 3b 	call	0x7684	; 0x7684 <__mulsf3>
     4a0:	9b 01       	movw	r18, r22
     4a2:	ac 01       	movw	r20, r24
     4a4:	c8 01       	movw	r24, r16
     4a6:	b7 01       	movw	r22, r14
     4a8:	0e 94 7e 38 	call	0x70fc	; 0x70fc <__addsf3>
     4ac:	7b 01       	movw	r14, r22
     4ae:	8c 01       	movw	r16, r24
     4b0:	8b eb       	ldi	r24, 0xBB	; 187
     4b2:	9b e0       	ldi	r25, 0x0B	; 11
     4b4:	c8 0e       	add	r12, r24
     4b6:	d9 1e       	adc	r13, r25
     4b8:	f6 01       	movw	r30, r12
     4ba:	60 81       	ld	r22, Z
     4bc:	71 81       	ldd	r23, Z+1	; 0x01
     4be:	82 81       	ldd	r24, Z+2	; 0x02
     4c0:	93 81       	ldd	r25, Z+3	; 0x03
     4c2:	a5 01       	movw	r20, r10
     4c4:	94 01       	movw	r18, r8
     4c6:	0e 94 62 39 	call	0x72c4	; 0x72c4 <__divsf3>
     4ca:	9b 01       	movw	r18, r22
     4cc:	ac 01       	movw	r20, r24
     4ce:	c8 01       	movw	r24, r16
     4d0:	b7 01       	movw	r22, r14
     4d2:	0e 94 42 3b 	call	0x7684	; 0x7684 <__mulsf3>
     4d6:	0e 94 ca 39 	call	0x7394	; 0x7394 <__fixsfsi>
     4da:	cb 01       	movw	r24, r22
	//else if(bits<0) bits = 0;
	//printf("BITS: %i", bits);
	//dxl_write_word( id, SERVO_GOAL_POSITION_L, bits );
	//printf("Id %d, Position: %f, PosBits = %d \n\f",id,position,bits);
	return bits;
}
     4dc:	1f 91       	pop	r17
     4de:	0f 91       	pop	r16
     4e0:	ff 90       	pop	r15
     4e2:	ef 90       	pop	r14
     4e4:	df 90       	pop	r13
     4e6:	cf 90       	pop	r12
     4e8:	bf 90       	pop	r11
     4ea:	af 90       	pop	r10
     4ec:	9f 90       	pop	r9
     4ee:	8f 90       	pop	r8
     4f0:	7f 90       	pop	r7
     4f2:	6f 90       	pop	r6
     4f4:	5f 90       	pop	r5
     4f6:	4f 90       	pop	r4
     4f8:	3f 90       	pop	r3
     4fa:	2f 90       	pop	r2
     4fc:	08 95       	ret

000004fe <SetTorque>:
}



int SetTorque(int id, float torque)
{
     4fe:	df 92       	push	r13
     500:	ef 92       	push	r14
     502:	ff 92       	push	r15
     504:	0f 93       	push	r16
     506:	1f 93       	push	r17
     508:	cf 93       	push	r28
     50a:	df 93       	push	r29
     50c:	7a 01       	movw	r14, r20
     50e:	8b 01       	movw	r16, r22
	int direction,bits,bitsF2;
	float bitsF;
	

	if(cw[id]==1)
     510:	fc 01       	movw	r30, r24
     512:	ee 0f       	add	r30, r30
     514:	ff 1f       	adc	r31, r31
     516:	ef 5f       	subi	r30, 0xFF	; 255
     518:	fe 4e       	sbci	r31, 0xEE	; 238
     51a:	80 81       	ld	r24, Z
     51c:	91 81       	ldd	r25, Z+1	; 0x01
     51e:	01 97       	sbiw	r24, 0x01	; 1
     520:	79 f4       	brne	.+30     	; 0x540 <SetTorque+0x42>
     522:	c0 e0       	ldi	r28, 0x00	; 0
     524:	d0 e0       	ldi	r29, 0x00	; 0
     526:	cb 01       	movw	r24, r22
     528:	ba 01       	movw	r22, r20
     52a:	20 e0       	ldi	r18, 0x00	; 0
     52c:	30 e0       	ldi	r19, 0x00	; 0
     52e:	40 e0       	ldi	r20, 0x00	; 0
     530:	50 e0       	ldi	r21, 0x00	; 0
     532:	0e 94 5b 39 	call	0x72b6	; 0x72b6 <__cmpsf2>
     536:	18 16       	cp	r1, r24
     538:	a4 f0       	brlt	.+40     	; 0x562 <SetTorque+0x64>
     53a:	c1 e0       	ldi	r28, 0x01	; 1
     53c:	d0 e0       	ldi	r29, 0x00	; 0
     53e:	11 c0       	rjmp	.+34     	; 0x562 <SetTorque+0x64>
     540:	dd 24       	eor	r13, r13
     542:	cb 01       	movw	r24, r22
     544:	ba 01       	movw	r22, r20
     546:	20 e0       	ldi	r18, 0x00	; 0
     548:	30 e0       	ldi	r19, 0x00	; 0
     54a:	40 e0       	ldi	r20, 0x00	; 0
     54c:	50 e0       	ldi	r21, 0x00	; 0
     54e:	0e 94 5b 39 	call	0x72b6	; 0x72b6 <__cmpsf2>
     552:	18 16       	cp	r1, r24
     554:	14 f0       	brlt	.+4      	; 0x55a <SetTorque+0x5c>
     556:	dd 24       	eor	r13, r13
     558:	d3 94       	inc	r13
     55a:	81 e0       	ldi	r24, 0x01	; 1
     55c:	d8 26       	eor	r13, r24
     55e:	cd 2d       	mov	r28, r13
     560:	d0 e0       	ldi	r29, 0x00	; 0
	{	
		if(torque<=0) {direction = 0;}
		else{direction = 1;}
	}
	
	torque = abs(torque);
     562:	c8 01       	movw	r24, r16
     564:	b7 01       	movw	r22, r14
     566:	0e 94 ca 39 	call	0x7394	; 0x7394 <__fixsfsi>
     56a:	9b 01       	movw	r18, r22
     56c:	77 ff       	sbrs	r23, 7
     56e:	03 c0       	rjmp	.+6      	; 0x576 <SetTorque+0x78>
     570:	30 95       	com	r19
     572:	21 95       	neg	r18
     574:	3f 4f       	sbci	r19, 0xFF	; 255
	
	bits = (int)(torque*(1023.0 / 100.0));
     576:	b9 01       	movw	r22, r18
     578:	88 27       	eor	r24, r24
     57a:	77 fd       	sbrc	r23, 7
     57c:	80 95       	com	r24
     57e:	98 2f       	mov	r25, r24
     580:	0e 94 fd 39 	call	0x73fa	; 0x73fa <__floatsisf>
     584:	24 e1       	ldi	r18, 0x14	; 20
     586:	3e ea       	ldi	r19, 0xAE	; 174
     588:	43 e2       	ldi	r20, 0x23	; 35
     58a:	51 e4       	ldi	r21, 0x41	; 65
     58c:	0e 94 42 3b 	call	0x7684	; 0x7684 <__mulsf3>
     590:	0e 94 ca 39 	call	0x7394	; 0x7394 <__fixsfsi>
     594:	9b 01       	movw	r18, r22
	
	//printf("torqueBits1: %d \n\r",bits);	
	
		
	
	if(bits>1023) bits = 1023;
     596:	44 e0       	ldi	r20, 0x04	; 4
     598:	60 30       	cpi	r22, 0x00	; 0
     59a:	74 07       	cpc	r23, r20
     59c:	1c f0       	brlt	.+6      	; 0x5a4 <SetTorque+0xa6>
     59e:	2f ef       	ldi	r18, 0xFF	; 255
     5a0:	33 e0       	ldi	r19, 0x03	; 3
     5a2:	05 c0       	rjmp	.+10     	; 0x5ae <SetTorque+0xb0>
	else if(bits<1) bits = 1;
     5a4:	16 16       	cp	r1, r22
     5a6:	17 06       	cpc	r1, r23
     5a8:	14 f0       	brlt	.+4      	; 0x5ae <SetTorque+0xb0>
     5aa:	21 e0       	ldi	r18, 0x01	; 1
     5ac:	30 e0       	ldi	r19, 0x00	; 0

	if(direction ==1){ bits = bits + 1024;}
     5ae:	21 97       	sbiw	r28, 0x01	; 1
     5b0:	11 f4       	brne	.+4      	; 0x5b6 <SetTorque+0xb8>
     5b2:	20 50       	subi	r18, 0x00	; 0
     5b4:	3c 4f       	sbci	r19, 0xFC	; 252

	//dxl_write_word( id, SERVO_PROG_SPEED , bits );
	return bits;
}
     5b6:	c9 01       	movw	r24, r18
     5b8:	df 91       	pop	r29
     5ba:	cf 91       	pop	r28
     5bc:	1f 91       	pop	r17
     5be:	0f 91       	pop	r16
     5c0:	ff 90       	pop	r15
     5c2:	ef 90       	pop	r14
     5c4:	df 90       	pop	r13
     5c6:	08 95       	ret

000005c8 <SetConstants>:


//////// ARM METHODS

void SetConstants()
{
     5c8:	cf 93       	push	r28
     5ca:	df 93       	push	r29
     5cc:	cf ed       	ldi	r28, 0xDF	; 223
     5ce:	db e0       	ldi	r29, 0x0B	; 11
     5d0:	20 e0       	ldi	r18, 0x00	; 0
     5d2:	30 e0       	ldi	r19, 0x00	; 0
	for(int i = 0;i<DOF;i++)
	{

		desiredQPosition[i] = 0;
     5d4:	80 e0       	ldi	r24, 0x00	; 0
     5d6:	90 e0       	ldi	r25, 0x00	; 0
     5d8:	a0 e0       	ldi	r26, 0x00	; 0
     5da:	b0 e0       	ldi	r27, 0x00	; 0
     5dc:	f9 01       	movw	r30, r18
     5de:	e0 5b       	subi	r30, 0xB0	; 176
     5e0:	fe 4e       	sbci	r31, 0xEE	; 238
     5e2:	80 83       	st	Z, r24
     5e4:	91 83       	std	Z+1, r25	; 0x01
     5e6:	a2 83       	std	Z+2, r26	; 0x02
     5e8:	b3 83       	std	Z+3, r27	; 0x03
		currentQPosition[i] = 0;
     5ea:	f9 01       	movw	r30, r18
     5ec:	eb 51       	subi	r30, 0x1B	; 27
     5ee:	ff 4e       	sbci	r31, 0xEF	; 239
     5f0:	80 83       	st	Z, r24
     5f2:	91 83       	std	Z+1, r25	; 0x01
     5f4:	a2 83       	std	Z+2, r26	; 0x02
     5f6:	b3 83       	std	Z+3, r27	; 0x03
		initialQPosition[i] = 0;
     5f8:	f9 01       	movw	r30, r18
     5fa:	e5 50       	subi	r30, 0x05	; 5
     5fc:	f5 4f       	sbci	r31, 0xF5	; 245
     5fe:	80 83       	st	Z, r24
     600:	91 83       	std	Z+1, r25	; 0x01
     602:	a2 83       	std	Z+2, r26	; 0x02
     604:	b3 83       	std	Z+3, r27	; 0x03
		desiredXPosition[i] = 0;
     606:	f9 01       	movw	r30, r18
     608:	ec 55       	subi	r30, 0x5C	; 92
     60a:	fe 4e       	sbci	r31, 0xEE	; 238
     60c:	80 83       	st	Z, r24
     60e:	91 83       	std	Z+1, r25	; 0x01
     610:	a2 83       	std	Z+2, r26	; 0x02
     612:	b3 83       	std	Z+3, r27	; 0x03
		currentXPosition[i] = 0;
     614:	f9 01       	movw	r30, r18
     616:	e1 5a       	subi	r30, 0xA1	; 161
     618:	f4 4f       	sbci	r31, 0xF4	; 244
     61a:	80 83       	st	Z, r24
     61c:	91 83       	std	Z+1, r25	; 0x01
     61e:	a2 83       	std	Z+2, r26	; 0x02
     620:	b3 83       	std	Z+3, r27	; 0x03
		lastPosition[i] = 0;
     622:	f9 01       	movw	r30, r18
     624:	e5 58       	subi	r30, 0x85	; 133
     626:	f4 4f       	sbci	r31, 0xF4	; 244
     628:	80 83       	st	Z, r24
     62a:	91 83       	std	Z+1, r25	; 0x01
     62c:	a2 83       	std	Z+2, r26	; 0x02
     62e:	b3 83       	std	Z+3, r27	; 0x03
		differentialPosition[i] = 0;
     630:	f9 01       	movw	r30, r18
     632:	e4 59       	subi	r30, 0x94	; 148
     634:	fe 4e       	sbci	r31, 0xEE	; 238
     636:	80 83       	st	Z, r24
     638:	91 83       	std	Z+1, r25	; 0x01
     63a:	a2 83       	std	Z+2, r26	; 0x02
     63c:	b3 83       	std	Z+3, r27	; 0x03
		for(int j = 0;j<4;j++)
		{
			LSPBcoef[i].value[j] = 0;
     63e:	88 83       	st	Y, r24
     640:	99 83       	std	Y+1, r25	; 0x01
     642:	aa 83       	std	Y+2, r26	; 0x02
     644:	bb 83       	std	Y+3, r27	; 0x03
     646:	8c 83       	std	Y+4, r24	; 0x04
     648:	9d 83       	std	Y+5, r25	; 0x05
     64a:	ae 83       	std	Y+6, r26	; 0x06
     64c:	bf 83       	std	Y+7, r27	; 0x07
     64e:	88 87       	std	Y+8, r24	; 0x08
     650:	99 87       	std	Y+9, r25	; 0x09
     652:	aa 87       	std	Y+10, r26	; 0x0a
     654:	bb 87       	std	Y+11, r27	; 0x0b
     656:	8c 87       	std	Y+12, r24	; 0x0c
     658:	9d 87       	std	Y+13, r25	; 0x0d
     65a:	ae 87       	std	Y+14, r26	; 0x0e
     65c:	bf 87       	std	Y+15, r27	; 0x0f
     65e:	2c 5f       	subi	r18, 0xFC	; 252
     660:	3f 4f       	sbci	r19, 0xFF	; 255
     662:	60 96       	adiw	r28, 0x10	; 16

//////// ARM METHODS

void SetConstants()
{
	for(int i = 0;i<DOF;i++)
     664:	2c 31       	cpi	r18, 0x1C	; 28
     666:	31 05       	cpc	r19, r1
     668:	09 f0       	breq	.+2      	; 0x66c <SetConstants+0xa4>
     66a:	b8 cf       	rjmp	.-144    	; 0x5dc <SetConstants+0x14>
		for(int j = 0;j<4;j++)
		{
			LSPBcoef[i].value[j] = 0;
		}	
	}
}
     66c:	df 91       	pop	r29
     66e:	cf 91       	pop	r28
     670:	08 95       	ret

00000672 <Absolute>:
	dxl_write_word( 17, SERVO_GOAL_POSITION_L, bits2);
	
}

float Absolute(float numero)
{
     672:	ef 92       	push	r14
     674:	ff 92       	push	r15
     676:	0f 93       	push	r16
     678:	1f 93       	push	r17
     67a:	7b 01       	movw	r14, r22
     67c:	8c 01       	movw	r16, r24
	if(numero <0) return -numero;
     67e:	20 e0       	ldi	r18, 0x00	; 0
     680:	30 e0       	ldi	r19, 0x00	; 0
     682:	40 e0       	ldi	r20, 0x00	; 0
     684:	50 e0       	ldi	r21, 0x00	; 0
     686:	0e 94 5b 39 	call	0x72b6	; 0x72b6 <__cmpsf2>
     68a:	88 23       	and	r24, r24
     68c:	24 f4       	brge	.+8      	; 0x696 <Absolute+0x24>
     68e:	17 fb       	bst	r17, 7
     690:	10 95       	com	r17
     692:	17 f9       	bld	r17, 7
     694:	10 95       	com	r17
	else return numero;
}
     696:	b7 01       	movw	r22, r14
     698:	c8 01       	movw	r24, r16
     69a:	1f 91       	pop	r17
     69c:	0f 91       	pop	r16
     69e:	ff 90       	pop	r15
     6a0:	ef 90       	pop	r14
     6a2:	08 95       	ret

000006a4 <multVMV>:
	desiredForce = perc;
	doGripper = 1;
}

float multVMV(vector4 a, matrix4 b, vector4 c)
{
     6a4:	2f 92       	push	r2
     6a6:	3f 92       	push	r3
     6a8:	4f 92       	push	r4
     6aa:	5f 92       	push	r5
     6ac:	6f 92       	push	r6
     6ae:	7f 92       	push	r7
     6b0:	8f 92       	push	r8
     6b2:	9f 92       	push	r9
     6b4:	af 92       	push	r10
     6b6:	bf 92       	push	r11
     6b8:	cf 92       	push	r12
     6ba:	df 92       	push	r13
     6bc:	ef 92       	push	r14
     6be:	ff 92       	push	r15
     6c0:	0f 93       	push	r16
     6c2:	1f 93       	push	r17
     6c4:	df 93       	push	r29
     6c6:	cf 93       	push	r28
     6c8:	cd b7       	in	r28, 0x3d	; 61
     6ca:	de b7       	in	r29, 0x3e	; 62
     6cc:	a0 97       	sbiw	r28, 0x20	; 32
     6ce:	0f b6       	in	r0, 0x3f	; 63
     6d0:	f8 94       	cli
     6d2:	de bf       	out	0x3e, r29	; 62
     6d4:	0f be       	out	0x3f, r0	; 63
     6d6:	cd bf       	out	0x3d, r28	; 61
     6d8:	a9 8a       	std	Y+17, r10	; 0x11
     6da:	ba 8a       	std	Y+18, r11	; 0x12
     6dc:	cb 8a       	std	Y+19, r12	; 0x13
     6de:	dc 8a       	std	Y+20, r13	; 0x14
     6e0:	ed 8a       	std	Y+21, r14	; 0x15
     6e2:	fe 8a       	std	Y+22, r15	; 0x16
     6e4:	0f 8b       	std	Y+23, r16	; 0x17
     6e6:	18 8f       	std	Y+24, r17	; 0x18
     6e8:	29 8f       	std	Y+25, r18	; 0x19
     6ea:	3a 8f       	std	Y+26, r19	; 0x1a
     6ec:	4b 8f       	std	Y+27, r20	; 0x1b
     6ee:	5c 8f       	std	Y+28, r21	; 0x1c
     6f0:	6d 8f       	std	Y+29, r22	; 0x1d
     6f2:	7e 8f       	std	Y+30, r23	; 0x1e
     6f4:	8f 8f       	std	Y+31, r24	; 0x1f
     6f6:	98 a3       	std	Y+32, r25	; 0x20
     6f8:	3e 01       	movw	r6, r28
     6fa:	08 94       	sec
     6fc:	61 1c       	adc	r6, r1
     6fe:	71 1c       	adc	r7, r1
     700:	23 01       	movw	r4, r6
     702:	88 24       	eor	r8, r8
     704:	99 24       	eor	r9, r9
	float temp, result;

		for(int k = 0;k<4;k++)
			{	
				temp = 0;
				for(int l = 0;l<4;l++)
     706:	e6 e7       	ldi	r30, 0x76	; 118
     708:	2e 2e       	mov	r2, r30
     70a:	31 2c       	mov	r3, r1
     70c:	2c 0e       	add	r2, r28
     70e:	3d 1e       	adc	r3, r29
     710:	80 e1       	ldi	r24, 0x10	; 16
     712:	90 e0       	ldi	r25, 0x00	; 0
     714:	28 0e       	add	r2, r24
     716:	39 1e       	adc	r3, r25
     718:	26 c0       	rjmp	.+76     	; 0x766 <multVMV+0xc2>
				{	
					temp += (b.value[k][l] * c.value[l]);
     71a:	f6 01       	movw	r30, r12
     71c:	61 91       	ld	r22, Z+
     71e:	71 91       	ld	r23, Z+
     720:	81 91       	ld	r24, Z+
     722:	91 91       	ld	r25, Z+
     724:	6f 01       	movw	r12, r30
     726:	f5 01       	movw	r30, r10
     728:	21 91       	ld	r18, Z+
     72a:	31 91       	ld	r19, Z+
     72c:	41 91       	ld	r20, Z+
     72e:	51 91       	ld	r21, Z+
     730:	5f 01       	movw	r10, r30
     732:	0e 94 42 3b 	call	0x7684	; 0x7684 <__mulsf3>
     736:	9b 01       	movw	r18, r22
     738:	ac 01       	movw	r20, r24
     73a:	c8 01       	movw	r24, r16
     73c:	b7 01       	movw	r22, r14
     73e:	0e 94 7e 38 	call	0x70fc	; 0x70fc <__addsf3>
     742:	7b 01       	movw	r14, r22
     744:	8c 01       	movw	r16, r24
	float temp, result;

		for(int k = 0;k<4;k++)
			{	
				temp = 0;
				for(int l = 0;l<4;l++)
     746:	a2 14       	cp	r10, r2
     748:	b3 04       	cpc	r11, r3
     74a:	39 f7       	brne	.-50     	; 0x71a <multVMV+0x76>
				{	
					temp += (b.value[k][l] * c.value[l]);
				}
				partial.value[k] = temp;
     74c:	f2 01       	movw	r30, r4
     74e:	61 93       	st	Z+, r22
     750:	71 93       	st	Z+, r23
     752:	81 93       	st	Z+, r24
     754:	91 93       	st	Z+, r25
     756:	2f 01       	movw	r4, r30

	//float temp[4];
	vector4 partial;
	float temp, result;

		for(int k = 0;k<4;k++)
     758:	08 94       	sec
     75a:	81 1c       	adc	r8, r1
     75c:	91 1c       	adc	r9, r1
     75e:	f4 e0       	ldi	r31, 0x04	; 4
     760:	8f 16       	cp	r8, r31
     762:	91 04       	cpc	r9, r1
     764:	e1 f0       	breq	.+56     	; 0x79e <multVMV+0xfa>
     766:	64 01       	movw	r12, r8
     768:	74 e0       	ldi	r23, 0x04	; 4
     76a:	cc 0c       	add	r12, r12
     76c:	dd 1c       	adc	r13, r13
     76e:	7a 95       	dec	r23
     770:	e1 f7       	brne	.-8      	; 0x76a <multVMV+0xc6>
     772:	86 e3       	ldi	r24, 0x36	; 54
     774:	90 e0       	ldi	r25, 0x00	; 0
     776:	8c 0f       	add	r24, r28
     778:	9d 1f       	adc	r25, r29
     77a:	c8 0e       	add	r12, r24
     77c:	d9 1e       	adc	r13, r25
     77e:	66 e7       	ldi	r22, 0x76	; 118
     780:	a6 2e       	mov	r10, r22
     782:	b1 2c       	mov	r11, r1
     784:	ac 0e       	add	r10, r28
     786:	bd 1e       	adc	r11, r29
     788:	0f 2e       	mov	r0, r31
     78a:	f0 e0       	ldi	r31, 0x00	; 0
     78c:	ef 2e       	mov	r14, r31
     78e:	f0 e0       	ldi	r31, 0x00	; 0
     790:	ff 2e       	mov	r15, r31
     792:	f0 e0       	ldi	r31, 0x00	; 0
     794:	0f 2f       	mov	r16, r31
     796:	f0 e0       	ldi	r31, 0x00	; 0
     798:	1f 2f       	mov	r17, r31
     79a:	f0 2d       	mov	r31, r0
     79c:	be cf       	rjmp	.-132    	; 0x71a <multVMV+0x76>
     79e:	51 e1       	ldi	r21, 0x11	; 17
     7a0:	c5 2e       	mov	r12, r21
     7a2:	d1 2c       	mov	r13, r1
     7a4:	cc 0e       	add	r12, r28
     7a6:	dd 1e       	adc	r13, r29
     7a8:	0f 2e       	mov	r0, r31
     7aa:	f0 e0       	ldi	r31, 0x00	; 0
     7ac:	ef 2e       	mov	r14, r31
     7ae:	f0 e0       	ldi	r31, 0x00	; 0
     7b0:	ff 2e       	mov	r15, r31
     7b2:	f0 e0       	ldi	r31, 0x00	; 0
     7b4:	0f 2f       	mov	r16, r31
     7b6:	f0 e0       	ldi	r31, 0x00	; 0
     7b8:	1f 2f       	mov	r17, r31
     7ba:	f0 2d       	mov	r31, r0
				}
				partial.value[k] = temp;
			}
			
		result = 0;
		for(int l = 0;l<4;l++)
     7bc:	41 e2       	ldi	r20, 0x21	; 33
     7be:	a4 2e       	mov	r10, r20
     7c0:	b1 2c       	mov	r11, r1
     7c2:	ac 0e       	add	r10, r28
     7c4:	bd 1e       	adc	r11, r29
			{	
				result += (a.value[l] * partial.value[l]);
     7c6:	f6 01       	movw	r30, r12
     7c8:	61 91       	ld	r22, Z+
     7ca:	71 91       	ld	r23, Z+
     7cc:	81 91       	ld	r24, Z+
     7ce:	91 91       	ld	r25, Z+
     7d0:	6f 01       	movw	r12, r30
     7d2:	f3 01       	movw	r30, r6
     7d4:	21 91       	ld	r18, Z+
     7d6:	31 91       	ld	r19, Z+
     7d8:	41 91       	ld	r20, Z+
     7da:	51 91       	ld	r21, Z+
     7dc:	3f 01       	movw	r6, r30
     7de:	0e 94 42 3b 	call	0x7684	; 0x7684 <__mulsf3>
     7e2:	9b 01       	movw	r18, r22
     7e4:	ac 01       	movw	r20, r24
     7e6:	c8 01       	movw	r24, r16
     7e8:	b7 01       	movw	r22, r14
     7ea:	0e 94 7e 38 	call	0x70fc	; 0x70fc <__addsf3>
     7ee:	7b 01       	movw	r14, r22
     7f0:	8c 01       	movw	r16, r24
				}
				partial.value[k] = temp;
			}
			
		result = 0;
		for(int l = 0;l<4;l++)
     7f2:	ca 14       	cp	r12, r10
     7f4:	db 04       	cpc	r13, r11
     7f6:	39 f7       	brne	.-50     	; 0x7c6 <multVMV+0x122>
			{	
				result += (a.value[l] * partial.value[l]);
			}
		return result;
}
     7f8:	c8 01       	movw	r24, r16
     7fa:	a0 96       	adiw	r28, 0x20	; 32
     7fc:	0f b6       	in	r0, 0x3f	; 63
     7fe:	f8 94       	cli
     800:	de bf       	out	0x3e, r29	; 62
     802:	0f be       	out	0x3f, r0	; 63
     804:	cd bf       	out	0x3d, r28	; 61
     806:	cf 91       	pop	r28
     808:	df 91       	pop	r29
     80a:	1f 91       	pop	r17
     80c:	0f 91       	pop	r16
     80e:	ff 90       	pop	r15
     810:	ef 90       	pop	r14
     812:	df 90       	pop	r13
     814:	cf 90       	pop	r12
     816:	bf 90       	pop	r11
     818:	af 90       	pop	r10
     81a:	9f 90       	pop	r9
     81c:	8f 90       	pop	r8
     81e:	7f 90       	pop	r7
     820:	6f 90       	pop	r6
     822:	5f 90       	pop	r5
     824:	4f 90       	pop	r4
     826:	3f 90       	pop	r3
     828:	2f 90       	pop	r2
     82a:	08 95       	ret

0000082c <multMV>:


vector4 multMV(matrix4 b, vector4 c)
{
     82c:	2f 92       	push	r2
     82e:	3f 92       	push	r3
     830:	4f 92       	push	r4
     832:	5f 92       	push	r5
     834:	6f 92       	push	r6
     836:	7f 92       	push	r7
     838:	8f 92       	push	r8
     83a:	9f 92       	push	r9
     83c:	af 92       	push	r10
     83e:	bf 92       	push	r11
     840:	cf 92       	push	r12
     842:	df 92       	push	r13
     844:	ef 92       	push	r14
     846:	ff 92       	push	r15
     848:	0f 93       	push	r16
     84a:	1f 93       	push	r17
     84c:	df 93       	push	r29
     84e:	cf 93       	push	r28
     850:	cd b7       	in	r28, 0x3d	; 61
     852:	de b7       	in	r29, 0x3e	; 62
     854:	62 97       	sbiw	r28, 0x12	; 18
     856:	0f b6       	in	r0, 0x3f	; 63
     858:	f8 94       	cli
     85a:	de bf       	out	0x3e, r29	; 62
     85c:	0f be       	out	0x3f, r0	; 63
     85e:	cd bf       	out	0x3d, r28	; 61
     860:	89 8b       	std	Y+17, r24	; 0x11
     862:	9a 8b       	std	Y+18, r25	; 0x12
     864:	3e 01       	movw	r6, r28
     866:	08 94       	sec
     868:	61 1c       	adc	r6, r1
     86a:	71 1c       	adc	r7, r1
     86c:	88 24       	eor	r8, r8
     86e:	99 24       	eor	r9, r9

	//float temp[4];
	vector4 partial;
	float temp, result;

		for(int k = 0;k<4;k++)
     870:	b8 e6       	ldi	r27, 0x68	; 104
     872:	2b 2e       	mov	r2, r27
     874:	31 2c       	mov	r3, r1
     876:	2c 0e       	add	r2, r28
     878:	3d 1e       	adc	r3, r29
			{	
				temp = 0;
				for(int l = 0;l<4;l++)
     87a:	a0 e1       	ldi	r26, 0x10	; 16
     87c:	4a 2e       	mov	r4, r26
     87e:	51 2c       	mov	r5, r1
     880:	42 0c       	add	r4, r2
     882:	53 1c       	adc	r5, r3
     884:	26 c0       	rjmp	.+76     	; 0x8d2 <multMV+0xa6>
				{	
					temp += (b.value[k][l] * c.value[l]);
     886:	f6 01       	movw	r30, r12
     888:	61 91       	ld	r22, Z+
     88a:	71 91       	ld	r23, Z+
     88c:	81 91       	ld	r24, Z+
     88e:	91 91       	ld	r25, Z+
     890:	6f 01       	movw	r12, r30
     892:	f5 01       	movw	r30, r10
     894:	21 91       	ld	r18, Z+
     896:	31 91       	ld	r19, Z+
     898:	41 91       	ld	r20, Z+
     89a:	51 91       	ld	r21, Z+
     89c:	5f 01       	movw	r10, r30
     89e:	0e 94 42 3b 	call	0x7684	; 0x7684 <__mulsf3>
     8a2:	9b 01       	movw	r18, r22
     8a4:	ac 01       	movw	r20, r24
     8a6:	c8 01       	movw	r24, r16
     8a8:	b7 01       	movw	r22, r14
     8aa:	0e 94 7e 38 	call	0x70fc	; 0x70fc <__addsf3>
     8ae:	7b 01       	movw	r14, r22
     8b0:	8c 01       	movw	r16, r24
	float temp, result;

		for(int k = 0;k<4;k++)
			{	
				temp = 0;
				for(int l = 0;l<4;l++)
     8b2:	a4 14       	cp	r10, r4
     8b4:	b5 04       	cpc	r11, r5
     8b6:	39 f7       	brne	.-50     	; 0x886 <multMV+0x5a>
				{	
					temp += (b.value[k][l] * c.value[l]);
				}
				partial.value[k] = temp;
     8b8:	f3 01       	movw	r30, r6
     8ba:	61 93       	st	Z+, r22
     8bc:	71 93       	st	Z+, r23
     8be:	81 93       	st	Z+, r24
     8c0:	91 93       	st	Z+, r25
     8c2:	3f 01       	movw	r6, r30

	//float temp[4];
	vector4 partial;
	float temp, result;

		for(int k = 0;k<4;k++)
     8c4:	08 94       	sec
     8c6:	81 1c       	adc	r8, r1
     8c8:	91 1c       	adc	r9, r1
     8ca:	f4 e0       	ldi	r31, 0x04	; 4
     8cc:	8f 16       	cp	r8, r31
     8ce:	91 04       	cpc	r9, r1
     8d0:	c1 f0       	breq	.+48     	; 0x902 <multMV+0xd6>
     8d2:	64 01       	movw	r12, r8
     8d4:	f4 e0       	ldi	r31, 0x04	; 4
     8d6:	cc 0c       	add	r12, r12
     8d8:	dd 1c       	adc	r13, r13
     8da:	fa 95       	dec	r31
     8dc:	e1 f7       	brne	.-8      	; 0x8d6 <multMV+0xaa>
     8de:	88 e2       	ldi	r24, 0x28	; 40
     8e0:	90 e0       	ldi	r25, 0x00	; 0
     8e2:	8c 0f       	add	r24, r28
     8e4:	9d 1f       	adc	r25, r29
     8e6:	c8 0e       	add	r12, r24
     8e8:	d9 1e       	adc	r13, r25
     8ea:	51 01       	movw	r10, r2
     8ec:	0f 2e       	mov	r0, r31
     8ee:	f0 e0       	ldi	r31, 0x00	; 0
     8f0:	ef 2e       	mov	r14, r31
     8f2:	f0 e0       	ldi	r31, 0x00	; 0
     8f4:	ff 2e       	mov	r15, r31
     8f6:	f0 e0       	ldi	r31, 0x00	; 0
     8f8:	0f 2f       	mov	r16, r31
     8fa:	f0 e0       	ldi	r31, 0x00	; 0
     8fc:	1f 2f       	mov	r17, r31
     8fe:	f0 2d       	mov	r31, r0
     900:	c2 cf       	rjmp	.-124    	; 0x886 <multMV+0x5a>
		//for(int l = 0;l<4;l++)
		//	{	
		//		result += (a.value[l] * partial.value[l]);
		//	}
		//return result;
		return partial;
     902:	89 89       	ldd	r24, Y+17	; 0x11
     904:	9a 89       	ldd	r25, Y+18	; 0x12
     906:	9c 01       	movw	r18, r24
     908:	d9 01       	movw	r26, r18
     90a:	fe 01       	movw	r30, r28
     90c:	31 96       	adiw	r30, 0x01	; 1
     90e:	80 e1       	ldi	r24, 0x10	; 16
     910:	01 90       	ld	r0, Z+
     912:	0d 92       	st	X+, r0
     914:	81 50       	subi	r24, 0x01	; 1
     916:	e1 f7       	brne	.-8      	; 0x910 <multMV+0xe4>

}
     918:	89 89       	ldd	r24, Y+17	; 0x11
     91a:	9a 89       	ldd	r25, Y+18	; 0x12
     91c:	62 96       	adiw	r28, 0x12	; 18
     91e:	0f b6       	in	r0, 0x3f	; 63
     920:	f8 94       	cli
     922:	de bf       	out	0x3e, r29	; 62
     924:	0f be       	out	0x3f, r0	; 63
     926:	cd bf       	out	0x3d, r28	; 61
     928:	cf 91       	pop	r28
     92a:	df 91       	pop	r29
     92c:	1f 91       	pop	r17
     92e:	0f 91       	pop	r16
     930:	ff 90       	pop	r15
     932:	ef 90       	pop	r14
     934:	df 90       	pop	r13
     936:	cf 90       	pop	r12
     938:	bf 90       	pop	r11
     93a:	af 90       	pop	r10
     93c:	9f 90       	pop	r9
     93e:	8f 90       	pop	r8
     940:	7f 90       	pop	r7
     942:	6f 90       	pop	r6
     944:	5f 90       	pop	r5
     946:	4f 90       	pop	r4
     948:	3f 90       	pop	r3
     94a:	2f 90       	pop	r2
     94c:	08 95       	ret

0000094e <mult>:

matrix4 mult(matrix4 a, matrix4 b)
{
     94e:	2f 92       	push	r2
     950:	3f 92       	push	r3
     952:	4f 92       	push	r4
     954:	5f 92       	push	r5
     956:	6f 92       	push	r6
     958:	7f 92       	push	r7
     95a:	8f 92       	push	r8
     95c:	9f 92       	push	r9
     95e:	af 92       	push	r10
     960:	bf 92       	push	r11
     962:	cf 92       	push	r12
     964:	df 92       	push	r13
     966:	ef 92       	push	r14
     968:	ff 92       	push	r15
     96a:	0f 93       	push	r16
     96c:	1f 93       	push	r17
     96e:	df 93       	push	r29
     970:	cf 93       	push	r28
     972:	cd b7       	in	r28, 0x3d	; 61
     974:	de b7       	in	r29, 0x3e	; 62
     976:	c6 55       	subi	r28, 0x56	; 86
     978:	d0 40       	sbci	r29, 0x00	; 0
     97a:	0f b6       	in	r0, 0x3f	; 63
     97c:	f8 94       	cli
     97e:	de bf       	out	0x3e, r29	; 62
     980:	0f be       	out	0x3f, r0	; 63
     982:	cd bf       	out	0x3d, r28	; 61
     984:	66 96       	adiw	r28, 0x16	; 22
     986:	8f af       	std	Y+63, r24	; 0x3f
     988:	66 97       	sbiw	r28, 0x16	; 22
     98a:	67 96       	adiw	r28, 0x17	; 23
     98c:	9f af       	std	Y+63, r25	; 0x3f
     98e:	67 97       	sbiw	r28, 0x17	; 23
     990:	fe 01       	movw	r30, r28
     992:	71 96       	adiw	r30, 0x11	; 17
     994:	9e 01       	movw	r18, r28
     996:	2f 5f       	subi	r18, 0xFF	; 255
     998:	3f 4f       	sbci	r19, 0xFF	; 255
	float temp[4];
	matrix4 response;
	
	for(int j = 0; j<4;j++)
		{
		temp[j] = 0;
     99a:	0f 2e       	mov	r0, r31
     99c:	f0 e0       	ldi	r31, 0x00	; 0
     99e:	ef 2e       	mov	r14, r31
     9a0:	f0 e0       	ldi	r31, 0x00	; 0
     9a2:	ff 2e       	mov	r15, r31
     9a4:	f0 e0       	ldi	r31, 0x00	; 0
     9a6:	0f 2f       	mov	r16, r31
     9a8:	f0 e0       	ldi	r31, 0x00	; 0
     9aa:	1f 2f       	mov	r17, r31
     9ac:	f0 2d       	mov	r31, r0
matrix4 mult(matrix4 a, matrix4 b)
{
	float temp[4];
	matrix4 response;
	
	for(int j = 0; j<4;j++)
     9ae:	af 01       	movw	r20, r30
		{
		temp[j] = 0;
     9b0:	d9 01       	movw	r26, r18
     9b2:	ed 92       	st	X+, r14
     9b4:	fd 92       	st	X+, r15
     9b6:	0d 93       	st	X+, r16
     9b8:	1d 93       	st	X+, r17
     9ba:	9d 01       	movw	r18, r26
			for(int k = 0;k<4;k++)
			{
				response.value[j][k] = 0.0f;
     9bc:	e0 82       	st	Z, r14
     9be:	f1 82       	std	Z+1, r15	; 0x01
     9c0:	02 83       	std	Z+2, r16	; 0x02
     9c2:	13 83       	std	Z+3, r17	; 0x03
     9c4:	e4 82       	std	Z+4, r14	; 0x04
     9c6:	f5 82       	std	Z+5, r15	; 0x05
     9c8:	06 83       	std	Z+6, r16	; 0x06
     9ca:	17 83       	std	Z+7, r17	; 0x07
     9cc:	e0 86       	std	Z+8, r14	; 0x08
     9ce:	f1 86       	std	Z+9, r15	; 0x09
     9d0:	02 87       	std	Z+10, r16	; 0x0a
     9d2:	13 87       	std	Z+11, r17	; 0x0b
     9d4:	e4 86       	std	Z+12, r14	; 0x0c
     9d6:	f5 86       	std	Z+13, r15	; 0x0d
     9d8:	06 87       	std	Z+14, r16	; 0x0e
     9da:	17 87       	std	Z+15, r17	; 0x0f
     9dc:	70 96       	adiw	r30, 0x10	; 16
matrix4 mult(matrix4 a, matrix4 b)
{
	float temp[4];
	matrix4 response;
	
	for(int j = 0; j<4;j++)
     9de:	a4 17       	cp	r26, r20
     9e0:	b5 07       	cpc	r27, r21
     9e2:	31 f7       	brne	.-52     	; 0x9b0 <mult+0x62>
     9e4:	fe 01       	movw	r30, r28
     9e6:	75 96       	adiw	r30, 0x15	; 21
     9e8:	63 96       	adiw	r28, 0x13	; 19
     9ea:	ff af       	std	Y+63, r31	; 0x3f
     9ec:	ee af       	std	Y+62, r30	; 0x3e
     9ee:	63 97       	sbiw	r28, 0x13	; 19
     9f0:	22 24       	eor	r2, r2
     9f2:	33 24       	eor	r3, r3
     9f4:	86 c0       	rjmp	.+268    	; 0xb02 <mult+0x1b4>
			}
			for(int k = 0;k<4;k++)
			{
				for(int l = 0;l<4;l++)
				{	
					temp[k] += (a.value[j][l] * b.value[l][k]);
     9f6:	65 96       	adiw	r28, 0x15	; 21
     9f8:	ae ad       	ldd	r26, Y+62	; 0x3e
     9fa:	bf ad       	ldd	r27, Y+63	; 0x3f
     9fc:	65 97       	sbiw	r28, 0x15	; 21
     9fe:	6d 91       	ld	r22, X+
     a00:	7d 91       	ld	r23, X+
     a02:	8d 91       	ld	r24, X+
     a04:	9d 91       	ld	r25, X+
     a06:	65 96       	adiw	r28, 0x15	; 21
     a08:	bf af       	std	Y+63, r27	; 0x3f
     a0a:	ae af       	std	Y+62, r26	; 0x3e
     a0c:	65 97       	sbiw	r28, 0x15	; 21
     a0e:	f6 01       	movw	r30, r12
     a10:	20 81       	ld	r18, Z
     a12:	31 81       	ldd	r19, Z+1	; 0x01
     a14:	42 81       	ldd	r20, Z+2	; 0x02
     a16:	53 81       	ldd	r21, Z+3	; 0x03
     a18:	0e 94 42 3b 	call	0x7684	; 0x7684 <__mulsf3>
     a1c:	9b 01       	movw	r18, r22
     a1e:	ac 01       	movw	r20, r24
     a20:	c8 01       	movw	r24, r16
     a22:	b7 01       	movw	r22, r14
     a24:	0e 94 7e 38 	call	0x70fc	; 0x70fc <__addsf3>
     a28:	7b 01       	movw	r14, r22
     a2a:	8c 01       	movw	r16, r24
			{
				temp[h] = 0;
			}
			for(int k = 0;k<4;k++)
			{
				for(int l = 0;l<4;l++)
     a2c:	08 94       	sec
     a2e:	a1 1c       	adc	r10, r1
     a30:	b1 1c       	adc	r11, r1
     a32:	80 e1       	ldi	r24, 0x10	; 16
     a34:	90 e0       	ldi	r25, 0x00	; 0
     a36:	c8 0e       	add	r12, r24
     a38:	d9 1e       	adc	r13, r25
     a3a:	94 e0       	ldi	r25, 0x04	; 4
     a3c:	a9 16       	cp	r10, r25
     a3e:	b1 04       	cpc	r11, r1
     a40:	d1 f6       	brne	.-76     	; 0x9f6 <mult+0xa8>
     a42:	d2 01       	movw	r26, r4
     a44:	ed 92       	st	X+, r14
     a46:	fd 92       	st	X+, r15
     a48:	0d 93       	st	X+, r16
     a4a:	1d 93       	st	X+, r17
     a4c:	2d 01       	movw	r4, r26
		{	
			for(int h = 0; h <4 ;h++)
			{
				temp[h] = 0;
			}
			for(int k = 0;k<4;k++)
     a4e:	08 94       	sec
     a50:	81 1c       	adc	r8, r1
     a52:	91 1c       	adc	r9, r1
     a54:	b4 e0       	ldi	r27, 0x04	; 4
     a56:	8b 16       	cp	r8, r27
     a58:	91 04       	cpc	r9, r1
     a5a:	b9 f0       	breq	.+46     	; 0xa8a <mult+0x13c>
     a5c:	f2 01       	movw	r30, r4
     a5e:	e0 80       	ld	r14, Z
     a60:	f1 80       	ldd	r15, Z+1	; 0x01
     a62:	02 81       	ldd	r16, Z+2	; 0x02
     a64:	13 81       	ldd	r17, Z+3	; 0x03
     a66:	65 96       	adiw	r28, 0x15	; 21
     a68:	7f ae       	std	Y+63, r7	; 0x3f
     a6a:	6e ae       	std	Y+62, r6	; 0x3e
     a6c:	65 97       	sbiw	r28, 0x15	; 21
     a6e:	64 01       	movw	r12, r8
     a70:	cc 0c       	add	r12, r12
     a72:	dd 1c       	adc	r13, r13
     a74:	cc 0c       	add	r12, r12
     a76:	dd 1c       	adc	r13, r13
     a78:	8c ea       	ldi	r24, 0xAC	; 172
     a7a:	90 e0       	ldi	r25, 0x00	; 0
     a7c:	8c 0f       	add	r24, r28
     a7e:	9d 1f       	adc	r25, r29
     a80:	c8 0e       	add	r12, r24
     a82:	d9 1e       	adc	r13, r25
     a84:	aa 24       	eor	r10, r10
     a86:	bb 24       	eor	r11, r11
     a88:	b6 cf       	rjmp	.-148    	; 0x9f6 <mult+0xa8>
					temp[k] += (a.value[j][l] * b.value[l][k]);
				}
			}
			for(int h = 0; h <4 ;h++)
			{
				response.value[j][h] = temp[h];
     a8a:	f1 01       	movw	r30, r2
     a8c:	04 e0       	ldi	r16, 0x04	; 4
     a8e:	ee 0f       	add	r30, r30
     a90:	ff 1f       	adc	r31, r31
     a92:	0a 95       	dec	r16
     a94:	e1 f7       	brne	.-8      	; 0xa8e <mult+0x140>
     a96:	a1 e0       	ldi	r26, 0x01	; 1
     a98:	b0 e0       	ldi	r27, 0x00	; 0
     a9a:	ac 0f       	add	r26, r28
     a9c:	bd 1f       	adc	r27, r29
     a9e:	ea 0f       	add	r30, r26
     aa0:	fb 1f       	adc	r31, r27
     aa2:	89 81       	ldd	r24, Y+1	; 0x01
     aa4:	9a 81       	ldd	r25, Y+2	; 0x02
     aa6:	ab 81       	ldd	r26, Y+3	; 0x03
     aa8:	bc 81       	ldd	r27, Y+4	; 0x04
     aaa:	80 8b       	std	Z+16, r24	; 0x10
     aac:	91 8b       	std	Z+17, r25	; 0x11
     aae:	a2 8b       	std	Z+18, r26	; 0x12
     ab0:	b3 8b       	std	Z+19, r27	; 0x13
     ab2:	8d 81       	ldd	r24, Y+5	; 0x05
     ab4:	9e 81       	ldd	r25, Y+6	; 0x06
     ab6:	af 81       	ldd	r26, Y+7	; 0x07
     ab8:	b8 85       	ldd	r27, Y+8	; 0x08
     aba:	63 96       	adiw	r28, 0x13	; 19
     abc:	ee ad       	ldd	r30, Y+62	; 0x3e
     abe:	ff ad       	ldd	r31, Y+63	; 0x3f
     ac0:	63 97       	sbiw	r28, 0x13	; 19
     ac2:	80 83       	st	Z, r24
     ac4:	91 83       	std	Z+1, r25	; 0x01
     ac6:	a2 83       	std	Z+2, r26	; 0x02
     ac8:	b3 83       	std	Z+3, r27	; 0x03
     aca:	89 85       	ldd	r24, Y+9	; 0x09
     acc:	9a 85       	ldd	r25, Y+10	; 0x0a
     ace:	ab 85       	ldd	r26, Y+11	; 0x0b
     ad0:	bc 85       	ldd	r27, Y+12	; 0x0c
     ad2:	84 83       	std	Z+4, r24	; 0x04
     ad4:	95 83       	std	Z+5, r25	; 0x05
     ad6:	a6 83       	std	Z+6, r26	; 0x06
     ad8:	b7 83       	std	Z+7, r27	; 0x07
     ada:	8d 85       	ldd	r24, Y+13	; 0x0d
     adc:	9e 85       	ldd	r25, Y+14	; 0x0e
     ade:	af 85       	ldd	r26, Y+15	; 0x0f
     ae0:	b8 89       	ldd	r27, Y+16	; 0x10
     ae2:	80 87       	std	Z+8, r24	; 0x08
     ae4:	91 87       	std	Z+9, r25	; 0x09
     ae6:	a2 87       	std	Z+10, r26	; 0x0a
     ae8:	b3 87       	std	Z+11, r27	; 0x0b
				//printf("%i %i %f \n ",j,k,response.value[j][k]);
			}

		}

	for(int j = 0;j<4;j++)
     aea:	08 94       	sec
     aec:	21 1c       	adc	r2, r1
     aee:	31 1c       	adc	r3, r1
     af0:	70 96       	adiw	r30, 0x10	; 16
     af2:	63 96       	adiw	r28, 0x13	; 19
     af4:	ff af       	std	Y+63, r31	; 0x3f
     af6:	ee af       	std	Y+62, r30	; 0x3e
     af8:	63 97       	sbiw	r28, 0x13	; 19
     afa:	f4 e0       	ldi	r31, 0x04	; 4
     afc:	2f 16       	cp	r2, r31
     afe:	31 04       	cpc	r3, r1
     b00:	39 f1       	breq	.+78     	; 0xb50 <mult+0x202>
		{	
			for(int h = 0; h <4 ;h++)
			{
				temp[h] = 0;
     b02:	80 e0       	ldi	r24, 0x00	; 0
     b04:	90 e0       	ldi	r25, 0x00	; 0
     b06:	a0 e0       	ldi	r26, 0x00	; 0
     b08:	b0 e0       	ldi	r27, 0x00	; 0
     b0a:	89 83       	std	Y+1, r24	; 0x01
     b0c:	9a 83       	std	Y+2, r25	; 0x02
     b0e:	ab 83       	std	Y+3, r26	; 0x03
     b10:	bc 83       	std	Y+4, r27	; 0x04
     b12:	8d 83       	std	Y+5, r24	; 0x05
     b14:	9e 83       	std	Y+6, r25	; 0x06
     b16:	af 83       	std	Y+7, r26	; 0x07
     b18:	b8 87       	std	Y+8, r27	; 0x08
     b1a:	89 87       	std	Y+9, r24	; 0x09
     b1c:	9a 87       	std	Y+10, r25	; 0x0a
     b1e:	ab 87       	std	Y+11, r26	; 0x0b
     b20:	bc 87       	std	Y+12, r27	; 0x0c
     b22:	8d 87       	std	Y+13, r24	; 0x0d
     b24:	9e 87       	std	Y+14, r25	; 0x0e
     b26:	af 87       	std	Y+15, r26	; 0x0f
     b28:	b8 8b       	std	Y+16, r27	; 0x10
     b2a:	2e 01       	movw	r4, r28
     b2c:	08 94       	sec
     b2e:	41 1c       	adc	r4, r1
     b30:	51 1c       	adc	r5, r1
     b32:	88 24       	eor	r8, r8
     b34:	99 24       	eor	r9, r9
			}
			for(int k = 0;k<4;k++)
     b36:	31 01       	movw	r6, r2
     b38:	14 e0       	ldi	r17, 0x04	; 4
     b3a:	66 0c       	add	r6, r6
     b3c:	77 1c       	adc	r7, r7
     b3e:	1a 95       	dec	r17
     b40:	e1 f7       	brne	.-8      	; 0xb3a <mult+0x1ec>
     b42:	ac e6       	ldi	r26, 0x6C	; 108
     b44:	b0 e0       	ldi	r27, 0x00	; 0
     b46:	ac 0f       	add	r26, r28
     b48:	bd 1f       	adc	r27, r29
     b4a:	6a 0e       	add	r6, r26
     b4c:	7b 1e       	adc	r7, r27
     b4e:	86 cf       	rjmp	.-244    	; 0xa5c <mult+0x10e>
				response.value[j][h] = temp[h];
				
			}		
		}	

		return response;
     b50:	66 96       	adiw	r28, 0x16	; 22
     b52:	8f ad       	ldd	r24, Y+63	; 0x3f
     b54:	66 97       	sbiw	r28, 0x16	; 22
     b56:	67 96       	adiw	r28, 0x17	; 23
     b58:	9f ad       	ldd	r25, Y+63	; 0x3f
     b5a:	67 97       	sbiw	r28, 0x17	; 23
     b5c:	9c 01       	movw	r18, r24
     b5e:	d9 01       	movw	r26, r18
     b60:	fe 01       	movw	r30, r28
     b62:	71 96       	adiw	r30, 0x11	; 17
     b64:	80 e4       	ldi	r24, 0x40	; 64
     b66:	01 90       	ld	r0, Z+
     b68:	0d 92       	st	X+, r0
     b6a:	81 50       	subi	r24, 0x01	; 1
     b6c:	e1 f7       	brne	.-8      	; 0xb66 <mult+0x218>

}
     b6e:	66 96       	adiw	r28, 0x16	; 22
     b70:	8f ad       	ldd	r24, Y+63	; 0x3f
     b72:	66 97       	sbiw	r28, 0x16	; 22
     b74:	67 96       	adiw	r28, 0x17	; 23
     b76:	9f ad       	ldd	r25, Y+63	; 0x3f
     b78:	67 97       	sbiw	r28, 0x17	; 23
     b7a:	ca 5a       	subi	r28, 0xAA	; 170
     b7c:	df 4f       	sbci	r29, 0xFF	; 255
     b7e:	0f b6       	in	r0, 0x3f	; 63
     b80:	f8 94       	cli
     b82:	de bf       	out	0x3e, r29	; 62
     b84:	0f be       	out	0x3f, r0	; 63
     b86:	cd bf       	out	0x3d, r28	; 61
     b88:	cf 91       	pop	r28
     b8a:	df 91       	pop	r29
     b8c:	1f 91       	pop	r17
     b8e:	0f 91       	pop	r16
     b90:	ff 90       	pop	r15
     b92:	ef 90       	pop	r14
     b94:	df 90       	pop	r13
     b96:	cf 90       	pop	r12
     b98:	bf 90       	pop	r11
     b9a:	af 90       	pop	r10
     b9c:	9f 90       	pop	r9
     b9e:	8f 90       	pop	r8
     ba0:	7f 90       	pop	r7
     ba2:	6f 90       	pop	r6
     ba4:	5f 90       	pop	r5
     ba6:	4f 90       	pop	r4
     ba8:	3f 90       	pop	r3
     baa:	2f 90       	pop	r2
     bac:	08 95       	ret

00000bae <SetKConstants>:


//////// METHODS

void SetKConstants()
{
     bae:	ef 92       	push	r14
     bb0:	ff 92       	push	r15
     bb2:	0f 93       	push	r16
     bb4:	1f 93       	push	r17
     bb6:	cf 93       	push	r28
     bb8:	df 93       	push	r29
     bba:	00 e0       	ldi	r16, 0x00	; 0
     bbc:	10 e0       	ldi	r17, 0x00	; 0
     bbe:	60 e0       	ldi	r22, 0x00	; 0
     bc0:	70 e0       	ldi	r23, 0x00	; 0
for(int i = 0;i<DOF;i++)
	{
		aDH[i] = 0;				// a DH parameter
     bc2:	20 e0       	ldi	r18, 0x00	; 0
     bc4:	30 e0       	ldi	r19, 0x00	; 0
     bc6:	40 e0       	ldi	r20, 0x00	; 0
     bc8:	50 e0       	ldi	r21, 0x00	; 0
     bca:	fb 01       	movw	r30, r22
     bcc:	e7 53       	subi	r30, 0x37	; 55
     bce:	ff 4e       	sbci	r31, 0xEF	; 239
     bd0:	20 83       	st	Z, r18
     bd2:	31 83       	std	Z+1, r19	; 0x01
     bd4:	42 83       	std	Z+2, r20	; 0x02
     bd6:	53 83       	std	Z+3, r21	; 0x03
		dDH[i] = 0;				// d DH parameter
     bd8:	fb 01       	movw	r30, r22
     bda:	e1 5b       	subi	r30, 0xB1	; 177
     bdc:	f3 4f       	sbci	r31, 0xF3	; 243
     bde:	20 83       	st	Z, r18
     be0:	31 83       	std	Z+1, r19	; 0x01
     be2:	42 83       	std	Z+2, r20	; 0x02
     be4:	53 83       	std	Z+3, r21	; 0x03
		alphaDH[i] = 0;			// alpha DH parameter
     be6:	fb 01       	movw	r30, r22
     be8:	e8 57       	subi	r30, 0x78	; 120
     bea:	fe 4e       	sbci	r31, 0xEE	; 238
     bec:	20 83       	st	Z, r18
     bee:	31 83       	std	Z+1, r19	; 0x01
     bf0:	42 83       	std	Z+2, r20	; 0x02
     bf2:	53 83       	std	Z+3, r21	; 0x03
		thetaDH[i] = 0;			// theta DH parameter
     bf4:	fb 01       	movw	r30, r22
     bf6:	e3 55       	subi	r30, 0x53	; 83
     bf8:	ff 4e       	sbci	r31, 0xEF	; 239
     bfa:	20 83       	st	Z, r18
     bfc:	31 83       	std	Z+1, r19	; 0x01
     bfe:	42 83       	std	Z+2, r20	; 0x02
     c00:	53 83       	std	Z+3, r21	; 0x03
		qDH[i] = 0;				// theta DH parameter
     c02:	fb 01       	movw	r30, r22
     c04:	ec 5c       	subi	r30, 0xCC	; 204
     c06:	fe 4e       	sbci	r31, 0xEE	; 238
     c08:	20 83       	st	Z, r18
     c0a:	31 83       	std	Z+1, r19	; 0x01
     c0c:	42 83       	std	Z+2, r20	; 0x02
     c0e:	53 83       	std	Z+3, r21	; 0x03
     c10:	e0 e0       	ldi	r30, 0x00	; 0
     c12:	f0 e0       	ldi	r31, 0x00	; 0
		//cPos[i] = 0;
		for(int j = 0;j<4;j++)
     c14:	78 01       	movw	r14, r16
     c16:	ee 0c       	add	r14, r14
     c18:	ff 1c       	adc	r15, r15
     c1a:	ee 0c       	add	r14, r14
     c1c:	ff 1c       	adc	r15, r15
     c1e:	10 c0       	rjmp	.+32     	; 0xc40 <SetKConstants+0x92>
		{
			for(int k = 0;k<4;k++)
			{
				H[i].value[j][k] = 0;	
     c20:	29 93       	st	Y+, r18
     c22:	39 93       	st	Y+, r19
     c24:	49 93       	st	Y+, r20
     c26:	59 93       	st	Y+, r21
				//H07.value[j][k] = 0;
				H0[i].value[j][k] = 0;	
     c28:	2d 93       	st	X+, r18
     c2a:	3d 93       	st	X+, r19
     c2c:	4d 93       	st	X+, r20
     c2e:	5d 93       	st	X+, r21
		thetaDH[i] = 0;			// theta DH parameter
		qDH[i] = 0;				// theta DH parameter
		//cPos[i] = 0;
		for(int j = 0;j<4;j++)
		{
			for(int k = 0;k<4;k++)
     c30:	01 96       	adiw	r24, 0x01	; 1
     c32:	84 30       	cpi	r24, 0x04	; 4
     c34:	91 05       	cpc	r25, r1
     c36:	a1 f7       	brne	.-24     	; 0xc20 <SetKConstants+0x72>
		dDH[i] = 0;				// d DH parameter
		alphaDH[i] = 0;			// alpha DH parameter
		thetaDH[i] = 0;			// theta DH parameter
		qDH[i] = 0;				// theta DH parameter
		//cPos[i] = 0;
		for(int j = 0;j<4;j++)
     c38:	31 96       	adiw	r30, 0x01	; 1
     c3a:	e4 30       	cpi	r30, 0x04	; 4
     c3c:	f1 05       	cpc	r31, r1
     c3e:	89 f0       	breq	.+34     	; 0xc62 <SetKConstants+0xb4>
     c40:	cf 01       	movw	r24, r30
     c42:	8e 0d       	add	r24, r14
     c44:	9f 1d       	adc	r25, r15
     c46:	a4 e0       	ldi	r26, 0x04	; 4
     c48:	88 0f       	add	r24, r24
     c4a:	99 1f       	adc	r25, r25
     c4c:	aa 95       	dec	r26
     c4e:	e1 f7       	brne	.-8      	; 0xc48 <SetKConstants+0x9a>
     c50:	ec 01       	movw	r28, r24
     c52:	c3 55       	subi	r28, 0x53	; 83
     c54:	d1 4f       	sbci	r29, 0xF1	; 241
     c56:	dc 01       	movw	r26, r24
     c58:	a5 59       	subi	r26, 0x95	; 149
     c5a:	b3 4f       	sbci	r27, 0xF3	; 243
     c5c:	80 e0       	ldi	r24, 0x00	; 0
     c5e:	90 e0       	ldi	r25, 0x00	; 0
     c60:	df cf       	rjmp	.-66     	; 0xc20 <SetKConstants+0x72>

//////// METHODS

void SetKConstants()
{
for(int i = 0;i<DOF;i++)
     c62:	0f 5f       	subi	r16, 0xFF	; 255
     c64:	1f 4f       	sbci	r17, 0xFF	; 255
     c66:	6c 5f       	subi	r22, 0xFC	; 252
     c68:	7f 4f       	sbci	r23, 0xFF	; 255
     c6a:	07 30       	cpi	r16, 0x07	; 7
     c6c:	11 05       	cpc	r17, r1
     c6e:	09 f0       	breq	.+2      	; 0xc72 <SetKConstants+0xc4>
     c70:	ac cf       	rjmp	.-168    	; 0xbca <SetKConstants+0x1c>
     c72:	eb e6       	ldi	r30, 0x6B	; 107
     c74:	fe e0       	ldi	r31, 0x0E	; 14
     c76:	2d e6       	ldi	r18, 0x6D	; 109
     c78:	30 e1       	ldi	r19, 0x10	; 16
     c7a:	6b e2       	ldi	r22, 0x2B	; 43
     c7c:	7e e0       	ldi	r23, 0x0E	; 14

	for(int j = 0;j<4;j++)
	{
		for(int k = 0;k<4;k++)
		{
			H07.value[j][k] = 0;
     c7e:	80 e0       	ldi	r24, 0x00	; 0
     c80:	90 e0       	ldi	r25, 0x00	; 0
     c82:	a0 e0       	ldi	r26, 0x00	; 0
     c84:	b0 e0       	ldi	r27, 0x00	; 0
     c86:	80 83       	st	Z, r24
     c88:	91 83       	std	Z+1, r25	; 0x01
     c8a:	a2 83       	std	Z+2, r26	; 0x02
     c8c:	b3 83       	std	Z+3, r27	; 0x03
			H[7].value[j][k] = 0;	
     c8e:	e9 01       	movw	r28, r18
     c90:	88 83       	st	Y, r24
     c92:	99 83       	std	Y+1, r25	; 0x01
     c94:	aa 83       	std	Y+2, r26	; 0x02
     c96:	bb 83       	std	Y+3, r27	; 0x03
			H0[7].value[j][k] = 0;	
     c98:	eb 01       	movw	r28, r22
     c9a:	88 83       	st	Y, r24
     c9c:	99 83       	std	Y+1, r25	; 0x01
     c9e:	aa 83       	std	Y+2, r26	; 0x02
     ca0:	bb 83       	std	Y+3, r27	; 0x03

	for(int j = 0;j<4;j++)
	{
		for(int k = 0;k<4;k++)
		{
			H07.value[j][k] = 0;
     ca2:	84 83       	std	Z+4, r24	; 0x04
     ca4:	95 83       	std	Z+5, r25	; 0x05
     ca6:	a6 83       	std	Z+6, r26	; 0x06
     ca8:	b7 83       	std	Z+7, r27	; 0x07
			H[7].value[j][k] = 0;	
     caa:	e9 01       	movw	r28, r18
     cac:	8c 83       	std	Y+4, r24	; 0x04
     cae:	9d 83       	std	Y+5, r25	; 0x05
     cb0:	ae 83       	std	Y+6, r26	; 0x06
     cb2:	bf 83       	std	Y+7, r27	; 0x07
			H0[7].value[j][k] = 0;	
     cb4:	eb 01       	movw	r28, r22
     cb6:	8c 83       	std	Y+4, r24	; 0x04
     cb8:	9d 83       	std	Y+5, r25	; 0x05
     cba:	ae 83       	std	Y+6, r26	; 0x06
     cbc:	bf 83       	std	Y+7, r27	; 0x07

	for(int j = 0;j<4;j++)
	{
		for(int k = 0;k<4;k++)
		{
			H07.value[j][k] = 0;
     cbe:	80 87       	std	Z+8, r24	; 0x08
     cc0:	91 87       	std	Z+9, r25	; 0x09
     cc2:	a2 87       	std	Z+10, r26	; 0x0a
     cc4:	b3 87       	std	Z+11, r27	; 0x0b
			H[7].value[j][k] = 0;	
     cc6:	e9 01       	movw	r28, r18
     cc8:	88 87       	std	Y+8, r24	; 0x08
     cca:	99 87       	std	Y+9, r25	; 0x09
     ccc:	aa 87       	std	Y+10, r26	; 0x0a
     cce:	bb 87       	std	Y+11, r27	; 0x0b
			H0[7].value[j][k] = 0;	
     cd0:	eb 01       	movw	r28, r22
     cd2:	88 87       	std	Y+8, r24	; 0x08
     cd4:	99 87       	std	Y+9, r25	; 0x09
     cd6:	aa 87       	std	Y+10, r26	; 0x0a
     cd8:	bb 87       	std	Y+11, r27	; 0x0b

	for(int j = 0;j<4;j++)
	{
		for(int k = 0;k<4;k++)
		{
			H07.value[j][k] = 0;
     cda:	84 87       	std	Z+12, r24	; 0x0c
     cdc:	95 87       	std	Z+13, r25	; 0x0d
     cde:	a6 87       	std	Z+14, r26	; 0x0e
     ce0:	b7 87       	std	Z+15, r27	; 0x0f
			H[7].value[j][k] = 0;	
     ce2:	e9 01       	movw	r28, r18
     ce4:	8c 87       	std	Y+12, r24	; 0x0c
     ce6:	9d 87       	std	Y+13, r25	; 0x0d
     ce8:	ae 87       	std	Y+14, r26	; 0x0e
     cea:	bf 87       	std	Y+15, r27	; 0x0f
			H0[7].value[j][k] = 0;	
     cec:	eb 01       	movw	r28, r22
     cee:	8c 87       	std	Y+12, r24	; 0x0c
     cf0:	9d 87       	std	Y+13, r25	; 0x0d
     cf2:	ae 87       	std	Y+14, r26	; 0x0e
     cf4:	bf 87       	std	Y+15, r27	; 0x0f
     cf6:	70 96       	adiw	r30, 0x10	; 16
     cf8:	20 5f       	subi	r18, 0xF0	; 240
     cfa:	3f 4f       	sbci	r19, 0xFF	; 255
     cfc:	60 5f       	subi	r22, 0xF0	; 240
     cfe:	7f 4f       	sbci	r23, 0xFF	; 255
				H0[i].value[j][k] = 0;	
			}
		}
	}

	for(int j = 0;j<4;j++)
     d00:	4e e0       	ldi	r20, 0x0E	; 14
     d02:	eb 3a       	cpi	r30, 0xAB	; 171
     d04:	f4 07       	cpc	r31, r20
     d06:	09 f0       	breq	.+2      	; 0xd0a <SetKConstants+0x15c>
     d08:	be cf       	rjmp	.-132    	; 0xc86 <SetKConstants+0xd8>
			H[7].value[j][k] = 0;	
			H0[7].value[j][k] = 0;	
		}
	}
	
	dDH[0] = 0.0;
     d0a:	80 93 4f 0c 	sts	0x0C4F, r24
     d0e:	90 93 50 0c 	sts	0x0C50, r25
     d12:	a0 93 51 0c 	sts	0x0C51, r26
     d16:	b0 93 52 0c 	sts	0x0C52, r27
	dDH[2] = 0.3084;
     d1a:	8b e9       	ldi	r24, 0x9B	; 155
     d1c:	96 ee       	ldi	r25, 0xE6	; 230
     d1e:	ad e9       	ldi	r26, 0x9D	; 157
     d20:	be e3       	ldi	r27, 0x3E	; 62
     d22:	80 93 57 0c 	sts	0x0C57, r24
     d26:	90 93 58 0c 	sts	0x0C58, r25
     d2a:	a0 93 59 0c 	sts	0x0C59, r26
     d2e:	b0 93 5a 0c 	sts	0x0C5A, r27
	dDH[4] = 0.2126;
     d32:	80 ed       	ldi	r24, 0xD0	; 208
     d34:	93 eb       	ldi	r25, 0xB3	; 179
     d36:	a9 e5       	ldi	r26, 0x59	; 89
     d38:	be e3       	ldi	r27, 0x3E	; 62
     d3a:	80 93 5f 0c 	sts	0x0C5F, r24
     d3e:	90 93 60 0c 	sts	0x0C60, r25
     d42:	a0 93 61 0c 	sts	0x0C61, r26
     d46:	b0 93 62 0c 	sts	0x0C62, r27
	dDH[6] = 0.185;
     d4a:	84 ea       	ldi	r24, 0xA4	; 164
     d4c:	90 e7       	ldi	r25, 0x70	; 112
     d4e:	ad e3       	ldi	r26, 0x3D	; 61
     d50:	be e3       	ldi	r27, 0x3E	; 62
     d52:	80 93 67 0c 	sts	0x0C67, r24
     d56:	90 93 68 0c 	sts	0x0C68, r25
     d5a:	a0 93 69 0c 	sts	0x0C69, r26
     d5e:	b0 93 6a 0c 	sts	0x0C6A, r27
	
	aDH[0] = 0.0603;
     d62:	82 e2       	ldi	r24, 0x22	; 34
     d64:	9d ef       	ldi	r25, 0xFD	; 253
     d66:	a6 e7       	ldi	r26, 0x76	; 118
     d68:	bd e3       	ldi	r27, 0x3D	; 61
     d6a:	80 93 c9 10 	sts	0x10C9, r24
     d6e:	90 93 ca 10 	sts	0x10CA, r25
     d72:	a0 93 cb 10 	sts	0x10CB, r26
     d76:	b0 93 cc 10 	sts	0x10CC, r27

	alphaDH[0]= M_PI_2;
     d7a:	8b ed       	ldi	r24, 0xDB	; 219
     d7c:	9f e0       	ldi	r25, 0x0F	; 15
     d7e:	a9 ec       	ldi	r26, 0xC9	; 201
     d80:	bf e3       	ldi	r27, 0x3F	; 63
     d82:	80 93 88 11 	sts	0x1188, r24
     d86:	90 93 89 11 	sts	0x1189, r25
     d8a:	a0 93 8a 11 	sts	0x118A, r26
     d8e:	b0 93 8b 11 	sts	0x118B, r27
	alphaDH[1]= M_PI_2;
     d92:	80 93 8c 11 	sts	0x118C, r24
     d96:	90 93 8d 11 	sts	0x118D, r25
     d9a:	a0 93 8e 11 	sts	0x118E, r26
     d9e:	b0 93 8f 11 	sts	0x118F, r27
	alphaDH[2]= -M_PI_2;
     da2:	2b ed       	ldi	r18, 0xDB	; 219
     da4:	3f e0       	ldi	r19, 0x0F	; 15
     da6:	49 ec       	ldi	r20, 0xC9	; 201
     da8:	5f eb       	ldi	r21, 0xBF	; 191
     daa:	20 93 90 11 	sts	0x1190, r18
     dae:	30 93 91 11 	sts	0x1191, r19
     db2:	40 93 92 11 	sts	0x1192, r20
     db6:	50 93 93 11 	sts	0x1193, r21
	alphaDH[3]= M_PI_2;
     dba:	80 93 94 11 	sts	0x1194, r24
     dbe:	90 93 95 11 	sts	0x1195, r25
     dc2:	a0 93 96 11 	sts	0x1196, r26
     dc6:	b0 93 97 11 	sts	0x1197, r27
	alphaDH[4]= -M_PI_2;
     dca:	20 93 98 11 	sts	0x1198, r18
     dce:	30 93 99 11 	sts	0x1199, r19
     dd2:	40 93 9a 11 	sts	0x119A, r20
     dd6:	50 93 9b 11 	sts	0x119B, r21
	alphaDH[5]= M_PI_2;
     dda:	80 93 9c 11 	sts	0x119C, r24
     dde:	90 93 9d 11 	sts	0x119D, r25
     de2:	a0 93 9e 11 	sts	0x119E, r26
     de6:	b0 93 9f 11 	sts	0x119F, r27

	thetaDH[1] = M_PI_2;
     dea:	80 93 b1 10 	sts	0x10B1, r24
     dee:	90 93 b2 10 	sts	0x10B2, r25
     df2:	a0 93 b3 10 	sts	0x10B3, r26
     df6:	b0 93 b4 10 	sts	0x10B4, r27
	thetaDH[2] = -M_PI_2;
     dfa:	20 93 b5 10 	sts	0x10B5, r18
     dfe:	30 93 b6 10 	sts	0x10B6, r19
     e02:	40 93 b7 10 	sts	0x10B7, r20
     e06:	50 93 b8 10 	sts	0x10B8, r21

	H[7].value[2][0] = 1;
     e0a:	80 e0       	ldi	r24, 0x00	; 0
     e0c:	90 e0       	ldi	r25, 0x00	; 0
     e0e:	a0 e8       	ldi	r26, 0x80	; 128
     e10:	bf e3       	ldi	r27, 0x3F	; 63
     e12:	80 93 8d 10 	sts	0x108D, r24
     e16:	90 93 8e 10 	sts	0x108E, r25
     e1a:	a0 93 8f 10 	sts	0x108F, r26
     e1e:	b0 93 90 10 	sts	0x1090, r27
	H[7].value[0][1] = 1;
     e22:	80 93 71 10 	sts	0x1071, r24
     e26:	90 93 72 10 	sts	0x1072, r25
     e2a:	a0 93 73 10 	sts	0x1073, r26
     e2e:	b0 93 74 10 	sts	0x1074, r27
	H[7].value[1][2] = 1;
     e32:	80 93 85 10 	sts	0x1085, r24
     e36:	90 93 86 10 	sts	0x1086, r25
     e3a:	a0 93 87 10 	sts	0x1087, r26
     e3e:	b0 93 88 10 	sts	0x1088, r27
	H[7].value[3][3] = 1;
     e42:	80 93 a9 10 	sts	0x10A9, r24
     e46:	90 93 aa 10 	sts	0x10AA, r25
     e4a:	a0 93 ab 10 	sts	0x10AB, r26
     e4e:	b0 93 ac 10 	sts	0x10AC, r27


}
     e52:	df 91       	pop	r29
     e54:	cf 91       	pop	r28
     e56:	1f 91       	pop	r17
     e58:	0f 91       	pop	r16
     e5a:	ff 90       	pop	r15
     e5c:	ef 90       	pop	r14
     e5e:	08 95       	ret

00000e60 <InvH>:

	
}

matrix4 InvH(matrix4 x)
{
     e60:	2f 92       	push	r2
     e62:	3f 92       	push	r3
     e64:	4f 92       	push	r4
     e66:	5f 92       	push	r5
     e68:	6f 92       	push	r6
     e6a:	7f 92       	push	r7
     e6c:	8f 92       	push	r8
     e6e:	9f 92       	push	r9
     e70:	af 92       	push	r10
     e72:	bf 92       	push	r11
     e74:	cf 92       	push	r12
     e76:	df 92       	push	r13
     e78:	ef 92       	push	r14
     e7a:	ff 92       	push	r15
     e7c:	0f 93       	push	r16
     e7e:	1f 93       	push	r17
     e80:	df 93       	push	r29
     e82:	cf 93       	push	r28
     e84:	cd b7       	in	r28, 0x3d	; 61
     e86:	de b7       	in	r29, 0x3e	; 62
     e88:	c6 54       	subi	r28, 0x46	; 70
     e8a:	d0 40       	sbci	r29, 0x00	; 0
     e8c:	0f b6       	in	r0, 0x3f	; 63
     e8e:	f8 94       	cli
     e90:	de bf       	out	0x3e, r29	; 62
     e92:	0f be       	out	0x3f, r0	; 63
     e94:	cd bf       	out	0x3d, r28	; 61
     e96:	26 96       	adiw	r28, 0x06	; 6
     e98:	8f af       	std	Y+63, r24	; 0x3f
     e9a:	26 97       	sbiw	r28, 0x06	; 6
     e9c:	27 96       	adiw	r28, 0x07	; 7
     e9e:	9f af       	std	Y+63, r25	; 0x3f
     ea0:	27 97       	sbiw	r28, 0x07	; 7
     ea2:	ae 01       	movw	r20, r28
     ea4:	44 5a       	subi	r20, 0xA4	; 164
     ea6:	5f 4f       	sbci	r21, 0xFF	; 255
     ea8:	6e 01       	movw	r12, r28
     eaa:	08 94       	sec
     eac:	c1 1c       	adc	r12, r1
     eae:	d1 1c       	adc	r13, r1
     eb0:	fa 01       	movw	r30, r20
     eb2:	96 01       	movw	r18, r12
	matrix4 hi;
	vector3 d;
	float suma;

	for(int i = 0; i<4; i++)
     eb4:	be 01       	movw	r22, r28
     eb6:	64 56       	subi	r22, 0x64	; 100
     eb8:	7f 4f       	sbci	r23, 0xFF	; 255
	{
		for(int j = 0; j<4; j++)
		{
			hi.value[i][j] = x.value[i][j];
     eba:	80 80       	ld	r8, Z
     ebc:	91 80       	ldd	r9, Z+1	; 0x01
     ebe:	a2 80       	ldd	r10, Z+2	; 0x02
     ec0:	b3 80       	ldd	r11, Z+3	; 0x03
     ec2:	d9 01       	movw	r26, r18
     ec4:	8d 92       	st	X+, r8
     ec6:	9d 92       	st	X+, r9
     ec8:	ad 92       	st	X+, r10
     eca:	bc 92       	st	X, r11
     ecc:	13 97       	sbiw	r26, 0x03	; 3
     ece:	84 80       	ldd	r8, Z+4	; 0x04
     ed0:	95 80       	ldd	r9, Z+5	; 0x05
     ed2:	a6 80       	ldd	r10, Z+6	; 0x06
     ed4:	b7 80       	ldd	r11, Z+7	; 0x07
     ed6:	14 96       	adiw	r26, 0x04	; 4
     ed8:	8d 92       	st	X+, r8
     eda:	9d 92       	st	X+, r9
     edc:	ad 92       	st	X+, r10
     ede:	bc 92       	st	X, r11
     ee0:	17 97       	sbiw	r26, 0x07	; 7
     ee2:	80 84       	ldd	r8, Z+8	; 0x08
     ee4:	91 84       	ldd	r9, Z+9	; 0x09
     ee6:	a2 84       	ldd	r10, Z+10	; 0x0a
     ee8:	b3 84       	ldd	r11, Z+11	; 0x0b
     eea:	18 96       	adiw	r26, 0x08	; 8
     eec:	8d 92       	st	X+, r8
     eee:	9d 92       	st	X+, r9
     ef0:	ad 92       	st	X+, r10
     ef2:	bc 92       	st	X, r11
     ef4:	1b 97       	sbiw	r26, 0x0b	; 11
     ef6:	84 84       	ldd	r8, Z+12	; 0x0c
     ef8:	95 84       	ldd	r9, Z+13	; 0x0d
     efa:	a6 84       	ldd	r10, Z+14	; 0x0e
     efc:	b7 84       	ldd	r11, Z+15	; 0x0f
     efe:	1c 96       	adiw	r26, 0x0c	; 12
     f00:	8d 92       	st	X+, r8
     f02:	9d 92       	st	X+, r9
     f04:	ad 92       	st	X+, r10
     f06:	bc 92       	st	X, r11
     f08:	1f 97       	sbiw	r26, 0x0f	; 15
     f0a:	70 96       	adiw	r30, 0x10	; 16
     f0c:	20 5f       	subi	r18, 0xF0	; 240
     f0e:	3f 4f       	sbci	r19, 0xFF	; 255
{
	matrix4 hi;
	vector3 d;
	float suma;

	for(int i = 0; i<4; i++)
     f10:	e6 17       	cp	r30, r22
     f12:	f7 07       	cpc	r31, r23
     f14:	91 f6       	brne	.-92     	; 0xeba <InvH+0x5a>
     f16:	f6 01       	movw	r30, r12
		{
			hi.value[i][j] = x.value[i][j];
		}
	}

	for(int i = 0; i<3; i++)
     f18:	9e 01       	movw	r18, r28
     f1a:	28 59       	subi	r18, 0x98	; 152
     f1c:	3f 4f       	sbci	r19, 0xFF	; 255
	{
		for(int j = 0; j<3; j++)
		{
			hi.value[i][j] = x.value[j][i];
     f1e:	da 01       	movw	r26, r20
     f20:	8d 90       	ld	r8, X+
     f22:	9d 90       	ld	r9, X+
     f24:	ad 90       	ld	r10, X+
     f26:	bc 90       	ld	r11, X
     f28:	13 97       	sbiw	r26, 0x03	; 3
     f2a:	80 82       	st	Z, r8
     f2c:	91 82       	std	Z+1, r9	; 0x01
     f2e:	a2 82       	std	Z+2, r10	; 0x02
     f30:	b3 82       	std	Z+3, r11	; 0x03
     f32:	50 96       	adiw	r26, 0x10	; 16
     f34:	8d 90       	ld	r8, X+
     f36:	9d 90       	ld	r9, X+
     f38:	ad 90       	ld	r10, X+
     f3a:	bc 90       	ld	r11, X
     f3c:	53 97       	sbiw	r26, 0x13	; 19
     f3e:	84 82       	std	Z+4, r8	; 0x04
     f40:	95 82       	std	Z+5, r9	; 0x05
     f42:	a6 82       	std	Z+6, r10	; 0x06
     f44:	b7 82       	std	Z+7, r11	; 0x07
     f46:	90 96       	adiw	r26, 0x20	; 32
     f48:	8d 90       	ld	r8, X+
     f4a:	9d 90       	ld	r9, X+
     f4c:	ad 90       	ld	r10, X+
     f4e:	bc 90       	ld	r11, X
     f50:	93 97       	sbiw	r26, 0x23	; 35
     f52:	80 86       	std	Z+8, r8	; 0x08
     f54:	91 86       	std	Z+9, r9	; 0x09
     f56:	a2 86       	std	Z+10, r10	; 0x0a
     f58:	b3 86       	std	Z+11, r11	; 0x0b
     f5a:	4c 5f       	subi	r20, 0xFC	; 252
     f5c:	5f 4f       	sbci	r21, 0xFF	; 255
     f5e:	70 96       	adiw	r30, 0x10	; 16
		{
			hi.value[i][j] = x.value[i][j];
		}
	}

	for(int i = 0; i<3; i++)
     f60:	42 17       	cp	r20, r18
     f62:	53 07       	cpc	r21, r19
     f64:	e1 f6       	brne	.-72     	; 0xf1e <InvH+0xbe>
		}
	}

	for(int i = 0; i<3; i++)
	{
		d.value[i] = x.value[i][3];
     f66:	ac 96       	adiw	r28, 0x2c	; 44
     f68:	8c ad       	ldd	r24, Y+60	; 0x3c
     f6a:	9d ad       	ldd	r25, Y+61	; 0x3d
     f6c:	ae ad       	ldd	r26, Y+62	; 0x3e
     f6e:	bf ad       	ldd	r27, Y+63	; 0x3f
     f70:	ac 97       	sbiw	r28, 0x2c	; 44
     f72:	25 96       	adiw	r28, 0x05	; 5
     f74:	8c af       	std	Y+60, r24	; 0x3c
     f76:	9d af       	std	Y+61, r25	; 0x3d
     f78:	ae af       	std	Y+62, r26	; 0x3e
     f7a:	bf af       	std	Y+63, r27	; 0x3f
     f7c:	25 97       	sbiw	r28, 0x05	; 5
     f7e:	ec 96       	adiw	r28, 0x3c	; 60
     f80:	4c ac       	ldd	r4, Y+60	; 0x3c
     f82:	5d ac       	ldd	r5, Y+61	; 0x3d
     f84:	6e ac       	ldd	r6, Y+62	; 0x3e
     f86:	7f ac       	ldd	r7, Y+63	; 0x3f
     f88:	ec 97       	sbiw	r28, 0x3c	; 60
     f8a:	c8 57       	subi	r28, 0x78	; 120
     f8c:	df 4f       	sbci	r29, 0xFF	; 255
     f8e:	88 80       	ld	r8, Y
     f90:	99 80       	ldd	r9, Y+1	; 0x01
     f92:	aa 80       	ldd	r10, Y+2	; 0x02
     f94:	bb 80       	ldd	r11, Y+3	; 0x03
     f96:	c8 58       	subi	r28, 0x88	; 136
     f98:	d0 40       	sbci	r29, 0x00	; 0

	}

	for(int i = 0; i<3; i++)
     f9a:	11 e3       	ldi	r17, 0x31	; 49
     f9c:	21 2e       	mov	r2, r17
     f9e:	31 2c       	mov	r3, r1
     fa0:	2c 0e       	add	r2, r28
     fa2:	3d 1e       	adc	r3, r29
	{
		suma = 0;
		for(int j= 0; j<3; j++)
		{
			suma = suma + hi.value[i][j] * d.value[j];
     fa4:	25 96       	adiw	r28, 0x05	; 5
     fa6:	6c ad       	ldd	r22, Y+60	; 0x3c
     fa8:	7d ad       	ldd	r23, Y+61	; 0x3d
     faa:	8e ad       	ldd	r24, Y+62	; 0x3e
     fac:	9f ad       	ldd	r25, Y+63	; 0x3f
     fae:	25 97       	sbiw	r28, 0x05	; 5
     fb0:	d6 01       	movw	r26, r12
     fb2:	2d 91       	ld	r18, X+
     fb4:	3d 91       	ld	r19, X+
     fb6:	4d 91       	ld	r20, X+
     fb8:	5c 91       	ld	r21, X
     fba:	0e 94 42 3b 	call	0x7684	; 0x7684 <__mulsf3>
     fbe:	20 e0       	ldi	r18, 0x00	; 0
     fc0:	30 e0       	ldi	r19, 0x00	; 0
     fc2:	40 e0       	ldi	r20, 0x00	; 0
     fc4:	50 e0       	ldi	r21, 0x00	; 0
     fc6:	0e 94 7e 38 	call	0x70fc	; 0x70fc <__addsf3>
     fca:	7b 01       	movw	r14, r22
     fcc:	8c 01       	movw	r16, r24
     fce:	c3 01       	movw	r24, r6
     fd0:	b2 01       	movw	r22, r4
     fd2:	f6 01       	movw	r30, r12
     fd4:	24 81       	ldd	r18, Z+4	; 0x04
     fd6:	35 81       	ldd	r19, Z+5	; 0x05
     fd8:	46 81       	ldd	r20, Z+6	; 0x06
     fda:	57 81       	ldd	r21, Z+7	; 0x07
     fdc:	0e 94 42 3b 	call	0x7684	; 0x7684 <__mulsf3>
     fe0:	9b 01       	movw	r18, r22
     fe2:	ac 01       	movw	r20, r24
     fe4:	c8 01       	movw	r24, r16
     fe6:	b7 01       	movw	r22, r14
     fe8:	0e 94 7e 38 	call	0x70fc	; 0x70fc <__addsf3>
     fec:	7b 01       	movw	r14, r22
     fee:	8c 01       	movw	r16, r24
		}
		hi.value[i][3] = -suma;
     ff0:	c5 01       	movw	r24, r10
     ff2:	b4 01       	movw	r22, r8
     ff4:	d6 01       	movw	r26, r12
     ff6:	18 96       	adiw	r26, 0x08	; 8
     ff8:	2d 91       	ld	r18, X+
     ffa:	3d 91       	ld	r19, X+
     ffc:	4d 91       	ld	r20, X+
     ffe:	5c 91       	ld	r21, X
    1000:	1b 97       	sbiw	r26, 0x0b	; 11
    1002:	0e 94 42 3b 	call	0x7684	; 0x7684 <__mulsf3>
    1006:	9b 01       	movw	r18, r22
    1008:	ac 01       	movw	r20, r24
    100a:	c8 01       	movw	r24, r16
    100c:	b7 01       	movw	r22, r14
    100e:	0e 94 7e 38 	call	0x70fc	; 0x70fc <__addsf3>
    1012:	90 58       	subi	r25, 0x80	; 128
    1014:	f6 01       	movw	r30, r12
    1016:	64 87       	std	Z+12, r22	; 0x0c
    1018:	75 87       	std	Z+13, r23	; 0x0d
    101a:	86 87       	std	Z+14, r24	; 0x0e
    101c:	97 87       	std	Z+15, r25	; 0x0f
    101e:	80 e1       	ldi	r24, 0x10	; 16
    1020:	90 e0       	ldi	r25, 0x00	; 0
    1022:	c8 0e       	add	r12, r24
    1024:	d9 1e       	adc	r13, r25
	{
		d.value[i] = x.value[i][3];

	}

	for(int i = 0; i<3; i++)
    1026:	c2 14       	cp	r12, r2
    1028:	d3 04       	cpc	r13, r3
    102a:	09 f0       	breq	.+2      	; 0x102e <InvH+0x1ce>
    102c:	bb cf       	rjmp	.-138    	; 0xfa4 <InvH+0x144>
		{
			suma = suma + hi.value[i][j] * d.value[j];
		}
		hi.value[i][3] = -suma;
	}
	return hi;
    102e:	26 96       	adiw	r28, 0x06	; 6
    1030:	8f ad       	ldd	r24, Y+63	; 0x3f
    1032:	26 97       	sbiw	r28, 0x06	; 6
    1034:	27 96       	adiw	r28, 0x07	; 7
    1036:	9f ad       	ldd	r25, Y+63	; 0x3f
    1038:	27 97       	sbiw	r28, 0x07	; 7
    103a:	9c 01       	movw	r18, r24
    103c:	d9 01       	movw	r26, r18
    103e:	fe 01       	movw	r30, r28
    1040:	31 96       	adiw	r30, 0x01	; 1
    1042:	80 e4       	ldi	r24, 0x40	; 64
    1044:	01 90       	ld	r0, Z+
    1046:	0d 92       	st	X+, r0
    1048:	81 50       	subi	r24, 0x01	; 1
    104a:	e1 f7       	brne	.-8      	; 0x1044 <InvH+0x1e4>
}
    104c:	26 96       	adiw	r28, 0x06	; 6
    104e:	8f ad       	ldd	r24, Y+63	; 0x3f
    1050:	26 97       	sbiw	r28, 0x06	; 6
    1052:	27 96       	adiw	r28, 0x07	; 7
    1054:	9f ad       	ldd	r25, Y+63	; 0x3f
    1056:	27 97       	sbiw	r28, 0x07	; 7
    1058:	ca 5b       	subi	r28, 0xBA	; 186
    105a:	df 4f       	sbci	r29, 0xFF	; 255
    105c:	0f b6       	in	r0, 0x3f	; 63
    105e:	f8 94       	cli
    1060:	de bf       	out	0x3e, r29	; 62
    1062:	0f be       	out	0x3f, r0	; 63
    1064:	cd bf       	out	0x3d, r28	; 61
    1066:	cf 91       	pop	r28
    1068:	df 91       	pop	r29
    106a:	1f 91       	pop	r17
    106c:	0f 91       	pop	r16
    106e:	ff 90       	pop	r15
    1070:	ef 90       	pop	r14
    1072:	df 90       	pop	r13
    1074:	cf 90       	pop	r12
    1076:	bf 90       	pop	r11
    1078:	af 90       	pop	r10
    107a:	9f 90       	pop	r9
    107c:	8f 90       	pop	r8
    107e:	7f 90       	pop	r7
    1080:	6f 90       	pop	r6
    1082:	5f 90       	pop	r5
    1084:	4f 90       	pop	r4
    1086:	3f 90       	pop	r3
    1088:	2f 90       	pop	r2
    108a:	08 95       	ret

0000108c <coefLSPB>:

///////////////////////////////// TRAYECTORIAS


vector4 coefLSPB (float q0, float qf, float tf)
{
    108c:	2f 92       	push	r2
    108e:	3f 92       	push	r3
    1090:	4f 92       	push	r4
    1092:	5f 92       	push	r5
    1094:	6f 92       	push	r6
    1096:	7f 92       	push	r7
    1098:	8f 92       	push	r8
    109a:	9f 92       	push	r9
    109c:	af 92       	push	r10
    109e:	bf 92       	push	r11
    10a0:	cf 92       	push	r12
    10a2:	df 92       	push	r13
    10a4:	ef 92       	push	r14
    10a6:	ff 92       	push	r15
    10a8:	0f 93       	push	r16
    10aa:	1f 93       	push	r17
    10ac:	1c 01       	movw	r2, r24
    10ae:	4a 01       	movw	r8, r20
    10b0:	5b 01       	movw	r10, r22
    10b2:	c9 01       	movw	r24, r18
    10b4:	b8 01       	movw	r22, r16

	
	float Vmin = (qf-q0)/tf;
    10b6:	a5 01       	movw	r20, r10
    10b8:	94 01       	movw	r18, r8
    10ba:	0e 94 7d 38 	call	0x70fa	; 0x70fa <__subsf3>
    10be:	4b 01       	movw	r8, r22
    10c0:	5c 01       	movw	r10, r24
	float Vmax = (2*(qf-q0))/tf;

	float V = (Vmin + Vmax)/2;
    10c2:	a7 01       	movw	r20, r14
    10c4:	96 01       	movw	r18, r12
    10c6:	0e 94 62 39 	call	0x72c4	; 0x72c4 <__divsf3>
    10ca:	2b 01       	movw	r4, r22
    10cc:	3c 01       	movw	r6, r24
    10ce:	c5 01       	movw	r24, r10
    10d0:	b4 01       	movw	r22, r8
    10d2:	a5 01       	movw	r20, r10
    10d4:	94 01       	movw	r18, r8
    10d6:	0e 94 7e 38 	call	0x70fc	; 0x70fc <__addsf3>
    10da:	a7 01       	movw	r20, r14
    10dc:	96 01       	movw	r18, r12
    10de:	0e 94 62 39 	call	0x72c4	; 0x72c4 <__divsf3>
    10e2:	9b 01       	movw	r18, r22
    10e4:	ac 01       	movw	r20, r24
    10e6:	c3 01       	movw	r24, r6
    10e8:	b2 01       	movw	r22, r4
    10ea:	0e 94 7e 38 	call	0x70fc	; 0x70fc <__addsf3>
    10ee:	20 e0       	ldi	r18, 0x00	; 0
    10f0:	30 e0       	ldi	r19, 0x00	; 0
    10f2:	40 e0       	ldi	r20, 0x00	; 0
    10f4:	5f e3       	ldi	r21, 0x3F	; 63
    10f6:	0e 94 42 3b 	call	0x7684	; 0x7684 <__mulsf3>
    10fa:	4b 01       	movw	r8, r22
    10fc:	5c 01       	movw	r10, r24
	float tb = tf/3;
    10fe:	c7 01       	movw	r24, r14
    1100:	b6 01       	movw	r22, r12
    1102:	20 e0       	ldi	r18, 0x00	; 0
    1104:	30 e0       	ldi	r19, 0x00	; 0
    1106:	40 e4       	ldi	r20, 0x40	; 64
    1108:	50 e4       	ldi	r21, 0x40	; 64
    110a:	0e 94 62 39 	call	0x72c4	; 0x72c4 <__divsf3>
    110e:	9b 01       	movw	r18, r22
    1110:	ac 01       	movw	r20, r24
	data.value[0]= V;
	data.value[1]= a;
	data.value[2]= tb;
	data.value[3]= tf;
	
	return data;
    1112:	f1 01       	movw	r30, r2
    1114:	c4 86       	std	Z+12, r12	; 0x0c
    1116:	d5 86       	std	Z+13, r13	; 0x0d
    1118:	e6 86       	std	Z+14, r14	; 0x0e
    111a:	f7 86       	std	Z+15, r15	; 0x0f
    111c:	60 87       	std	Z+8, r22	; 0x08
    111e:	71 87       	std	Z+9, r23	; 0x09
    1120:	82 87       	std	Z+10, r24	; 0x0a
    1122:	93 87       	std	Z+11, r25	; 0x0b
    1124:	c5 01       	movw	r24, r10
    1126:	b4 01       	movw	r22, r8
    1128:	0e 94 62 39 	call	0x72c4	; 0x72c4 <__divsf3>
    112c:	f1 01       	movw	r30, r2
    112e:	64 83       	std	Z+4, r22	; 0x04
    1130:	75 83       	std	Z+5, r23	; 0x05
    1132:	86 83       	std	Z+6, r24	; 0x06
    1134:	97 83       	std	Z+7, r25	; 0x07
    1136:	80 82       	st	Z, r8
    1138:	91 82       	std	Z+1, r9	; 0x01
    113a:	a2 82       	std	Z+2, r10	; 0x02
    113c:	b3 82       	std	Z+3, r11	; 0x03
	

} 
    113e:	c1 01       	movw	r24, r2
    1140:	1f 91       	pop	r17
    1142:	0f 91       	pop	r16
    1144:	ff 90       	pop	r15
    1146:	ef 90       	pop	r14
    1148:	df 90       	pop	r13
    114a:	cf 90       	pop	r12
    114c:	bf 90       	pop	r11
    114e:	af 90       	pop	r10
    1150:	9f 90       	pop	r9
    1152:	8f 90       	pop	r8
    1154:	7f 90       	pop	r7
    1156:	6f 90       	pop	r6
    1158:	5f 90       	pop	r5
    115a:	4f 90       	pop	r4
    115c:	3f 90       	pop	r3
    115e:	2f 90       	pop	r2
    1160:	08 95       	ret

00001162 <__vector_36>:
	DIR_RXD;
	device = fdevopen( std_putchar, std_getchar );
}

SIGNAL(USART1_RX_vect)
{
    1162:	1f 92       	push	r1
    1164:	0f 92       	push	r0
    1166:	0f b6       	in	r0, 0x3f	; 63
    1168:	0f 92       	push	r0
    116a:	0b b6       	in	r0, 0x3b	; 59
    116c:	0f 92       	push	r0
    116e:	11 24       	eor	r1, r1
    1170:	8f 93       	push	r24
    1172:	9f 93       	push	r25
    1174:	af 93       	push	r26
    1176:	bf 93       	push	r27
    1178:	ef 93       	push	r30
    117a:	ff 93       	push	r31

static char next = 0;
	
	//buffer[next] = getc();
	buffer[next] = UDR1;
    117c:	90 91 fa 08 	lds	r25, 0x08FA
    1180:	a9 2f       	mov	r26, r25
    1182:	b0 e0       	ldi	r27, 0x00	; 0
    1184:	80 91 ce 00 	lds	r24, 0x00CE
    1188:	fd 01       	movw	r30, r26
    118a:	e0 59       	subi	r30, 0x90	; 144
    118c:	f7 4f       	sbci	r31, 0xF7	; 247
    118e:	80 83       	st	Z, r24
		
	if(
    1190:	80 81       	ld	r24, Z
    1192:	81 36       	cpi	r24, 0x61	; 97
    1194:	18 f0       	brcs	.+6      	; 0x119c <__vector_36+0x3a>
    1196:	80 81       	ld	r24, Z
    1198:	8b 37       	cpi	r24, 0x7B	; 123
    119a:	f0 f0       	brcs	.+60     	; 0x11d8 <__vector_36+0x76>
    119c:	fd 01       	movw	r30, r26
    119e:	e0 59       	subi	r30, 0x90	; 144
    11a0:	f7 4f       	sbci	r31, 0xF7	; 247
    11a2:	80 81       	ld	r24, Z
    11a4:	80 33       	cpi	r24, 0x30	; 48
    11a6:	18 f0       	brcs	.+6      	; 0x11ae <__vector_36+0x4c>
    11a8:	80 81       	ld	r24, Z
    11aa:	8a 33       	cpi	r24, 0x3A	; 58
    11ac:	a8 f0       	brcs	.+42     	; 0x11d8 <__vector_36+0x76>
    11ae:	fd 01       	movw	r30, r26
    11b0:	e0 59       	subi	r30, 0x90	; 144
    11b2:	f7 4f       	sbci	r31, 0xF7	; 247
    11b4:	80 81       	ld	r24, Z
    11b6:	8d 32       	cpi	r24, 0x2D	; 45
    11b8:	79 f0       	breq	.+30     	; 0x11d8 <__vector_36+0x76>
    11ba:	80 81       	ld	r24, Z
    11bc:	80 32       	cpi	r24, 0x20	; 32
    11be:	61 f0       	breq	.+24     	; 0x11d8 <__vector_36+0x76>
    11c0:	80 81       	ld	r24, Z
    11c2:	89 30       	cpi	r24, 0x09	; 9
    11c4:	49 f0       	breq	.+18     	; 0x11d8 <__vector_36+0x76>
    11c6:	80 81       	ld	r24, Z
    11c8:	8e 32       	cpi	r24, 0x2E	; 46
    11ca:	31 f0       	breq	.+12     	; 0x11d8 <__vector_36+0x76>
	{
		++next;
		if (next >= BUFFER_SIZE) next = 0;
		return;
	}
	else if((buffer[next] >= 'A') && (buffer[next] <= 'Z'))
    11cc:	80 81       	ld	r24, Z
    11ce:	81 34       	cpi	r24, 0x41	; 65
    11d0:	50 f0       	brcs	.+20     	; 0x11e6 <__vector_36+0x84>
    11d2:	80 81       	ld	r24, Z
    11d4:	8b 35       	cpi	r24, 0x5B	; 91
    11d6:	38 f4       	brcc	.+14     	; 0x11e6 <__vector_36+0x84>
	{
	//	buffer[next]+= 32;		//Conversion a minuscula
		++next;
    11d8:	89 2f       	mov	r24, r25
    11da:	8f 5f       	subi	r24, 0xFF	; 255
    11dc:	80 93 fa 08 	sts	0x08FA, r24
		if (next >= BUFFER_SIZE) next = 0;
    11e0:	87 ff       	sbrs	r24, 7
    11e2:	17 c0       	rjmp	.+46     	; 0x1212 <__vector_36+0xb0>
    11e4:	14 c0       	rjmp	.+40     	; 0x120e <__vector_36+0xac>
		return;
	}
	else if((buffer[next] == '\r') || (buffer[next] == '\n'))//0x0D)
    11e6:	fd 01       	movw	r30, r26
    11e8:	e0 59       	subi	r30, 0x90	; 144
    11ea:	f7 4f       	sbci	r31, 0xF7	; 247
    11ec:	80 81       	ld	r24, Z
    11ee:	8d 30       	cpi	r24, 0x0D	; 13
    11f0:	19 f0       	breq	.+6      	; 0x11f8 <__vector_36+0x96>
    11f2:	80 81       	ld	r24, Z
    11f4:	8a 30       	cpi	r24, 0x0A	; 10
    11f6:	69 f4       	brne	.+26     	; 0x1212 <__vector_36+0xb0>
	{
		//putc(0x0A);
		buffer[next] = 0;
    11f8:	a0 59       	subi	r26, 0x90	; 144
    11fa:	b7 4f       	sbci	r27, 0xF7	; 247
    11fc:	1c 92       	st	X, r1
		//next++;
		//buffer[next] = 0;
		if(next != 0)
    11fe:	99 23       	and	r25, r25
    1200:	41 f0       	breq	.+16     	; 0x1212 <__vector_36+0xb0>
		{
			cmdReady = 1;
    1202:	81 e0       	ldi	r24, 0x01	; 1
    1204:	90 e0       	ldi	r25, 0x00	; 0
    1206:	90 93 f3 08 	sts	0x08F3, r25
    120a:	80 93 f2 08 	sts	0x08F2, r24
			next = 0;
    120e:	10 92 fa 08 	sts	0x08FA, r1
	//unsigned char a = serial_get_queue();
	//printf("dato: %c \n\r",a);
	

	
}
    1212:	ff 91       	pop	r31
    1214:	ef 91       	pop	r30
    1216:	bf 91       	pop	r27
    1218:	af 91       	pop	r26
    121a:	9f 91       	pop	r25
    121c:	8f 91       	pop	r24
    121e:	0f 90       	pop	r0
    1220:	0b be       	out	0x3b, r0	; 59
    1222:	0f 90       	pop	r0
    1224:	0f be       	out	0x3f, r0	; 63
    1226:	0f 90       	pop	r0
    1228:	1f 90       	pop	r1
    122a:	18 95       	reti

0000122c <is_alpha>:



int is_alpha(int c)
{
	if(((c >= 'a') && (c <= 'z')) || ((c >= 'A') && (c <= 'Z'))) return 1;
    122c:	9c 01       	movw	r18, r24
    122e:	81 56       	subi	r24, 0x61	; 97
    1230:	90 40       	sbci	r25, 0x00	; 0
    1232:	4a 97       	sbiw	r24, 0x1a	; 26
    1234:	38 f0       	brcs	.+14     	; 0x1244 <is_alpha+0x18>
    1236:	40 e0       	ldi	r20, 0x00	; 0
    1238:	50 e0       	ldi	r21, 0x00	; 0
    123a:	21 54       	subi	r18, 0x41	; 65
    123c:	30 40       	sbci	r19, 0x00	; 0
    123e:	2a 31       	cpi	r18, 0x1A	; 26
    1240:	31 05       	cpc	r19, r1
    1242:	10 f4       	brcc	.+4      	; 0x1248 <is_alpha+0x1c>
    1244:	41 e0       	ldi	r20, 0x01	; 1
    1246:	50 e0       	ldi	r21, 0x00	; 0
	return 0;
}
    1248:	ca 01       	movw	r24, r20
    124a:	08 95       	ret

0000124c <cmdX>:



void cmdX(char cmd, float p1, float p2, float p3, float p4, float p5, float p6, float p7, float p8)
{
    124c:	8f 92       	push	r8
    124e:	9f 92       	push	r9
    1250:	af 92       	push	r10
    1252:	bf 92       	push	r11
    1254:	cf 92       	push	r12
    1256:	df 92       	push	r13
    1258:	ef 92       	push	r14
    125a:	ff 92       	push	r15
    125c:	0f 93       	push	r16
    125e:	1f 93       	push	r17
    1260:	df 93       	push	r29
    1262:	cf 93       	push	r28
    1264:	cd b7       	in	r28, 0x3d	; 61
    1266:	de b7       	in	r29, 0x3e	; 62
	comando.cmd = cmd;
    1268:	80 93 13 11 	sts	0x1113, r24
	comando.param1 = p1;
    126c:	40 93 14 11 	sts	0x1114, r20
    1270:	50 93 15 11 	sts	0x1115, r21
    1274:	60 93 16 11 	sts	0x1116, r22
    1278:	70 93 17 11 	sts	0x1117, r23
	comando.param2 = p2;
    127c:	00 93 18 11 	sts	0x1118, r16
    1280:	10 93 19 11 	sts	0x1119, r17
    1284:	20 93 1a 11 	sts	0x111A, r18
    1288:	30 93 1b 11 	sts	0x111B, r19
	comando.param3 = p3;
    128c:	c0 92 1c 11 	sts	0x111C, r12
    1290:	d0 92 1d 11 	sts	0x111D, r13
    1294:	e0 92 1e 11 	sts	0x111E, r14
    1298:	f0 92 1f 11 	sts	0x111F, r15
	comando.param4 = p4;
    129c:	80 92 20 11 	sts	0x1120, r8
    12a0:	90 92 21 11 	sts	0x1121, r9
    12a4:	a0 92 22 11 	sts	0x1122, r10
    12a8:	b0 92 23 11 	sts	0x1123, r11
	comando.param5 = p5;
    12ac:	88 89       	ldd	r24, Y+16	; 0x10
    12ae:	99 89       	ldd	r25, Y+17	; 0x11
    12b0:	aa 89       	ldd	r26, Y+18	; 0x12
    12b2:	bb 89       	ldd	r27, Y+19	; 0x13
    12b4:	80 93 24 11 	sts	0x1124, r24
    12b8:	90 93 25 11 	sts	0x1125, r25
    12bc:	a0 93 26 11 	sts	0x1126, r26
    12c0:	b0 93 27 11 	sts	0x1127, r27
	comando.param6 = p6;
    12c4:	8c 89       	ldd	r24, Y+20	; 0x14
    12c6:	9d 89       	ldd	r25, Y+21	; 0x15
    12c8:	ae 89       	ldd	r26, Y+22	; 0x16
    12ca:	bf 89       	ldd	r27, Y+23	; 0x17
    12cc:	80 93 28 11 	sts	0x1128, r24
    12d0:	90 93 29 11 	sts	0x1129, r25
    12d4:	a0 93 2a 11 	sts	0x112A, r26
    12d8:	b0 93 2b 11 	sts	0x112B, r27
	comando.param7 = p7;
    12dc:	88 8d       	ldd	r24, Y+24	; 0x18
    12de:	99 8d       	ldd	r25, Y+25	; 0x19
    12e0:	aa 8d       	ldd	r26, Y+26	; 0x1a
    12e2:	bb 8d       	ldd	r27, Y+27	; 0x1b
    12e4:	80 93 2c 11 	sts	0x112C, r24
    12e8:	90 93 2d 11 	sts	0x112D, r25
    12ec:	a0 93 2e 11 	sts	0x112E, r26
    12f0:	b0 93 2f 11 	sts	0x112F, r27
	comando.param8 = p8;
    12f4:	8c 8d       	ldd	r24, Y+28	; 0x1c
    12f6:	9d 8d       	ldd	r25, Y+29	; 0x1d
    12f8:	ae 8d       	ldd	r26, Y+30	; 0x1e
    12fa:	bf 8d       	ldd	r27, Y+31	; 0x1f
    12fc:	80 93 30 11 	sts	0x1130, r24
    1300:	90 93 31 11 	sts	0x1131, r25
    1304:	a0 93 32 11 	sts	0x1132, r26
    1308:	b0 93 33 11 	sts	0x1133, r27

}
    130c:	cf 91       	pop	r28
    130e:	df 91       	pop	r29
    1310:	1f 91       	pop	r17
    1312:	0f 91       	pop	r16
    1314:	ff 90       	pop	r15
    1316:	ef 90       	pop	r14
    1318:	df 90       	pop	r13
    131a:	cf 90       	pop	r12
    131c:	bf 90       	pop	r11
    131e:	af 90       	pop	r10
    1320:	9f 90       	pop	r9
    1322:	8f 90       	pop	r8
    1324:	08 95       	ret

00001326 <is_digit>:
}



int is_digit(int c)
{
    1326:	20 e0       	ldi	r18, 0x00	; 0
    1328:	30 e0       	ldi	r19, 0x00	; 0
    132a:	c0 97       	sbiw	r24, 0x30	; 48
    132c:	0a 97       	sbiw	r24, 0x0a	; 10
    132e:	10 f4       	brcc	.+4      	; 0x1334 <is_digit+0xe>
    1330:	21 e0       	ldi	r18, 0x01	; 1
    1332:	30 e0       	ldi	r19, 0x00	; 0
	if((c >= '0') && (c <= '9')) return 1;
	return 0;
}
    1334:	c9 01       	movw	r24, r18
    1336:	08 95       	ret

00001338 <serial_write>:

void serial_write( unsigned char *pData, int numbyte )
{
    1338:	ac 01       	movw	r20, r24
    133a:	20 e0       	ldi	r18, 0x00	; 0
    133c:	30 e0       	ldi	r19, 0x00	; 0
    133e:	0c c0       	rjmp	.+24     	; 0x1358 <serial_write+0x20>
	int count;

	for( count=0; count<numbyte; count++ )
	{
		while(!bit_is_set(UCSR1A,5));
    1340:	80 91 c8 00 	lds	r24, 0x00C8
    1344:	85 ff       	sbrs	r24, 5
    1346:	fc cf       	rjmp	.-8      	; 0x1340 <serial_write+0x8>
		UDR1 = pData[count];
    1348:	fa 01       	movw	r30, r20
    134a:	e2 0f       	add	r30, r18
    134c:	f3 1f       	adc	r31, r19
    134e:	80 81       	ld	r24, Z
    1350:	80 93 ce 00 	sts	0x00CE, r24

void serial_write( unsigned char *pData, int numbyte )
{
	int count;

	for( count=0; count<numbyte; count++ )
    1354:	2f 5f       	subi	r18, 0xFF	; 255
    1356:	3f 4f       	sbci	r19, 0xFF	; 255
    1358:	26 17       	cp	r18, r22
    135a:	37 07       	cpc	r19, r23
    135c:	8c f3       	brlt	.-30     	; 0x1340 <serial_write+0x8>
	{
		while(!bit_is_set(UCSR1A,5));
		UDR1 = pData[count];
	}
}
    135e:	08 95       	ret

00001360 <serial_get_qstate>:
}
int serial_get_qstate(void)
{
	short NumByte;
	
	if( bufferHead == bufferTail )
    1360:	90 91 f0 08 	lds	r25, 0x08F0
    1364:	80 91 f1 08 	lds	r24, 0x08F1
    1368:	98 17       	cp	r25, r24
    136a:	19 f4       	brne	.+6      	; 0x1372 <serial_get_qstate+0x12>
    136c:	20 e0       	ldi	r18, 0x00	; 0
    136e:	30 e0       	ldi	r19, 0x00	; 0
    1370:	17 c0       	rjmp	.+46     	; 0x13a0 <serial_get_qstate+0x40>
		NumByte = 0;
	else if( bufferHead < bufferTail )
    1372:	90 91 f0 08 	lds	r25, 0x08F0
    1376:	80 91 f1 08 	lds	r24, 0x08F1
    137a:	98 17       	cp	r25, r24
    137c:	38 f4       	brcc	.+14     	; 0x138c <serial_get_qstate+0x2c>
		NumByte = bufferTail - bufferHead;
    137e:	80 91 f1 08 	lds	r24, 0x08F1
    1382:	90 91 f0 08 	lds	r25, 0x08F0
    1386:	28 2f       	mov	r18, r24
    1388:	30 e0       	ldi	r19, 0x00	; 0
    138a:	08 c0       	rjmp	.+16     	; 0x139c <serial_get_qstate+0x3c>
	else
		NumByte = BUFFER_SIZE - (bufferHead - bufferTail);
    138c:	80 91 f1 08 	lds	r24, 0x08F1
    1390:	90 91 f0 08 	lds	r25, 0x08F0
    1394:	28 2f       	mov	r18, r24
    1396:	30 e0       	ldi	r19, 0x00	; 0
    1398:	20 58       	subi	r18, 0x80	; 128
    139a:	3f 4f       	sbci	r19, 0xFF	; 255
    139c:	29 1b       	sub	r18, r25
    139e:	31 09       	sbc	r19, r1
	
	return (int)NumByte;
}
    13a0:	c9 01       	movw	r24, r18
    13a2:	08 95       	ret

000013a4 <serial_put_queue>:
void serial_put_queue( unsigned char data )
{
    13a4:	1f 93       	push	r17
    13a6:	18 2f       	mov	r17, r24

	if( serial_get_qstate() == (BUFFER_SIZE-1) )
    13a8:	0e 94 b0 09 	call	0x1360	; 0x1360 <serial_get_qstate>
    13ac:	8f 37       	cpi	r24, 0x7F	; 127
    13ae:	91 05       	cpc	r25, r1
    13b0:	91 f0       	breq	.+36     	; 0x13d6 <serial_put_queue+0x32>
		return;
	
	buffer[bufferTail] = data;
    13b2:	e0 91 f1 08 	lds	r30, 0x08F1
    13b6:	f0 e0       	ldi	r31, 0x00	; 0
    13b8:	e0 59       	subi	r30, 0x90	; 144
    13ba:	f7 4f       	sbci	r31, 0xF7	; 247
    13bc:	10 83       	st	Z, r17

	if( bufferTail == (BUFFER_SIZE-1) )
    13be:	80 91 f1 08 	lds	r24, 0x08F1
    13c2:	8f 37       	cpi	r24, 0x7F	; 127
    13c4:	19 f4       	brne	.+6      	; 0x13cc <serial_put_queue+0x28>
		bufferTail = 0;
    13c6:	10 92 f1 08 	sts	0x08F1, r1
    13ca:	05 c0       	rjmp	.+10     	; 0x13d6 <serial_put_queue+0x32>
	else
		bufferTail++;
    13cc:	80 91 f1 08 	lds	r24, 0x08F1
    13d0:	8f 5f       	subi	r24, 0xFF	; 255
    13d2:	80 93 f1 08 	sts	0x08F1, r24

		
}
    13d6:	1f 91       	pop	r17
    13d8:	08 95       	ret

000013da <serial_get_queue>:
unsigned char serial_get_queue(void)
{
	unsigned char data;
	
	if( bufferHead == bufferTail )
    13da:	90 91 f0 08 	lds	r25, 0x08F0
    13de:	80 91 f1 08 	lds	r24, 0x08F1
    13e2:	98 17       	cp	r25, r24
    13e4:	11 f4       	brne	.+4      	; 0x13ea <serial_get_queue+0x10>
    13e6:	ef ef       	ldi	r30, 0xFF	; 255
    13e8:	12 c0       	rjmp	.+36     	; 0x140e <serial_get_queue+0x34>
		return 0xff;
		
	data = buffer[bufferHead];
    13ea:	e0 91 f0 08 	lds	r30, 0x08F0
    13ee:	f0 e0       	ldi	r31, 0x00	; 0
    13f0:	e0 59       	subi	r30, 0x90	; 144
    13f2:	f7 4f       	sbci	r31, 0xF7	; 247
    13f4:	e0 81       	ld	r30, Z
		
	if( bufferHead == (BUFFER_SIZE-1) )
    13f6:	80 91 f0 08 	lds	r24, 0x08F0
    13fa:	8f 37       	cpi	r24, 0x7F	; 127
    13fc:	19 f4       	brne	.+6      	; 0x1404 <serial_get_queue+0x2a>
		bufferHead = 0;
    13fe:	10 92 f0 08 	sts	0x08F0, r1
    1402:	05 c0       	rjmp	.+10     	; 0x140e <serial_get_queue+0x34>
	else
		bufferHead++;
    1404:	80 91 f0 08 	lds	r24, 0x08F0
    1408:	8f 5f       	subi	r24, 0xFF	; 255
    140a:	80 93 f0 08 	sts	0x08F0, r24
		
	return data;
}
    140e:	8e 2f       	mov	r24, r30
    1410:	08 95       	ret

00001412 <serial_read>:
		while(!bit_is_set(UCSR1A,5));
		UDR1 = pData[count];
	}
}
unsigned char serial_read( unsigned char *pData, int numbyte )
{
    1412:	ef 92       	push	r14
    1414:	ff 92       	push	r15
    1416:	0f 93       	push	r16
    1418:	1f 93       	push	r17
    141a:	cf 93       	push	r28
    141c:	df 93       	push	r29
    141e:	7c 01       	movw	r14, r24
    1420:	eb 01       	movw	r28, r22
	int count, numgetbyte;
	
	if( bufferHead == bufferTail )
    1422:	90 91 f0 08 	lds	r25, 0x08F0
    1426:	80 91 f1 08 	lds	r24, 0x08F1
    142a:	98 17       	cp	r25, r24
    142c:	11 f4       	brne	.+4      	; 0x1432 <serial_read+0x20>
    142e:	80 e0       	ldi	r24, 0x00	; 0
    1430:	15 c0       	rjmp	.+42     	; 0x145c <serial_read+0x4a>
		return 0;
	
	numgetbyte = serial_get_qstate();
    1432:	0e 94 b0 09 	call	0x1360	; 0x1360 <serial_get_qstate>
    1436:	8c 01       	movw	r16, r24
    1438:	c8 17       	cp	r28, r24
    143a:	d9 07       	cpc	r29, r25
    143c:	0c f4       	brge	.+2      	; 0x1440 <serial_read+0x2e>
    143e:	8e 01       	movw	r16, r28
    1440:	c0 e0       	ldi	r28, 0x00	; 0
    1442:	d0 e0       	ldi	r29, 0x00	; 0
    1444:	07 c0       	rjmp	.+14     	; 0x1454 <serial_read+0x42>
	if( numgetbyte > numbyte )
		numgetbyte = numbyte;
	
	for( count=0; count<numgetbyte; count++ )
		pData[count] = serial_get_queue();
    1446:	0e 94 ed 09 	call	0x13da	; 0x13da <serial_get_queue>
    144a:	f7 01       	movw	r30, r14
    144c:	ec 0f       	add	r30, r28
    144e:	fd 1f       	adc	r31, r29
    1450:	80 83       	st	Z, r24
	
	numgetbyte = serial_get_qstate();
	if( numgetbyte > numbyte )
		numgetbyte = numbyte;
	
	for( count=0; count<numgetbyte; count++ )
    1452:	21 96       	adiw	r28, 0x01	; 1
    1454:	c0 17       	cp	r28, r16
    1456:	d1 07       	cpc	r29, r17
    1458:	b4 f3       	brlt	.-20     	; 0x1446 <serial_read+0x34>
		pData[count] = serial_get_queue();
	
	return numgetbyte;
    145a:	80 2f       	mov	r24, r16
}
    145c:	df 91       	pop	r29
    145e:	cf 91       	pop	r28
    1460:	1f 91       	pop	r17
    1462:	0f 91       	pop	r16
    1464:	ff 90       	pop	r15
    1466:	ef 90       	pop	r14
    1468:	08 95       	ret

0000146a <std_putchar>:
		bufferHead++;
		
	return data;
}
int std_putchar(char c)
{
    146a:	df 93       	push	r29
    146c:	cf 93       	push	r28
    146e:	0f 92       	push	r0
    1470:	0f 92       	push	r0
    1472:	cd b7       	in	r28, 0x3d	; 61
    1474:	de b7       	in	r29, 0x3e	; 62
    1476:	28 2f       	mov	r18, r24
    1478:	ae 01       	movw	r20, r28
    147a:	4f 5f       	subi	r20, 0xFF	; 255
    147c:	5f 4f       	sbci	r21, 0xFF	; 255
	char tx[2];
	
    if( c == '\n' )
    147e:	8a 30       	cpi	r24, 0x0A	; 10
    1480:	39 f4       	brne	.+14     	; 0x1490 <std_putchar+0x26>
	{
        tx[0] = '\r';
    1482:	8d e0       	ldi	r24, 0x0D	; 13
    1484:	89 83       	std	Y+1, r24	; 0x01
		tx[1] = '\n';
    1486:	2a 83       	std	Y+2, r18	; 0x02
		serial_write( (unsigned char*)tx, 2 );
    1488:	ca 01       	movw	r24, r20
    148a:	62 e0       	ldi	r22, 0x02	; 2
    148c:	70 e0       	ldi	r23, 0x00	; 0
    148e:	04 c0       	rjmp	.+8      	; 0x1498 <std_putchar+0x2e>
	}
	else
	{
		tx[0] = c;
    1490:	89 83       	std	Y+1, r24	; 0x01
		serial_write( (unsigned char*)tx, 1 );
    1492:	ca 01       	movw	r24, r20
    1494:	61 e0       	ldi	r22, 0x01	; 1
    1496:	70 e0       	ldi	r23, 0x00	; 0
    1498:	0e 94 9c 09 	call	0x1338	; 0x1338 <serial_write>
	}
 
    return 0;
}
    149c:	80 e0       	ldi	r24, 0x00	; 0
    149e:	90 e0       	ldi	r25, 0x00	; 0
    14a0:	0f 90       	pop	r0
    14a2:	0f 90       	pop	r0
    14a4:	cf 91       	pop	r28
    14a6:	df 91       	pop	r29
    14a8:	08 95       	ret

000014aa <std_getchar>:
int std_getchar(void)
{
    char rx;
	
	while( serial_get_qstate() == 0 );
    14aa:	0e 94 b0 09 	call	0x1360	; 0x1360 <serial_get_qstate>
    14ae:	89 2b       	or	r24, r25
    14b0:	e1 f3       	breq	.-8      	; 0x14aa <std_getchar>
	rx = serial_get_queue();
    14b2:	0e 94 ed 09 	call	0x13da	; 0x13da <serial_get_queue>
	
	if( rx == '\r' )
    14b6:	8d 30       	cpi	r24, 0x0D	; 13
    14b8:	09 f4       	brne	.+2      	; 0x14bc <std_getchar+0x12>
    14ba:	8a e0       	ldi	r24, 0x0A	; 10
		rx = '\n';

    return rx;
}
    14bc:	90 e0       	ldi	r25, 0x00	; 0
    14be:	08 95       	ret

000014c0 <Leds>:


void Leds()
{

if(doLoop) PORTC &= 0b0111111;
    14c0:	80 91 47 08 	lds	r24, 0x0847
    14c4:	90 91 48 08 	lds	r25, 0x0848
    14c8:	89 2b       	or	r24, r25
    14ca:	21 f0       	breq	.+8      	; 0x14d4 <Leds+0x14>
    14cc:	88 b1       	in	r24, 0x08	; 8
    14ce:	8f 73       	andi	r24, 0x3F	; 63
    14d0:	88 b9       	out	0x08, r24	; 8
    14d2:	01 c0       	rjmp	.+2      	; 0x14d6 <Leds+0x16>
	else PORTC |= 0b1000000;
    14d4:	46 9a       	sbi	0x08, 6	; 8

if(doReading) PORTC &= 0b1011111;
    14d6:	80 91 49 08 	lds	r24, 0x0849
    14da:	90 91 4a 08 	lds	r25, 0x084A
    14de:	89 2b       	or	r24, r25
    14e0:	21 f0       	breq	.+8      	; 0x14ea <Leds+0x2a>
    14e2:	88 b1       	in	r24, 0x08	; 8
    14e4:	8f 75       	andi	r24, 0x5F	; 95
    14e6:	88 b9       	out	0x08, r24	; 8
    14e8:	01 c0       	rjmp	.+2      	; 0x14ec <Leds+0x2c>
	else PORTC |= 0b0100000;
    14ea:	45 9a       	sbi	0x08, 5	; 8

if(doControl) PORTC &= 0b1101111;
    14ec:	80 91 5a 08 	lds	r24, 0x085A
    14f0:	90 91 5b 08 	lds	r25, 0x085B
    14f4:	89 2b       	or	r24, r25
    14f6:	21 f0       	breq	.+8      	; 0x1500 <Leds+0x40>
    14f8:	88 b1       	in	r24, 0x08	; 8
    14fa:	8f 76       	andi	r24, 0x6F	; 111
    14fc:	88 b9       	out	0x08, r24	; 8
    14fe:	01 c0       	rjmp	.+2      	; 0x1502 <Leds+0x42>
	else PORTC |= 0b0010000;
    1500:	44 9a       	sbi	0x08, 4	; 8

if(count>5000)
    1502:	80 91 f8 08 	lds	r24, 0x08F8
    1506:	90 91 f9 08 	lds	r25, 0x08F9
    150a:	89 58       	subi	r24, 0x89	; 137
    150c:	93 41       	sbci	r25, 0x13	; 19
    150e:	44 f0       	brlt	.+16     	; 0x1520 <Leds+0x60>
	{
		PORTC ^= 0b0000010;
    1510:	88 b1       	in	r24, 0x08	; 8
    1512:	92 e0       	ldi	r25, 0x02	; 2
    1514:	89 27       	eor	r24, r25
    1516:	88 b9       	out	0x08, r24	; 8
		count = 0;
    1518:	10 92 f9 08 	sts	0x08F9, r1
    151c:	10 92 f8 08 	sts	0x08F8, r1
	}
	count++;
    1520:	80 91 f8 08 	lds	r24, 0x08F8
    1524:	90 91 f9 08 	lds	r25, 0x08F9
    1528:	01 96       	adiw	r24, 0x01	; 1
    152a:	90 93 f9 08 	sts	0x08F9, r25
    152e:	80 93 f8 08 	sts	0x08F8, r24
}
    1532:	08 95       	ret

00001534 <PrintCommStatus>:
	printf("i 1 %d %d %d %d %d %d %d \r",p0,p1,p2,p3,p4,p5,p6);
}
// Print communication result
void PrintCommStatus(int CommStatus)
{
	switch(CommStatus)
    1534:	84 30       	cpi	r24, 0x04	; 4
    1536:	91 05       	cpc	r25, r1
    1538:	b9 f0       	breq	.+46     	; 0x1568 <PrintCommStatus+0x34>
    153a:	85 30       	cpi	r24, 0x05	; 5
    153c:	91 05       	cpc	r25, r1
    153e:	34 f4       	brge	.+12     	; 0x154c <PrintCommStatus+0x18>
    1540:	82 30       	cpi	r24, 0x02	; 2
    1542:	91 05       	cpc	r25, r1
    1544:	61 f0       	breq	.+24     	; 0x155e <PrintCommStatus+0x2a>
    1546:	03 97       	sbiw	r24, 0x03	; 3
    1548:	41 f5       	brne	.+80     	; 0x159a <PrintCommStatus+0x66>
    154a:	13 c0       	rjmp	.+38     	; 0x1572 <PrintCommStatus+0x3e>
    154c:	86 30       	cpi	r24, 0x06	; 6
    154e:	91 05       	cpc	r25, r1
    1550:	d1 f0       	breq	.+52     	; 0x1586 <PrintCommStatus+0x52>
    1552:	86 30       	cpi	r24, 0x06	; 6
    1554:	91 05       	cpc	r25, r1
    1556:	94 f0       	brlt	.+36     	; 0x157c <PrintCommStatus+0x48>
    1558:	07 97       	sbiw	r24, 0x07	; 7
    155a:	f9 f4       	brne	.+62     	; 0x159a <PrintCommStatus+0x66>
    155c:	19 c0       	rjmp	.+50     	; 0x1590 <PrintCommStatus+0x5c>
	{
	case COMM_TXFAIL:
		//printf("COMM_TXFAIL: Failed transmit instruction packet!\n");
		printf("txf\r");
    155e:	0f 92       	push	r0
    1560:	0f 92       	push	r0
    1562:	80 e0       	ldi	r24, 0x00	; 0
    1564:	92 e0       	ldi	r25, 0x02	; 2
    1566:	1d c0       	rjmp	.+58     	; 0x15a2 <PrintCommStatus+0x6e>
		break;

	case COMM_TXERROR:
		//printf("COMM_TXERROR: Incorrect instruction packet!\n");
		printf("txe\r");
    1568:	0f 92       	push	r0
    156a:	0f 92       	push	r0
    156c:	85 e0       	ldi	r24, 0x05	; 5
    156e:	92 e0       	ldi	r25, 0x02	; 2
    1570:	18 c0       	rjmp	.+48     	; 0x15a2 <PrintCommStatus+0x6e>
		break;

	case COMM_RXFAIL:
		//printf("COMM_RXFAIL: Failed get status packet from device!\n");
		printf("rxf\r");
    1572:	0f 92       	push	r0
    1574:	0f 92       	push	r0
    1576:	8a e0       	ldi	r24, 0x0A	; 10
    1578:	92 e0       	ldi	r25, 0x02	; 2
    157a:	13 c0       	rjmp	.+38     	; 0x15a2 <PrintCommStatus+0x6e>
		break;

	case COMM_RXWAITING:
		//printf("COMM_RXWAITING: Now recieving status packet!\n");
		printf("rxz\r");
    157c:	0f 92       	push	r0
    157e:	0f 92       	push	r0
    1580:	8f e0       	ldi	r24, 0x0F	; 15
    1582:	92 e0       	ldi	r25, 0x02	; 2
    1584:	0e c0       	rjmp	.+28     	; 0x15a2 <PrintCommStatus+0x6e>
		break;

	case COMM_RXTIMEOUT:
		//printf("COMM_RXTIMEOUT: There is no status packet!\n");
		printf("rxo\r");
    1586:	0f 92       	push	r0
    1588:	0f 92       	push	r0
    158a:	84 e1       	ldi	r24, 0x14	; 20
    158c:	92 e0       	ldi	r25, 0x02	; 2
    158e:	09 c0       	rjmp	.+18     	; 0x15a2 <PrintCommStatus+0x6e>
		break;

	case COMM_RXCORRUPT:
		//printf("COMM_RXCORRUPT: Incorrect status packet!\n");
		printf("rxs\r");
    1590:	0f 92       	push	r0
    1592:	0f 92       	push	r0
    1594:	89 e1       	ldi	r24, 0x19	; 25
    1596:	92 e0       	ldi	r25, 0x02	; 2
    1598:	04 c0       	rjmp	.+8      	; 0x15a2 <PrintCommStatus+0x6e>
		break;

	default:
		//printf("This is unknown error code!\n");
		printf("rxx\r");
    159a:	0f 92       	push	r0
    159c:	0f 92       	push	r0
    159e:	8e e1       	ldi	r24, 0x1E	; 30
    15a0:	92 e0       	ldi	r25, 0x02	; 2
    15a2:	ed b7       	in	r30, 0x3d	; 61
    15a4:	fe b7       	in	r31, 0x3e	; 62
    15a6:	92 83       	std	Z+2, r25	; 0x02
    15a8:	81 83       	std	Z+1, r24	; 0x01
    15aa:	0e 94 fc 3e 	call	0x7df8	; 0x7df8 <printf>
    15ae:	0f 90       	pop	r0
    15b0:	0f 90       	pop	r0
    15b2:	08 95       	ret

000015b4 <fetchParam>:




int fetchParam(char *cc, float *param)
{
    15b4:	ef 92       	push	r14
    15b6:	ff 92       	push	r15
    15b8:	1f 93       	push	r17
    15ba:	cf 93       	push	r28
    15bc:	df 93       	push	r29
    15be:	ec 01       	movw	r28, r24
    15c0:	7b 01       	movw	r14, r22
	char *bcc, c;
	int pointCount = 0;
	
	
	if((buffer[*cc] != ' ') && (buffer[*cc] != '\t')) return 0;		// Se espera espacio
    15c2:	88 81       	ld	r24, Y
    15c4:	e8 2f       	mov	r30, r24
    15c6:	f0 e0       	ldi	r31, 0x00	; 0
    15c8:	e0 59       	subi	r30, 0x90	; 144
    15ca:	f7 4f       	sbci	r31, 0xF7	; 247
    15cc:	80 81       	ld	r24, Z
    15ce:	80 32       	cpi	r24, 0x20	; 32
    15d0:	39 f0       	breq	.+14     	; 0x15e0 <fetchParam+0x2c>
    15d2:	80 81       	ld	r24, Z
    15d4:	89 30       	cpi	r24, 0x09	; 9
    15d6:	09 f0       	breq	.+2      	; 0x15da <fetchParam+0x26>
    15d8:	4b c0       	rjmp	.+150    	; 0x1670 <fetchParam+0xbc>
    15da:	02 c0       	rjmp	.+4      	; 0x15e0 <fetchParam+0x2c>

	while((buffer[*cc] == ' ') || (buffer[*cc] == '\t')) ++(*cc);	// Como espacios
    15dc:	4f 5f       	subi	r20, 0xFF	; 255
    15de:	48 83       	st	Y, r20
    15e0:	48 81       	ld	r20, Y
    15e2:	e4 2f       	mov	r30, r20
    15e4:	f0 e0       	ldi	r31, 0x00	; 0
    15e6:	e0 59       	subi	r30, 0x90	; 144
    15e8:	f7 4f       	sbci	r31, 0xF7	; 247
    15ea:	80 81       	ld	r24, Z
    15ec:	80 32       	cpi	r24, 0x20	; 32
    15ee:	b1 f3       	breq	.-20     	; 0x15dc <fetchParam+0x28>
    15f0:	80 81       	ld	r24, Z
    15f2:	89 30       	cpi	r24, 0x09	; 9
    15f4:	99 f3       	breq	.-26     	; 0x15dc <fetchParam+0x28>
	bcc = buffer + *cc;												// Guardo posicion de inicio de primer parametro
	if((buffer[*cc] != '-') && !is_digit(buffer[*cc])) return 0;		// Se espera - o numero
    15f6:	80 81       	ld	r24, Z
    15f8:	8d 32       	cpi	r24, 0x2D	; 45
    15fa:	29 f0       	breq	.+10     	; 0x1606 <fetchParam+0x52>
    15fc:	80 81       	ld	r24, Z



int is_digit(int c)
{
	if((c >= '0') && (c <= '9')) return 1;
    15fe:	90 e0       	ldi	r25, 0x00	; 0
    1600:	c0 97       	sbiw	r24, 0x30	; 48
    1602:	0a 97       	sbiw	r24, 0x0a	; 10
    1604:	a8 f5       	brcc	.+106    	; 0x1670 <fetchParam+0xbc>
	if((buffer[*cc] != ' ') && (buffer[*cc] != '\t')) return 0;		// Se espera espacio

	while((buffer[*cc] == ' ') || (buffer[*cc] == '\t')) ++(*cc);	// Como espacios
	bcc = buffer + *cc;												// Guardo posicion de inicio de primer parametro
	if((buffer[*cc] != '-') && !is_digit(buffer[*cc])) return 0;		// Se espera - o numero
	++(*cc);
    1606:	4f 5f       	subi	r20, 0xFF	; 255
    1608:	48 83       	st	Y, r20
    160a:	41 50       	subi	r20, 0x01	; 1
    160c:	20 e0       	ldi	r18, 0x00	; 0
    160e:	30 e0       	ldi	r19, 0x00	; 0
    1610:	09 c0       	rjmp	.+18     	; 0x1624 <fetchParam+0x70>
	while(is_digit(buffer[*cc]) || (buffer[*cc] == '.'))				// Como numeros y punto decimal
	{
		if(buffer[*cc] == '.') ++pointCount;						// Cuento los puntos decimales
    1612:	e0 59       	subi	r30, 0x90	; 144
    1614:	f7 4f       	sbci	r31, 0xF7	; 247
    1616:	80 81       	ld	r24, Z
    1618:	8e 32       	cpi	r24, 0x2E	; 46
    161a:	11 f4       	brne	.+4      	; 0x1620 <fetchParam+0x6c>
    161c:	2f 5f       	subi	r18, 0xFF	; 255
    161e:	3f 4f       	sbci	r19, 0xFF	; 255
		 ++(*cc);
    1620:	5f 5f       	subi	r21, 0xFF	; 255
    1622:	58 83       	st	Y, r21

	while((buffer[*cc] == ' ') || (buffer[*cc] == '\t')) ++(*cc);	// Como espacios
	bcc = buffer + *cc;												// Guardo posicion de inicio de primer parametro
	if((buffer[*cc] != '-') && !is_digit(buffer[*cc])) return 0;		// Se espera - o numero
	++(*cc);
	while(is_digit(buffer[*cc]) || (buffer[*cc] == '.'))				// Como numeros y punto decimal
    1624:	58 81       	ld	r21, Y
    1626:	e5 2f       	mov	r30, r21
    1628:	f0 e0       	ldi	r31, 0x00	; 0
    162a:	df 01       	movw	r26, r30
    162c:	a0 59       	subi	r26, 0x90	; 144
    162e:	b7 4f       	sbci	r27, 0xF7	; 247
    1630:	8c 91       	ld	r24, X



int is_digit(int c)
{
	if((c >= '0') && (c <= '9')) return 1;
    1632:	90 e0       	ldi	r25, 0x00	; 0
    1634:	c0 97       	sbiw	r24, 0x30	; 48
    1636:	0a 97       	sbiw	r24, 0x0a	; 10
    1638:	60 f3       	brcs	.-40     	; 0x1612 <fetchParam+0x5e>
    163a:	23 c0       	rjmp	.+70     	; 0x1682 <fetchParam+0xce>
	while(is_digit(buffer[*cc]) || (buffer[*cc] == '.'))				// Como numeros y punto decimal
	{
		if(buffer[*cc] == '.') ++pointCount;						// Cuento los puntos decimales
		 ++(*cc);
	}
	if(pointCount > 1) return 0;									// Solo se acepta un punto decimal
    163c:	22 30       	cpi	r18, 0x02	; 2
    163e:	31 05       	cpc	r19, r1
    1640:	bc f4       	brge	.+46     	; 0x1670 <fetchParam+0xbc>
	c = buffer[*cc];												// Respaldo Caracter 
    1642:	1c 91       	ld	r17, X
	buffer[*cc] = 0;												// Simulo fin de cadena
    1644:	1c 92       	st	X, r1
	//*param = (float)atof(bcc);												// Obtengo el parametro
	//sscanf(bcc, "%f", param);
	//printf("FLOAT: %f    ,bcc: %c",param, bcc);
	*param = (float)strtod(bcc,0);
    1646:	84 2f       	mov	r24, r20
    1648:	90 e0       	ldi	r25, 0x00	; 0
    164a:	80 59       	subi	r24, 0x90	; 144
    164c:	97 4f       	sbci	r25, 0xF7	; 247
    164e:	60 e0       	ldi	r22, 0x00	; 0
    1650:	70 e0       	ldi	r23, 0x00	; 0
    1652:	0e 94 05 3c 	call	0x780a	; 0x780a <strtod>
    1656:	f7 01       	movw	r30, r14
    1658:	60 83       	st	Z, r22
    165a:	71 83       	std	Z+1, r23	; 0x01
    165c:	82 83       	std	Z+2, r24	; 0x02
    165e:	93 83       	std	Z+3, r25	; 0x03
	buffer[*cc] = c;												// Recupero caracter
    1660:	e8 81       	ld	r30, Y
    1662:	f0 e0       	ldi	r31, 0x00	; 0
    1664:	e0 59       	subi	r30, 0x90	; 144
    1666:	f7 4f       	sbci	r31, 0xF7	; 247
    1668:	10 83       	st	Z, r17
    166a:	21 e0       	ldi	r18, 0x01	; 1
    166c:	30 e0       	ldi	r19, 0x00	; 0
    166e:	02 c0       	rjmp	.+4      	; 0x1674 <fetchParam+0xc0>
	return 1;
    1670:	20 e0       	ldi	r18, 0x00	; 0
    1672:	30 e0       	ldi	r19, 0x00	; 0
}
    1674:	c9 01       	movw	r24, r18
    1676:	df 91       	pop	r29
    1678:	cf 91       	pop	r28
    167a:	1f 91       	pop	r17
    167c:	ff 90       	pop	r15
    167e:	ef 90       	pop	r14
    1680:	08 95       	ret

	while((buffer[*cc] == ' ') || (buffer[*cc] == '\t')) ++(*cc);	// Como espacios
	bcc = buffer + *cc;												// Guardo posicion de inicio de primer parametro
	if((buffer[*cc] != '-') && !is_digit(buffer[*cc])) return 0;		// Se espera - o numero
	++(*cc);
	while(is_digit(buffer[*cc]) || (buffer[*cc] == '.'))				// Como numeros y punto decimal
    1682:	8c 91       	ld	r24, X
    1684:	8e 32       	cpi	r24, 0x2E	; 46
    1686:	29 f2       	breq	.-118    	; 0x1612 <fetchParam+0x5e>
    1688:	d9 cf       	rjmp	.-78     	; 0x163c <fetchParam+0x88>

0000168a <fetchCommand>:
	return 1;
}


int fetchCommand()
{
    168a:	2f 92       	push	r2
    168c:	3f 92       	push	r3
    168e:	4f 92       	push	r4
    1690:	5f 92       	push	r5
    1692:	6f 92       	push	r6
    1694:	7f 92       	push	r7
    1696:	8f 92       	push	r8
    1698:	9f 92       	push	r9
    169a:	af 92       	push	r10
    169c:	bf 92       	push	r11
    169e:	cf 92       	push	r12
    16a0:	df 92       	push	r13
    16a2:	ef 92       	push	r14
    16a4:	ff 92       	push	r15
    16a6:	0f 93       	push	r16
    16a8:	1f 93       	push	r17
    16aa:	df 93       	push	r29
    16ac:	cf 93       	push	r28
    16ae:	cd b7       	in	r28, 0x3d	; 61
    16b0:	de b7       	in	r29, 0x3e	; 62
    16b2:	e1 97       	sbiw	r28, 0x31	; 49
    16b4:	0f b6       	in	r0, 0x3f	; 63
    16b6:	f8 94       	cli
    16b8:	de bf       	out	0x3e, r29	; 62
    16ba:	0f be       	out	0x3f, r0	; 63
    16bc:	cd bf       	out	0x3d, r28	; 61
	float p7 = 0;
	float p8 = 0;
	
	//Sin parmetros

	if( (buffer[0] == 'g')||(buffer[0] == 's')||(buffer[0] == 'h')||(buffer[0] == 'i') || (buffer[0] == 'S') || (buffer[0] == 'v')||(buffer[0] == 'C' ))
    16be:	80 91 70 08 	lds	r24, 0x0870
    16c2:	87 36       	cpi	r24, 0x67	; 103
    16c4:	c1 f0       	breq	.+48     	; 0x16f6 <fetchCommand+0x6c>
    16c6:	80 91 70 08 	lds	r24, 0x0870
    16ca:	83 37       	cpi	r24, 0x73	; 115
    16cc:	a1 f0       	breq	.+40     	; 0x16f6 <fetchCommand+0x6c>
    16ce:	80 91 70 08 	lds	r24, 0x0870
    16d2:	88 36       	cpi	r24, 0x68	; 104
    16d4:	81 f0       	breq	.+32     	; 0x16f6 <fetchCommand+0x6c>
    16d6:	80 91 70 08 	lds	r24, 0x0870
    16da:	89 36       	cpi	r24, 0x69	; 105
    16dc:	61 f0       	breq	.+24     	; 0x16f6 <fetchCommand+0x6c>
    16de:	80 91 70 08 	lds	r24, 0x0870
    16e2:	83 35       	cpi	r24, 0x53	; 83
    16e4:	41 f0       	breq	.+16     	; 0x16f6 <fetchCommand+0x6c>
    16e6:	80 91 70 08 	lds	r24, 0x0870
    16ea:	86 37       	cpi	r24, 0x76	; 118
    16ec:	21 f0       	breq	.+8      	; 0x16f6 <fetchCommand+0x6c>
    16ee:	80 91 70 08 	lds	r24, 0x0870
    16f2:	83 34       	cpi	r24, 0x43	; 67
    16f4:	31 f5       	brne	.+76     	; 0x1742 <fetchCommand+0xb8>
    16f6:	41 e0       	ldi	r20, 0x01	; 1
	{
		cc = 1;
		while(is_alpha(buffer[cc]))++cc;
    16f8:	e4 2f       	mov	r30, r20
    16fa:	f0 e0       	ldi	r31, 0x00	; 0
    16fc:	e0 59       	subi	r30, 0x90	; 144
    16fe:	f7 4f       	sbci	r31, 0xF7	; 247
    1700:	80 81       	ld	r24, Z



int is_alpha(int c)
{
	if(((c >= 'a') && (c <= 'z')) || ((c >= 'A') && (c <= 'Z'))) return 1;
    1702:	28 2f       	mov	r18, r24
    1704:	30 e0       	ldi	r19, 0x00	; 0
    1706:	c9 01       	movw	r24, r18
    1708:	81 56       	subi	r24, 0x61	; 97
    170a:	90 40       	sbci	r25, 0x00	; 0
    170c:	4a 97       	sbiw	r24, 0x1a	; 26
    170e:	30 f0       	brcs	.+12     	; 0x171c <fetchCommand+0x92>
    1710:	21 54       	subi	r18, 0x41	; 65
    1712:	30 40       	sbci	r19, 0x00	; 0
    1714:	2a 31       	cpi	r18, 0x1A	; 26
    1716:	31 05       	cpc	r19, r1
    1718:	08 f0       	brcs	.+2      	; 0x171c <fetchCommand+0x92>
    171a:	44 c3       	rjmp	.+1672   	; 0x1da4 <fetchCommand+0x71a>
    171c:	4f 5f       	subi	r20, 0xFF	; 255
    171e:	ec cf       	rjmp	.-40     	; 0x16f8 <fetchCommand+0x6e>
	if( (buffer[0] == 'g')||(buffer[0] == 's')||(buffer[0] == 'h')||(buffer[0] == 'i') || (buffer[0] == 'S') || (buffer[0] == 'v')||(buffer[0] == 'C' ))
	{
		cc = 1;
		while(is_alpha(buffer[cc]))++cc;
		if(buffer[1] != 0) return 0; //Parametros no requeridos
		cmdX(buffer[0], 0.0f, 0.0f, 0.0f, 0.0f, 0.0f, 0.0f, 0.0f, 0.0f);
    1720:	80 91 70 08 	lds	r24, 0x0870



void cmdX(char cmd, float p1, float p2, float p3, float p4, float p5, float p6, float p7, float p8)
{
	comando.cmd = cmd;
    1724:	80 93 13 11 	sts	0x1113, r24
	comando.param1 = p1;
    1728:	80 e0       	ldi	r24, 0x00	; 0
    172a:	90 e0       	ldi	r25, 0x00	; 0
    172c:	a0 e0       	ldi	r26, 0x00	; 0
    172e:	b0 e0       	ldi	r27, 0x00	; 0
    1730:	80 93 14 11 	sts	0x1114, r24
    1734:	90 93 15 11 	sts	0x1115, r25
    1738:	a0 93 16 11 	sts	0x1116, r26
    173c:	b0 93 17 11 	sts	0x1117, r27
    1740:	75 c0       	rjmp	.+234    	; 0x182c <fetchCommand+0x1a2>


int fetchCommand()
{
	char cc;
	float p1 = 0;
    1742:	80 e0       	ldi	r24, 0x00	; 0
    1744:	90 e0       	ldi	r25, 0x00	; 0
    1746:	a0 e0       	ldi	r26, 0x00	; 0
    1748:	b0 e0       	ldi	r27, 0x00	; 0
    174a:	8a 83       	std	Y+2, r24	; 0x02
    174c:	9b 83       	std	Y+3, r25	; 0x03
    174e:	ac 83       	std	Y+4, r26	; 0x04
    1750:	bd 83       	std	Y+5, r27	; 0x05
	float p2 = 0;
    1752:	8e 83       	std	Y+6, r24	; 0x06
    1754:	9f 83       	std	Y+7, r25	; 0x07
    1756:	a8 87       	std	Y+8, r26	; 0x08
    1758:	b9 87       	std	Y+9, r27	; 0x09
	float p3 = 0;
    175a:	8a 87       	std	Y+10, r24	; 0x0a
    175c:	9b 87       	std	Y+11, r25	; 0x0b
    175e:	ac 87       	std	Y+12, r26	; 0x0c
    1760:	bd 87       	std	Y+13, r27	; 0x0d
	float p4 = 0;
    1762:	8e 87       	std	Y+14, r24	; 0x0e
    1764:	9f 87       	std	Y+15, r25	; 0x0f
    1766:	a8 8b       	std	Y+16, r26	; 0x10
    1768:	b9 8b       	std	Y+17, r27	; 0x11
	float p5 = 0;
    176a:	8a 8b       	std	Y+18, r24	; 0x12
    176c:	9b 8b       	std	Y+19, r25	; 0x13
    176e:	ac 8b       	std	Y+20, r26	; 0x14
    1770:	bd 8b       	std	Y+21, r27	; 0x15
	float p6 = 0;
    1772:	8e 8b       	std	Y+22, r24	; 0x16
    1774:	9f 8b       	std	Y+23, r25	; 0x17
    1776:	a8 8f       	std	Y+24, r26	; 0x18
    1778:	b9 8f       	std	Y+25, r27	; 0x19
	float p7 = 0;
    177a:	8a 8f       	std	Y+26, r24	; 0x1a
    177c:	9b 8f       	std	Y+27, r25	; 0x1b
    177e:	ac 8f       	std	Y+28, r26	; 0x1c
    1780:	bd 8f       	std	Y+29, r27	; 0x1d
	float p8 = 0;
    1782:	8e 8f       	std	Y+30, r24	; 0x1e
    1784:	9f 8f       	std	Y+31, r25	; 0x1f
    1786:	a8 a3       	std	Y+32, r26	; 0x20
    1788:	b9 a3       	std	Y+33, r27	; 0x21
		if(buffer[1] != 0) return 0; //Parametros no requeridos
		cmdX(buffer[0], 0.0f, 0.0f, 0.0f, 0.0f, 0.0f, 0.0f, 0.0f, 0.0f);
		return 1;
	}
	//1 parmetro
	else if(buffer[0] == 'k'||(buffer[0] == 'L')||(buffer[0] == 'R')||(buffer[0] == 'G')||(buffer[0] == 't') ||(buffer[0] == 'o')||(buffer[0] == 'c')||(buffer[0] == 'I'))	//////// 1 PARMETRO
    178a:	80 91 70 08 	lds	r24, 0x0870
    178e:	8b 36       	cpi	r24, 0x6B	; 107
    1790:	e1 f0       	breq	.+56     	; 0x17ca <fetchCommand+0x140>
    1792:	80 91 70 08 	lds	r24, 0x0870
    1796:	8c 34       	cpi	r24, 0x4C	; 76
    1798:	c1 f0       	breq	.+48     	; 0x17ca <fetchCommand+0x140>
    179a:	80 91 70 08 	lds	r24, 0x0870
    179e:	82 35       	cpi	r24, 0x52	; 82
    17a0:	a1 f0       	breq	.+40     	; 0x17ca <fetchCommand+0x140>
    17a2:	80 91 70 08 	lds	r24, 0x0870
    17a6:	87 34       	cpi	r24, 0x47	; 71
    17a8:	81 f0       	breq	.+32     	; 0x17ca <fetchCommand+0x140>
    17aa:	80 91 70 08 	lds	r24, 0x0870
    17ae:	84 37       	cpi	r24, 0x74	; 116
    17b0:	61 f0       	breq	.+24     	; 0x17ca <fetchCommand+0x140>
    17b2:	80 91 70 08 	lds	r24, 0x0870
    17b6:	8f 36       	cpi	r24, 0x6F	; 111
    17b8:	41 f0       	breq	.+16     	; 0x17ca <fetchCommand+0x140>
    17ba:	80 91 70 08 	lds	r24, 0x0870
    17be:	83 36       	cpi	r24, 0x63	; 99
    17c0:	21 f0       	breq	.+8      	; 0x17ca <fetchCommand+0x140>
    17c2:	80 91 70 08 	lds	r24, 0x0870
    17c6:	89 34       	cpi	r24, 0x49	; 73
    17c8:	d1 f5       	brne	.+116    	; 0x183e <fetchCommand+0x1b4>
    17ca:	41 e0       	ldi	r20, 0x01	; 1
	{
		// Obtener primer parametro
		
		cc = 1;
		while(is_alpha(buffer[cc]))++cc;
    17cc:	e4 2f       	mov	r30, r20
    17ce:	f0 e0       	ldi	r31, 0x00	; 0
    17d0:	e0 59       	subi	r30, 0x90	; 144
    17d2:	f7 4f       	sbci	r31, 0xF7	; 247
    17d4:	80 81       	ld	r24, Z



int is_alpha(int c)
{
	if(((c >= 'a') && (c <= 'z')) || ((c >= 'A') && (c <= 'Z'))) return 1;
    17d6:	28 2f       	mov	r18, r24
    17d8:	30 e0       	ldi	r19, 0x00	; 0
    17da:	c9 01       	movw	r24, r18
    17dc:	81 56       	subi	r24, 0x61	; 97
    17de:	90 40       	sbci	r25, 0x00	; 0
    17e0:	4a 97       	sbiw	r24, 0x1a	; 26
    17e2:	30 f0       	brcs	.+12     	; 0x17f0 <fetchCommand+0x166>
    17e4:	21 54       	subi	r18, 0x41	; 65
    17e6:	30 40       	sbci	r19, 0x00	; 0
    17e8:	2a 31       	cpi	r18, 0x1A	; 26
    17ea:	31 05       	cpc	r19, r1
    17ec:	08 f0       	brcs	.+2      	; 0x17f0 <fetchCommand+0x166>
    17ee:	df c2       	rjmp	.+1470   	; 0x1dae <fetchCommand+0x724>
    17f0:	4f 5f       	subi	r20, 0xFF	; 255
    17f2:	ec cf       	rjmp	.-40     	; 0x17cc <fetchCommand+0x142>
		// Obtener primer parametro
		
		cc = 1;
		while(is_alpha(buffer[cc]))++cc;
		if(!fetchParam(&cc, &p1)) return 0;
		if(buffer[cc] != 0) return 0;				// Se espera fin de cadena
    17f4:	e9 81       	ldd	r30, Y+1	; 0x01
    17f6:	f0 e0       	ldi	r31, 0x00	; 0
    17f8:	e0 59       	subi	r30, 0x90	; 144
    17fa:	f7 4f       	sbci	r31, 0xF7	; 247
    17fc:	80 81       	ld	r24, Z
    17fe:	88 23       	and	r24, r24
    1800:	09 f0       	breq	.+2      	; 0x1804 <fetchCommand+0x17a>
    1802:	b4 c2       	rjmp	.+1384   	; 0x1d6c <fetchCommand+0x6e2>
		cmdX(buffer[0], p1, 0.0f, 0.0f, 0.0f, 0.0f, 0.0f, 0.0f, 0.0f);
    1804:	20 91 70 08 	lds	r18, 0x0870
    1808:	8a 81       	ldd	r24, Y+2	; 0x02
    180a:	9b 81       	ldd	r25, Y+3	; 0x03
    180c:	ac 81       	ldd	r26, Y+4	; 0x04
    180e:	bd 81       	ldd	r27, Y+5	; 0x05



void cmdX(char cmd, float p1, float p2, float p3, float p4, float p5, float p6, float p7, float p8)
{
	comando.cmd = cmd;
    1810:	20 93 13 11 	sts	0x1113, r18
	comando.param1 = p1;
    1814:	80 93 14 11 	sts	0x1114, r24
    1818:	90 93 15 11 	sts	0x1115, r25
    181c:	a0 93 16 11 	sts	0x1116, r26
    1820:	b0 93 17 11 	sts	0x1117, r27
	comando.param2 = p2;
    1824:	80 e0       	ldi	r24, 0x00	; 0
    1826:	90 e0       	ldi	r25, 0x00	; 0
    1828:	a0 e0       	ldi	r26, 0x00	; 0
    182a:	b0 e0       	ldi	r27, 0x00	; 0
    182c:	80 93 18 11 	sts	0x1118, r24
    1830:	90 93 19 11 	sts	0x1119, r25
    1834:	a0 93 1a 11 	sts	0x111A, r26
    1838:	b0 93 1b 11 	sts	0x111B, r27
    183c:	4f c0       	rjmp	.+158    	; 0x18dc <fetchCommand+0x252>
		if(!fetchParam(&cc, &p1)) return 0;
		if(buffer[cc] != 0) return 0;				// Se espera fin de cadena
		cmdX(buffer[0], p1, 0.0f, 0.0f, 0.0f, 0.0f, 0.0f, 0.0f, 0.0f);
		return 1;
	}
	else if((buffer[0] == 'f')||(buffer[0] == 'd'))						/////////// 2 PARMETROS
    183e:	80 91 70 08 	lds	r24, 0x0870
    1842:	86 36       	cpi	r24, 0x66	; 102
    1844:	29 f0       	breq	.+10     	; 0x1850 <fetchCommand+0x1c6>
    1846:	80 91 70 08 	lds	r24, 0x0870
    184a:	84 36       	cpi	r24, 0x64	; 100
    184c:	09 f0       	breq	.+2      	; 0x1850 <fetchCommand+0x1c6>
    184e:	4f c0       	rjmp	.+158    	; 0x18ee <fetchCommand+0x264>
    1850:	41 e0       	ldi	r20, 0x01	; 1
	{
		cc = 1;
		while(is_alpha(buffer[cc]))++cc;
    1852:	e4 2f       	mov	r30, r20
    1854:	f0 e0       	ldi	r31, 0x00	; 0
    1856:	e0 59       	subi	r30, 0x90	; 144
    1858:	f7 4f       	sbci	r31, 0xF7	; 247
    185a:	80 81       	ld	r24, Z



int is_alpha(int c)
{
	if(((c >= 'a') && (c <= 'z')) || ((c >= 'A') && (c <= 'Z'))) return 1;
    185c:	28 2f       	mov	r18, r24
    185e:	30 e0       	ldi	r19, 0x00	; 0
    1860:	c9 01       	movw	r24, r18
    1862:	81 56       	subi	r24, 0x61	; 97
    1864:	90 40       	sbci	r25, 0x00	; 0
    1866:	4a 97       	sbiw	r24, 0x1a	; 26
    1868:	30 f0       	brcs	.+12     	; 0x1876 <fetchCommand+0x1ec>
    186a:	21 54       	subi	r18, 0x41	; 65
    186c:	30 40       	sbci	r19, 0x00	; 0
    186e:	2a 31       	cpi	r18, 0x1A	; 26
    1870:	31 05       	cpc	r19, r1
    1872:	08 f0       	brcs	.+2      	; 0x1876 <fetchCommand+0x1ec>
    1874:	a8 c2       	rjmp	.+1360   	; 0x1dc6 <fetchCommand+0x73c>
    1876:	4f 5f       	subi	r20, 0xFF	; 255
    1878:	ec cf       	rjmp	.-40     	; 0x1852 <fetchCommand+0x1c8>
	else if((buffer[0] == 'f')||(buffer[0] == 'd'))						/////////// 2 PARMETROS
	{
		cc = 1;
		while(is_alpha(buffer[cc]))++cc;
		if(!fetchParam(&cc, &p1)) return 0;			// Obtengo primer parametro
		if(!fetchParam(&cc, &p2)) return 0;			// Obtengo segundo parametro
    187a:	c8 01       	movw	r24, r16
    187c:	be 01       	movw	r22, r28
    187e:	6a 5f       	subi	r22, 0xFA	; 250
    1880:	7f 4f       	sbci	r23, 0xFF	; 255
    1882:	0e 94 da 0a 	call	0x15b4	; 0x15b4 <fetchParam>
    1886:	89 2b       	or	r24, r25
    1888:	09 f4       	brne	.+2      	; 0x188c <fetchCommand+0x202>
    188a:	70 c2       	rjmp	.+1248   	; 0x1d6c <fetchCommand+0x6e2>
		if(buffer[cc] != 0) return 0;				// Se espera fin de cadena
    188c:	e9 81       	ldd	r30, Y+1	; 0x01
    188e:	f0 e0       	ldi	r31, 0x00	; 0
    1890:	e0 59       	subi	r30, 0x90	; 144
    1892:	f7 4f       	sbci	r31, 0xF7	; 247
    1894:	80 81       	ld	r24, Z
    1896:	88 23       	and	r24, r24
    1898:	09 f0       	breq	.+2      	; 0x189c <fetchCommand+0x212>
    189a:	68 c2       	rjmp	.+1232   	; 0x1d6c <fetchCommand+0x6e2>
		cmdX(buffer[0], p1, p2, 0.0f, 0.0f, 0.0f, 0.0f, 0.0f, 0.0f);
    189c:	60 91 70 08 	lds	r22, 0x0870
    18a0:	8a 81       	ldd	r24, Y+2	; 0x02
    18a2:	9b 81       	ldd	r25, Y+3	; 0x03
    18a4:	ac 81       	ldd	r26, Y+4	; 0x04
    18a6:	bd 81       	ldd	r27, Y+5	; 0x05
    18a8:	2e 81       	ldd	r18, Y+6	; 0x06
    18aa:	3f 81       	ldd	r19, Y+7	; 0x07
    18ac:	48 85       	ldd	r20, Y+8	; 0x08
    18ae:	59 85       	ldd	r21, Y+9	; 0x09



void cmdX(char cmd, float p1, float p2, float p3, float p4, float p5, float p6, float p7, float p8)
{
	comando.cmd = cmd;
    18b0:	60 93 13 11 	sts	0x1113, r22
	comando.param1 = p1;
    18b4:	80 93 14 11 	sts	0x1114, r24
    18b8:	90 93 15 11 	sts	0x1115, r25
    18bc:	a0 93 16 11 	sts	0x1116, r26
    18c0:	b0 93 17 11 	sts	0x1117, r27
	comando.param2 = p2;
    18c4:	20 93 18 11 	sts	0x1118, r18
    18c8:	30 93 19 11 	sts	0x1119, r19
    18cc:	40 93 1a 11 	sts	0x111A, r20
    18d0:	50 93 1b 11 	sts	0x111B, r21
	comando.param3 = p3;
    18d4:	80 e0       	ldi	r24, 0x00	; 0
    18d6:	90 e0       	ldi	r25, 0x00	; 0
    18d8:	a0 e0       	ldi	r26, 0x00	; 0
    18da:	b0 e0       	ldi	r27, 0x00	; 0
    18dc:	80 93 1c 11 	sts	0x111C, r24
    18e0:	90 93 1d 11 	sts	0x111D, r25
    18e4:	a0 93 1e 11 	sts	0x111E, r26
    18e8:	b0 93 1f 11 	sts	0x111F, r27
    18ec:	67 c0       	rjmp	.+206    	; 0x19bc <fetchCommand+0x332>
		if(buffer[cc] != 0) return 0;				// Se espera fin de cadena
		cmdX(buffer[0], p1, p2, 0.0f, 0.0f, 0.0f, 0.0f, 0.0f, 0.0f);
		return 1;
		
	}
	else if((buffer[0] == 'n'))		//// 3 PARMETROS
    18ee:	80 91 70 08 	lds	r24, 0x0870
    18f2:	8e 36       	cpi	r24, 0x6E	; 110
    18f4:	09 f0       	breq	.+2      	; 0x18f8 <fetchCommand+0x26e>
    18f6:	83 c0       	rjmp	.+262    	; 0x19fe <fetchCommand+0x374>
    18f8:	41 e0       	ldi	r20, 0x01	; 1
	{
		cc = 1;
		while(is_alpha(buffer[cc]))++cc;
    18fa:	e4 2f       	mov	r30, r20
    18fc:	f0 e0       	ldi	r31, 0x00	; 0
    18fe:	e0 59       	subi	r30, 0x90	; 144
    1900:	f7 4f       	sbci	r31, 0xF7	; 247
    1902:	80 81       	ld	r24, Z



int is_alpha(int c)
{
	if(((c >= 'a') && (c <= 'z')) || ((c >= 'A') && (c <= 'Z'))) return 1;
    1904:	28 2f       	mov	r18, r24
    1906:	30 e0       	ldi	r19, 0x00	; 0
    1908:	c9 01       	movw	r24, r18
    190a:	81 56       	subi	r24, 0x61	; 97
    190c:	90 40       	sbci	r25, 0x00	; 0
    190e:	4a 97       	sbiw	r24, 0x1a	; 26
    1910:	30 f0       	brcs	.+12     	; 0x191e <fetchCommand+0x294>
    1912:	21 54       	subi	r18, 0x41	; 65
    1914:	30 40       	sbci	r19, 0x00	; 0
    1916:	2a 31       	cpi	r18, 0x1A	; 26
    1918:	31 05       	cpc	r19, r1
    191a:	08 f0       	brcs	.+2      	; 0x191e <fetchCommand+0x294>
    191c:	61 c2       	rjmp	.+1218   	; 0x1de0 <fetchCommand+0x756>
    191e:	4f 5f       	subi	r20, 0xFF	; 255
    1920:	ec cf       	rjmp	.-40     	; 0x18fa <fetchCommand+0x270>
	else if((buffer[0] == 'n'))		//// 3 PARMETROS
	{
		cc = 1;
		while(is_alpha(buffer[cc]))++cc;
		if(!fetchParam(&cc, &p1)) return 0;			// Obtengo primer parametro
		if(!fetchParam(&cc, &p2)) return 0;			// Obtengo segundo parametro
    1922:	c8 01       	movw	r24, r16
    1924:	be 01       	movw	r22, r28
    1926:	6a 5f       	subi	r22, 0xFA	; 250
    1928:	7f 4f       	sbci	r23, 0xFF	; 255
    192a:	0e 94 da 0a 	call	0x15b4	; 0x15b4 <fetchParam>
    192e:	89 2b       	or	r24, r25
    1930:	09 f4       	brne	.+2      	; 0x1934 <fetchCommand+0x2aa>
    1932:	1c c2       	rjmp	.+1080   	; 0x1d6c <fetchCommand+0x6e2>
		if(!fetchParam(&cc, &p3)) p3 = 0.0f;		// Obtengo tercer parametro si existe
    1934:	c8 01       	movw	r24, r16
    1936:	be 01       	movw	r22, r28
    1938:	66 5f       	subi	r22, 0xF6	; 246
    193a:	7f 4f       	sbci	r23, 0xFF	; 255
    193c:	0e 94 da 0a 	call	0x15b4	; 0x15b4 <fetchParam>
    1940:	89 2b       	or	r24, r25
    1942:	41 f4       	brne	.+16     	; 0x1954 <fetchCommand+0x2ca>
    1944:	80 e0       	ldi	r24, 0x00	; 0
    1946:	90 e0       	ldi	r25, 0x00	; 0
    1948:	a0 e0       	ldi	r26, 0x00	; 0
    194a:	b0 e0       	ldi	r27, 0x00	; 0
    194c:	8a 87       	std	Y+10, r24	; 0x0a
    194e:	9b 87       	std	Y+11, r25	; 0x0b
    1950:	ac 87       	std	Y+12, r26	; 0x0c
    1952:	bd 87       	std	Y+13, r27	; 0x0d
		if(buffer[cc] != 0) return 0;				// Se espera fin de cadena
    1954:	e9 81       	ldd	r30, Y+1	; 0x01
    1956:	f0 e0       	ldi	r31, 0x00	; 0
    1958:	e0 59       	subi	r30, 0x90	; 144
    195a:	f7 4f       	sbci	r31, 0xF7	; 247
    195c:	80 81       	ld	r24, Z
    195e:	88 23       	and	r24, r24
    1960:	09 f0       	breq	.+2      	; 0x1964 <fetchCommand+0x2da>
    1962:	04 c2       	rjmp	.+1032   	; 0x1d6c <fetchCommand+0x6e2>
		cmdX(buffer[0], p1, p2, p3, 0.0f, 0.0f, 0.0f, 0.0f, 0.0f);
    1964:	60 91 70 08 	lds	r22, 0x0870
    1968:	8a 81       	ldd	r24, Y+2	; 0x02
    196a:	9b 81       	ldd	r25, Y+3	; 0x03
    196c:	ac 81       	ldd	r26, Y+4	; 0x04
    196e:	bd 81       	ldd	r27, Y+5	; 0x05
    1970:	2e 81       	ldd	r18, Y+6	; 0x06
    1972:	3f 81       	ldd	r19, Y+7	; 0x07
    1974:	48 85       	ldd	r20, Y+8	; 0x08
    1976:	59 85       	ldd	r21, Y+9	; 0x09
    1978:	ea 84       	ldd	r14, Y+10	; 0x0a
    197a:	fb 84       	ldd	r15, Y+11	; 0x0b
    197c:	0c 85       	ldd	r16, Y+12	; 0x0c
    197e:	1d 85       	ldd	r17, Y+13	; 0x0d



void cmdX(char cmd, float p1, float p2, float p3, float p4, float p5, float p6, float p7, float p8)
{
	comando.cmd = cmd;
    1980:	60 93 13 11 	sts	0x1113, r22
	comando.param1 = p1;
    1984:	80 93 14 11 	sts	0x1114, r24
    1988:	90 93 15 11 	sts	0x1115, r25
    198c:	a0 93 16 11 	sts	0x1116, r26
    1990:	b0 93 17 11 	sts	0x1117, r27
	comando.param2 = p2;
    1994:	20 93 18 11 	sts	0x1118, r18
    1998:	30 93 19 11 	sts	0x1119, r19
    199c:	40 93 1a 11 	sts	0x111A, r20
    19a0:	50 93 1b 11 	sts	0x111B, r21
	comando.param3 = p3;
    19a4:	e0 92 1c 11 	sts	0x111C, r14
    19a8:	f0 92 1d 11 	sts	0x111D, r15
    19ac:	00 93 1e 11 	sts	0x111E, r16
    19b0:	10 93 1f 11 	sts	0x111F, r17
	comando.param4 = p4;
    19b4:	80 e0       	ldi	r24, 0x00	; 0
    19b6:	90 e0       	ldi	r25, 0x00	; 0
    19b8:	a0 e0       	ldi	r26, 0x00	; 0
    19ba:	b0 e0       	ldi	r27, 0x00	; 0
    19bc:	80 93 20 11 	sts	0x1120, r24
    19c0:	90 93 21 11 	sts	0x1121, r25
    19c4:	a0 93 22 11 	sts	0x1122, r26
    19c8:	b0 93 23 11 	sts	0x1123, r27
	comando.param5 = p5;
    19cc:	80 93 24 11 	sts	0x1124, r24
    19d0:	90 93 25 11 	sts	0x1125, r25
    19d4:	a0 93 26 11 	sts	0x1126, r26
    19d8:	b0 93 27 11 	sts	0x1127, r27
	comando.param6 = p6;
    19dc:	80 93 28 11 	sts	0x1128, r24
    19e0:	90 93 29 11 	sts	0x1129, r25
    19e4:	a0 93 2a 11 	sts	0x112A, r26
    19e8:	b0 93 2b 11 	sts	0x112B, r27
	comando.param7 = p7;
    19ec:	80 93 2c 11 	sts	0x112C, r24
    19f0:	90 93 2d 11 	sts	0x112D, r25
    19f4:	a0 93 2e 11 	sts	0x112E, r26
    19f8:	b0 93 2f 11 	sts	0x112F, r27
    19fc:	cb c0       	rjmp	.+406    	; 0x1b94 <fetchCommand+0x50a>
		if(buffer[cc] != 0) return 0;				// Se espera fin de cadena
		cmdX(buffer[0], p1, p2, p3, 0.0f, 0.0f, 0.0f, 0.0f, 0.0f);
		return 1;
		
	}
	else if((buffer[0] == 'x'))		//// 7 PARMETROS
    19fe:	80 91 70 08 	lds	r24, 0x0870
    1a02:	88 37       	cpi	r24, 0x78	; 120
    1a04:	09 f0       	breq	.+2      	; 0x1a08 <fetchCommand+0x37e>
    1a06:	d1 c0       	rjmp	.+418    	; 0x1baa <fetchCommand+0x520>
    1a08:	41 e0       	ldi	r20, 0x01	; 1
	{
		cc = 1;
		while(is_alpha(buffer[cc]))++cc;
    1a0a:	e4 2f       	mov	r30, r20
    1a0c:	f0 e0       	ldi	r31, 0x00	; 0
    1a0e:	e0 59       	subi	r30, 0x90	; 144
    1a10:	f7 4f       	sbci	r31, 0xF7	; 247
    1a12:	80 81       	ld	r24, Z



int is_alpha(int c)
{
	if(((c >= 'a') && (c <= 'z')) || ((c >= 'A') && (c <= 'Z'))) return 1;
    1a14:	28 2f       	mov	r18, r24
    1a16:	30 e0       	ldi	r19, 0x00	; 0
    1a18:	c9 01       	movw	r24, r18
    1a1a:	81 56       	subi	r24, 0x61	; 97
    1a1c:	90 40       	sbci	r25, 0x00	; 0
    1a1e:	4a 97       	sbiw	r24, 0x1a	; 26
    1a20:	30 f0       	brcs	.+12     	; 0x1a2e <fetchCommand+0x3a4>
    1a22:	21 54       	subi	r18, 0x41	; 65
    1a24:	30 40       	sbci	r19, 0x00	; 0
    1a26:	2a 31       	cpi	r18, 0x1A	; 26
    1a28:	31 05       	cpc	r19, r1
    1a2a:	08 f0       	brcs	.+2      	; 0x1a2e <fetchCommand+0x3a4>
    1a2c:	e7 c1       	rjmp	.+974    	; 0x1dfc <fetchCommand+0x772>
    1a2e:	4f 5f       	subi	r20, 0xFF	; 255
    1a30:	ec cf       	rjmp	.-40     	; 0x1a0a <fetchCommand+0x380>
	else if((buffer[0] == 'x'))		//// 7 PARMETROS
	{
		cc = 1;
		while(is_alpha(buffer[cc]))++cc;
		if(!fetchParam(&cc, &p1)) return 0;			// Obtengo primer parametro
		if(!fetchParam(&cc, &p2)) return 0;			// Obtengo segundo parametro
    1a32:	c8 01       	movw	r24, r16
    1a34:	be 01       	movw	r22, r28
    1a36:	6a 5f       	subi	r22, 0xFA	; 250
    1a38:	7f 4f       	sbci	r23, 0xFF	; 255
    1a3a:	0e 94 da 0a 	call	0x15b4	; 0x15b4 <fetchParam>
    1a3e:	89 2b       	or	r24, r25
    1a40:	09 f4       	brne	.+2      	; 0x1a44 <fetchCommand+0x3ba>
    1a42:	94 c1       	rjmp	.+808    	; 0x1d6c <fetchCommand+0x6e2>
		if(!fetchParam(&cc, &p3)) return 0;			// Obtengo tercer parametro
    1a44:	c8 01       	movw	r24, r16
    1a46:	be 01       	movw	r22, r28
    1a48:	66 5f       	subi	r22, 0xF6	; 246
    1a4a:	7f 4f       	sbci	r23, 0xFF	; 255
    1a4c:	0e 94 da 0a 	call	0x15b4	; 0x15b4 <fetchParam>
    1a50:	89 2b       	or	r24, r25
    1a52:	09 f4       	brne	.+2      	; 0x1a56 <fetchCommand+0x3cc>
    1a54:	8b c1       	rjmp	.+790    	; 0x1d6c <fetchCommand+0x6e2>
		if(!fetchParam(&cc, &p4)) return 0;			// Obtengo cuarto parametro
    1a56:	c8 01       	movw	r24, r16
    1a58:	be 01       	movw	r22, r28
    1a5a:	62 5f       	subi	r22, 0xF2	; 242
    1a5c:	7f 4f       	sbci	r23, 0xFF	; 255
    1a5e:	0e 94 da 0a 	call	0x15b4	; 0x15b4 <fetchParam>
    1a62:	89 2b       	or	r24, r25
    1a64:	09 f4       	brne	.+2      	; 0x1a68 <fetchCommand+0x3de>
    1a66:	82 c1       	rjmp	.+772    	; 0x1d6c <fetchCommand+0x6e2>
		if(!fetchParam(&cc, &p5)) return 0;			// Obtengo quinto parametro
    1a68:	c8 01       	movw	r24, r16
    1a6a:	be 01       	movw	r22, r28
    1a6c:	6e 5e       	subi	r22, 0xEE	; 238
    1a6e:	7f 4f       	sbci	r23, 0xFF	; 255
    1a70:	0e 94 da 0a 	call	0x15b4	; 0x15b4 <fetchParam>
    1a74:	89 2b       	or	r24, r25
    1a76:	09 f4       	brne	.+2      	; 0x1a7a <fetchCommand+0x3f0>
    1a78:	79 c1       	rjmp	.+754    	; 0x1d6c <fetchCommand+0x6e2>
		if(!fetchParam(&cc, &p6)) return 0;			// Obtengo sexto parametro
    1a7a:	c8 01       	movw	r24, r16
    1a7c:	be 01       	movw	r22, r28
    1a7e:	6a 5e       	subi	r22, 0xEA	; 234
    1a80:	7f 4f       	sbci	r23, 0xFF	; 255
    1a82:	0e 94 da 0a 	call	0x15b4	; 0x15b4 <fetchParam>
    1a86:	89 2b       	or	r24, r25
    1a88:	09 f4       	brne	.+2      	; 0x1a8c <fetchCommand+0x402>
    1a8a:	70 c1       	rjmp	.+736    	; 0x1d6c <fetchCommand+0x6e2>
		if(!fetchParam(&cc, &p7)) p7 = 0.0f;		// Obtengo sptimo parametro si existe
    1a8c:	c8 01       	movw	r24, r16
    1a8e:	be 01       	movw	r22, r28
    1a90:	66 5e       	subi	r22, 0xE6	; 230
    1a92:	7f 4f       	sbci	r23, 0xFF	; 255
    1a94:	0e 94 da 0a 	call	0x15b4	; 0x15b4 <fetchParam>
    1a98:	89 2b       	or	r24, r25
    1a9a:	41 f4       	brne	.+16     	; 0x1aac <fetchCommand+0x422>
    1a9c:	80 e0       	ldi	r24, 0x00	; 0
    1a9e:	90 e0       	ldi	r25, 0x00	; 0
    1aa0:	a0 e0       	ldi	r26, 0x00	; 0
    1aa2:	b0 e0       	ldi	r27, 0x00	; 0
    1aa4:	8a 8f       	std	Y+26, r24	; 0x1a
    1aa6:	9b 8f       	std	Y+27, r25	; 0x1b
    1aa8:	ac 8f       	std	Y+28, r26	; 0x1c
    1aaa:	bd 8f       	std	Y+29, r27	; 0x1d
		if(buffer[cc] != 0) return 0;				// Se espera fin de cadena
    1aac:	e9 81       	ldd	r30, Y+1	; 0x01
    1aae:	f0 e0       	ldi	r31, 0x00	; 0
    1ab0:	e0 59       	subi	r30, 0x90	; 144
    1ab2:	f7 4f       	sbci	r31, 0xF7	; 247
    1ab4:	80 81       	ld	r24, Z
    1ab6:	88 23       	and	r24, r24
    1ab8:	09 f0       	breq	.+2      	; 0x1abc <fetchCommand+0x432>
    1aba:	58 c1       	rjmp	.+688    	; 0x1d6c <fetchCommand+0x6e2>
		cmdX(buffer[0], p1, p2, p3, p4, p5, p6, p7, 0.0f);
    1abc:	60 91 70 08 	lds	r22, 0x0870
    1ac0:	8a 81       	ldd	r24, Y+2	; 0x02
    1ac2:	9b 81       	ldd	r25, Y+3	; 0x03
    1ac4:	ac 81       	ldd	r26, Y+4	; 0x04
    1ac6:	bd 81       	ldd	r27, Y+5	; 0x05
    1ac8:	8e a7       	std	Y+46, r24	; 0x2e
    1aca:	9f a7       	std	Y+47, r25	; 0x2f
    1acc:	a8 ab       	std	Y+48, r26	; 0x30
    1ace:	b9 ab       	std	Y+49, r27	; 0x31
    1ad0:	2e 81       	ldd	r18, Y+6	; 0x06
    1ad2:	3f 81       	ldd	r19, Y+7	; 0x07
    1ad4:	48 85       	ldd	r20, Y+8	; 0x08
    1ad6:	59 85       	ldd	r21, Y+9	; 0x09
    1ad8:	ea 84       	ldd	r14, Y+10	; 0x0a
    1ada:	fb 84       	ldd	r15, Y+11	; 0x0b
    1adc:	0c 85       	ldd	r16, Y+12	; 0x0c
    1ade:	1d 85       	ldd	r17, Y+13	; 0x0d
    1ae0:	ae 84       	ldd	r10, Y+14	; 0x0e
    1ae2:	bf 84       	ldd	r11, Y+15	; 0x0f
    1ae4:	c8 88       	ldd	r12, Y+16	; 0x10
    1ae6:	d9 88       	ldd	r13, Y+17	; 0x11
    1ae8:	6a 88       	ldd	r6, Y+18	; 0x12
    1aea:	7b 88       	ldd	r7, Y+19	; 0x13
    1aec:	8c 88       	ldd	r8, Y+20	; 0x14
    1aee:	9d 88       	ldd	r9, Y+21	; 0x15
    1af0:	2e 88       	ldd	r2, Y+22	; 0x16
    1af2:	3f 88       	ldd	r3, Y+23	; 0x17
    1af4:	48 8c       	ldd	r4, Y+24	; 0x18
    1af6:	59 8c       	ldd	r5, Y+25	; 0x19
    1af8:	8a 8d       	ldd	r24, Y+26	; 0x1a
    1afa:	9b 8d       	ldd	r25, Y+27	; 0x1b
    1afc:	ac 8d       	ldd	r26, Y+28	; 0x1c
    1afe:	bd 8d       	ldd	r27, Y+29	; 0x1d
    1b00:	8a a7       	std	Y+42, r24	; 0x2a
    1b02:	9b a7       	std	Y+43, r25	; 0x2b
    1b04:	ac a7       	std	Y+44, r26	; 0x2c
    1b06:	bd a7       	std	Y+45, r27	; 0x2d



void cmdX(char cmd, float p1, float p2, float p3, float p4, float p5, float p6, float p7, float p8)
{
	comando.cmd = cmd;
    1b08:	60 93 13 11 	sts	0x1113, r22
	comando.param1 = p1;
    1b0c:	8e a5       	ldd	r24, Y+46	; 0x2e
    1b0e:	9f a5       	ldd	r25, Y+47	; 0x2f
    1b10:	a8 a9       	ldd	r26, Y+48	; 0x30
    1b12:	b9 a9       	ldd	r27, Y+49	; 0x31
    1b14:	80 93 14 11 	sts	0x1114, r24
    1b18:	90 93 15 11 	sts	0x1115, r25
    1b1c:	a0 93 16 11 	sts	0x1116, r26
    1b20:	b0 93 17 11 	sts	0x1117, r27
	comando.param2 = p2;
    1b24:	20 93 18 11 	sts	0x1118, r18
    1b28:	30 93 19 11 	sts	0x1119, r19
    1b2c:	40 93 1a 11 	sts	0x111A, r20
    1b30:	50 93 1b 11 	sts	0x111B, r21
	comando.param3 = p3;
    1b34:	e0 92 1c 11 	sts	0x111C, r14
    1b38:	f0 92 1d 11 	sts	0x111D, r15
    1b3c:	00 93 1e 11 	sts	0x111E, r16
    1b40:	10 93 1f 11 	sts	0x111F, r17
	comando.param4 = p4;
    1b44:	a0 92 20 11 	sts	0x1120, r10
    1b48:	b0 92 21 11 	sts	0x1121, r11
    1b4c:	c0 92 22 11 	sts	0x1122, r12
    1b50:	d0 92 23 11 	sts	0x1123, r13
	comando.param5 = p5;
    1b54:	60 92 24 11 	sts	0x1124, r6
    1b58:	70 92 25 11 	sts	0x1125, r7
    1b5c:	80 92 26 11 	sts	0x1126, r8
    1b60:	90 92 27 11 	sts	0x1127, r9
	comando.param6 = p6;
    1b64:	20 92 28 11 	sts	0x1128, r2
    1b68:	30 92 29 11 	sts	0x1129, r3
    1b6c:	40 92 2a 11 	sts	0x112A, r4
    1b70:	50 92 2b 11 	sts	0x112B, r5
	comando.param7 = p7;
    1b74:	8a a5       	ldd	r24, Y+42	; 0x2a
    1b76:	9b a5       	ldd	r25, Y+43	; 0x2b
    1b78:	ac a5       	ldd	r26, Y+44	; 0x2c
    1b7a:	bd a5       	ldd	r27, Y+45	; 0x2d
    1b7c:	80 93 2c 11 	sts	0x112C, r24
    1b80:	90 93 2d 11 	sts	0x112D, r25
    1b84:	a0 93 2e 11 	sts	0x112E, r26
    1b88:	b0 93 2f 11 	sts	0x112F, r27
	comando.param8 = p8;
    1b8c:	80 e0       	ldi	r24, 0x00	; 0
    1b8e:	90 e0       	ldi	r25, 0x00	; 0
    1b90:	a0 e0       	ldi	r26, 0x00	; 0
    1b92:	b0 e0       	ldi	r27, 0x00	; 0
    1b94:	80 93 30 11 	sts	0x1130, r24
    1b98:	90 93 31 11 	sts	0x1131, r25
    1b9c:	a0 93 32 11 	sts	0x1132, r26
    1ba0:	b0 93 33 11 	sts	0x1133, r27
    1ba4:	21 e0       	ldi	r18, 0x01	; 1
    1ba6:	30 e0       	ldi	r19, 0x00	; 0
    1ba8:	e3 c0       	rjmp	.+454    	; 0x1d70 <fetchCommand+0x6e6>
		if(buffer[cc] != 0) return 0;				// Se espera fin de cadena
		cmdX(buffer[0], p1, p2, p3, p4, p5, p6, p7, 0.0f);
		return 1;
		
	}
	else if((buffer[0] == 'p')||(buffer[0] == 'q'))		//// 8 PARMETROS
    1baa:	80 91 70 08 	lds	r24, 0x0870
    1bae:	80 37       	cpi	r24, 0x70	; 112
    1bb0:	29 f0       	breq	.+10     	; 0x1bbc <fetchCommand+0x532>
    1bb2:	80 91 70 08 	lds	r24, 0x0870
    1bb6:	81 37       	cpi	r24, 0x71	; 113
    1bb8:	09 f0       	breq	.+2      	; 0x1bbc <fetchCommand+0x532>
    1bba:	d8 c0       	rjmp	.+432    	; 0x1d6c <fetchCommand+0x6e2>
    1bbc:	41 e0       	ldi	r20, 0x01	; 1
	{
		cc = 1;
		while(is_alpha(buffer[cc]))++cc;
    1bbe:	e4 2f       	mov	r30, r20
    1bc0:	f0 e0       	ldi	r31, 0x00	; 0
    1bc2:	e0 59       	subi	r30, 0x90	; 144
    1bc4:	f7 4f       	sbci	r31, 0xF7	; 247
    1bc6:	80 81       	ld	r24, Z



int is_alpha(int c)
{
	if(((c >= 'a') && (c <= 'z')) || ((c >= 'A') && (c <= 'Z'))) return 1;
    1bc8:	28 2f       	mov	r18, r24
    1bca:	30 e0       	ldi	r19, 0x00	; 0
    1bcc:	c9 01       	movw	r24, r18
    1bce:	81 56       	subi	r24, 0x61	; 97
    1bd0:	90 40       	sbci	r25, 0x00	; 0
    1bd2:	4a 97       	sbiw	r24, 0x1a	; 26
    1bd4:	30 f0       	brcs	.+12     	; 0x1be2 <fetchCommand+0x558>
    1bd6:	21 54       	subi	r18, 0x41	; 65
    1bd8:	30 40       	sbci	r19, 0x00	; 0
    1bda:	2a 31       	cpi	r18, 0x1A	; 26
    1bdc:	31 05       	cpc	r19, r1
    1bde:	08 f0       	brcs	.+2      	; 0x1be2 <fetchCommand+0x558>
    1be0:	1b c1       	rjmp	.+566    	; 0x1e18 <fetchCommand+0x78e>
    1be2:	4f 5f       	subi	r20, 0xFF	; 255
    1be4:	ec cf       	rjmp	.-40     	; 0x1bbe <fetchCommand+0x534>
	else if((buffer[0] == 'p')||(buffer[0] == 'q'))		//// 8 PARMETROS
	{
		cc = 1;
		while(is_alpha(buffer[cc]))++cc;
		if(!fetchParam(&cc, &p1)) return 0;			// Obtengo primer parametro
		if(!fetchParam(&cc, &p2)) return 0;			// Obtengo segundo parametro
    1be6:	c8 01       	movw	r24, r16
    1be8:	be 01       	movw	r22, r28
    1bea:	6a 5f       	subi	r22, 0xFA	; 250
    1bec:	7f 4f       	sbci	r23, 0xFF	; 255
    1bee:	0e 94 da 0a 	call	0x15b4	; 0x15b4 <fetchParam>
    1bf2:	89 2b       	or	r24, r25
    1bf4:	09 f4       	brne	.+2      	; 0x1bf8 <fetchCommand+0x56e>
    1bf6:	ba c0       	rjmp	.+372    	; 0x1d6c <fetchCommand+0x6e2>
		if(!fetchParam(&cc, &p3)) return 0;			// Obtengo tercer parametro
    1bf8:	c8 01       	movw	r24, r16
    1bfa:	be 01       	movw	r22, r28
    1bfc:	66 5f       	subi	r22, 0xF6	; 246
    1bfe:	7f 4f       	sbci	r23, 0xFF	; 255
    1c00:	0e 94 da 0a 	call	0x15b4	; 0x15b4 <fetchParam>
    1c04:	89 2b       	or	r24, r25
    1c06:	09 f4       	brne	.+2      	; 0x1c0a <fetchCommand+0x580>
    1c08:	b1 c0       	rjmp	.+354    	; 0x1d6c <fetchCommand+0x6e2>
		if(!fetchParam(&cc, &p4)) return 0;			// Obtengo cuarto parametro
    1c0a:	c8 01       	movw	r24, r16
    1c0c:	be 01       	movw	r22, r28
    1c0e:	62 5f       	subi	r22, 0xF2	; 242
    1c10:	7f 4f       	sbci	r23, 0xFF	; 255
    1c12:	0e 94 da 0a 	call	0x15b4	; 0x15b4 <fetchParam>
    1c16:	89 2b       	or	r24, r25
    1c18:	09 f4       	brne	.+2      	; 0x1c1c <fetchCommand+0x592>
    1c1a:	a8 c0       	rjmp	.+336    	; 0x1d6c <fetchCommand+0x6e2>
		if(!fetchParam(&cc, &p5)) return 0;			// Obtengo quinto parametro
    1c1c:	c8 01       	movw	r24, r16
    1c1e:	be 01       	movw	r22, r28
    1c20:	6e 5e       	subi	r22, 0xEE	; 238
    1c22:	7f 4f       	sbci	r23, 0xFF	; 255
    1c24:	0e 94 da 0a 	call	0x15b4	; 0x15b4 <fetchParam>
    1c28:	89 2b       	or	r24, r25
    1c2a:	09 f4       	brne	.+2      	; 0x1c2e <fetchCommand+0x5a4>
    1c2c:	9f c0       	rjmp	.+318    	; 0x1d6c <fetchCommand+0x6e2>
		if(!fetchParam(&cc, &p6)) return 0;			// Obtengo sexto parametro
    1c2e:	c8 01       	movw	r24, r16
    1c30:	be 01       	movw	r22, r28
    1c32:	6a 5e       	subi	r22, 0xEA	; 234
    1c34:	7f 4f       	sbci	r23, 0xFF	; 255
    1c36:	0e 94 da 0a 	call	0x15b4	; 0x15b4 <fetchParam>
    1c3a:	89 2b       	or	r24, r25
    1c3c:	09 f4       	brne	.+2      	; 0x1c40 <fetchCommand+0x5b6>
    1c3e:	96 c0       	rjmp	.+300    	; 0x1d6c <fetchCommand+0x6e2>
		if(!fetchParam(&cc, &p7)) return 0;			// Obtengo sexto parametro
    1c40:	c8 01       	movw	r24, r16
    1c42:	be 01       	movw	r22, r28
    1c44:	66 5e       	subi	r22, 0xE6	; 230
    1c46:	7f 4f       	sbci	r23, 0xFF	; 255
    1c48:	0e 94 da 0a 	call	0x15b4	; 0x15b4 <fetchParam>
    1c4c:	89 2b       	or	r24, r25
    1c4e:	09 f4       	brne	.+2      	; 0x1c52 <fetchCommand+0x5c8>
    1c50:	8d c0       	rjmp	.+282    	; 0x1d6c <fetchCommand+0x6e2>
		if(!fetchParam(&cc, &p8)) p8 = 0.0f;		// Obtengo sptimo parametro si existe
    1c52:	c8 01       	movw	r24, r16
    1c54:	be 01       	movw	r22, r28
    1c56:	62 5e       	subi	r22, 0xE2	; 226
    1c58:	7f 4f       	sbci	r23, 0xFF	; 255
    1c5a:	0e 94 da 0a 	call	0x15b4	; 0x15b4 <fetchParam>
    1c5e:	89 2b       	or	r24, r25
    1c60:	41 f4       	brne	.+16     	; 0x1c72 <fetchCommand+0x5e8>
    1c62:	80 e0       	ldi	r24, 0x00	; 0
    1c64:	90 e0       	ldi	r25, 0x00	; 0
    1c66:	a0 e0       	ldi	r26, 0x00	; 0
    1c68:	b0 e0       	ldi	r27, 0x00	; 0
    1c6a:	8e 8f       	std	Y+30, r24	; 0x1e
    1c6c:	9f 8f       	std	Y+31, r25	; 0x1f
    1c6e:	a8 a3       	std	Y+32, r26	; 0x20
    1c70:	b9 a3       	std	Y+33, r27	; 0x21
		if(buffer[cc] != 0) return 0;				// Se espera fin de cadena
    1c72:	e9 81       	ldd	r30, Y+1	; 0x01
    1c74:	f0 e0       	ldi	r31, 0x00	; 0
    1c76:	e0 59       	subi	r30, 0x90	; 144
    1c78:	f7 4f       	sbci	r31, 0xF7	; 247
    1c7a:	80 81       	ld	r24, Z
    1c7c:	88 23       	and	r24, r24
    1c7e:	09 f0       	breq	.+2      	; 0x1c82 <fetchCommand+0x5f8>
    1c80:	75 c0       	rjmp	.+234    	; 0x1d6c <fetchCommand+0x6e2>
		cmdX(buffer[0], p1, p2, p3, p4, p5, p6, p7,p8);
    1c82:	60 91 70 08 	lds	r22, 0x0870
    1c86:	8a 81       	ldd	r24, Y+2	; 0x02
    1c88:	9b 81       	ldd	r25, Y+3	; 0x03
    1c8a:	ac 81       	ldd	r26, Y+4	; 0x04
    1c8c:	bd 81       	ldd	r27, Y+5	; 0x05
    1c8e:	8e a7       	std	Y+46, r24	; 0x2e
    1c90:	9f a7       	std	Y+47, r25	; 0x2f
    1c92:	a8 ab       	std	Y+48, r26	; 0x30
    1c94:	b9 ab       	std	Y+49, r27	; 0x31
    1c96:	2e 81       	ldd	r18, Y+6	; 0x06
    1c98:	3f 81       	ldd	r19, Y+7	; 0x07
    1c9a:	48 85       	ldd	r20, Y+8	; 0x08
    1c9c:	59 85       	ldd	r21, Y+9	; 0x09
    1c9e:	ea 84       	ldd	r14, Y+10	; 0x0a
    1ca0:	fb 84       	ldd	r15, Y+11	; 0x0b
    1ca2:	0c 85       	ldd	r16, Y+12	; 0x0c
    1ca4:	1d 85       	ldd	r17, Y+13	; 0x0d
    1ca6:	ae 84       	ldd	r10, Y+14	; 0x0e
    1ca8:	bf 84       	ldd	r11, Y+15	; 0x0f
    1caa:	c8 88       	ldd	r12, Y+16	; 0x10
    1cac:	d9 88       	ldd	r13, Y+17	; 0x11
    1cae:	6a 88       	ldd	r6, Y+18	; 0x12
    1cb0:	7b 88       	ldd	r7, Y+19	; 0x13
    1cb2:	8c 88       	ldd	r8, Y+20	; 0x14
    1cb4:	9d 88       	ldd	r9, Y+21	; 0x15
    1cb6:	2e 88       	ldd	r2, Y+22	; 0x16
    1cb8:	3f 88       	ldd	r3, Y+23	; 0x17
    1cba:	48 8c       	ldd	r4, Y+24	; 0x18
    1cbc:	59 8c       	ldd	r5, Y+25	; 0x19
    1cbe:	8a 8d       	ldd	r24, Y+26	; 0x1a
    1cc0:	9b 8d       	ldd	r25, Y+27	; 0x1b
    1cc2:	ac 8d       	ldd	r26, Y+28	; 0x1c
    1cc4:	bd 8d       	ldd	r27, Y+29	; 0x1d
    1cc6:	8a a3       	std	Y+34, r24	; 0x22
    1cc8:	9b a3       	std	Y+35, r25	; 0x23
    1cca:	ac a3       	std	Y+36, r26	; 0x24
    1ccc:	bd a3       	std	Y+37, r27	; 0x25
    1cce:	8e 8d       	ldd	r24, Y+30	; 0x1e
    1cd0:	9f 8d       	ldd	r25, Y+31	; 0x1f
    1cd2:	a8 a1       	ldd	r26, Y+32	; 0x20
    1cd4:	b9 a1       	ldd	r27, Y+33	; 0x21
    1cd6:	8e a3       	std	Y+38, r24	; 0x26
    1cd8:	9f a3       	std	Y+39, r25	; 0x27
    1cda:	a8 a7       	std	Y+40, r26	; 0x28
    1cdc:	b9 a7       	std	Y+41, r27	; 0x29



void cmdX(char cmd, float p1, float p2, float p3, float p4, float p5, float p6, float p7, float p8)
{
	comando.cmd = cmd;
    1cde:	60 93 13 11 	sts	0x1113, r22
	comando.param1 = p1;
    1ce2:	8e a5       	ldd	r24, Y+46	; 0x2e
    1ce4:	9f a5       	ldd	r25, Y+47	; 0x2f
    1ce6:	a8 a9       	ldd	r26, Y+48	; 0x30
    1ce8:	b9 a9       	ldd	r27, Y+49	; 0x31
    1cea:	80 93 14 11 	sts	0x1114, r24
    1cee:	90 93 15 11 	sts	0x1115, r25
    1cf2:	a0 93 16 11 	sts	0x1116, r26
    1cf6:	b0 93 17 11 	sts	0x1117, r27
	comando.param2 = p2;
    1cfa:	20 93 18 11 	sts	0x1118, r18
    1cfe:	30 93 19 11 	sts	0x1119, r19
    1d02:	40 93 1a 11 	sts	0x111A, r20
    1d06:	50 93 1b 11 	sts	0x111B, r21
	comando.param3 = p3;
    1d0a:	e0 92 1c 11 	sts	0x111C, r14
    1d0e:	f0 92 1d 11 	sts	0x111D, r15
    1d12:	00 93 1e 11 	sts	0x111E, r16
    1d16:	10 93 1f 11 	sts	0x111F, r17
	comando.param4 = p4;
    1d1a:	a0 92 20 11 	sts	0x1120, r10
    1d1e:	b0 92 21 11 	sts	0x1121, r11
    1d22:	c0 92 22 11 	sts	0x1122, r12
    1d26:	d0 92 23 11 	sts	0x1123, r13
	comando.param5 = p5;
    1d2a:	60 92 24 11 	sts	0x1124, r6
    1d2e:	70 92 25 11 	sts	0x1125, r7
    1d32:	80 92 26 11 	sts	0x1126, r8
    1d36:	90 92 27 11 	sts	0x1127, r9
	comando.param6 = p6;
    1d3a:	20 92 28 11 	sts	0x1128, r2
    1d3e:	30 92 29 11 	sts	0x1129, r3
    1d42:	40 92 2a 11 	sts	0x112A, r4
    1d46:	50 92 2b 11 	sts	0x112B, r5
	comando.param7 = p7;
    1d4a:	8a a1       	ldd	r24, Y+34	; 0x22
    1d4c:	9b a1       	ldd	r25, Y+35	; 0x23
    1d4e:	ac a1       	ldd	r26, Y+36	; 0x24
    1d50:	bd a1       	ldd	r27, Y+37	; 0x25
    1d52:	80 93 2c 11 	sts	0x112C, r24
    1d56:	90 93 2d 11 	sts	0x112D, r25
    1d5a:	a0 93 2e 11 	sts	0x112E, r26
    1d5e:	b0 93 2f 11 	sts	0x112F, r27
	comando.param8 = p8;
    1d62:	8e a1       	ldd	r24, Y+38	; 0x26
    1d64:	9f a1       	ldd	r25, Y+39	; 0x27
    1d66:	a8 a5       	ldd	r26, Y+40	; 0x28
    1d68:	b9 a5       	ldd	r27, Y+41	; 0x29
    1d6a:	14 cf       	rjmp	.-472    	; 0x1b94 <fetchCommand+0x50a>
		if(!fetchParam(&cc, &p6)) return 0;			// Obtengo sexto parametro
		if(!fetchParam(&cc, &p7)) return 0;			// Obtengo sexto parametro
		if(!fetchParam(&cc, &p8)) p8 = 0.0f;		// Obtengo sptimo parametro si existe
		if(buffer[cc] != 0) return 0;				// Se espera fin de cadena
		cmdX(buffer[0], p1, p2, p3, p4, p5, p6, p7,p8);
		return 1;
    1d6c:	20 e0       	ldi	r18, 0x00	; 0
    1d6e:	30 e0       	ldi	r19, 0x00	; 0
		
	}
	return 0;
}
    1d70:	c9 01       	movw	r24, r18
    1d72:	e1 96       	adiw	r28, 0x31	; 49
    1d74:	0f b6       	in	r0, 0x3f	; 63
    1d76:	f8 94       	cli
    1d78:	de bf       	out	0x3e, r29	; 62
    1d7a:	0f be       	out	0x3f, r0	; 63
    1d7c:	cd bf       	out	0x3d, r28	; 61
    1d7e:	cf 91       	pop	r28
    1d80:	df 91       	pop	r29
    1d82:	1f 91       	pop	r17
    1d84:	0f 91       	pop	r16
    1d86:	ff 90       	pop	r15
    1d88:	ef 90       	pop	r14
    1d8a:	df 90       	pop	r13
    1d8c:	cf 90       	pop	r12
    1d8e:	bf 90       	pop	r11
    1d90:	af 90       	pop	r10
    1d92:	9f 90       	pop	r9
    1d94:	8f 90       	pop	r8
    1d96:	7f 90       	pop	r7
    1d98:	6f 90       	pop	r6
    1d9a:	5f 90       	pop	r5
    1d9c:	4f 90       	pop	r4
    1d9e:	3f 90       	pop	r3
    1da0:	2f 90       	pop	r2
    1da2:	08 95       	ret

	if( (buffer[0] == 'g')||(buffer[0] == 's')||(buffer[0] == 'h')||(buffer[0] == 'i') || (buffer[0] == 'S') || (buffer[0] == 'v')||(buffer[0] == 'C' ))
	{
		cc = 1;
		while(is_alpha(buffer[cc]))++cc;
		if(buffer[1] != 0) return 0; //Parametros no requeridos
    1da4:	80 91 71 08 	lds	r24, 0x0871
    1da8:	88 23       	and	r24, r24
    1daa:	01 f7       	brne	.-64     	; 0x1d6c <fetchCommand+0x6e2>
    1dac:	b9 cc       	rjmp	.-1678   	; 0x1720 <fetchCommand+0x96>
    1dae:	49 83       	std	Y+1, r20	; 0x01
	{
		// Obtener primer parametro
		
		cc = 1;
		while(is_alpha(buffer[cc]))++cc;
		if(!fetchParam(&cc, &p1)) return 0;
    1db0:	ce 01       	movw	r24, r28
    1db2:	01 96       	adiw	r24, 0x01	; 1
    1db4:	be 01       	movw	r22, r28
    1db6:	6e 5f       	subi	r22, 0xFE	; 254
    1db8:	7f 4f       	sbci	r23, 0xFF	; 255
    1dba:	0e 94 da 0a 	call	0x15b4	; 0x15b4 <fetchParam>
    1dbe:	89 2b       	or	r24, r25
    1dc0:	09 f0       	breq	.+2      	; 0x1dc4 <fetchCommand+0x73a>
    1dc2:	18 cd       	rjmp	.-1488   	; 0x17f4 <fetchCommand+0x16a>
    1dc4:	d3 cf       	rjmp	.-90     	; 0x1d6c <fetchCommand+0x6e2>
    1dc6:	49 83       	std	Y+1, r20	; 0x01
	}
	else if((buffer[0] == 'f')||(buffer[0] == 'd'))						/////////// 2 PARMETROS
	{
		cc = 1;
		while(is_alpha(buffer[cc]))++cc;
		if(!fetchParam(&cc, &p1)) return 0;			// Obtengo primer parametro
    1dc8:	8e 01       	movw	r16, r28
    1dca:	0f 5f       	subi	r16, 0xFF	; 255
    1dcc:	1f 4f       	sbci	r17, 0xFF	; 255
    1dce:	c8 01       	movw	r24, r16
    1dd0:	be 01       	movw	r22, r28
    1dd2:	6e 5f       	subi	r22, 0xFE	; 254
    1dd4:	7f 4f       	sbci	r23, 0xFF	; 255
    1dd6:	0e 94 da 0a 	call	0x15b4	; 0x15b4 <fetchParam>
    1dda:	89 2b       	or	r24, r25
    1ddc:	39 f2       	breq	.-114    	; 0x1d6c <fetchCommand+0x6e2>
    1dde:	4d cd       	rjmp	.-1382   	; 0x187a <fetchCommand+0x1f0>
    1de0:	49 83       	std	Y+1, r20	; 0x01
	}
	else if((buffer[0] == 'n'))		//// 3 PARMETROS
	{
		cc = 1;
		while(is_alpha(buffer[cc]))++cc;
		if(!fetchParam(&cc, &p1)) return 0;			// Obtengo primer parametro
    1de2:	8e 01       	movw	r16, r28
    1de4:	0f 5f       	subi	r16, 0xFF	; 255
    1de6:	1f 4f       	sbci	r17, 0xFF	; 255
    1de8:	c8 01       	movw	r24, r16
    1dea:	be 01       	movw	r22, r28
    1dec:	6e 5f       	subi	r22, 0xFE	; 254
    1dee:	7f 4f       	sbci	r23, 0xFF	; 255
    1df0:	0e 94 da 0a 	call	0x15b4	; 0x15b4 <fetchParam>
    1df4:	89 2b       	or	r24, r25
    1df6:	09 f4       	brne	.+2      	; 0x1dfa <fetchCommand+0x770>
    1df8:	b9 cf       	rjmp	.-142    	; 0x1d6c <fetchCommand+0x6e2>
    1dfa:	93 cd       	rjmp	.-1242   	; 0x1922 <fetchCommand+0x298>
    1dfc:	49 83       	std	Y+1, r20	; 0x01
	}
	else if((buffer[0] == 'x'))		//// 7 PARMETROS
	{
		cc = 1;
		while(is_alpha(buffer[cc]))++cc;
		if(!fetchParam(&cc, &p1)) return 0;			// Obtengo primer parametro
    1dfe:	8e 01       	movw	r16, r28
    1e00:	0f 5f       	subi	r16, 0xFF	; 255
    1e02:	1f 4f       	sbci	r17, 0xFF	; 255
    1e04:	c8 01       	movw	r24, r16
    1e06:	be 01       	movw	r22, r28
    1e08:	6e 5f       	subi	r22, 0xFE	; 254
    1e0a:	7f 4f       	sbci	r23, 0xFF	; 255
    1e0c:	0e 94 da 0a 	call	0x15b4	; 0x15b4 <fetchParam>
    1e10:	89 2b       	or	r24, r25
    1e12:	09 f4       	brne	.+2      	; 0x1e16 <fetchCommand+0x78c>
    1e14:	ab cf       	rjmp	.-170    	; 0x1d6c <fetchCommand+0x6e2>
    1e16:	0d ce       	rjmp	.-998    	; 0x1a32 <fetchCommand+0x3a8>
    1e18:	49 83       	std	Y+1, r20	; 0x01
	}
	else if((buffer[0] == 'p')||(buffer[0] == 'q'))		//// 8 PARMETROS
	{
		cc = 1;
		while(is_alpha(buffer[cc]))++cc;
		if(!fetchParam(&cc, &p1)) return 0;			// Obtengo primer parametro
    1e1a:	8e 01       	movw	r16, r28
    1e1c:	0f 5f       	subi	r16, 0xFF	; 255
    1e1e:	1f 4f       	sbci	r17, 0xFF	; 255
    1e20:	c8 01       	movw	r24, r16
    1e22:	be 01       	movw	r22, r28
    1e24:	6e 5f       	subi	r22, 0xFE	; 254
    1e26:	7f 4f       	sbci	r23, 0xFF	; 255
    1e28:	0e 94 da 0a 	call	0x15b4	; 0x15b4 <fetchParam>
    1e2c:	89 2b       	or	r24, r25
    1e2e:	09 f4       	brne	.+2      	; 0x1e32 <fetchCommand+0x7a8>
    1e30:	9d cf       	rjmp	.-198    	; 0x1d6c <fetchCommand+0x6e2>
    1e32:	d9 ce       	rjmp	.-590    	; 0x1be6 <fetchCommand+0x55c>

00001e34 <SetTorque2>:
	return bits;
}


void SetTorque2(int id, float torque)
{
    1e34:	af 92       	push	r10
    1e36:	bf 92       	push	r11
    1e38:	df 92       	push	r13
    1e3a:	ef 92       	push	r14
    1e3c:	ff 92       	push	r15
    1e3e:	0f 93       	push	r16
    1e40:	1f 93       	push	r17
    1e42:	cf 93       	push	r28
    1e44:	df 93       	push	r29
    1e46:	5c 01       	movw	r10, r24
    1e48:	7a 01       	movw	r14, r20
    1e4a:	8b 01       	movw	r16, r22
	int direction,bits;

	if(cw[id]==1)
    1e4c:	fc 01       	movw	r30, r24
    1e4e:	ee 0f       	add	r30, r30
    1e50:	ff 1f       	adc	r31, r31
    1e52:	ef 5f       	subi	r30, 0xFF	; 255
    1e54:	fe 4e       	sbci	r31, 0xEE	; 238
    1e56:	80 81       	ld	r24, Z
    1e58:	91 81       	ldd	r25, Z+1	; 0x01
    1e5a:	01 97       	sbiw	r24, 0x01	; 1
    1e5c:	79 f4       	brne	.+30     	; 0x1e7c <SetTorque2+0x48>
    1e5e:	c0 e0       	ldi	r28, 0x00	; 0
    1e60:	d0 e0       	ldi	r29, 0x00	; 0
    1e62:	cb 01       	movw	r24, r22
    1e64:	ba 01       	movw	r22, r20
    1e66:	20 e0       	ldi	r18, 0x00	; 0
    1e68:	30 e0       	ldi	r19, 0x00	; 0
    1e6a:	40 e0       	ldi	r20, 0x00	; 0
    1e6c:	50 e0       	ldi	r21, 0x00	; 0
    1e6e:	0e 94 5b 39 	call	0x72b6	; 0x72b6 <__cmpsf2>
    1e72:	18 16       	cp	r1, r24
    1e74:	a4 f0       	brlt	.+40     	; 0x1e9e <SetTorque2+0x6a>
    1e76:	c1 e0       	ldi	r28, 0x01	; 1
    1e78:	d0 e0       	ldi	r29, 0x00	; 0
    1e7a:	11 c0       	rjmp	.+34     	; 0x1e9e <SetTorque2+0x6a>
    1e7c:	dd 24       	eor	r13, r13
    1e7e:	cb 01       	movw	r24, r22
    1e80:	ba 01       	movw	r22, r20
    1e82:	20 e0       	ldi	r18, 0x00	; 0
    1e84:	30 e0       	ldi	r19, 0x00	; 0
    1e86:	40 e0       	ldi	r20, 0x00	; 0
    1e88:	50 e0       	ldi	r21, 0x00	; 0
    1e8a:	0e 94 5b 39 	call	0x72b6	; 0x72b6 <__cmpsf2>
    1e8e:	18 16       	cp	r1, r24
    1e90:	14 f0       	brlt	.+4      	; 0x1e96 <SetTorque2+0x62>
    1e92:	dd 24       	eor	r13, r13
    1e94:	d3 94       	inc	r13
    1e96:	81 e0       	ldi	r24, 0x01	; 1
    1e98:	d8 26       	eor	r13, r24
    1e9a:	cd 2d       	mov	r28, r13
    1e9c:	d0 e0       	ldi	r29, 0x00	; 0
	else
	{	
		if(torque<=0) {direction = 0;}
		else{direction = 1;}
	}
	torque = abs(torque);
    1e9e:	c8 01       	movw	r24, r16
    1ea0:	b7 01       	movw	r22, r14
    1ea2:	0e 94 ca 39 	call	0x7394	; 0x7394 <__fixsfsi>
    1ea6:	9b 01       	movw	r18, r22
    1ea8:	77 ff       	sbrs	r23, 7
    1eaa:	03 c0       	rjmp	.+6      	; 0x1eb2 <SetTorque2+0x7e>
    1eac:	30 95       	com	r19
    1eae:	21 95       	neg	r18
    1eb0:	3f 4f       	sbci	r19, 0xFF	; 255

	bits = torque * (1023.0 / maxTorque[id]);
    1eb2:	b9 01       	movw	r22, r18
    1eb4:	88 27       	eor	r24, r24
    1eb6:	77 fd       	sbrc	r23, 7
    1eb8:	80 95       	com	r24
    1eba:	98 2f       	mov	r25, r24
    1ebc:	0e 94 fd 39 	call	0x73fa	; 0x73fa <__floatsisf>
    1ec0:	7b 01       	movw	r14, r22
    1ec2:	8c 01       	movw	r16, r24
    1ec4:	f5 01       	movw	r30, r10
    1ec6:	ee 0f       	add	r30, r30
    1ec8:	ff 1f       	adc	r31, r31
    1eca:	ee 0f       	add	r30, r30
    1ecc:	ff 1f       	adc	r31, r31
    1ece:	e9 56       	subi	r30, 0x69	; 105
    1ed0:	f4 4f       	sbci	r31, 0xF4	; 244
    1ed2:	60 e0       	ldi	r22, 0x00	; 0
    1ed4:	70 ec       	ldi	r23, 0xC0	; 192
    1ed6:	8f e7       	ldi	r24, 0x7F	; 127
    1ed8:	94 e4       	ldi	r25, 0x44	; 68
    1eda:	20 81       	ld	r18, Z
    1edc:	31 81       	ldd	r19, Z+1	; 0x01
    1ede:	42 81       	ldd	r20, Z+2	; 0x02
    1ee0:	53 81       	ldd	r21, Z+3	; 0x03
    1ee2:	0e 94 62 39 	call	0x72c4	; 0x72c4 <__divsf3>
    1ee6:	9b 01       	movw	r18, r22
    1ee8:	ac 01       	movw	r20, r24
    1eea:	c8 01       	movw	r24, r16
    1eec:	b7 01       	movw	r22, r14
    1eee:	0e 94 42 3b 	call	0x7684	; 0x7684 <__mulsf3>
    1ef2:	0e 94 ca 39 	call	0x7394	; 0x7394 <__fixsfsi>
    1ef6:	ab 01       	movw	r20, r22
    1ef8:	77 ff       	sbrs	r23, 7
    1efa:	02 c0       	rjmp	.+4      	; 0x1f00 <SetTorque2+0xcc>
    1efc:	40 e0       	ldi	r20, 0x00	; 0
    1efe:	50 e0       	ldi	r21, 0x00	; 0
    1f00:	84 e0       	ldi	r24, 0x04	; 4
    1f02:	40 30       	cpi	r20, 0x00	; 0
    1f04:	58 07       	cpc	r21, r24
    1f06:	14 f0       	brlt	.+4      	; 0x1f0c <SetTorque2+0xd8>
    1f08:	4f ef       	ldi	r20, 0xFF	; 255
    1f0a:	53 e0       	ldi	r21, 0x03	; 3
	

	if(bits>1023) bits = 1023;
	else if(bits<0) bits = 0;

	if(direction ==1){ bits = bits + 1024;}
    1f0c:	21 97       	sbiw	r28, 0x01	; 1
    1f0e:	11 f4       	brne	.+4      	; 0x1f14 <SetTorque2+0xe0>
    1f10:	40 50       	subi	r20, 0x00	; 0
    1f12:	5c 4f       	sbci	r21, 0xFC	; 252

	dxl_write_word( id, SERVO_PROG_SPEED , bits );
    1f14:	c5 01       	movw	r24, r10
    1f16:	60 e2       	ldi	r22, 0x20	; 32
    1f18:	70 e0       	ldi	r23, 0x00	; 0
    1f1a:	0e 94 2f 32 	call	0x645e	; 0x645e <dxl_write_word>
	//return bits;
}
    1f1e:	df 91       	pop	r29
    1f20:	cf 91       	pop	r28
    1f22:	1f 91       	pop	r17
    1f24:	0f 91       	pop	r16
    1f26:	ff 90       	pop	r15
    1f28:	ef 90       	pop	r14
    1f2a:	df 90       	pop	r13
    1f2c:	bf 90       	pop	r11
    1f2e:	af 90       	pop	r10
    1f30:	08 95       	ret

00001f32 <SetSpeedPerc>:
	

}

void SetSpeedPerc(int id, float speed)
{
    1f32:	cf 93       	push	r28
    1f34:	df 93       	push	r29
    1f36:	ec 01       	movw	r28, r24
	int bits;
	bits = speed * (1023.0 / 100.0);
    1f38:	cb 01       	movw	r24, r22
    1f3a:	ba 01       	movw	r22, r20
    1f3c:	24 e1       	ldi	r18, 0x14	; 20
    1f3e:	3e ea       	ldi	r19, 0xAE	; 174
    1f40:	43 e2       	ldi	r20, 0x23	; 35
    1f42:	51 e4       	ldi	r21, 0x41	; 65
    1f44:	0e 94 42 3b 	call	0x7684	; 0x7684 <__mulsf3>
    1f48:	0e 94 ca 39 	call	0x7394	; 0x7394 <__fixsfsi>
    1f4c:	ab 01       	movw	r20, r22
    1f4e:	16 16       	cp	r1, r22
    1f50:	17 06       	cpc	r1, r23
    1f52:	14 f0       	brlt	.+4      	; 0x1f58 <SetSpeedPerc+0x26>
    1f54:	41 e0       	ldi	r20, 0x01	; 1
    1f56:	50 e0       	ldi	r21, 0x00	; 0
	//printf("Speed %i",bits);
	if(bits>1023) bits = 1023;
	else if(bits<=1) bits = 1;
	//printf("Speed %i",bits);
	dxl_write_word( id, SERVO_PROG_SPEED , bits );
    1f58:	84 e0       	ldi	r24, 0x04	; 4
    1f5a:	40 30       	cpi	r20, 0x00	; 0
    1f5c:	58 07       	cpc	r21, r24
    1f5e:	14 f0       	brlt	.+4      	; 0x1f64 <SetSpeedPerc+0x32>
    1f60:	4f ef       	ldi	r20, 0xFF	; 255
    1f62:	53 e0       	ldi	r21, 0x03	; 3
    1f64:	ce 01       	movw	r24, r28
    1f66:	60 e2       	ldi	r22, 0x20	; 32
    1f68:	70 e0       	ldi	r23, 0x00	; 0
    1f6a:	0e 94 2f 32 	call	0x645e	; 0x645e <dxl_write_word>
}
    1f6e:	df 91       	pop	r29
    1f70:	cf 91       	pop	r28
    1f72:	08 95       	ret

00001f74 <SetMaxSpeeds>:
	}
	return positions;
}

void SetMaxSpeeds(float speed)
{
    1f74:	cf 92       	push	r12
    1f76:	df 92       	push	r13
    1f78:	ef 92       	push	r14
    1f7a:	ff 92       	push	r15
    1f7c:	0f 93       	push	r16
    1f7e:	1f 93       	push	r17
    1f80:	cf 93       	push	r28
    1f82:	df 93       	push	r29
    1f84:	7b 01       	movw	r14, r22
    1f86:	8c 01       	movw	r16, r24
    1f88:	c0 e0       	ldi	r28, 0x00	; 0
    1f8a:	d0 e0       	ldi	r29, 0x00	; 0
    milliseconds can be achieved.
 */
void
_delay_loop_2(uint16_t __count)
{
	__asm__ volatile (
    1f8c:	20 e4       	ldi	r18, 0x40	; 64
    1f8e:	c2 2e       	mov	r12, r18
    1f90:	2c e9       	ldi	r18, 0x9C	; 156
    1f92:	d2 2e       	mov	r13, r18
	for(int i = 0; i<7; i++)
	{
		SetSpeedPerc(i,speed);
    1f94:	ce 01       	movw	r24, r28
    1f96:	b8 01       	movw	r22, r16
    1f98:	a7 01       	movw	r20, r14
    1f9a:	0e 94 99 0f 	call	0x1f32	; 0x1f32 <SetSpeedPerc>
    1f9e:	c6 01       	movw	r24, r12
    1fa0:	01 97       	sbiw	r24, 0x01	; 1
    1fa2:	f1 f7       	brne	.-4      	; 0x1fa0 <SetMaxSpeeds+0x2c>
	return positions;
}

void SetMaxSpeeds(float speed)
{
	for(int i = 0; i<7; i++)
    1fa4:	21 96       	adiw	r28, 0x01	; 1
    1fa6:	c7 30       	cpi	r28, 0x07	; 7
    1fa8:	d1 05       	cpc	r29, r1
    1faa:	a1 f7       	brne	.-24     	; 0x1f94 <SetMaxSpeeds+0x20>
		SetSpeedPerc(i,speed);
		_delay_ms(10);
	}
	

}
    1fac:	df 91       	pop	r29
    1fae:	cf 91       	pop	r28
    1fb0:	1f 91       	pop	r17
    1fb2:	0f 91       	pop	r16
    1fb4:	ff 90       	pop	r15
    1fb6:	ef 90       	pop	r14
    1fb8:	df 90       	pop	r13
    1fba:	cf 90       	pop	r12
    1fbc:	08 95       	ret

00001fbe <SetTorqueControl>:
		SetTorqueControl(i,enable);
	}
}

void SetTorqueControl(int id, int enable)
{
    1fbe:	ef 92       	push	r14
    1fc0:	ff 92       	push	r15
    1fc2:	0f 93       	push	r16
    1fc4:	1f 93       	push	r17
    1fc6:	cf 93       	push	r28
    1fc8:	df 93       	push	r29
    1fca:	7c 01       	movw	r14, r24
    1fcc:	8b 01       	movw	r16, r22
	
	//dxl_write_byte(2, 16, 1);
		
	SetSpeedPerc(ids[id],0);
    1fce:	ec 01       	movw	r28, r24
    1fd0:	cc 0f       	add	r28, r28
    1fd2:	dd 1f       	adc	r29, r29
    1fd4:	c7 51       	subi	r28, 0x17	; 23
    1fd6:	d5 4f       	sbci	r29, 0xF5	; 245
    1fd8:	88 81       	ld	r24, Y
    1fda:	99 81       	ldd	r25, Y+1	; 0x01
    1fdc:	40 e0       	ldi	r20, 0x00	; 0
    1fde:	50 e0       	ldi	r21, 0x00	; 0
    1fe0:	60 e0       	ldi	r22, 0x00	; 0
    1fe2:	70 e0       	ldi	r23, 0x00	; 0
    1fe4:	0e 94 99 0f 	call	0x1f32	; 0x1f32 <SetSpeedPerc>

	if(enable==1)
    1fe8:	01 30       	cpi	r16, 0x01	; 1
    1fea:	11 05       	cpc	r17, r1
    1fec:	79 f4       	brne	.+30     	; 0x200c <SetTorqueControl+0x4e>
	{
		
		dxl_write_word( ids[id], SERVO_MAX_CW , 0 );
    1fee:	88 81       	ld	r24, Y
    1ff0:	99 81       	ldd	r25, Y+1	; 0x01
    1ff2:	66 e0       	ldi	r22, 0x06	; 6
    1ff4:	70 e0       	ldi	r23, 0x00	; 0
    1ff6:	40 e0       	ldi	r20, 0x00	; 0
    1ff8:	50 e0       	ldi	r21, 0x00	; 0
    1ffa:	0e 94 2f 32 	call	0x645e	; 0x645e <dxl_write_word>
		dxl_write_word( ids[id], SERVO_MAX_CCW , 0 );
    1ffe:	88 81       	ld	r24, Y
    2000:	99 81       	ldd	r25, Y+1	; 0x01
    2002:	68 e0       	ldi	r22, 0x08	; 8
    2004:	70 e0       	ldi	r23, 0x00	; 0
    2006:	40 e0       	ldi	r20, 0x00	; 0
    2008:	50 e0       	ldi	r21, 0x00	; 0
    200a:	21 c0       	rjmp	.+66     	; 0x204e <SetTorqueControl+0x90>
	}else if(enable==0){
    200c:	01 2b       	or	r16, r17
    200e:	09 f5       	brne	.+66     	; 0x2052 <SetTorqueControl+0x94>
		
		dxl_write_word( ids[id], SERVO_MAX_CW , 1 );
    2010:	88 81       	ld	r24, Y
    2012:	99 81       	ldd	r25, Y+1	; 0x01
    2014:	66 e0       	ldi	r22, 0x06	; 6
    2016:	70 e0       	ldi	r23, 0x00	; 0
    2018:	41 e0       	ldi	r20, 0x01	; 1
    201a:	50 e0       	ldi	r21, 0x00	; 0
    201c:	0e 94 2f 32 	call	0x645e	; 0x645e <dxl_write_word>
		dxl_write_word( ids[id], SERVO_MAX_CCW , maxBits[id] );
    2020:	08 81       	ld	r16, Y
    2022:	19 81       	ldd	r17, Y+1	; 0x01
    2024:	ee 0c       	add	r14, r14
    2026:	ff 1c       	adc	r15, r15
    2028:	ee 0c       	add	r14, r14
    202a:	ff 1c       	adc	r15, r15
    202c:	8b eb       	ldi	r24, 0xBB	; 187
    202e:	9b e0       	ldi	r25, 0x0B	; 11
    2030:	e8 0e       	add	r14, r24
    2032:	f9 1e       	adc	r15, r25
    2034:	f7 01       	movw	r30, r14
    2036:	60 81       	ld	r22, Z
    2038:	71 81       	ldd	r23, Z+1	; 0x01
    203a:	82 81       	ldd	r24, Z+2	; 0x02
    203c:	93 81       	ldd	r25, Z+3	; 0x03
    203e:	0e 94 ca 39 	call	0x7394	; 0x7394 <__fixsfsi>
    2042:	9b 01       	movw	r18, r22
    2044:	ac 01       	movw	r20, r24
    2046:	c8 01       	movw	r24, r16
    2048:	68 e0       	ldi	r22, 0x08	; 8
    204a:	70 e0       	ldi	r23, 0x00	; 0
    204c:	a9 01       	movw	r20, r18
    204e:	0e 94 2f 32 	call	0x645e	; 0x645e <dxl_write_word>
	}
}
    2052:	df 91       	pop	r29
    2054:	cf 91       	pop	r28
    2056:	1f 91       	pop	r17
    2058:	0f 91       	pop	r16
    205a:	ff 90       	pop	r15
    205c:	ef 90       	pop	r14
    205e:	08 95       	ret

00002060 <ArmTorqueControl>:
	dxl_write_word( id, SERVO_PROG_SPEED , bits );
}


void ArmTorqueControl(int enable)
{
    2060:	0f 93       	push	r16
    2062:	1f 93       	push	r17
    2064:	cf 93       	push	r28
    2066:	df 93       	push	r29
    2068:	8c 01       	movw	r16, r24
    206a:	c0 e0       	ldi	r28, 0x00	; 0
    206c:	d0 e0       	ldi	r29, 0x00	; 0

	for(int i = 0;i<DOF;i++)
	{
		SetTorqueControl(i,enable);
    206e:	ce 01       	movw	r24, r28
    2070:	b8 01       	movw	r22, r16
    2072:	0e 94 df 0f 	call	0x1fbe	; 0x1fbe <SetTorqueControl>


void ArmTorqueControl(int enable)
{

	for(int i = 0;i<DOF;i++)
    2076:	21 96       	adiw	r28, 0x01	; 1
    2078:	c7 30       	cpi	r28, 0x07	; 7
    207a:	d1 05       	cpc	r29, r1
    207c:	c1 f7       	brne	.-16     	; 0x206e <ArmTorqueControl+0xe>
	{
		SetTorqueControl(i,enable);
	}
}
    207e:	df 91       	pop	r29
    2080:	cf 91       	pop	r28
    2082:	1f 91       	pop	r17
    2084:	0f 91       	pop	r16
    2086:	08 95       	ret

00002088 <CloseGripper>:


}

void CloseGripper(float perc)
{
    2088:	ef 92       	push	r14
    208a:	ff 92       	push	r15
    208c:	0f 93       	push	r16
    208e:	1f 93       	push	r17
    2090:	7b 01       	movw	r14, r22
    2092:	8c 01       	movw	r16, r24
	SetTorqueControl(7,1);
    2094:	87 e0       	ldi	r24, 0x07	; 7
    2096:	90 e0       	ldi	r25, 0x00	; 0
    2098:	61 e0       	ldi	r22, 0x01	; 1
    209a:	70 e0       	ldi	r23, 0x00	; 0
    209c:	0e 94 df 0f 	call	0x1fbe	; 0x1fbe <SetTorqueControl>
	int bits1 = SetTorque( 7,  perc);
    20a0:	87 e0       	ldi	r24, 0x07	; 7
    20a2:	90 e0       	ldi	r25, 0x00	; 0
    20a4:	b8 01       	movw	r22, r16
    20a6:	a7 01       	movw	r20, r14
    20a8:	0e 94 7f 02 	call	0x4fe	; 0x4fe <SetTorque>
    20ac:	ac 01       	movw	r20, r24
	dxl_write_word( 7, SERVO_PROG_SPEED ,  bits1 );
    20ae:	87 e0       	ldi	r24, 0x07	; 7
    20b0:	90 e0       	ldi	r25, 0x00	; 0
    20b2:	60 e2       	ldi	r22, 0x20	; 32
    20b4:	70 e0       	ldi	r23, 0x00	; 0
    20b6:	0e 94 2f 32 	call	0x645e	; 0x645e <dxl_write_word>
    20ba:	8c e2       	ldi	r24, 0x2C	; 44
    20bc:	91 e0       	ldi	r25, 0x01	; 1
    20be:	20 e9       	ldi	r18, 0x90	; 144
    20c0:	31 e0       	ldi	r19, 0x01	; 1
    20c2:	f9 01       	movw	r30, r18
    20c4:	31 97       	sbiw	r30, 0x01	; 1
    20c6:	f1 f7       	brne	.-4      	; 0x20c4 <CloseGripper+0x3c>
		__ticks = (uint16_t) (__ms * 10.0);
		while(__ticks)
		{
			// wait 1/10 ms
			_delay_loop_2(((F_CPU) / 4e3) / 10);
			__ticks --;
    20c8:	01 97       	sbiw	r24, 0x01	; 1
		__ticks = 1;
	else if (__tmp > 65535)
	{
		//	__ticks = requested delay in 1/10 ms
		__ticks = (uint16_t) (__ms * 10.0);
		while(__ticks)
    20ca:	d9 f7       	brne	.-10     	; 0x20c2 <CloseGripper+0x3a>
	
	_delay_ms(30);

	SetTorqueControl(8,1);
    20cc:	88 e0       	ldi	r24, 0x08	; 8
    20ce:	90 e0       	ldi	r25, 0x00	; 0
    20d0:	61 e0       	ldi	r22, 0x01	; 1
    20d2:	70 e0       	ldi	r23, 0x00	; 0
    20d4:	0e 94 df 0f 	call	0x1fbe	; 0x1fbe <SetTorqueControl>
	int bits2 = SetTorque( 8,  perc);
    20d8:	88 e0       	ldi	r24, 0x08	; 8
    20da:	90 e0       	ldi	r25, 0x00	; 0
    20dc:	b8 01       	movw	r22, r16
    20de:	a7 01       	movw	r20, r14
    20e0:	0e 94 7f 02 	call	0x4fe	; 0x4fe <SetTorque>
    20e4:	ac 01       	movw	r20, r24
	dxl_write_word( 17, SERVO_PROG_SPEED , bits2 );
    20e6:	81 e1       	ldi	r24, 0x11	; 17
    20e8:	90 e0       	ldi	r25, 0x00	; 0
    20ea:	60 e2       	ldi	r22, 0x20	; 32
    20ec:	70 e0       	ldi	r23, 0x00	; 0
    20ee:	0e 94 2f 32 	call	0x645e	; 0x645e <dxl_write_word>

	//printf("bits7: %d ",bits1);	
	//printf("bits17: %d",bits2);	

	desiredForce = perc;
    20f2:	e0 92 68 08 	sts	0x0868, r14
    20f6:	f0 92 69 08 	sts	0x0869, r15
    20fa:	00 93 6a 08 	sts	0x086A, r16
    20fe:	10 93 6b 08 	sts	0x086B, r17
	doGripper = 1;
    2102:	81 e0       	ldi	r24, 0x01	; 1
    2104:	90 e0       	ldi	r25, 0x00	; 0
    2106:	90 93 67 08 	sts	0x0867, r25
    210a:	80 93 66 08 	sts	0x0866, r24
}
    210e:	1f 91       	pop	r17
    2110:	0f 91       	pop	r16
    2112:	ff 90       	pop	r15
    2114:	ef 90       	pop	r14
    2116:	08 95       	ret

00002118 <OpenGripper>:

		
}

void OpenGripper(float perc)
{
    2118:	ef 92       	push	r14
    211a:	ff 92       	push	r15
    211c:	0f 93       	push	r16
    211e:	1f 93       	push	r17
    2120:	7b 01       	movw	r14, r22
    2122:	8c 01       	movw	r16, r24

	float openedPosition = 1.1;
	
	SetTorqueControl(7,0);
    2124:	87 e0       	ldi	r24, 0x07	; 7
    2126:	90 e0       	ldi	r25, 0x00	; 0
    2128:	60 e0       	ldi	r22, 0x00	; 0
    212a:	70 e0       	ldi	r23, 0x00	; 0
    212c:	0e 94 df 0f 	call	0x1fbe	; 0x1fbe <SetTorqueControl>
	SetSpeedPerc(7,10);
    2130:	87 e0       	ldi	r24, 0x07	; 7
    2132:	90 e0       	ldi	r25, 0x00	; 0
    2134:	40 e0       	ldi	r20, 0x00	; 0
    2136:	50 e0       	ldi	r21, 0x00	; 0
    2138:	60 e2       	ldi	r22, 0x20	; 32
    213a:	71 e4       	ldi	r23, 0x41	; 65
    213c:	0e 94 99 0f 	call	0x1f32	; 0x1f32 <SetSpeedPerc>
	int bits1 = SetPosition(7,(openedPosition * perc / 100.0) );
    2140:	c8 01       	movw	r24, r16
    2142:	b7 01       	movw	r22, r14
    2144:	2d ec       	ldi	r18, 0xCD	; 205
    2146:	3c ec       	ldi	r19, 0xCC	; 204
    2148:	4c e8       	ldi	r20, 0x8C	; 140
    214a:	5f e3       	ldi	r21, 0x3F	; 63
    214c:	0e 94 42 3b 	call	0x7684	; 0x7684 <__mulsf3>
    2150:	20 e0       	ldi	r18, 0x00	; 0
    2152:	30 e0       	ldi	r19, 0x00	; 0
    2154:	48 ec       	ldi	r20, 0xC8	; 200
    2156:	52 e4       	ldi	r21, 0x42	; 66
    2158:	0e 94 62 39 	call	0x72c4	; 0x72c4 <__divsf3>
    215c:	9b 01       	movw	r18, r22
    215e:	ac 01       	movw	r20, r24
    2160:	e6 2e       	mov	r14, r22
    2162:	13 2f       	mov	r17, r19
    2164:	04 2f       	mov	r16, r20
    2166:	f5 2e       	mov	r15, r21
    2168:	87 e0       	ldi	r24, 0x07	; 7
    216a:	90 e0       	ldi	r25, 0x00	; 0
    216c:	da 01       	movw	r26, r20
    216e:	a9 01       	movw	r20, r18
    2170:	bd 01       	movw	r22, r26
    2172:	0e 94 a2 01 	call	0x344	; 0x344 <SetPosition>
    2176:	ac 01       	movw	r20, r24
	dxl_write_word( 7, SERVO_GOAL_POSITION_L,  bits1);
    2178:	87 e0       	ldi	r24, 0x07	; 7
    217a:	90 e0       	ldi	r25, 0x00	; 0
    217c:	6e e1       	ldi	r22, 0x1E	; 30
    217e:	70 e0       	ldi	r23, 0x00	; 0
    2180:	0e 94 2f 32 	call	0x645e	; 0x645e <dxl_write_word>
    2184:	8c e2       	ldi	r24, 0x2C	; 44
    2186:	91 e0       	ldi	r25, 0x01	; 1
    2188:	20 e9       	ldi	r18, 0x90	; 144
    218a:	31 e0       	ldi	r19, 0x01	; 1
    218c:	f9 01       	movw	r30, r18
    218e:	31 97       	sbiw	r30, 0x01	; 1
    2190:	f1 f7       	brne	.-4      	; 0x218e <OpenGripper+0x76>
		{
			// wait 1/10 ms
			_delay_loop_2(((F_CPU) / 4e3) / 10);
			__ticks --;
    2192:	01 97       	sbiw	r24, 0x01	; 1
		__ticks = 1;
	else if (__tmp > 65535)
	{
		//	__ticks = requested delay in 1/10 ms
		__ticks = (uint16_t) (__ms * 10.0);
		while(__ticks)
    2194:	d9 f7       	brne	.-10     	; 0x218c <OpenGripper+0x74>
	
	_delay_ms(30);

	SetTorqueControl(8,0);
    2196:	88 e0       	ldi	r24, 0x08	; 8
    2198:	90 e0       	ldi	r25, 0x00	; 0
    219a:	60 e0       	ldi	r22, 0x00	; 0
    219c:	70 e0       	ldi	r23, 0x00	; 0
    219e:	0e 94 df 0f 	call	0x1fbe	; 0x1fbe <SetTorqueControl>
	SetSpeedPerc(17,10);
    21a2:	81 e1       	ldi	r24, 0x11	; 17
    21a4:	90 e0       	ldi	r25, 0x00	; 0
    21a6:	40 e0       	ldi	r20, 0x00	; 0
    21a8:	50 e0       	ldi	r21, 0x00	; 0
    21aa:	60 e2       	ldi	r22, 0x20	; 32
    21ac:	71 e4       	ldi	r23, 0x41	; 65
    21ae:	0e 94 99 0f 	call	0x1f32	; 0x1f32 <SetSpeedPerc>
	int bits2 = SetPosition(8,(openedPosition * perc / 100.0) );
    21b2:	88 e0       	ldi	r24, 0x08	; 8
    21b4:	90 e0       	ldi	r25, 0x00	; 0
    21b6:	2e 2d       	mov	r18, r14
    21b8:	31 2f       	mov	r19, r17
    21ba:	e0 2f       	mov	r30, r16
    21bc:	ff 2d       	mov	r31, r15
    21be:	a9 01       	movw	r20, r18
    21c0:	bf 01       	movw	r22, r30
    21c2:	0e 94 a2 01 	call	0x344	; 0x344 <SetPosition>
    21c6:	ac 01       	movw	r20, r24
	dxl_write_word( 17, SERVO_GOAL_POSITION_L, bits2);
    21c8:	81 e1       	ldi	r24, 0x11	; 17
    21ca:	90 e0       	ldi	r25, 0x00	; 0
    21cc:	6e e1       	ldi	r22, 0x1E	; 30
    21ce:	70 e0       	ldi	r23, 0x00	; 0
    21d0:	0e 94 2f 32 	call	0x645e	; 0x645e <dxl_write_word>
	
}
    21d4:	1f 91       	pop	r17
    21d6:	0f 91       	pop	r16
    21d8:	ff 90       	pop	r15
    21da:	ef 90       	pop	r14
    21dc:	08 95       	ret

000021de <GetLoad>:

	return position * 0.0174532925199;
}

float GetLoad(int id)
{
    21de:	cf 92       	push	r12
    21e0:	df 92       	push	r13
    21e2:	ef 92       	push	r14
    21e4:	ff 92       	push	r15
    21e6:	0f 93       	push	r16
    21e8:	1f 93       	push	r17
    21ea:	cf 93       	push	r28
    21ec:	df 93       	push	r29
    21ee:	ec 01       	movw	r28, r24
	int bits;
	float load;
	int sign = 0;

 	bits = dxl_read_word( id, SERVO_PRESENT_LOAD_L );
    21f0:	68 e2       	ldi	r22, 0x28	; 40
    21f2:	70 e0       	ldi	r23, 0x00	; 0
    21f4:	0e 94 4a 32 	call	0x6494	; 0x6494 <dxl_read_word>
    21f8:	6c 01       	movw	r12, r24
	//printf("LoadBits: %d \n\r",bits);

	if( (bits & 1024) == 1024){sign = -1;}
    21fa:	92 fd       	sbrc	r25, 2
    21fc:	03 c0       	rjmp	.+6      	; 0x2204 <__stack+0x5>
    21fe:	21 e0       	ldi	r18, 0x01	; 1
    2200:	30 e0       	ldi	r19, 0x00	; 0
    2202:	02 c0       	rjmp	.+4      	; 0x2208 <__stack+0x9>
    2204:	2f ef       	ldi	r18, 0xFF	; 255
    2206:	3f ef       	ldi	r19, 0xFF	; 255
	if( (bits & 1024) == 0   ){sign =  1;}

	if(cw[id] ==1) {sign = sign * -1;}
    2208:	cc 0f       	add	r28, r28
    220a:	dd 1f       	adc	r29, r29
    220c:	cf 5f       	subi	r28, 0xFF	; 255
    220e:	de 4e       	sbci	r29, 0xEE	; 238
    2210:	88 81       	ld	r24, Y
    2212:	99 81       	ldd	r25, Y+1	; 0x01
    2214:	01 97       	sbiw	r24, 0x01	; 1
    2216:	19 f4       	brne	.+6      	; 0x221e <__stack+0x1f>
    2218:	30 95       	com	r19
    221a:	21 95       	neg	r18
    221c:	3f 4f       	sbci	r19, 0xFF	; 255
    221e:	b9 01       	movw	r22, r18
    2220:	88 27       	eor	r24, r24
    2222:	77 fd       	sbrc	r23, 7
    2224:	80 95       	com	r24
    2226:	98 2f       	mov	r25, r24
    2228:	0e 94 fd 39 	call	0x73fa	; 0x73fa <__floatsisf>
    222c:	7b 01       	movw	r14, r22
    222e:	8c 01       	movw	r16, r24
    2230:	8f ef       	ldi	r24, 0xFF	; 255
    2232:	93 e0       	ldi	r25, 0x03	; 3
    2234:	c8 22       	and	r12, r24
    2236:	d9 22       	and	r13, r25
    2238:	b6 01       	movw	r22, r12
    223a:	88 27       	eor	r24, r24
    223c:	77 fd       	sbrc	r23, 7
    223e:	80 95       	com	r24
    2240:	98 2f       	mov	r25, r24
    2242:	0e 94 fd 39 	call	0x73fa	; 0x73fa <__floatsisf>
    2246:	20 e0       	ldi	r18, 0x00	; 0
    2248:	30 e0       	ldi	r19, 0x00	; 0
    224a:	48 ec       	ldi	r20, 0xC8	; 200
    224c:	52 e4       	ldi	r21, 0x42	; 66
    224e:	0e 94 42 3b 	call	0x7684	; 0x7684 <__mulsf3>
    2252:	20 e0       	ldi	r18, 0x00	; 0
    2254:	30 ec       	ldi	r19, 0xC0	; 192
    2256:	4f e7       	ldi	r20, 0x7F	; 127
    2258:	54 e4       	ldi	r21, 0x44	; 68
    225a:	0e 94 62 39 	call	0x72c4	; 0x72c4 <__divsf3>
    225e:	9b 01       	movw	r18, r22
    2260:	ac 01       	movw	r20, r24
    2262:	c8 01       	movw	r24, r16
    2264:	b7 01       	movw	r22, r14
    2266:	0e 94 42 3b 	call	0x7684	; 0x7684 <__mulsf3>
	load = sign * (bits * 100.0 / 1023.0);


	return  load;

}
    226a:	df 91       	pop	r29
    226c:	cf 91       	pop	r28
    226e:	1f 91       	pop	r17
    2270:	0f 91       	pop	r16
    2272:	ff 90       	pop	r15
    2274:	ef 90       	pop	r14
    2276:	df 90       	pop	r13
    2278:	cf 90       	pop	r12
    227a:	08 95       	ret

0000227c <GetPosition>:
{
	return dxl_read_word( id, SERVO_PRESENT_POSITION_L );
}

float GetPosition(int id)
{
    227c:	6f 92       	push	r6
    227e:	7f 92       	push	r7
    2280:	8f 92       	push	r8
    2282:	9f 92       	push	r9
    2284:	af 92       	push	r10
    2286:	bf 92       	push	r11
    2288:	cf 92       	push	r12
    228a:	df 92       	push	r13
    228c:	ef 92       	push	r14
    228e:	ff 92       	push	r15
    2290:	0f 93       	push	r16
    2292:	1f 93       	push	r17
    2294:	cf 93       	push	r28
    2296:	df 93       	push	r29
    2298:	7c 01       	movw	r14, r24
	int bits;
	float position;
 	bits = dxl_read_word( ids[id], SERVO_PRESENT_POSITION_L );
    229a:	8c 01       	movw	r16, r24
    229c:	00 0f       	add	r16, r16
    229e:	11 1f       	adc	r17, r17
    22a0:	f8 01       	movw	r30, r16
    22a2:	e7 51       	subi	r30, 0x17	; 23
    22a4:	f5 4f       	sbci	r31, 0xF5	; 245
    22a6:	80 81       	ld	r24, Z
    22a8:	91 81       	ldd	r25, Z+1	; 0x01
    22aa:	64 e2       	ldi	r22, 0x24	; 36
    22ac:	70 e0       	ldi	r23, 0x00	; 0
    22ae:	0e 94 4a 32 	call	0x6494	; 0x6494 <dxl_read_word>
	
	if(cw[id]==1)
    22b2:	0f 5f       	subi	r16, 0xFF	; 255
    22b4:	1e 4e       	sbci	r17, 0xEE	; 238
    22b6:	f8 01       	movw	r30, r16
    22b8:	20 81       	ld	r18, Z
    22ba:	31 81       	ldd	r19, Z+1	; 0x01
    22bc:	e7 01       	movw	r28, r14
    22be:	cc 0f       	add	r28, r28
    22c0:	dd 1f       	adc	r29, r29
    22c2:	cc 0f       	add	r28, r28
    22c4:	dd 1f       	adc	r29, r29
    22c6:	3c 01       	movw	r6, r24
    22c8:	88 24       	eor	r8, r8
    22ca:	77 fc       	sbrc	r7, 7
    22cc:	80 94       	com	r8
    22ce:	98 2c       	mov	r9, r8
    22d0:	21 30       	cpi	r18, 0x01	; 1
    22d2:	31 05       	cpc	r19, r1
    22d4:	a9 f5       	brne	.+106    	; 0x2340 <GetPosition+0xc4>
	{
	    position = ( ( ceroPosition[id] +  ((maxDegrees[id] - 180.0) / 2.0)) - ((bits * maxDegrees[id])/maxBits[id]) );
    22d6:	fe 01       	movw	r30, r28
    22d8:	e5 5c       	subi	r30, 0xC5	; 197
    22da:	f4 4f       	sbci	r31, 0xF4	; 244
    22dc:	e0 80       	ld	r14, Z
    22de:	f1 80       	ldd	r15, Z+1	; 0x01
    22e0:	02 81       	ldd	r16, Z+2	; 0x02
    22e2:	13 81       	ldd	r17, Z+3	; 0x03
    22e4:	67 e1       	ldi	r22, 0x17	; 23
    22e6:	c6 2e       	mov	r12, r22
    22e8:	6b e0       	ldi	r22, 0x0B	; 11
    22ea:	d6 2e       	mov	r13, r22
    22ec:	cc 0e       	add	r12, r28
    22ee:	dd 1e       	adc	r13, r29
    22f0:	c8 01       	movw	r24, r16
    22f2:	b7 01       	movw	r22, r14
    22f4:	20 e0       	ldi	r18, 0x00	; 0
    22f6:	30 e0       	ldi	r19, 0x00	; 0
    22f8:	44 e3       	ldi	r20, 0x34	; 52
    22fa:	53 e4       	ldi	r21, 0x43	; 67
    22fc:	0e 94 7d 38 	call	0x70fa	; 0x70fa <__subsf3>
    2300:	20 e0       	ldi	r18, 0x00	; 0
    2302:	30 e0       	ldi	r19, 0x00	; 0
    2304:	40 e0       	ldi	r20, 0x00	; 0
    2306:	5f e3       	ldi	r21, 0x3F	; 63
    2308:	0e 94 42 3b 	call	0x7684	; 0x7684 <__mulsf3>
    230c:	f6 01       	movw	r30, r12
    230e:	20 81       	ld	r18, Z
    2310:	31 81       	ldd	r19, Z+1	; 0x01
    2312:	42 81       	ldd	r20, Z+2	; 0x02
    2314:	53 81       	ldd	r21, Z+3	; 0x03
    2316:	0e 94 7e 38 	call	0x70fc	; 0x70fc <__addsf3>
    231a:	5b 01       	movw	r10, r22
    231c:	6c 01       	movw	r12, r24
    231e:	c4 01       	movw	r24, r8
    2320:	b3 01       	movw	r22, r6
    2322:	0e 94 fd 39 	call	0x73fa	; 0x73fa <__floatsisf>
    2326:	a8 01       	movw	r20, r16
    2328:	97 01       	movw	r18, r14
    232a:	0e 94 42 3b 	call	0x7684	; 0x7684 <__mulsf3>
    232e:	c5 54       	subi	r28, 0x45	; 69
    2330:	d4 4f       	sbci	r29, 0xF4	; 244
    2332:	28 81       	ld	r18, Y
    2334:	39 81       	ldd	r19, Y+1	; 0x01
    2336:	4a 81       	ldd	r20, Y+2	; 0x02
    2338:	5b 81       	ldd	r21, Y+3	; 0x03
    233a:	0e 94 62 39 	call	0x72c4	; 0x72c4 <__divsf3>
    233e:	30 c0       	rjmp	.+96     	; 0x23a0 <GetPosition+0x124>
	}
	else
	{
		position = ( ( (bits * maxDegrees[id])/maxBits[id])-( ceroPosition[id]+((maxDegrees[id] - 180.0) / 2.0) ) );
    2340:	fe 01       	movw	r30, r28
    2342:	e5 5c       	subi	r30, 0xC5	; 197
    2344:	f4 4f       	sbci	r31, 0xF4	; 244
    2346:	e0 80       	ld	r14, Z
    2348:	f1 80       	ldd	r15, Z+1	; 0x01
    234a:	02 81       	ldd	r16, Z+2	; 0x02
    234c:	13 81       	ldd	r17, Z+3	; 0x03
    234e:	c4 01       	movw	r24, r8
    2350:	b3 01       	movw	r22, r6
    2352:	0e 94 fd 39 	call	0x73fa	; 0x73fa <__floatsisf>
    2356:	a8 01       	movw	r20, r16
    2358:	97 01       	movw	r18, r14
    235a:	0e 94 42 3b 	call	0x7684	; 0x7684 <__mulsf3>
    235e:	fe 01       	movw	r30, r28
    2360:	e5 54       	subi	r30, 0x45	; 69
    2362:	f4 4f       	sbci	r31, 0xF4	; 244
    2364:	20 81       	ld	r18, Z
    2366:	31 81       	ldd	r19, Z+1	; 0x01
    2368:	42 81       	ldd	r20, Z+2	; 0x02
    236a:	53 81       	ldd	r21, Z+3	; 0x03
    236c:	0e 94 62 39 	call	0x72c4	; 0x72c4 <__divsf3>
    2370:	5b 01       	movw	r10, r22
    2372:	6c 01       	movw	r12, r24
    2374:	c9 5e       	subi	r28, 0xE9	; 233
    2376:	d4 4f       	sbci	r29, 0xF4	; 244
    2378:	c8 01       	movw	r24, r16
    237a:	b7 01       	movw	r22, r14
    237c:	20 e0       	ldi	r18, 0x00	; 0
    237e:	30 e0       	ldi	r19, 0x00	; 0
    2380:	44 e3       	ldi	r20, 0x34	; 52
    2382:	53 e4       	ldi	r21, 0x43	; 67
    2384:	0e 94 7d 38 	call	0x70fa	; 0x70fa <__subsf3>
    2388:	20 e0       	ldi	r18, 0x00	; 0
    238a:	30 e0       	ldi	r19, 0x00	; 0
    238c:	40 e0       	ldi	r20, 0x00	; 0
    238e:	5f e3       	ldi	r21, 0x3F	; 63
    2390:	0e 94 42 3b 	call	0x7684	; 0x7684 <__mulsf3>
    2394:	28 81       	ld	r18, Y
    2396:	39 81       	ldd	r19, Y+1	; 0x01
    2398:	4a 81       	ldd	r20, Y+2	; 0x02
    239a:	5b 81       	ldd	r21, Y+3	; 0x03
    239c:	0e 94 7e 38 	call	0x70fc	; 0x70fc <__addsf3>
    23a0:	9b 01       	movw	r18, r22
    23a2:	ac 01       	movw	r20, r24
    23a4:	c6 01       	movw	r24, r12
    23a6:	b5 01       	movw	r22, r10
    23a8:	0e 94 7d 38 	call	0x70fa	; 0x70fa <__subsf3>
    23ac:	25 e3       	ldi	r18, 0x35	; 53
    23ae:	3a ef       	ldi	r19, 0xFA	; 250
    23b0:	4e e8       	ldi	r20, 0x8E	; 142
    23b2:	5c e3       	ldi	r21, 0x3C	; 60
    23b4:	0e 94 42 3b 	call	0x7684	; 0x7684 <__mulsf3>
	}

	return position * 0.0174532925199;
}
    23b8:	df 91       	pop	r29
    23ba:	cf 91       	pop	r28
    23bc:	1f 91       	pop	r17
    23be:	0f 91       	pop	r16
    23c0:	ff 90       	pop	r15
    23c2:	ef 90       	pop	r14
    23c4:	df 90       	pop	r13
    23c6:	cf 90       	pop	r12
    23c8:	bf 90       	pop	r11
    23ca:	af 90       	pop	r10
    23cc:	9f 90       	pop	r9
    23ce:	8f 90       	pop	r8
    23d0:	7f 90       	pop	r7
    23d2:	6f 90       	pop	r6
    23d4:	08 95       	ret

000023d6 <ObjectInHand>:
	if(numero <0) return -numero;
	else return numero;
}

int ObjectInHand()
{
    23d6:	af 92       	push	r10
    23d8:	bf 92       	push	r11
    23da:	cf 92       	push	r12
    23dc:	df 92       	push	r13
    23de:	ef 92       	push	r14
    23e0:	ff 92       	push	r15
    23e2:	0f 93       	push	r16
    23e4:	1f 93       	push	r17
	
	//If position is less than 10% of opened position there's no object holding
	float openedPosition = 1.5;	

	float posG1,posG2;
	posG1 = Absolute(GetPosition(7));
    23e6:	87 e0       	ldi	r24, 0x07	; 7
    23e8:	90 e0       	ldi	r25, 0x00	; 0
    23ea:	0e 94 3e 11 	call	0x227c	; 0x227c <GetPosition>
    23ee:	5b 01       	movw	r10, r22
    23f0:	6c 01       	movw	r12, r24
	
}

float Absolute(float numero)
{
	if(numero <0) return -numero;
    23f2:	20 e0       	ldi	r18, 0x00	; 0
    23f4:	30 e0       	ldi	r19, 0x00	; 0
    23f6:	40 e0       	ldi	r20, 0x00	; 0
    23f8:	50 e0       	ldi	r21, 0x00	; 0
    23fa:	0e 94 5b 39 	call	0x72b6	; 0x72b6 <__cmpsf2>
    23fe:	88 23       	and	r24, r24
    2400:	24 f4       	brge	.+8      	; 0x240a <ObjectInHand+0x34>
    2402:	d7 fa       	bst	r13, 7
    2404:	d0 94       	com	r13
    2406:	d7 f8       	bld	r13, 7
    2408:	d0 94       	com	r13
    240a:	80 e4       	ldi	r24, 0x40	; 64
    240c:	9c e9       	ldi	r25, 0x9C	; 156
    240e:	01 97       	sbiw	r24, 0x01	; 1
    2410:	f1 f7       	brne	.-4      	; 0x240e <ObjectInHand+0x38>
	float openedPosition = 1.5;	

	float posG1,posG2;
	posG1 = Absolute(GetPosition(7));
	_delay_ms(10);
	posG2 = Absolute(GetPosition(8));
    2412:	88 e0       	ldi	r24, 0x08	; 8
    2414:	90 e0       	ldi	r25, 0x00	; 0
    2416:	0e 94 3e 11 	call	0x227c	; 0x227c <GetPosition>
    241a:	7b 01       	movw	r14, r22
    241c:	8c 01       	movw	r16, r24
	
}

float Absolute(float numero)
{
	if(numero <0) return -numero;
    241e:	20 e0       	ldi	r18, 0x00	; 0
    2420:	30 e0       	ldi	r19, 0x00	; 0
    2422:	40 e0       	ldi	r20, 0x00	; 0
    2424:	50 e0       	ldi	r21, 0x00	; 0
    2426:	0e 94 5b 39 	call	0x72b6	; 0x72b6 <__cmpsf2>
    242a:	88 23       	and	r24, r24
    242c:	24 f4       	brge	.+8      	; 0x2436 <ObjectInHand+0x60>
    242e:	17 fb       	bst	r17, 7
    2430:	10 95       	com	r17
    2432:	17 f9       	bld	r17, 7
    2434:	10 95       	com	r17
	posG2 = Absolute(GetPosition(8));
	
	//Debug line
	//printf("%3.3f : %3.3f ; %3.3f  \r",posG1,posG2,openedPosition*0.2);
	
	if((posG1<(openedPosition*0.1))&&(posG2<(openedPosition*0.1)))
    2436:	c6 01       	movw	r24, r12
    2438:	b5 01       	movw	r22, r10
    243a:	2a e9       	ldi	r18, 0x9A	; 154
    243c:	39 e9       	ldi	r19, 0x99	; 153
    243e:	49 e1       	ldi	r20, 0x19	; 25
    2440:	5e e3       	ldi	r21, 0x3E	; 62
    2442:	0e 94 5b 39 	call	0x72b6	; 0x72b6 <__cmpsf2>
    2446:	87 fd       	sbrc	r24, 7
    2448:	03 c0       	rjmp	.+6      	; 0x2450 <ObjectInHand+0x7a>
    244a:	21 e0       	ldi	r18, 0x01	; 1
    244c:	30 e0       	ldi	r19, 0x00	; 0
    244e:	11 c0       	rjmp	.+34     	; 0x2472 <ObjectInHand+0x9c>
    2450:	dd 24       	eor	r13, r13
    2452:	c8 01       	movw	r24, r16
    2454:	b7 01       	movw	r22, r14
    2456:	2a e9       	ldi	r18, 0x9A	; 154
    2458:	39 e9       	ldi	r19, 0x99	; 153
    245a:	49 e1       	ldi	r20, 0x19	; 25
    245c:	5e e3       	ldi	r21, 0x3E	; 62
    245e:	0e 94 5b 39 	call	0x72b6	; 0x72b6 <__cmpsf2>
    2462:	88 23       	and	r24, r24
    2464:	14 f4       	brge	.+4      	; 0x246a <ObjectInHand+0x94>
    2466:	dd 24       	eor	r13, r13
    2468:	d3 94       	inc	r13
    246a:	81 e0       	ldi	r24, 0x01	; 1
    246c:	d8 26       	eor	r13, r24
    246e:	2d 2d       	mov	r18, r13
    2470:	30 e0       	ldi	r19, 0x00	; 0
		return 0;
	}
	return 1;


}
    2472:	c9 01       	movw	r24, r18
    2474:	1f 91       	pop	r17
    2476:	0f 91       	pop	r16
    2478:	ff 90       	pop	r15
    247a:	ef 90       	pop	r14
    247c:	df 90       	pop	r13
    247e:	cf 90       	pop	r12
    2480:	bf 90       	pop	r11
    2482:	af 90       	pop	r10
    2484:	08 95       	ret

00002486 <executeGripper>:
	//if(s1>= desiredForce)
	//{
		//printf("Force Limit Passed");

		//pos = GetPosition(7);
		gripperCounter++;
    2486:	80 91 6e 08 	lds	r24, 0x086E
    248a:	90 91 6f 08 	lds	r25, 0x086F
    248e:	01 96       	adiw	r24, 0x01	; 1
    2490:	90 93 6f 08 	sts	0x086F, r25
    2494:	80 93 6e 08 	sts	0x086E, r24
		if(gripperCounter>= 100)
    2498:	84 36       	cpi	r24, 0x64	; 100
    249a:	91 05       	cpc	r25, r1
    249c:	d4 f0       	brlt	.+52     	; 0x24d2 <executeGripper+0x4c>
		{
			doGripper = 0;
    249e:	10 92 67 08 	sts	0x0867, r1
    24a2:	10 92 66 08 	sts	0x0866, r1
			object = ObjectInHand();
    24a6:	0e 94 eb 11 	call	0x23d6	; 0x23d6 <ObjectInHand>
    24aa:	90 93 6d 08 	sts	0x086D, r25
    24ae:	80 93 6c 08 	sts	0x086C, r24
			printf("c 1 %d\r",object);
    24b2:	00 d0       	rcall	.+0      	; 0x24b4 <executeGripper+0x2e>
    24b4:	0f 92       	push	r0
    24b6:	23 e2       	ldi	r18, 0x23	; 35
    24b8:	32 e0       	ldi	r19, 0x02	; 2
    24ba:	ed b7       	in	r30, 0x3d	; 61
    24bc:	fe b7       	in	r31, 0x3e	; 62
    24be:	32 83       	std	Z+2, r19	; 0x02
    24c0:	21 83       	std	Z+1, r18	; 0x01
    24c2:	94 83       	std	Z+4, r25	; 0x04
    24c4:	83 83       	std	Z+3, r24	; 0x03
    24c6:	0e 94 fc 3e 	call	0x7df8	; 0x7df8 <printf>
    24ca:	0f 90       	pop	r0
    24cc:	0f 90       	pop	r0
    24ce:	0f 90       	pop	r0
    24d0:	0f 90       	pop	r0
    24d2:	08 95       	ret

000024d4 <updateQPosition>:
	}
	
}

void updateQPosition()
{
    24d4:	0f 93       	push	r16
    24d6:	1f 93       	push	r17
    24d8:	cf 93       	push	r28
    24da:	df 93       	push	r29
    24dc:	05 ee       	ldi	r16, 0xE5	; 229
    24de:	10 e1       	ldi	r17, 0x10	; 16
    24e0:	c0 e0       	ldi	r28, 0x00	; 0
    24e2:	d0 e0       	ldi	r29, 0x00	; 0
	for(int i = 0; i<DOF;i++)
	{
		currentQPosition[i] = GetPosition(i);
    24e4:	ce 01       	movw	r24, r28
    24e6:	0e 94 3e 11 	call	0x227c	; 0x227c <GetPosition>
    24ea:	f8 01       	movw	r30, r16
    24ec:	61 93       	st	Z+, r22
    24ee:	71 93       	st	Z+, r23
    24f0:	81 93       	st	Z+, r24
    24f2:	91 93       	st	Z+, r25
    24f4:	8f 01       	movw	r16, r30
	
}

void updateQPosition()
{
	for(int i = 0; i<DOF;i++)
    24f6:	21 96       	adiw	r28, 0x01	; 1
    24f8:	c7 30       	cpi	r28, 0x07	; 7
    24fa:	d1 05       	cpc	r29, r1
    24fc:	99 f7       	brne	.-26     	; 0x24e4 <updateQPosition+0x10>
	{
		currentQPosition[i] = GetPosition(i);
	}
}
    24fe:	df 91       	pop	r29
    2500:	cf 91       	pop	r28
    2502:	1f 91       	pop	r17
    2504:	0f 91       	pop	r16
    2506:	08 95       	ret

00002508 <ArmGetPosition>:

}


float* ArmGetPosition()
{
    2508:	ef 92       	push	r14
    250a:	ff 92       	push	r15
    250c:	0f 93       	push	r16
    250e:	1f 93       	push	r17
    2510:	df 93       	push	r29
    2512:	cf 93       	push	r28
    2514:	cd b7       	in	r28, 0x3d	; 61
    2516:	de b7       	in	r29, 0x3e	; 62
    2518:	6c 97       	sbiw	r28, 0x1c	; 28
    251a:	0f b6       	in	r0, 0x3f	; 63
    251c:	f8 94       	cli
    251e:	de bf       	out	0x3e, r29	; 62
    2520:	0f be       	out	0x3f, r0	; 63
    2522:	cd bf       	out	0x3d, r28	; 61
    2524:	7e 01       	movw	r14, r28
    2526:	08 94       	sec
    2528:	e1 1c       	adc	r14, r1
    252a:	f1 1c       	adc	r15, r1
    252c:	00 e0       	ldi	r16, 0x00	; 0
    252e:	10 e0       	ldi	r17, 0x00	; 0
	float positions[DOF];

	for(int i = 0; i<DOF;i++)
	{
		positions[i] = GetPosition(i);
    2530:	c8 01       	movw	r24, r16
    2532:	0e 94 3e 11 	call	0x227c	; 0x227c <GetPosition>
    2536:	f7 01       	movw	r30, r14
    2538:	61 93       	st	Z+, r22
    253a:	71 93       	st	Z+, r23
    253c:	81 93       	st	Z+, r24
    253e:	91 93       	st	Z+, r25
    2540:	7f 01       	movw	r14, r30

float* ArmGetPosition()
{
	float positions[DOF];

	for(int i = 0; i<DOF;i++)
    2542:	0f 5f       	subi	r16, 0xFF	; 255
    2544:	1f 4f       	sbci	r17, 0xFF	; 255
    2546:	07 30       	cpi	r16, 0x07	; 7
    2548:	11 05       	cpc	r17, r1
    254a:	91 f7       	brne	.-28     	; 0x2530 <ArmGetPosition+0x28>
	{
		positions[i] = GetPosition(i);
		
	}
	return positions;
}
    254c:	ce 01       	movw	r24, r28
    254e:	01 96       	adiw	r24, 0x01	; 1
    2550:	6c 96       	adiw	r28, 0x1c	; 28
    2552:	0f b6       	in	r0, 0x3f	; 63
    2554:	f8 94       	cli
    2556:	de bf       	out	0x3e, r29	; 62
    2558:	0f be       	out	0x3f, r0	; 63
    255a:	cd bf       	out	0x3d, r28	; 61
    255c:	cf 91       	pop	r28
    255e:	df 91       	pop	r29
    2560:	1f 91       	pop	r17
    2562:	0f 91       	pop	r16
    2564:	ff 90       	pop	r15
    2566:	ef 90       	pop	r14
    2568:	08 95       	ret

0000256a <GetBits>:

}

int GetBits(int id)
{
	return dxl_read_word( id, SERVO_PRESENT_POSITION_L );
    256a:	64 e2       	ldi	r22, 0x24	; 36
    256c:	70 e0       	ldi	r23, 0x00	; 0
    256e:	0e 94 4a 32 	call	0x6494	; 0x6494 <dxl_read_word>
}
    2572:	08 95       	ret

00002574 <showHelp>:
}

void showHelp()
{

	printf("\r\n\n\nLEFT ARM FIRMWARE. Last modification: Jun 25th, 2014\r\n");
    2574:	8b e2       	ldi	r24, 0x2B	; 43
    2576:	92 e0       	ldi	r25, 0x02	; 2
    2578:	0e 94 0e 3f 	call	0x7e1c	; 0x7e1c <puts>
	printf("\r\nCommands:\r\n");
    257c:	85 e6       	ldi	r24, 0x65	; 101
    257e:	92 e0       	ldi	r25, 0x02	; 2
    2580:	0e 94 0e 3f 	call	0x7e1c	; 0x7e1c <puts>
	printf("\t c value\tCloses gripper. Value represents a percentage of the maximum torque\r\n");
    2584:	82 e7       	ldi	r24, 0x72	; 114
    2586:	92 e0       	ldi	r25, 0x02	; 2
    2588:	0e 94 0e 3f 	call	0x7e1c	; 0x7e1c <puts>
	printf("\t d ID value\tSets desired position [value in bits] of servo ID\r\n");
    258c:	81 ec       	ldi	r24, 0xC1	; 193
    258e:	92 e0       	ldi	r25, 0x02	; 2
    2590:	0e 94 0e 3f 	call	0x7e1c	; 0x7e1c <puts>
	printf("\t g \t\tGets the current arm position in articular coordinates [rads]\r\n");
    2594:	81 e0       	ldi	r24, 0x01	; 1
    2596:	93 e0       	ldi	r25, 0x03	; 3
    2598:	0e 94 0e 3f 	call	0x7e1c	; 0x7e1c <puts>
	printf("\t G 1/0\tEnables/disables continuous cartesian position printing\r\n");
    259c:	86 e4       	ldi	r24, 0x46	; 70
    259e:	93 e0       	ldi	r25, 0x03	; 3
    25a0:	0e 94 0e 3f 	call	0x7e1c	; 0x7e1c <puts>
	printf("\t h \t\tShows help (If you are seeing this, I assume you knew this command\r\n");
    25a4:	87 e8       	ldi	r24, 0x87	; 135
    25a6:	93 e0       	ldi	r25, 0x03	; 3
    25a8:	0e 94 0e 3f 	call	0x7e1c	; 0x7e1c <puts>
	printf("\t k ID\tGets the current position [bits] of servo ID\r\n");
    25ac:	81 ed       	ldi	r24, 0xD1	; 209
    25ae:	93 e0       	ldi	r25, 0x03	; 3
    25b0:	0e 94 0e 3f 	call	0x7e1c	; 0x7e1c <puts>
	printf("\t o value\tOpens gripper. Value represents a percentage of maximun opening angle.\n\t\t\t\t100 = maximum angle, 0 = completely closed\r\n");
    25b4:	86 e0       	ldi	r24, 0x06	; 6
    25b6:	94 e0       	ldi	r25, 0x04	; 4
    25b8:	0e 94 0e 3f 	call	0x7e1c	; 0x7e1c <puts>
	printf("\t q value[7] time\tSets desired position [rads] and time [seconds] (8 values needed)\r\n");
    25bc:	87 e8       	ldi	r24, 0x87	; 135
    25be:	94 e0       	ldi	r25, 0x04	; 4
    25c0:	0e 94 0e 3f 	call	0x7e1c	; 0x7e1c <puts>
	printf("\t S \t\t Returns the main error states of all servos\r\n");
    25c4:	8c ed       	ldi	r24, 0xDC	; 220
    25c6:	94 e0       	ldi	r25, 0x04	; 4
    25c8:	0e 94 0e 3f 	call	0x7e1c	; 0x7e1c <puts>
	printf("\t t 1/0 \tEnables/disables torque in all servos\r\n");
    25cc:	80 e1       	ldi	r24, 0x10	; 16
    25ce:	95 e0       	ldi	r25, 0x05	; 5
    25d0:	0e 94 0e 3f 	call	0x7e1c	; 0x7e1c <puts>
	printf("\t v \tGet voltage from servo ID 0\r\n");
    25d4:	80 e4       	ldi	r24, 0x40	; 64
    25d6:	95 e0       	ldi	r25, 0x05	; 5
    25d8:	0e 94 0e 3f 	call	0x7e1c	; 0x7e1c <puts>
	printf("\r\nDON'T SEND ANY OTHER COMMAND BECAUSE THIS IS A BETA VERSION\r\n");
    25dc:	82 e6       	ldi	r24, 0x62	; 98
    25de:	95 e0       	ldi	r25, 0x05	; 5
    25e0:	0e 94 0e 3f 	call	0x7e1c	; 0x7e1c <puts>
	printf("NOT ATTENDING THIS WARNING MAY RESULT IN ROBOT DAMAGE OR MALFUNCTION\r\n");
    25e4:	81 ea       	ldi	r24, 0xA1	; 161
    25e6:	95 e0       	ldi	r25, 0x05	; 5
    25e8:	0e 94 0e 3f 	call	0x7e1c	; 0x7e1c <puts>
	printf("THERE IS NO WARRANTY IN ELECTRICAL PARTS\n\n");
    25ec:	87 ee       	ldi	r24, 0xE7	; 231
    25ee:	95 e0       	ldi	r25, 0x05	; 5
    25f0:	0e 94 0e 3f 	call	0x7e1c	; 0x7e1c <puts>

}
    25f4:	08 95       	ret

000025f6 <serial_initialize>:


void serial_initialize(long ubrr)
{
	// Serial communication using UART1
	int baud = (unsigned short)(2000000.0 / ubrr) - 1;
    25f6:	0e 94 fd 39 	call	0x73fa	; 0x73fa <__floatsisf>
    25fa:	9b 01       	movw	r18, r22
    25fc:	ac 01       	movw	r20, r24
    25fe:	60 e0       	ldi	r22, 0x00	; 0
    2600:	74 e2       	ldi	r23, 0x24	; 36
    2602:	84 ef       	ldi	r24, 0xF4	; 244
    2604:	99 e4       	ldi	r25, 0x49	; 73
    2606:	0e 94 62 39 	call	0x72c4	; 0x72c4 <__divsf3>
    260a:	0e 94 cf 39 	call	0x739e	; 0x739e <__fixunssfsi>
    260e:	61 50       	subi	r22, 0x01	; 1
    2610:	70 40       	sbci	r23, 0x00	; 0
	//Bit 4: Frame Error
	//Bit 3: Data OverRun
	//Bit 2: Parity Error
	//Bit 1: Double The USART Transmission Speed
	//Bit 0: Multi-Processor Communication Mode
	UCSR1A = 0b01000010;
    2612:	22 e4       	ldi	r18, 0x42	; 66
    2614:	20 93 c8 00 	sts	0x00C8, r18
	// bit7: enable rx interrupt
    // bit6: enable tx interrupt
    // bit4: enable rx
    // bit3: enable tx
    // bit2: set sendding size(0 = 8bit)
	UCSR1B = 0b10011000;
    2618:	28 e9       	ldi	r18, 0x98	; 152
    261a:	20 93 c9 00 	sts	0x00C9, r18
	// set UART register C
	// bit6: communication mode (1 = synchronize, 0 = asynchronize)
    // bit5,bit4: parity bit(00 = no parity) 
    // bit3: stop bit(0 = stop bit 1, 1 = stop bit 2)
    // bit2,bit1: data size(11 = 8bit)
	UCSR1C = 0b00000110;
    261e:	26 e0       	ldi	r18, 0x06	; 6
    2620:	20 93 ca 00 	sts	0x00CA, r18

	// initialize
	UDR1 = 0xFF;
    2624:	2f ef       	ldi	r18, 0xFF	; 255
    2626:	20 93 ce 00 	sts	0x00CE, r18
	bufferHead = 0;
    262a:	10 92 f0 08 	sts	0x08F0, r1
	bufferTail = 0;
    262e:	10 92 f1 08 	sts	0x08F1, r1

	// set baudrate
	UBRR1H = (unsigned char)(baud>>8);
    2632:	27 2f       	mov	r18, r23
    2634:	33 27       	eor	r19, r19
    2636:	27 fd       	sbrc	r18, 7
    2638:	3a 95       	dec	r19
    263a:	20 93 cd 00 	sts	0x00CD, r18
	UBRR1L = (unsigned char)(baud & 0xFF);
    263e:	60 93 cc 00 	sts	0x00CC, r22
	DIR_RXD;
    2642:	72 98       	cbi	0x0e, 2	; 14
    2644:	73 9a       	sbi	0x0e, 3	; 14
	device = fdevopen( std_putchar, std_getchar );
    2646:	85 e3       	ldi	r24, 0x35	; 53
    2648:	9a e0       	ldi	r25, 0x0A	; 10
    264a:	65 e5       	ldi	r22, 0x55	; 85
    264c:	7a e0       	ldi	r23, 0x0A	; 10
    264e:	0e 94 84 3e 	call	0x7d08	; 0x7d08 <fdevopen>
    2652:	90 93 fc 08 	sts	0x08FC, r25
    2656:	80 93 fb 08 	sts	0x08FB, r24
}
    265a:	08 95       	ret

0000265c <evalLSPB>:

} 

float evalLSPB(float q0,float qf,vector4 data,float t)

{
    265c:	2f 92       	push	r2
    265e:	3f 92       	push	r3
    2660:	4f 92       	push	r4
    2662:	5f 92       	push	r5
    2664:	6f 92       	push	r6
    2666:	7f 92       	push	r7
    2668:	8f 92       	push	r8
    266a:	9f 92       	push	r9
    266c:	af 92       	push	r10
    266e:	bf 92       	push	r11
    2670:	cf 92       	push	r12
    2672:	df 92       	push	r13
    2674:	ef 92       	push	r14
    2676:	ff 92       	push	r15
    2678:	0f 93       	push	r16
    267a:	1f 93       	push	r17
    267c:	df 93       	push	r29
    267e:	cf 93       	push	r28
    2680:	cd b7       	in	r28, 0x3d	; 61
    2682:	de b7       	in	r29, 0x3e	; 62
    2684:	2c 97       	sbiw	r28, 0x0c	; 12
    2686:	0f b6       	in	r0, 0x3f	; 63
    2688:	f8 94       	cli
    268a:	de bf       	out	0x3e, r29	; 62
    268c:	0f be       	out	0x3f, r0	; 63
    268e:	cd bf       	out	0x3d, r28	; 61
    2690:	5b 01       	movw	r10, r22
    2692:	6c 01       	movw	r12, r24
    2694:	29 87       	std	Y+9, r18	; 0x09
    2696:	3a 87       	std	Y+10, r19	; 0x0a
    2698:	4b 87       	std	Y+11, r20	; 0x0b
    269a:	5c 87       	std	Y+12, r21	; 0x0c
    269c:	2a a8       	ldd	r2, Y+50	; 0x32
    269e:	3b a8       	ldd	r3, Y+51	; 0x33
    26a0:	4c a8       	ldd	r4, Y+52	; 0x34
    26a2:	5d a8       	ldd	r5, Y+53	; 0x35
    26a4:	8a a1       	ldd	r24, Y+34	; 0x22
    26a6:	9b a1       	ldd	r25, Y+35	; 0x23
    26a8:	ac a1       	ldd	r26, Y+36	; 0x24
    26aa:	bd a1       	ldd	r27, Y+37	; 0x25
    26ac:	8d 83       	std	Y+5, r24	; 0x05
    26ae:	9e 83       	std	Y+6, r25	; 0x06
    26b0:	af 83       	std	Y+7, r26	; 0x07
    26b2:	b8 87       	std	Y+8, r27	; 0x08
    26b4:	8e a1       	ldd	r24, Y+38	; 0x26
    26b6:	9f a1       	ldd	r25, Y+39	; 0x27
    26b8:	a8 a5       	ldd	r26, Y+40	; 0x28
    26ba:	b9 a5       	ldd	r27, Y+41	; 0x29
    26bc:	89 83       	std	Y+1, r24	; 0x01
    26be:	9a 83       	std	Y+2, r25	; 0x02
    26c0:	ab 83       	std	Y+3, r26	; 0x03
    26c2:	bc 83       	std	Y+4, r27	; 0x04
    26c4:	ea a4       	ldd	r14, Y+42	; 0x2a
    26c6:	fb a4       	ldd	r15, Y+43	; 0x2b
    26c8:	0c a5       	ldd	r16, Y+44	; 0x2c
    26ca:	1d a5       	ldd	r17, Y+45	; 0x2d
    26cc:	6e a4       	ldd	r6, Y+46	; 0x2e
    26ce:	7f a4       	ldd	r7, Y+47	; 0x2f
    26d0:	88 a8       	ldd	r8, Y+48	; 0x30
    26d2:	99 a8       	ldd	r9, Y+49	; 0x31
	V = data.value[0];
	a = data.value[1];
	tb = data.value[2];
	tf = data.value[3];

    if(t <= tb)
    26d4:	c2 01       	movw	r24, r4
    26d6:	b1 01       	movw	r22, r2
    26d8:	a8 01       	movw	r20, r16
    26da:	97 01       	movw	r18, r14
    26dc:	0e 94 5b 39 	call	0x72b6	; 0x72b6 <__cmpsf2>
    26e0:	18 16       	cp	r1, r24
    26e2:	dc f0       	brlt	.+54     	; 0x271a <evalLSPB+0xbe>
        q = q0 + (0.5*a*pow(t,2));
    26e4:	c2 01       	movw	r24, r4
    26e6:	b1 01       	movw	r22, r2
    26e8:	a2 01       	movw	r20, r4
    26ea:	91 01       	movw	r18, r2
    26ec:	0e 94 42 3b 	call	0x7684	; 0x7684 <__mulsf3>
    26f0:	7b 01       	movw	r14, r22
    26f2:	8c 01       	movw	r16, r24
    26f4:	69 81       	ldd	r22, Y+1	; 0x01
    26f6:	7a 81       	ldd	r23, Y+2	; 0x02
    26f8:	8b 81       	ldd	r24, Y+3	; 0x03
    26fa:	9c 81       	ldd	r25, Y+4	; 0x04
    26fc:	20 e0       	ldi	r18, 0x00	; 0
    26fe:	30 e0       	ldi	r19, 0x00	; 0
    2700:	40 e0       	ldi	r20, 0x00	; 0
    2702:	5f e3       	ldi	r21, 0x3F	; 63
    2704:	0e 94 42 3b 	call	0x7684	; 0x7684 <__mulsf3>
    2708:	a8 01       	movw	r20, r16
    270a:	97 01       	movw	r18, r14
    270c:	0e 94 42 3b 	call	0x7684	; 0x7684 <__mulsf3>
    2710:	9b 01       	movw	r18, r22
    2712:	ac 01       	movw	r20, r24
    2714:	c6 01       	movw	r24, r12
    2716:	b5 01       	movw	r22, r10
    2718:	96 c0       	rjmp	.+300    	; 0x2846 <evalLSPB+0x1ea>

    else if((t>tb) && (t<=(tf-tb)))
    271a:	c2 01       	movw	r24, r4
    271c:	b1 01       	movw	r22, r2
    271e:	a8 01       	movw	r20, r16
    2720:	97 01       	movw	r18, r14
    2722:	0e 94 37 3b 	call	0x766e	; 0x766e <__gesf2>
    2726:	18 16       	cp	r1, r24
    2728:	0c f0       	brlt	.+2      	; 0x272c <evalLSPB+0xd0>
    272a:	3f c0       	rjmp	.+126    	; 0x27aa <evalLSPB+0x14e>
    272c:	c4 01       	movw	r24, r8
    272e:	b3 01       	movw	r22, r6
    2730:	a8 01       	movw	r20, r16
    2732:	97 01       	movw	r18, r14
    2734:	0e 94 7d 38 	call	0x70fa	; 0x70fa <__subsf3>
    2738:	9b 01       	movw	r18, r22
    273a:	ac 01       	movw	r20, r24
    273c:	c2 01       	movw	r24, r4
    273e:	b1 01       	movw	r22, r2
    2740:	0e 94 5b 39 	call	0x72b6	; 0x72b6 <__cmpsf2>
    2744:	18 16       	cp	r1, r24
    2746:	8c f1       	brlt	.+98     	; 0x27aa <evalLSPB+0x14e>
        q = ((qf-q0-V*tf)/2)+V*t + q0;
    2748:	69 85       	ldd	r22, Y+9	; 0x09
    274a:	7a 85       	ldd	r23, Y+10	; 0x0a
    274c:	8b 85       	ldd	r24, Y+11	; 0x0b
    274e:	9c 85       	ldd	r25, Y+12	; 0x0c
    2750:	a6 01       	movw	r20, r12
    2752:	95 01       	movw	r18, r10
    2754:	0e 94 7d 38 	call	0x70fa	; 0x70fa <__subsf3>
    2758:	7b 01       	movw	r14, r22
    275a:	8c 01       	movw	r16, r24
    275c:	6d 81       	ldd	r22, Y+5	; 0x05
    275e:	7e 81       	ldd	r23, Y+6	; 0x06
    2760:	8f 81       	ldd	r24, Y+7	; 0x07
    2762:	98 85       	ldd	r25, Y+8	; 0x08
    2764:	a4 01       	movw	r20, r8
    2766:	93 01       	movw	r18, r6
    2768:	0e 94 42 3b 	call	0x7684	; 0x7684 <__mulsf3>
    276c:	9b 01       	movw	r18, r22
    276e:	ac 01       	movw	r20, r24
    2770:	c8 01       	movw	r24, r16
    2772:	b7 01       	movw	r22, r14
    2774:	0e 94 7d 38 	call	0x70fa	; 0x70fa <__subsf3>
    2778:	20 e0       	ldi	r18, 0x00	; 0
    277a:	30 e0       	ldi	r19, 0x00	; 0
    277c:	40 e0       	ldi	r20, 0x00	; 0
    277e:	5f e3       	ldi	r21, 0x3F	; 63
    2780:	0e 94 42 3b 	call	0x7684	; 0x7684 <__mulsf3>
    2784:	7b 01       	movw	r14, r22
    2786:	8c 01       	movw	r16, r24
    2788:	6d 81       	ldd	r22, Y+5	; 0x05
    278a:	7e 81       	ldd	r23, Y+6	; 0x06
    278c:	8f 81       	ldd	r24, Y+7	; 0x07
    278e:	98 85       	ldd	r25, Y+8	; 0x08
    2790:	a2 01       	movw	r20, r4
    2792:	91 01       	movw	r18, r2
    2794:	0e 94 42 3b 	call	0x7684	; 0x7684 <__mulsf3>
    2798:	9b 01       	movw	r18, r22
    279a:	ac 01       	movw	r20, r24
    279c:	c8 01       	movw	r24, r16
    279e:	b7 01       	movw	r22, r14
    27a0:	0e 94 7e 38 	call	0x70fc	; 0x70fc <__addsf3>
    27a4:	a6 01       	movw	r20, r12
    27a6:	95 01       	movw	r18, r10
    27a8:	4e c0       	rjmp	.+156    	; 0x2846 <evalLSPB+0x1ea>

    else
        q = qf -((a*pow(tf,2))/2) + a*tf*t - (a/2)*pow(t,2);
    27aa:	c4 01       	movw	r24, r8
    27ac:	b3 01       	movw	r22, r6
    27ae:	a4 01       	movw	r20, r8
    27b0:	93 01       	movw	r18, r6
    27b2:	0e 94 42 3b 	call	0x7684	; 0x7684 <__mulsf3>
    27b6:	7b 01       	movw	r14, r22
    27b8:	8c 01       	movw	r16, r24
    27ba:	c2 01       	movw	r24, r4
    27bc:	b1 01       	movw	r22, r2
    27be:	a2 01       	movw	r20, r4
    27c0:	91 01       	movw	r18, r2
    27c2:	0e 94 42 3b 	call	0x7684	; 0x7684 <__mulsf3>
    27c6:	5b 01       	movw	r10, r22
    27c8:	6c 01       	movw	r12, r24
    27ca:	69 81       	ldd	r22, Y+1	; 0x01
    27cc:	7a 81       	ldd	r23, Y+2	; 0x02
    27ce:	8b 81       	ldd	r24, Y+3	; 0x03
    27d0:	9c 81       	ldd	r25, Y+4	; 0x04
    27d2:	a8 01       	movw	r20, r16
    27d4:	97 01       	movw	r18, r14
    27d6:	0e 94 42 3b 	call	0x7684	; 0x7684 <__mulsf3>
    27da:	20 e0       	ldi	r18, 0x00	; 0
    27dc:	30 e0       	ldi	r19, 0x00	; 0
    27de:	40 e0       	ldi	r20, 0x00	; 0
    27e0:	5f eb       	ldi	r21, 0xBF	; 191
    27e2:	0e 94 42 3b 	call	0x7684	; 0x7684 <__mulsf3>
    27e6:	9b 01       	movw	r18, r22
    27e8:	ac 01       	movw	r20, r24
    27ea:	69 85       	ldd	r22, Y+9	; 0x09
    27ec:	7a 85       	ldd	r23, Y+10	; 0x0a
    27ee:	8b 85       	ldd	r24, Y+11	; 0x0b
    27f0:	9c 85       	ldd	r25, Y+12	; 0x0c
    27f2:	0e 94 7e 38 	call	0x70fc	; 0x70fc <__addsf3>
    27f6:	7b 01       	movw	r14, r22
    27f8:	8c 01       	movw	r16, r24
    27fa:	69 81       	ldd	r22, Y+1	; 0x01
    27fc:	7a 81       	ldd	r23, Y+2	; 0x02
    27fe:	8b 81       	ldd	r24, Y+3	; 0x03
    2800:	9c 81       	ldd	r25, Y+4	; 0x04
    2802:	a4 01       	movw	r20, r8
    2804:	93 01       	movw	r18, r6
    2806:	0e 94 42 3b 	call	0x7684	; 0x7684 <__mulsf3>
    280a:	a2 01       	movw	r20, r4
    280c:	91 01       	movw	r18, r2
    280e:	0e 94 42 3b 	call	0x7684	; 0x7684 <__mulsf3>
    2812:	9b 01       	movw	r18, r22
    2814:	ac 01       	movw	r20, r24
    2816:	c8 01       	movw	r24, r16
    2818:	b7 01       	movw	r22, r14
    281a:	0e 94 7e 38 	call	0x70fc	; 0x70fc <__addsf3>
    281e:	7b 01       	movw	r14, r22
    2820:	8c 01       	movw	r16, r24
    2822:	69 81       	ldd	r22, Y+1	; 0x01
    2824:	7a 81       	ldd	r23, Y+2	; 0x02
    2826:	8b 81       	ldd	r24, Y+3	; 0x03
    2828:	9c 81       	ldd	r25, Y+4	; 0x04
    282a:	20 e0       	ldi	r18, 0x00	; 0
    282c:	30 e0       	ldi	r19, 0x00	; 0
    282e:	40 e0       	ldi	r20, 0x00	; 0
    2830:	5f eb       	ldi	r21, 0xBF	; 191
    2832:	0e 94 42 3b 	call	0x7684	; 0x7684 <__mulsf3>
    2836:	a6 01       	movw	r20, r12
    2838:	95 01       	movw	r18, r10
    283a:	0e 94 42 3b 	call	0x7684	; 0x7684 <__mulsf3>
    283e:	9b 01       	movw	r18, r22
    2840:	ac 01       	movw	r20, r24
    2842:	c8 01       	movw	r24, r16
    2844:	b7 01       	movw	r22, r14
    2846:	0e 94 7e 38 	call	0x70fc	; 0x70fc <__addsf3>
    284a:	e6 2f       	mov	r30, r22

	return q;

}
    284c:	2e 2f       	mov	r18, r30
    284e:	37 2f       	mov	r19, r23
    2850:	48 2f       	mov	r20, r24
    2852:	59 2f       	mov	r21, r25
    2854:	b9 01       	movw	r22, r18
    2856:	ca 01       	movw	r24, r20
    2858:	2c 96       	adiw	r28, 0x0c	; 12
    285a:	0f b6       	in	r0, 0x3f	; 63
    285c:	f8 94       	cli
    285e:	de bf       	out	0x3e, r29	; 62
    2860:	0f be       	out	0x3f, r0	; 63
    2862:	cd bf       	out	0x3d, r28	; 61
    2864:	cf 91       	pop	r28
    2866:	df 91       	pop	r29
    2868:	1f 91       	pop	r17
    286a:	0f 91       	pop	r16
    286c:	ff 90       	pop	r15
    286e:	ef 90       	pop	r14
    2870:	df 90       	pop	r13
    2872:	cf 90       	pop	r12
    2874:	bf 90       	pop	r11
    2876:	af 90       	pop	r10
    2878:	9f 90       	pop	r9
    287a:	8f 90       	pop	r8
    287c:	7f 90       	pop	r7
    287e:	6f 90       	pop	r6
    2880:	5f 90       	pop	r5
    2882:	4f 90       	pop	r4
    2884:	3f 90       	pop	r3
    2886:	2f 90       	pop	r2
    2888:	08 95       	ret

0000288a <CalculateDH>:


}

void CalculateDH(int desired) // Current 0, Desired 1
{
    288a:	2f 92       	push	r2
    288c:	3f 92       	push	r3
    288e:	4f 92       	push	r4
    2890:	5f 92       	push	r5
    2892:	6f 92       	push	r6
    2894:	7f 92       	push	r7
    2896:	8f 92       	push	r8
    2898:	9f 92       	push	r9
    289a:	af 92       	push	r10
    289c:	bf 92       	push	r11
    289e:	cf 92       	push	r12
    28a0:	df 92       	push	r13
    28a2:	ef 92       	push	r14
    28a4:	ff 92       	push	r15
    28a6:	0f 93       	push	r16
    28a8:	1f 93       	push	r17
    28aa:	df 93       	push	r29
    28ac:	cf 93       	push	r28
    28ae:	cd b7       	in	r28, 0x3d	; 61
    28b0:	de b7       	in	r29, 0x3e	; 62
    28b2:	2a 97       	sbiw	r28, 0x0a	; 10
    28b4:	0f b6       	in	r0, 0x3f	; 63
    28b6:	f8 94       	cli
    28b8:	de bf       	out	0x3e, r29	; 62
    28ba:	0f be       	out	0x3f, r0	; 63
    28bc:	cd bf       	out	0x3d, r28	; 61
	if(desired==1)
    28be:	01 97       	sbiw	r24, 0x01	; 1
    28c0:	21 f5       	brne	.+72     	; 0x290a <CalculateDH+0x80>
    28c2:	ee 24       	eor	r14, r14
    28c4:	ff 24       	eor	r15, r15
	{
		for(int i = 0; i < DOF;i++)
		{
			qDH[i] = desiredQPosition[i] + thetaDH[i];
    28c6:	87 01       	movw	r16, r14
    28c8:	0c 5c       	subi	r16, 0xCC	; 204
    28ca:	1e 4e       	sbci	r17, 0xEE	; 238
    28cc:	f7 01       	movw	r30, r14
    28ce:	e0 5b       	subi	r30, 0xB0	; 176
    28d0:	fe 4e       	sbci	r31, 0xEE	; 238
    28d2:	d7 01       	movw	r26, r14
    28d4:	a3 55       	subi	r26, 0x53	; 83
    28d6:	bf 4e       	sbci	r27, 0xEF	; 239
    28d8:	60 81       	ld	r22, Z
    28da:	71 81       	ldd	r23, Z+1	; 0x01
    28dc:	82 81       	ldd	r24, Z+2	; 0x02
    28de:	93 81       	ldd	r25, Z+3	; 0x03
    28e0:	2d 91       	ld	r18, X+
    28e2:	3d 91       	ld	r19, X+
    28e4:	4d 91       	ld	r20, X+
    28e6:	5c 91       	ld	r21, X
    28e8:	0e 94 7e 38 	call	0x70fc	; 0x70fc <__addsf3>
    28ec:	d8 01       	movw	r26, r16
    28ee:	6d 93       	st	X+, r22
    28f0:	7d 93       	st	X+, r23
    28f2:	8d 93       	st	X+, r24
    28f4:	9c 93       	st	X, r25
    28f6:	13 97       	sbiw	r26, 0x03	; 3
    28f8:	e4 e0       	ldi	r30, 0x04	; 4
    28fa:	f0 e0       	ldi	r31, 0x00	; 0
    28fc:	ee 0e       	add	r14, r30
    28fe:	ff 1e       	adc	r15, r31

void CalculateDH(int desired) // Current 0, Desired 1
{
	if(desired==1)
	{
		for(int i = 0; i < DOF;i++)
    2900:	fc e1       	ldi	r31, 0x1C	; 28
    2902:	ef 16       	cp	r14, r31
    2904:	f1 04       	cpc	r15, r1
    2906:	f9 f6       	brne	.-66     	; 0x28c6 <CalculateDH+0x3c>
    2908:	23 c0       	rjmp	.+70     	; 0x2950 <CalculateDH+0xc6>
    290a:	ee 24       	eor	r14, r14
    290c:	ff 24       	eor	r15, r15
	}
	else
	{
		for(int i = 0; i < DOF;i++)
		{
			qDH[i] = currentQPosition[i] + thetaDH[i];
    290e:	87 01       	movw	r16, r14
    2910:	0c 5c       	subi	r16, 0xCC	; 204
    2912:	1e 4e       	sbci	r17, 0xEE	; 238
    2914:	f7 01       	movw	r30, r14
    2916:	eb 51       	subi	r30, 0x1B	; 27
    2918:	ff 4e       	sbci	r31, 0xEF	; 239
    291a:	d7 01       	movw	r26, r14
    291c:	a3 55       	subi	r26, 0x53	; 83
    291e:	bf 4e       	sbci	r27, 0xEF	; 239
    2920:	60 81       	ld	r22, Z
    2922:	71 81       	ldd	r23, Z+1	; 0x01
    2924:	82 81       	ldd	r24, Z+2	; 0x02
    2926:	93 81       	ldd	r25, Z+3	; 0x03
    2928:	2d 91       	ld	r18, X+
    292a:	3d 91       	ld	r19, X+
    292c:	4d 91       	ld	r20, X+
    292e:	5c 91       	ld	r21, X
    2930:	0e 94 7e 38 	call	0x70fc	; 0x70fc <__addsf3>
    2934:	d8 01       	movw	r26, r16
    2936:	6d 93       	st	X+, r22
    2938:	7d 93       	st	X+, r23
    293a:	8d 93       	st	X+, r24
    293c:	9c 93       	st	X, r25
    293e:	13 97       	sbiw	r26, 0x03	; 3
    2940:	e4 e0       	ldi	r30, 0x04	; 4
    2942:	f0 e0       	ldi	r31, 0x00	; 0
    2944:	ee 0e       	add	r14, r30
    2946:	ff 1e       	adc	r15, r31
			qDH[i] = desiredQPosition[i] + thetaDH[i];
		}
	}
	else
	{
		for(int i = 0; i < DOF;i++)
    2948:	fc e1       	ldi	r31, 0x1C	; 28
    294a:	ef 16       	cp	r14, r31
    294c:	f1 04       	cpc	r15, r1
    294e:	f9 f6       	brne	.-66     	; 0x290e <CalculateDH+0x84>
    2950:	8d ea       	ldi	r24, 0xAD	; 173
    2952:	9e e0       	ldi	r25, 0x0E	; 14
    2954:	9a 87       	std	Y+10, r25	; 0x0a
    2956:	89 87       	std	Y+9, r24	; 0x09
    2958:	4c 96       	adiw	r24, 0x1c	; 28
    295a:	9a 83       	std	Y+2, r25	; 0x02
    295c:	89 83       	std	Y+1, r24	; 0x01
    295e:	1c 82       	std	Y+4, r1	; 0x04
    2960:	1b 82       	std	Y+3, r1	; 0x03
	

	for (int i = 0; i < DOF ; i++)
	{
	
		H[i].value[0][0] = cos(qDH[i]);
    2962:	eb 81       	ldd	r30, Y+3	; 0x03
    2964:	fc 81       	ldd	r31, Y+4	; 0x04
    2966:	ec 5c       	subi	r30, 0xCC	; 204
    2968:	fe 4e       	sbci	r31, 0xEE	; 238
    296a:	e0 80       	ld	r14, Z
    296c:	f1 80       	ldd	r15, Z+1	; 0x01
    296e:	02 81       	ldd	r16, Z+2	; 0x02
    2970:	13 81       	ldd	r17, Z+3	; 0x03
    2972:	c8 01       	movw	r24, r16
    2974:	b7 01       	movw	r22, r14
    2976:	0e 94 5f 39 	call	0x72be	; 0x72be <cos>
    297a:	5b 01       	movw	r10, r22
    297c:	6c 01       	movw	r12, r24
    297e:	a9 85       	ldd	r26, Y+9	; 0x09
    2980:	ba 85       	ldd	r27, Y+10	; 0x0a
    2982:	6d 93       	st	X+, r22
    2984:	7d 93       	st	X+, r23
    2986:	8d 93       	st	X+, r24
    2988:	9c 93       	st	X, r25
    298a:	13 97       	sbiw	r26, 0x03	; 3
		H[i].value[0][1] = -sin(qDH[i]) * cos(alphaDH[i]);
    298c:	c8 01       	movw	r24, r16
    298e:	b7 01       	movw	r22, r14
    2990:	0e 94 a5 3b 	call	0x774a	; 0x774a <sin>
    2994:	3b 01       	movw	r6, r22
    2996:	4c 01       	movw	r8, r24
    2998:	eb 81       	ldd	r30, Y+3	; 0x03
    299a:	fc 81       	ldd	r31, Y+4	; 0x04
    299c:	e8 57       	subi	r30, 0x78	; 120
    299e:	fe 4e       	sbci	r31, 0xEE	; 238
    29a0:	e0 80       	ld	r14, Z
    29a2:	f1 80       	ldd	r15, Z+1	; 0x01
    29a4:	02 81       	ldd	r16, Z+2	; 0x02
    29a6:	13 81       	ldd	r17, Z+3	; 0x03
    29a8:	c8 01       	movw	r24, r16
    29aa:	b7 01       	movw	r22, r14
    29ac:	0e 94 5f 39 	call	0x72be	; 0x72be <cos>
    29b0:	1b 01       	movw	r2, r22
    29b2:	2c 01       	movw	r4, r24
    29b4:	c4 01       	movw	r24, r8
    29b6:	b3 01       	movw	r22, r6
    29b8:	90 58       	subi	r25, 0x80	; 128
    29ba:	a2 01       	movw	r20, r4
    29bc:	91 01       	movw	r18, r2
    29be:	0e 94 42 3b 	call	0x7684	; 0x7684 <__mulsf3>
    29c2:	e9 85       	ldd	r30, Y+9	; 0x09
    29c4:	fa 85       	ldd	r31, Y+10	; 0x0a
    29c6:	64 83       	std	Z+4, r22	; 0x04
    29c8:	75 83       	std	Z+5, r23	; 0x05
    29ca:	86 83       	std	Z+6, r24	; 0x06
    29cc:	97 83       	std	Z+7, r25	; 0x07
		H[i].value[0][2] = sin(qDH[i]) * sin(alphaDH[i]);
    29ce:	c8 01       	movw	r24, r16
    29d0:	b7 01       	movw	r22, r14
    29d2:	0e 94 a5 3b 	call	0x774a	; 0x774a <sin>
    29d6:	7b 01       	movw	r14, r22
    29d8:	8c 01       	movw	r16, r24
    29da:	c4 01       	movw	r24, r8
    29dc:	b3 01       	movw	r22, r6
    29de:	a8 01       	movw	r20, r16
    29e0:	97 01       	movw	r18, r14
    29e2:	0e 94 42 3b 	call	0x7684	; 0x7684 <__mulsf3>
    29e6:	a9 85       	ldd	r26, Y+9	; 0x09
    29e8:	ba 85       	ldd	r27, Y+10	; 0x0a
    29ea:	18 96       	adiw	r26, 0x08	; 8
    29ec:	6d 93       	st	X+, r22
    29ee:	7d 93       	st	X+, r23
    29f0:	8d 93       	st	X+, r24
    29f2:	9c 93       	st	X, r25
    29f4:	1b 97       	sbiw	r26, 0x0b	; 11
		H[i].value[0][3] = aDH[i] * cos(qDH[i]);
    29f6:	2b 81       	ldd	r18, Y+3	; 0x03
    29f8:	3c 81       	ldd	r19, Y+4	; 0x04
    29fa:	27 53       	subi	r18, 0x37	; 55
    29fc:	3f 4e       	sbci	r19, 0xEF	; 239
    29fe:	d9 01       	movw	r26, r18
    2a00:	8d 91       	ld	r24, X+
    2a02:	9d 91       	ld	r25, X+
    2a04:	0d 90       	ld	r0, X+
    2a06:	bc 91       	ld	r27, X
    2a08:	a0 2d       	mov	r26, r0
    2a0a:	8d 83       	std	Y+5, r24	; 0x05
    2a0c:	9e 83       	std	Y+6, r25	; 0x06
    2a0e:	af 83       	std	Y+7, r26	; 0x07
    2a10:	b8 87       	std	Y+8, r27	; 0x08
    2a12:	bc 01       	movw	r22, r24
    2a14:	cd 01       	movw	r24, r26
    2a16:	a6 01       	movw	r20, r12
    2a18:	95 01       	movw	r18, r10
    2a1a:	0e 94 42 3b 	call	0x7684	; 0x7684 <__mulsf3>
    2a1e:	e9 85       	ldd	r30, Y+9	; 0x09
    2a20:	fa 85       	ldd	r31, Y+10	; 0x0a
    2a22:	64 87       	std	Z+12, r22	; 0x0c
    2a24:	75 87       	std	Z+13, r23	; 0x0d
    2a26:	86 87       	std	Z+14, r24	; 0x0e
    2a28:	97 87       	std	Z+15, r25	; 0x0f

		H[i].value[1][0] = sin(qDH[i]);
    2a2a:	60 8a       	std	Z+16, r6	; 0x10
    2a2c:	71 8a       	std	Z+17, r7	; 0x11
    2a2e:	82 8a       	std	Z+18, r8	; 0x12
    2a30:	93 8a       	std	Z+19, r9	; 0x13
		H[i].value[1][1] = cos(qDH[i]) * cos(alphaDH[i]);
    2a32:	c6 01       	movw	r24, r12
    2a34:	b5 01       	movw	r22, r10
    2a36:	a2 01       	movw	r20, r4
    2a38:	91 01       	movw	r18, r2
    2a3a:	0e 94 42 3b 	call	0x7684	; 0x7684 <__mulsf3>
    2a3e:	e9 85       	ldd	r30, Y+9	; 0x09
    2a40:	fa 85       	ldd	r31, Y+10	; 0x0a
    2a42:	64 8b       	std	Z+20, r22	; 0x14
    2a44:	75 8b       	std	Z+21, r23	; 0x15
    2a46:	86 8b       	std	Z+22, r24	; 0x16
    2a48:	97 8b       	std	Z+23, r25	; 0x17
		H[i].value[1][2] = -cos(qDH[i]) * sin(alphaDH[i]);
    2a4a:	d7 fa       	bst	r13, 7
    2a4c:	d0 94       	com	r13
    2a4e:	d7 f8       	bld	r13, 7
    2a50:	d0 94       	com	r13
    2a52:	c6 01       	movw	r24, r12
    2a54:	b5 01       	movw	r22, r10
    2a56:	a8 01       	movw	r20, r16
    2a58:	97 01       	movw	r18, r14
    2a5a:	0e 94 42 3b 	call	0x7684	; 0x7684 <__mulsf3>
    2a5e:	a9 85       	ldd	r26, Y+9	; 0x09
    2a60:	ba 85       	ldd	r27, Y+10	; 0x0a
    2a62:	58 96       	adiw	r26, 0x18	; 24
    2a64:	6d 93       	st	X+, r22
    2a66:	7d 93       	st	X+, r23
    2a68:	8d 93       	st	X+, r24
    2a6a:	9c 93       	st	X, r25
    2a6c:	5b 97       	sbiw	r26, 0x1b	; 27
		H[i].value[1][3] = aDH[i] * sin(qDH[i]);
    2a6e:	6d 81       	ldd	r22, Y+5	; 0x05
    2a70:	7e 81       	ldd	r23, Y+6	; 0x06
    2a72:	8f 81       	ldd	r24, Y+7	; 0x07
    2a74:	98 85       	ldd	r25, Y+8	; 0x08
    2a76:	a4 01       	movw	r20, r8
    2a78:	93 01       	movw	r18, r6
    2a7a:	0e 94 42 3b 	call	0x7684	; 0x7684 <__mulsf3>
    2a7e:	e9 81       	ldd	r30, Y+1	; 0x01
    2a80:	fa 81       	ldd	r31, Y+2	; 0x02
    2a82:	60 83       	st	Z, r22
    2a84:	71 83       	std	Z+1, r23	; 0x01
    2a86:	82 83       	std	Z+2, r24	; 0x02
    2a88:	93 83       	std	Z+3, r25	; 0x03

		H[i].value[2][1] = sin(alphaDH[i]);
    2a8a:	e0 86       	std	Z+8, r14	; 0x08
    2a8c:	f1 86       	std	Z+9, r15	; 0x09
    2a8e:	02 87       	std	Z+10, r16	; 0x0a
    2a90:	13 87       	std	Z+11, r17	; 0x0b
		H[i].value[2][2] = cos(alphaDH[i]);
    2a92:	24 86       	std	Z+12, r2	; 0x0c
    2a94:	35 86       	std	Z+13, r3	; 0x0d
    2a96:	46 86       	std	Z+14, r4	; 0x0e
    2a98:	57 86       	std	Z+15, r5	; 0x0f
		H[i].value[2][3] = dDH[i];
    2a9a:	eb 81       	ldd	r30, Y+3	; 0x03
    2a9c:	fc 81       	ldd	r31, Y+4	; 0x04
    2a9e:	e1 5b       	subi	r30, 0xB1	; 177
    2aa0:	f3 4f       	sbci	r31, 0xF3	; 243
    2aa2:	80 81       	ld	r24, Z
    2aa4:	91 81       	ldd	r25, Z+1	; 0x01
    2aa6:	a2 81       	ldd	r26, Z+2	; 0x02
    2aa8:	b3 81       	ldd	r27, Z+3	; 0x03
    2aaa:	e9 81       	ldd	r30, Y+1	; 0x01
    2aac:	fa 81       	ldd	r31, Y+2	; 0x02
    2aae:	80 8b       	std	Z+16, r24	; 0x10
    2ab0:	91 8b       	std	Z+17, r25	; 0x11
    2ab2:	a2 8b       	std	Z+18, r26	; 0x12
    2ab4:	b3 8b       	std	Z+19, r27	; 0x13

		H[i].value[3][3] = 1;
    2ab6:	80 e0       	ldi	r24, 0x00	; 0
    2ab8:	90 e0       	ldi	r25, 0x00	; 0
    2aba:	a0 e8       	ldi	r26, 0x80	; 128
    2abc:	bf e3       	ldi	r27, 0x3F	; 63
    2abe:	80 a3       	std	Z+32, r24	; 0x20
    2ac0:	91 a3       	std	Z+33, r25	; 0x21
    2ac2:	a2 a3       	std	Z+34, r26	; 0x22
    2ac4:	b3 a3       	std	Z+35, r27	; 0x23
    2ac6:	8b 81       	ldd	r24, Y+3	; 0x03
    2ac8:	9c 81       	ldd	r25, Y+4	; 0x04
    2aca:	04 96       	adiw	r24, 0x04	; 4
    2acc:	9c 83       	std	Y+4, r25	; 0x04
    2ace:	8b 83       	std	Y+3, r24	; 0x03
    2ad0:	a9 85       	ldd	r26, Y+9	; 0x09
    2ad2:	ba 85       	ldd	r27, Y+10	; 0x0a
    2ad4:	a0 5c       	subi	r26, 0xC0	; 192
    2ad6:	bf 4f       	sbci	r27, 0xFF	; 255
    2ad8:	ba 87       	std	Y+10, r27	; 0x0a
    2ada:	a9 87       	std	Y+9, r26	; 0x09
    2adc:	e0 5c       	subi	r30, 0xC0	; 192
    2ade:	ff 4f       	sbci	r31, 0xFF	; 255
    2ae0:	fa 83       	std	Y+2, r31	; 0x02
    2ae2:	e9 83       	std	Y+1, r30	; 0x01
			qDH[i] = currentQPosition[i] + thetaDH[i];
		}
	}
	

	for (int i = 0; i < DOF ; i++)
    2ae4:	4c 97       	sbiw	r24, 0x1c	; 28
    2ae6:	09 f0       	breq	.+2      	; 0x2aea <CalculateDH+0x260>
    2ae8:	3c cf       	rjmp	.-392    	; 0x2962 <CalculateDH+0xd8>
		H[i].value[2][3] = dDH[i];

		H[i].value[3][3] = 1;
 
	}
}
    2aea:	2a 96       	adiw	r28, 0x0a	; 10
    2aec:	0f b6       	in	r0, 0x3f	; 63
    2aee:	f8 94       	cli
    2af0:	de bf       	out	0x3e, r29	; 62
    2af2:	0f be       	out	0x3f, r0	; 63
    2af4:	cd bf       	out	0x3d, r28	; 61
    2af6:	cf 91       	pop	r28
    2af8:	df 91       	pop	r29
    2afa:	1f 91       	pop	r17
    2afc:	0f 91       	pop	r16
    2afe:	ff 90       	pop	r15
    2b00:	ef 90       	pop	r14
    2b02:	df 90       	pop	r13
    2b04:	cf 90       	pop	r12
    2b06:	bf 90       	pop	r11
    2b08:	af 90       	pop	r10
    2b0a:	9f 90       	pop	r9
    2b0c:	8f 90       	pop	r8
    2b0e:	7f 90       	pop	r7
    2b10:	6f 90       	pop	r6
    2b12:	5f 90       	pop	r5
    2b14:	4f 90       	pop	r4
    2b16:	3f 90       	pop	r3
    2b18:	2f 90       	pop	r2
    2b1a:	08 95       	ret

00002b1c <CalculateHT>:


void CalculateHT(int desired) // Current 0, Desired 1
{
    2b1c:	2f 92       	push	r2
    2b1e:	3f 92       	push	r3
    2b20:	4f 92       	push	r4
    2b22:	5f 92       	push	r5
    2b24:	6f 92       	push	r6
    2b26:	7f 92       	push	r7
    2b28:	8f 92       	push	r8
    2b2a:	9f 92       	push	r9
    2b2c:	af 92       	push	r10
    2b2e:	bf 92       	push	r11
    2b30:	cf 92       	push	r12
    2b32:	df 92       	push	r13
    2b34:	ef 92       	push	r14
    2b36:	ff 92       	push	r15
    2b38:	0f 93       	push	r16
    2b3a:	1f 93       	push	r17
    2b3c:	df 93       	push	r29
    2b3e:	cf 93       	push	r28
    2b40:	cd b7       	in	r28, 0x3d	; 61
    2b42:	de b7       	in	r29, 0x3e	; 62
    2b44:	68 97       	sbiw	r28, 0x18	; 24
    2b46:	0f b6       	in	r0, 0x3f	; 63
    2b48:	f8 94       	cli
    2b4a:	de bf       	out	0x3e, r29	; 62
    2b4c:	0f be       	out	0x3f, r0	; 63
    2b4e:	cd bf       	out	0x3d, r28	; 61
	CalculateDH(desired);
    2b50:	0e 94 45 14 	call	0x288a	; 0x288a <CalculateDH>
    2b54:	eb e6       	ldi	r30, 0x6B	; 107
    2b56:	fe e0       	ldi	r31, 0x0E	; 14

	for(int j = 0;j<4;j++)
	{
		for(int k = 0;k<4;k++)
		{
			H07.value[j][k] = 0;
    2b58:	80 e0       	ldi	r24, 0x00	; 0
    2b5a:	90 e0       	ldi	r25, 0x00	; 0
    2b5c:	a0 e0       	ldi	r26, 0x00	; 0
    2b5e:	b0 e0       	ldi	r27, 0x00	; 0
    2b60:	80 83       	st	Z, r24
    2b62:	91 83       	std	Z+1, r25	; 0x01
    2b64:	a2 83       	std	Z+2, r26	; 0x02
    2b66:	b3 83       	std	Z+3, r27	; 0x03
    2b68:	84 83       	std	Z+4, r24	; 0x04
    2b6a:	95 83       	std	Z+5, r25	; 0x05
    2b6c:	a6 83       	std	Z+6, r26	; 0x06
    2b6e:	b7 83       	std	Z+7, r27	; 0x07
    2b70:	80 87       	std	Z+8, r24	; 0x08
    2b72:	91 87       	std	Z+9, r25	; 0x09
    2b74:	a2 87       	std	Z+10, r26	; 0x0a
    2b76:	b3 87       	std	Z+11, r27	; 0x0b
    2b78:	84 87       	std	Z+12, r24	; 0x0c
    2b7a:	95 87       	std	Z+13, r25	; 0x0d
    2b7c:	a6 87       	std	Z+14, r26	; 0x0e
    2b7e:	b7 87       	std	Z+15, r27	; 0x0f
    2b80:	70 96       	adiw	r30, 0x10	; 16
{
	CalculateDH(desired);

	float temp[4];

	for(int j = 0;j<4;j++)
    2b82:	2e e0       	ldi	r18, 0x0E	; 14
    2b84:	eb 3a       	cpi	r30, 0xAB	; 171
    2b86:	f2 07       	cpc	r31, r18
    2b88:	59 f7       	brne	.-42     	; 0x2b60 <CalculateHT+0x44>
		}
	}

	for(int i = 0;i<4;i++)	// Matriz Identidad
	{
		H07.value[i][i] = 1;
    2b8a:	80 e0       	ldi	r24, 0x00	; 0
    2b8c:	90 e0       	ldi	r25, 0x00	; 0
    2b8e:	a0 e8       	ldi	r26, 0x80	; 128
    2b90:	bf e3       	ldi	r27, 0x3F	; 63
    2b92:	80 93 6b 0e 	sts	0x0E6B, r24
    2b96:	90 93 6c 0e 	sts	0x0E6C, r25
    2b9a:	a0 93 6d 0e 	sts	0x0E6D, r26
    2b9e:	b0 93 6e 0e 	sts	0x0E6E, r27
    2ba2:	80 93 7f 0e 	sts	0x0E7F, r24
    2ba6:	90 93 80 0e 	sts	0x0E80, r25
    2baa:	a0 93 81 0e 	sts	0x0E81, r26
    2bae:	b0 93 82 0e 	sts	0x0E82, r27
    2bb2:	80 93 93 0e 	sts	0x0E93, r24
    2bb6:	90 93 94 0e 	sts	0x0E94, r25
    2bba:	a0 93 95 0e 	sts	0x0E95, r26
    2bbe:	b0 93 96 0e 	sts	0x0E96, r27
    2bc2:	80 93 a7 0e 	sts	0x0EA7, r24
    2bc6:	90 93 a8 0e 	sts	0x0EA8, r25
    2bca:	a0 93 a9 0e 	sts	0x0EA9, r26
    2bce:	b0 93 aa 0e 	sts	0x0EAA, r27
    2bd2:	1e 8a       	std	Y+22, r1	; 0x16
    2bd4:	1d 8a       	std	Y+21, r1	; 0x15
    2bd6:	dc c0       	rjmp	.+440    	; 0x2d90 <CalculateHT+0x274>
			}
			for(int k = 0;k<4;k++)
			{
				for(int l = 0;l<4;l++)
				{
					temp[k] += (H07.value[j][l] * H[i].value[l][k]);
    2bd8:	ab 89       	ldd	r26, Y+19	; 0x13
    2bda:	bc 89       	ldd	r27, Y+20	; 0x14
    2bdc:	6d 91       	ld	r22, X+
    2bde:	7d 91       	ld	r23, X+
    2be0:	8d 91       	ld	r24, X+
    2be2:	9d 91       	ld	r25, X+
    2be4:	bc 8b       	std	Y+20, r27	; 0x14
    2be6:	ab 8b       	std	Y+19, r26	; 0x13
    2be8:	f8 01       	movw	r30, r16
    2bea:	20 81       	ld	r18, Z
    2bec:	31 81       	ldd	r19, Z+1	; 0x01
    2bee:	42 81       	ldd	r20, Z+2	; 0x02
    2bf0:	53 81       	ldd	r21, Z+3	; 0x03
    2bf2:	0e 94 42 3b 	call	0x7684	; 0x7684 <__mulsf3>
    2bf6:	9b 01       	movw	r18, r22
    2bf8:	ac 01       	movw	r20, r24
    2bfa:	c7 01       	movw	r24, r14
    2bfc:	b6 01       	movw	r22, r12
    2bfe:	0e 94 7e 38 	call	0x70fc	; 0x70fc <__addsf3>
    2c02:	6b 01       	movw	r12, r22
    2c04:	7c 01       	movw	r14, r24
			{
				temp[h] = 0;
			}
			for(int k = 0;k<4;k++)
			{
				for(int l = 0;l<4;l++)
    2c06:	08 94       	sec
    2c08:	a1 1c       	adc	r10, r1
    2c0a:	b1 1c       	adc	r11, r1
    2c0c:	00 5f       	subi	r16, 0xF0	; 240
    2c0e:	1f 4f       	sbci	r17, 0xFF	; 255
    2c10:	f4 e0       	ldi	r31, 0x04	; 4
    2c12:	af 16       	cp	r10, r31
    2c14:	b1 04       	cpc	r11, r1
    2c16:	01 f7       	brne	.-64     	; 0x2bd8 <CalculateHT+0xbc>
    2c18:	d2 01       	movw	r26, r4
    2c1a:	6d 93       	st	X+, r22
    2c1c:	7d 93       	st	X+, r23
    2c1e:	8d 93       	st	X+, r24
    2c20:	9d 93       	st	X+, r25
    2c22:	2d 01       	movw	r4, r26
		{	
			for(int h = 0; h <4 ;h++)
			{
				temp[h] = 0;
			}
			for(int k = 0;k<4;k++)
    2c24:	08 94       	sec
    2c26:	81 1c       	adc	r8, r1
    2c28:	91 1c       	adc	r9, r1
    2c2a:	b4 e0       	ldi	r27, 0x04	; 4
    2c2c:	8b 16       	cp	r8, r27
    2c2e:	91 04       	cpc	r9, r1
    2c30:	a1 f0       	breq	.+40     	; 0x2c5a <CalculateHT+0x13e>
    2c32:	f2 01       	movw	r30, r4
    2c34:	c0 80       	ld	r12, Z
    2c36:	d1 80       	ldd	r13, Z+1	; 0x01
    2c38:	e2 80       	ldd	r14, Z+2	; 0x02
    2c3a:	f3 80       	ldd	r15, Z+3	; 0x03
    2c3c:	7c 8a       	std	Y+20, r7	; 0x14
    2c3e:	6b 8a       	std	Y+19, r6	; 0x13
    2c40:	0f 89       	ldd	r16, Y+23	; 0x17
    2c42:	18 8d       	ldd	r17, Y+24	; 0x18
    2c44:	08 0d       	add	r16, r8
    2c46:	19 1d       	adc	r17, r9
    2c48:	00 0f       	add	r16, r16
    2c4a:	11 1f       	adc	r17, r17
    2c4c:	00 0f       	add	r16, r16
    2c4e:	11 1f       	adc	r17, r17
    2c50:	03 55       	subi	r16, 0x53	; 83
    2c52:	11 4f       	sbci	r17, 0xF1	; 241
    2c54:	aa 24       	eor	r10, r10
    2c56:	bb 24       	eor	r11, r11
    2c58:	bf cf       	rjmp	.-130    	; 0x2bd8 <CalculateHT+0xbc>
					temp[k] += (H07.value[j][l] * H[i].value[l][k]);
				}
			}
			for(int h = 0; h <4 ;h++)
			{
				H07.value[j][h] = temp[h];
    2c5a:	f1 01       	movw	r30, r2
    2c5c:	94 e0       	ldi	r25, 0x04	; 4
    2c5e:	ee 0f       	add	r30, r30
    2c60:	ff 1f       	adc	r31, r31
    2c62:	9a 95       	dec	r25
    2c64:	e1 f7       	brne	.-8      	; 0x2c5e <CalculateHT+0x142>
    2c66:	e5 59       	subi	r30, 0x95	; 149
    2c68:	f1 4f       	sbci	r31, 0xF1	; 241
    2c6a:	89 81       	ldd	r24, Y+1	; 0x01
    2c6c:	9a 81       	ldd	r25, Y+2	; 0x02
    2c6e:	ab 81       	ldd	r26, Y+3	; 0x03
    2c70:	bc 81       	ldd	r27, Y+4	; 0x04
    2c72:	80 83       	st	Z, r24
    2c74:	91 83       	std	Z+1, r25	; 0x01
    2c76:	a2 83       	std	Z+2, r26	; 0x02
    2c78:	b3 83       	std	Z+3, r27	; 0x03
    2c7a:	8d 81       	ldd	r24, Y+5	; 0x05
    2c7c:	9e 81       	ldd	r25, Y+6	; 0x06
    2c7e:	af 81       	ldd	r26, Y+7	; 0x07
    2c80:	b8 85       	ldd	r27, Y+8	; 0x08
    2c82:	e9 89       	ldd	r30, Y+17	; 0x11
    2c84:	fa 89       	ldd	r31, Y+18	; 0x12
    2c86:	80 83       	st	Z, r24
    2c88:	91 83       	std	Z+1, r25	; 0x01
    2c8a:	a2 83       	std	Z+2, r26	; 0x02
    2c8c:	b3 83       	std	Z+3, r27	; 0x03
    2c8e:	89 85       	ldd	r24, Y+9	; 0x09
    2c90:	9a 85       	ldd	r25, Y+10	; 0x0a
    2c92:	ab 85       	ldd	r26, Y+11	; 0x0b
    2c94:	bc 85       	ldd	r27, Y+12	; 0x0c
    2c96:	84 83       	std	Z+4, r24	; 0x04
    2c98:	95 83       	std	Z+5, r25	; 0x05
    2c9a:	a6 83       	std	Z+6, r26	; 0x06
    2c9c:	b7 83       	std	Z+7, r27	; 0x07
    2c9e:	8d 85       	ldd	r24, Y+13	; 0x0d
    2ca0:	9e 85       	ldd	r25, Y+14	; 0x0e
    2ca2:	af 85       	ldd	r26, Y+15	; 0x0f
    2ca4:	b8 89       	ldd	r27, Y+16	; 0x10
    2ca6:	80 87       	std	Z+8, r24	; 0x08
    2ca8:	91 87       	std	Z+9, r25	; 0x09
    2caa:	a2 87       	std	Z+10, r26	; 0x0a
    2cac:	b3 87       	std	Z+11, r27	; 0x0b
		H07.value[i][i] = 1;
	}

	for(int i = 0;i<DOF+1;i++)
	{
		for(int j = 0;j<4;j++)
    2cae:	08 94       	sec
    2cb0:	21 1c       	adc	r2, r1
    2cb2:	31 1c       	adc	r3, r1
    2cb4:	70 96       	adiw	r30, 0x10	; 16
    2cb6:	fa 8b       	std	Y+18, r31	; 0x12
    2cb8:	e9 8b       	std	Y+17, r30	; 0x11
    2cba:	f4 e0       	ldi	r31, 0x04	; 4
    2cbc:	2f 16       	cp	r2, r31
    2cbe:	31 04       	cpc	r3, r1
    2cc0:	61 f4       	brne	.+24     	; 0x2cda <CalculateHT+0x1be>
    2cc2:	2d 89       	ldd	r18, Y+21	; 0x15
    2cc4:	3e 89       	ldd	r19, Y+22	; 0x16
    2cc6:	86 e0       	ldi	r24, 0x06	; 6
    2cc8:	22 0f       	add	r18, r18
    2cca:	33 1f       	adc	r19, r19
    2ccc:	8a 95       	dec	r24
    2cce:	e1 f7       	brne	.-8      	; 0x2cc8 <CalculateHT+0x1ac>
    2cd0:	25 59       	subi	r18, 0x95	; 149
    2cd2:	33 4f       	sbci	r19, 0xF3	; 243
    2cd4:	eb e6       	ldi	r30, 0x6B	; 107
    2cd6:	fe e0       	ldi	r31, 0x0E	; 14
    2cd8:	25 c0       	rjmp	.+74     	; 0x2d24 <CalculateHT+0x208>
		{	
			for(int h = 0; h <4 ;h++)
			{
				temp[h] = 0;
    2cda:	80 e0       	ldi	r24, 0x00	; 0
    2cdc:	90 e0       	ldi	r25, 0x00	; 0
    2cde:	a0 e0       	ldi	r26, 0x00	; 0
    2ce0:	b0 e0       	ldi	r27, 0x00	; 0
    2ce2:	89 83       	std	Y+1, r24	; 0x01
    2ce4:	9a 83       	std	Y+2, r25	; 0x02
    2ce6:	ab 83       	std	Y+3, r26	; 0x03
    2ce8:	bc 83       	std	Y+4, r27	; 0x04
    2cea:	8d 83       	std	Y+5, r24	; 0x05
    2cec:	9e 83       	std	Y+6, r25	; 0x06
    2cee:	af 83       	std	Y+7, r26	; 0x07
    2cf0:	b8 87       	std	Y+8, r27	; 0x08
    2cf2:	89 87       	std	Y+9, r24	; 0x09
    2cf4:	9a 87       	std	Y+10, r25	; 0x0a
    2cf6:	ab 87       	std	Y+11, r26	; 0x0b
    2cf8:	bc 87       	std	Y+12, r27	; 0x0c
    2cfa:	8d 87       	std	Y+13, r24	; 0x0d
    2cfc:	9e 87       	std	Y+14, r25	; 0x0e
    2cfe:	af 87       	std	Y+15, r26	; 0x0f
    2d00:	b8 8b       	std	Y+16, r27	; 0x10
    2d02:	2e 01       	movw	r4, r28
    2d04:	08 94       	sec
    2d06:	41 1c       	adc	r4, r1
    2d08:	51 1c       	adc	r5, r1
    2d0a:	88 24       	eor	r8, r8
    2d0c:	99 24       	eor	r9, r9
			}
			for(int k = 0;k<4;k++)
    2d0e:	31 01       	movw	r6, r2
    2d10:	04 e0       	ldi	r16, 0x04	; 4
    2d12:	66 0c       	add	r6, r6
    2d14:	77 1c       	adc	r7, r7
    2d16:	0a 95       	dec	r16
    2d18:	e1 f7       	brne	.-8      	; 0x2d12 <CalculateHT+0x1f6>
    2d1a:	ab e6       	ldi	r26, 0x6B	; 107
    2d1c:	be e0       	ldi	r27, 0x0E	; 14
    2d1e:	6a 0e       	add	r6, r26
    2d20:	7b 1e       	adc	r7, r27
    2d22:	87 cf       	rjmp	.-242    	; 0x2c32 <CalculateHT+0x116>
		}
		for(int k = 0;k<4;k++)
			{
				for(int l = 0;l<4;l++)
				{
					H0[i].value[k][l] = H07.value[k][l];
    2d24:	40 81       	ld	r20, Z
    2d26:	51 81       	ldd	r21, Z+1	; 0x01
    2d28:	62 81       	ldd	r22, Z+2	; 0x02
    2d2a:	73 81       	ldd	r23, Z+3	; 0x03
    2d2c:	d9 01       	movw	r26, r18
    2d2e:	4d 93       	st	X+, r20
    2d30:	5d 93       	st	X+, r21
    2d32:	6d 93       	st	X+, r22
    2d34:	7c 93       	st	X, r23
    2d36:	13 97       	sbiw	r26, 0x03	; 3
    2d38:	44 81       	ldd	r20, Z+4	; 0x04
    2d3a:	55 81       	ldd	r21, Z+5	; 0x05
    2d3c:	66 81       	ldd	r22, Z+6	; 0x06
    2d3e:	77 81       	ldd	r23, Z+7	; 0x07
    2d40:	14 96       	adiw	r26, 0x04	; 4
    2d42:	4d 93       	st	X+, r20
    2d44:	5d 93       	st	X+, r21
    2d46:	6d 93       	st	X+, r22
    2d48:	7c 93       	st	X, r23
    2d4a:	17 97       	sbiw	r26, 0x07	; 7
    2d4c:	40 85       	ldd	r20, Z+8	; 0x08
    2d4e:	51 85       	ldd	r21, Z+9	; 0x09
    2d50:	62 85       	ldd	r22, Z+10	; 0x0a
    2d52:	73 85       	ldd	r23, Z+11	; 0x0b
    2d54:	18 96       	adiw	r26, 0x08	; 8
    2d56:	4d 93       	st	X+, r20
    2d58:	5d 93       	st	X+, r21
    2d5a:	6d 93       	st	X+, r22
    2d5c:	7c 93       	st	X, r23
    2d5e:	1b 97       	sbiw	r26, 0x0b	; 11
    2d60:	44 85       	ldd	r20, Z+12	; 0x0c
    2d62:	55 85       	ldd	r21, Z+13	; 0x0d
    2d64:	66 85       	ldd	r22, Z+14	; 0x0e
    2d66:	77 85       	ldd	r23, Z+15	; 0x0f
    2d68:	1c 96       	adiw	r26, 0x0c	; 12
    2d6a:	4d 93       	st	X+, r20
    2d6c:	5d 93       	st	X+, r21
    2d6e:	6d 93       	st	X+, r22
    2d70:	7c 93       	st	X, r23
    2d72:	1f 97       	sbiw	r26, 0x0f	; 15
    2d74:	70 96       	adiw	r30, 0x10	; 16
    2d76:	20 5f       	subi	r18, 0xF0	; 240
    2d78:	3f 4f       	sbci	r19, 0xFF	; 255
			for(int h = 0; h <4 ;h++)
			{
				H07.value[j][h] = temp[h];
			}		
		}
		for(int k = 0;k<4;k++)
    2d7a:	be e0       	ldi	r27, 0x0E	; 14
    2d7c:	eb 3a       	cpi	r30, 0xAB	; 171
    2d7e:	fb 07       	cpc	r31, r27
    2d80:	89 f6       	brne	.-94     	; 0x2d24 <CalculateHT+0x208>
	for(int i = 0;i<4;i++)	// Matriz Identidad
	{
		H07.value[i][i] = 1;
	}

	for(int i = 0;i<DOF+1;i++)
    2d82:	ed 89       	ldd	r30, Y+21	; 0x15
    2d84:	fe 89       	ldd	r31, Y+22	; 0x16
    2d86:	31 96       	adiw	r30, 0x01	; 1
    2d88:	fe 8b       	std	Y+22, r31	; 0x16
    2d8a:	ed 8b       	std	Y+21, r30	; 0x15
    2d8c:	38 97       	sbiw	r30, 0x08	; 8
    2d8e:	81 f0       	breq	.+32     	; 0x2db0 <CalculateHT+0x294>
    2d90:	8f e6       	ldi	r24, 0x6F	; 111
    2d92:	9e e0       	ldi	r25, 0x0E	; 14
    2d94:	9a 8b       	std	Y+18, r25	; 0x12
    2d96:	89 8b       	std	Y+17, r24	; 0x11
    2d98:	22 24       	eor	r2, r2
    2d9a:	33 24       	eor	r3, r3
		{	
			for(int h = 0; h <4 ;h++)
			{
				temp[h] = 0;
			}
			for(int k = 0;k<4;k++)
    2d9c:	ad 89       	ldd	r26, Y+21	; 0x15
    2d9e:	be 89       	ldd	r27, Y+22	; 0x16
    2da0:	14 e0       	ldi	r17, 0x04	; 4
    2da2:	aa 0f       	add	r26, r26
    2da4:	bb 1f       	adc	r27, r27
    2da6:	1a 95       	dec	r17
    2da8:	e1 f7       	brne	.-8      	; 0x2da2 <CalculateHT+0x286>
    2daa:	b8 8f       	std	Y+24, r27	; 0x18
    2dac:	af 8b       	std	Y+23, r26	; 0x17
    2dae:	95 cf       	rjmp	.-214    	; 0x2cda <CalculateHT+0x1be>
		//printf("%f \t %f \t %f \t %f \t \n",H0[i][1][0],H0[i][1][1],H0[i][1][2],H0[i][1][3]);
		//printf("%f \t %f \t %f \t %f \t \n",H0[i][2][0],H0[i][2][1],H0[i][2][2],H0[i][2][3]);
		//printf("%f \t %f \t %f \t %f \t \n",H0[i][3][0],H0[i][3][1],H0[i][3][2],H0[i][3][3]);
		//printf(" \n ");
	}
}
    2db0:	68 96       	adiw	r28, 0x18	; 24
    2db2:	0f b6       	in	r0, 0x3f	; 63
    2db4:	f8 94       	cli
    2db6:	de bf       	out	0x3e, r29	; 62
    2db8:	0f be       	out	0x3f, r0	; 63
    2dba:	cd bf       	out	0x3d, r28	; 61
    2dbc:	cf 91       	pop	r28
    2dbe:	df 91       	pop	r29
    2dc0:	1f 91       	pop	r17
    2dc2:	0f 91       	pop	r16
    2dc4:	ff 90       	pop	r15
    2dc6:	ef 90       	pop	r14
    2dc8:	df 90       	pop	r13
    2dca:	cf 90       	pop	r12
    2dcc:	bf 90       	pop	r11
    2dce:	af 90       	pop	r10
    2dd0:	9f 90       	pop	r9
    2dd2:	8f 90       	pop	r8
    2dd4:	7f 90       	pop	r7
    2dd6:	6f 90       	pop	r6
    2dd8:	5f 90       	pop	r5
    2dda:	4f 90       	pop	r4
    2ddc:	3f 90       	pop	r3
    2dde:	2f 90       	pop	r2
    2de0:	08 95       	ret

00002de2 <ForwardKinematics>:


void ForwardKinematics()
{
    2de2:	ef 92       	push	r14
    2de4:	ff 92       	push	r15
    2de6:	0f 93       	push	r16
    2de8:	1f 93       	push	r17
	
	CalculateHT(0);
    2dea:	80 e0       	ldi	r24, 0x00	; 0
    2dec:	90 e0       	ldi	r25, 0x00	; 0
    2dee:	0e 94 8e 15 	call	0x2b1c	; 0x2b1c <CalculateHT>
	currentXPosition[0] = H07.value[0][3];
    2df2:	80 91 77 0e 	lds	r24, 0x0E77
    2df6:	90 91 78 0e 	lds	r25, 0x0E78
    2dfa:	a0 91 79 0e 	lds	r26, 0x0E79
    2dfe:	b0 91 7a 0e 	lds	r27, 0x0E7A
    2e02:	80 93 5f 0b 	sts	0x0B5F, r24
    2e06:	90 93 60 0b 	sts	0x0B60, r25
    2e0a:	a0 93 61 0b 	sts	0x0B61, r26
    2e0e:	b0 93 62 0b 	sts	0x0B62, r27
	currentXPosition[1] = H07.value[1][3];
    2e12:	80 91 87 0e 	lds	r24, 0x0E87
    2e16:	90 91 88 0e 	lds	r25, 0x0E88
    2e1a:	a0 91 89 0e 	lds	r26, 0x0E89
    2e1e:	b0 91 8a 0e 	lds	r27, 0x0E8A
    2e22:	80 93 63 0b 	sts	0x0B63, r24
    2e26:	90 93 64 0b 	sts	0x0B64, r25
    2e2a:	a0 93 65 0b 	sts	0x0B65, r26
    2e2e:	b0 93 66 0b 	sts	0x0B66, r27
	currentXPosition[2] = H07.value[2][3];
    2e32:	80 91 97 0e 	lds	r24, 0x0E97
    2e36:	90 91 98 0e 	lds	r25, 0x0E98
    2e3a:	a0 91 99 0e 	lds	r26, 0x0E99
    2e3e:	b0 91 9a 0e 	lds	r27, 0x0E9A
    2e42:	80 93 67 0b 	sts	0x0B67, r24
    2e46:	90 93 68 0b 	sts	0x0B68, r25
    2e4a:	a0 93 69 0b 	sts	0x0B69, r26
    2e4e:	b0 93 6a 0b 	sts	0x0B6A, r27

	currentXPosition[3] = atan2(H07.value[1][0],H07.value[0][0]);
    2e52:	60 91 7b 0e 	lds	r22, 0x0E7B
    2e56:	70 91 7c 0e 	lds	r23, 0x0E7C
    2e5a:	80 91 7d 0e 	lds	r24, 0x0E7D
    2e5e:	90 91 7e 0e 	lds	r25, 0x0E7E
    2e62:	20 91 6b 0e 	lds	r18, 0x0E6B
    2e66:	30 91 6c 0e 	lds	r19, 0x0E6C
    2e6a:	40 91 6d 0e 	lds	r20, 0x0E6D
    2e6e:	50 91 6e 0e 	lds	r21, 0x0E6E
    2e72:	0e 94 08 39 	call	0x7210	; 0x7210 <atan2>
    2e76:	60 93 6b 0b 	sts	0x0B6B, r22
    2e7a:	70 93 6c 0b 	sts	0x0B6C, r23
    2e7e:	80 93 6d 0b 	sts	0x0B6D, r24
    2e82:	90 93 6e 0b 	sts	0x0B6E, r25
	currentXPosition[4] = atan2(-H07.value[2][0],sqrt(1 - (H07.value[2][0]*H07.value[2][0]) ));
    2e86:	e0 90 8b 0e 	lds	r14, 0x0E8B
    2e8a:	f0 90 8c 0e 	lds	r15, 0x0E8C
    2e8e:	00 91 8d 0e 	lds	r16, 0x0E8D
    2e92:	10 91 8e 0e 	lds	r17, 0x0E8E
    2e96:	c8 01       	movw	r24, r16
    2e98:	b7 01       	movw	r22, r14
    2e9a:	a8 01       	movw	r20, r16
    2e9c:	97 01       	movw	r18, r14
    2e9e:	0e 94 42 3b 	call	0x7684	; 0x7684 <__mulsf3>
    2ea2:	9b 01       	movw	r18, r22
    2ea4:	ac 01       	movw	r20, r24
    2ea6:	60 e0       	ldi	r22, 0x00	; 0
    2ea8:	70 e0       	ldi	r23, 0x00	; 0
    2eaa:	80 e8       	ldi	r24, 0x80	; 128
    2eac:	9f e3       	ldi	r25, 0x3F	; 63
    2eae:	0e 94 7d 38 	call	0x70fa	; 0x70fa <__subsf3>
    2eb2:	0e 94 af 3b 	call	0x775e	; 0x775e <sqrt>
    2eb6:	9b 01       	movw	r18, r22
    2eb8:	ac 01       	movw	r20, r24
    2eba:	17 fb       	bst	r17, 7
    2ebc:	10 95       	com	r17
    2ebe:	17 f9       	bld	r17, 7
    2ec0:	10 95       	com	r17
    2ec2:	c8 01       	movw	r24, r16
    2ec4:	b7 01       	movw	r22, r14
    2ec6:	0e 94 08 39 	call	0x7210	; 0x7210 <atan2>
    2eca:	60 93 6f 0b 	sts	0x0B6F, r22
    2ece:	70 93 70 0b 	sts	0x0B70, r23
    2ed2:	80 93 71 0b 	sts	0x0B71, r24
    2ed6:	90 93 72 0b 	sts	0x0B72, r25
	currentXPosition[5] = atan2(H07.value[2][1],H07.value[2][2]);
    2eda:	60 91 8f 0e 	lds	r22, 0x0E8F
    2ede:	70 91 90 0e 	lds	r23, 0x0E90
    2ee2:	80 91 91 0e 	lds	r24, 0x0E91
    2ee6:	90 91 92 0e 	lds	r25, 0x0E92
    2eea:	20 91 93 0e 	lds	r18, 0x0E93
    2eee:	30 91 94 0e 	lds	r19, 0x0E94
    2ef2:	40 91 95 0e 	lds	r20, 0x0E95
    2ef6:	50 91 96 0e 	lds	r21, 0x0E96
    2efa:	0e 94 08 39 	call	0x7210	; 0x7210 <atan2>
    2efe:	60 93 73 0b 	sts	0x0B73, r22
    2f02:	70 93 74 0b 	sts	0x0B74, r23
    2f06:	80 93 75 0b 	sts	0x0B75, r24
    2f0a:	90 93 76 0b 	sts	0x0B76, r25

	currentXPosition[6] = currentQPosition[2];
    2f0e:	20 91 ed 10 	lds	r18, 0x10ED
    2f12:	30 91 ee 10 	lds	r19, 0x10EE
    2f16:	40 91 ef 10 	lds	r20, 0x10EF
    2f1a:	50 91 f0 10 	lds	r21, 0x10F0
    2f1e:	20 93 77 0b 	sts	0x0B77, r18
    2f22:	30 93 78 0b 	sts	0x0B78, r19
    2f26:	40 93 79 0b 	sts	0x0B79, r20
    2f2a:	50 93 7a 0b 	sts	0x0B7A, r21

	if(printPosLoop ==1)
    2f2e:	80 91 5c 08 	lds	r24, 0x085C
    2f32:	90 91 5d 08 	lds	r25, 0x085D
    2f36:	01 97       	sbiw	r24, 0x01	; 1
    2f38:	09 f0       	breq	.+2      	; 0x2f3c <ForwardKinematics+0x15a>
    2f3a:	69 c0       	rjmp	.+210    	; 0x300e <ForwardKinematics+0x22c>
	{
	printf("G 1 %f %f %f %f %f %f %f \r",currentXPosition[0],currentXPosition[1],currentXPosition[2],currentXPosition[3],currentXPosition[4],currentXPosition[5],currentXPosition[6]);
    2f3c:	8d b7       	in	r24, 0x3d	; 61
    2f3e:	9e b7       	in	r25, 0x3e	; 62
    2f40:	4e 97       	sbiw	r24, 0x1e	; 30
    2f42:	0f b6       	in	r0, 0x3f	; 63
    2f44:	f8 94       	cli
    2f46:	9e bf       	out	0x3e, r25	; 62
    2f48:	0f be       	out	0x3f, r0	; 63
    2f4a:	8d bf       	out	0x3d, r24	; 61
    2f4c:	ed b7       	in	r30, 0x3d	; 61
    2f4e:	fe b7       	in	r31, 0x3e	; 62
    2f50:	31 96       	adiw	r30, 0x01	; 1
    2f52:	81 e1       	ldi	r24, 0x11	; 17
    2f54:	96 e0       	ldi	r25, 0x06	; 6
    2f56:	ad b7       	in	r26, 0x3d	; 61
    2f58:	be b7       	in	r27, 0x3e	; 62
    2f5a:	12 96       	adiw	r26, 0x02	; 2
    2f5c:	9c 93       	st	X, r25
    2f5e:	8e 93       	st	-X, r24
    2f60:	11 97       	sbiw	r26, 0x01	; 1
    2f62:	80 91 5f 0b 	lds	r24, 0x0B5F
    2f66:	90 91 60 0b 	lds	r25, 0x0B60
    2f6a:	a0 91 61 0b 	lds	r26, 0x0B61
    2f6e:	b0 91 62 0b 	lds	r27, 0x0B62
    2f72:	82 83       	std	Z+2, r24	; 0x02
    2f74:	93 83       	std	Z+3, r25	; 0x03
    2f76:	a4 83       	std	Z+4, r26	; 0x04
    2f78:	b5 83       	std	Z+5, r27	; 0x05
    2f7a:	80 91 63 0b 	lds	r24, 0x0B63
    2f7e:	90 91 64 0b 	lds	r25, 0x0B64
    2f82:	a0 91 65 0b 	lds	r26, 0x0B65
    2f86:	b0 91 66 0b 	lds	r27, 0x0B66
    2f8a:	86 83       	std	Z+6, r24	; 0x06
    2f8c:	97 83       	std	Z+7, r25	; 0x07
    2f8e:	a0 87       	std	Z+8, r26	; 0x08
    2f90:	b1 87       	std	Z+9, r27	; 0x09
    2f92:	80 91 67 0b 	lds	r24, 0x0B67
    2f96:	90 91 68 0b 	lds	r25, 0x0B68
    2f9a:	a0 91 69 0b 	lds	r26, 0x0B69
    2f9e:	b0 91 6a 0b 	lds	r27, 0x0B6A
    2fa2:	82 87       	std	Z+10, r24	; 0x0a
    2fa4:	93 87       	std	Z+11, r25	; 0x0b
    2fa6:	a4 87       	std	Z+12, r26	; 0x0c
    2fa8:	b5 87       	std	Z+13, r27	; 0x0d
    2faa:	80 91 6b 0b 	lds	r24, 0x0B6B
    2fae:	90 91 6c 0b 	lds	r25, 0x0B6C
    2fb2:	a0 91 6d 0b 	lds	r26, 0x0B6D
    2fb6:	b0 91 6e 0b 	lds	r27, 0x0B6E
    2fba:	86 87       	std	Z+14, r24	; 0x0e
    2fbc:	97 87       	std	Z+15, r25	; 0x0f
    2fbe:	a0 8b       	std	Z+16, r26	; 0x10
    2fc0:	b1 8b       	std	Z+17, r27	; 0x11
    2fc2:	80 91 6f 0b 	lds	r24, 0x0B6F
    2fc6:	90 91 70 0b 	lds	r25, 0x0B70
    2fca:	a0 91 71 0b 	lds	r26, 0x0B71
    2fce:	b0 91 72 0b 	lds	r27, 0x0B72
    2fd2:	82 8b       	std	Z+18, r24	; 0x12
    2fd4:	93 8b       	std	Z+19, r25	; 0x13
    2fd6:	a4 8b       	std	Z+20, r26	; 0x14
    2fd8:	b5 8b       	std	Z+21, r27	; 0x15
    2fda:	80 91 73 0b 	lds	r24, 0x0B73
    2fde:	90 91 74 0b 	lds	r25, 0x0B74
    2fe2:	a0 91 75 0b 	lds	r26, 0x0B75
    2fe6:	b0 91 76 0b 	lds	r27, 0x0B76
    2fea:	86 8b       	std	Z+22, r24	; 0x16
    2fec:	97 8b       	std	Z+23, r25	; 0x17
    2fee:	a0 8f       	std	Z+24, r26	; 0x18
    2ff0:	b1 8f       	std	Z+25, r27	; 0x19
    2ff2:	22 8f       	std	Z+26, r18	; 0x1a
    2ff4:	33 8f       	std	Z+27, r19	; 0x1b
    2ff6:	44 8f       	std	Z+28, r20	; 0x1c
    2ff8:	55 8f       	std	Z+29, r21	; 0x1d
    2ffa:	0e 94 fc 3e 	call	0x7df8	; 0x7df8 <printf>
    2ffe:	8d b7       	in	r24, 0x3d	; 61
    3000:	9e b7       	in	r25, 0x3e	; 62
    3002:	4e 96       	adiw	r24, 0x1e	; 30
    3004:	0f b6       	in	r0, 0x3f	; 63
    3006:	f8 94       	cli
    3008:	9e bf       	out	0x3e, r25	; 62
    300a:	0f be       	out	0x3f, r0	; 63
    300c:	8d bf       	out	0x3d, r24	; 61
	}

}
    300e:	1f 91       	pop	r17
    3010:	0f 91       	pop	r16
    3012:	ff 90       	pop	r15
    3014:	ef 90       	pop	r14
    3016:	08 95       	ret

00003018 <InverseKinematics>:

int InverseKinematics()
{
    3018:	2f 92       	push	r2
    301a:	3f 92       	push	r3
    301c:	4f 92       	push	r4
    301e:	5f 92       	push	r5
    3020:	6f 92       	push	r6
    3022:	7f 92       	push	r7
    3024:	8f 92       	push	r8
    3026:	9f 92       	push	r9
    3028:	af 92       	push	r10
    302a:	bf 92       	push	r11
    302c:	cf 92       	push	r12
    302e:	df 92       	push	r13
    3030:	ef 92       	push	r14
    3032:	ff 92       	push	r15
    3034:	0f 93       	push	r16
    3036:	1f 93       	push	r17
    3038:	df 93       	push	r29
    303a:	cf 93       	push	r28
    303c:	cd b7       	in	r28, 0x3d	; 61
    303e:	de b7       	in	r29, 0x3e	; 62
    3040:	c2 5e       	subi	r28, 0xE2	; 226
    3042:	d1 40       	sbci	r29, 0x01	; 1
    3044:	0f b6       	in	r0, 0x3f	; 63
    3046:	f8 94       	cli
    3048:	de bf       	out	0x3e, r29	; 62
    304a:	0f be       	out	0x3f, r0	; 63
    304c:	cd bf       	out	0x3d, r28	; 61
    304e:	a0 e0       	ldi	r26, 0x00	; 0
    3050:	b0 e0       	ldi	r27, 0x00	; 0
    3052:	60 e0       	ldi	r22, 0x00	; 0
    3054:	70 e0       	ldi	r23, 0x00	; 0
	vector4 Pelbow;
	

	for(int j = 0;j<4;j++)
		{
			WristPosition.value[j] = 0;
    3056:	20 e0       	ldi	r18, 0x00	; 0
    3058:	30 e0       	ldi	r19, 0x00	; 0
    305a:	40 e0       	ldi	r20, 0x00	; 0
    305c:	50 e0       	ldi	r21, 0x00	; 0
			Pelbow.value[j] = 0;
    305e:	91 e1       	ldi	r25, 0x11	; 17
    3060:	29 2e       	mov	r2, r25
    3062:	31 2c       	mov	r3, r1
    3064:	2c 0e       	add	r2, r28
    3066:	3d 1e       	adc	r3, r29
    3068:	81 e6       	ldi	r24, 0x61	; 97
    306a:	48 2e       	mov	r4, r24
    306c:	51 2c       	mov	r5, r1
    306e:	4c 0e       	add	r4, r28
    3070:	5d 1e       	adc	r5, r29
    3072:	01 ea       	ldi	r16, 0xA1	; 161
    3074:	60 2e       	mov	r6, r16
    3076:	71 2c       	mov	r7, r1
    3078:	6c 0e       	add	r6, r28
    307a:	7d 1e       	adc	r7, r29
    307c:	11 ee       	ldi	r17, 0xE1	; 225
    307e:	81 2e       	mov	r8, r17
    3080:	91 2c       	mov	r9, r1
    3082:	8c 0e       	add	r8, r28
    3084:	9d 1e       	adc	r9, r29
    3086:	f1 e2       	ldi	r31, 0x21	; 33
    3088:	ef 2e       	mov	r14, r31
    308a:	f1 e0       	ldi	r31, 0x01	; 1
    308c:	ff 2e       	mov	r15, r31
    308e:	ec 0e       	add	r14, r28
    3090:	fd 1e       	adc	r15, r29
	vector4 Pelbow;
	

	for(int j = 0;j<4;j++)
		{
			WristPosition.value[j] = 0;
    3092:	e1 e0       	ldi	r30, 0x01	; 1
    3094:	f0 e0       	ldi	r31, 0x00	; 0
    3096:	ec 0f       	add	r30, r28
    3098:	fd 1f       	adc	r31, r29
    309a:	e6 0f       	add	r30, r22
    309c:	f7 1f       	adc	r31, r23
    309e:	20 83       	st	Z, r18
    30a0:	31 83       	std	Z+1, r19	; 0x01
    30a2:	42 83       	std	Z+2, r20	; 0x02
    30a4:	53 83       	std	Z+3, r21	; 0x03
			Pelbow.value[j] = 0;
    30a6:	f1 01       	movw	r30, r2
    30a8:	e6 0f       	add	r30, r22
    30aa:	f7 1f       	adc	r31, r23
    30ac:	20 83       	st	Z, r18
    30ae:	31 83       	std	Z+1, r19	; 0x01
    30b0:	42 83       	std	Z+2, r20	; 0x02
    30b2:	53 83       	std	Z+3, r21	; 0x03
    30b4:	cd 01       	movw	r24, r26
    30b6:	e4 e0       	ldi	r30, 0x04	; 4
    30b8:	88 0f       	add	r24, r24
    30ba:	99 1f       	adc	r25, r25
    30bc:	ea 95       	dec	r30
    30be:	e1 f7       	brne	.-8      	; 0x30b8 <InverseKinematics+0xa0>
    30c0:	52 01       	movw	r10, r4
    30c2:	a8 0e       	add	r10, r24
    30c4:	b9 1e       	adc	r11, r25
    30c6:	63 01       	movw	r12, r6
    30c8:	c8 0e       	add	r12, r24
    30ca:	d9 1e       	adc	r13, r25
    30cc:	84 01       	movw	r16, r8
    30ce:	08 0f       	add	r16, r24
    30d0:	19 1f       	adc	r17, r25
    30d2:	f7 01       	movw	r30, r14
    30d4:	e8 0f       	add	r30, r24
    30d6:	f9 1f       	adc	r31, r25
    30d8:	cf 51       	subi	r28, 0x1F	; 31
    30da:	de 4f       	sbci	r29, 0xFE	; 254
    30dc:	f9 83       	std	Y+1, r31	; 0x01
    30de:	e8 83       	st	Y, r30
    30e0:	c1 5e       	subi	r28, 0xE1	; 225
    30e2:	d1 40       	sbci	r29, 0x01	; 1
    30e4:	80 e0       	ldi	r24, 0x00	; 0
    30e6:	90 e0       	ldi	r25, 0x00	; 0
			for(int k = 0;k<4;k++)
			{
				R07.value[j][k] = 0;
    30e8:	f5 01       	movw	r30, r10
    30ea:	21 93       	st	Z+, r18
    30ec:	31 93       	st	Z+, r19
    30ee:	41 93       	st	Z+, r20
    30f0:	51 93       	st	Z+, r21
    30f2:	5f 01       	movw	r10, r30
				R47.value[j][k] = 0;
    30f4:	f6 01       	movw	r30, r12
    30f6:	21 93       	st	Z+, r18
    30f8:	31 93       	st	Z+, r19
    30fa:	41 93       	st	Z+, r20
    30fc:	51 93       	st	Z+, r21
    30fe:	6f 01       	movw	r12, r30
				R40.value[j][k] = 0;
    3100:	f8 01       	movw	r30, r16
    3102:	21 93       	st	Z+, r18
    3104:	31 93       	st	Z+, r19
    3106:	41 93       	st	Z+, r20
    3108:	51 93       	st	Z+, r21
    310a:	8f 01       	movw	r16, r30
				oRe.value[j][k] = 0;
    310c:	cf 51       	subi	r28, 0x1F	; 31
    310e:	de 4f       	sbci	r29, 0xFE	; 254
    3110:	e8 81       	ld	r30, Y
    3112:	f9 81       	ldd	r31, Y+1	; 0x01
    3114:	c1 5e       	subi	r28, 0xE1	; 225
    3116:	d1 40       	sbci	r29, 0x01	; 1
    3118:	21 93       	st	Z+, r18
    311a:	31 93       	st	Z+, r19
    311c:	41 93       	st	Z+, r20
    311e:	51 93       	st	Z+, r21
    3120:	cf 51       	subi	r28, 0x1F	; 31
    3122:	de 4f       	sbci	r29, 0xFE	; 254
    3124:	f9 83       	std	Y+1, r31	; 0x01
    3126:	e8 83       	st	Y, r30
    3128:	c1 5e       	subi	r28, 0xE1	; 225
    312a:	d1 40       	sbci	r29, 0x01	; 1

	for(int j = 0;j<4;j++)
		{
			WristPosition.value[j] = 0;
			Pelbow.value[j] = 0;
			for(int k = 0;k<4;k++)
    312c:	01 96       	adiw	r24, 0x01	; 1
    312e:	84 30       	cpi	r24, 0x04	; 4
    3130:	91 05       	cpc	r25, r1
    3132:	d1 f6       	brne	.-76     	; 0x30e8 <InverseKinematics+0xd0>

	vector4 WristPosition;
	vector4 Pelbow;
	

	for(int j = 0;j<4;j++)
    3134:	11 96       	adiw	r26, 0x01	; 1
    3136:	6c 5f       	subi	r22, 0xFC	; 252
    3138:	7f 4f       	sbci	r23, 0xFF	; 255
    313a:	a4 30       	cpi	r26, 0x04	; 4
    313c:	b1 05       	cpc	r27, r1
    313e:	09 f0       	breq	.+2      	; 0x3142 <InverseKinematics+0x12a>
    3140:	a8 cf       	rjmp	.-176    	; 0x3092 <InverseKinematics+0x7a>
				oRe.value[j][k] = 0;
				
			}
		}

	R07.value[0][0] = cos(desiredXPosition[3]) * cos(desiredXPosition[4]);
    3142:	e0 90 b0 11 	lds	r14, 0x11B0
    3146:	f0 90 b1 11 	lds	r15, 0x11B1
    314a:	00 91 b2 11 	lds	r16, 0x11B2
    314e:	10 91 b3 11 	lds	r17, 0x11B3
    3152:	c8 01       	movw	r24, r16
    3154:	b7 01       	movw	r22, r14
    3156:	0e 94 5f 39 	call	0x72be	; 0x72be <cos>
    315a:	3b 01       	movw	r6, r22
    315c:	4c 01       	movw	r8, r24
    315e:	20 90 b4 11 	lds	r2, 0x11B4
    3162:	30 90 b5 11 	lds	r3, 0x11B5
    3166:	40 90 b6 11 	lds	r4, 0x11B6
    316a:	50 90 b7 11 	lds	r5, 0x11B7
    316e:	c2 01       	movw	r24, r4
    3170:	b1 01       	movw	r22, r2
    3172:	0e 94 5f 39 	call	0x72be	; 0x72be <cos>
    3176:	c3 53       	subi	r28, 0x33	; 51
    3178:	de 4f       	sbci	r29, 0xFE	; 254
    317a:	68 83       	st	Y, r22
    317c:	79 83       	std	Y+1, r23	; 0x01
    317e:	8a 83       	std	Y+2, r24	; 0x02
    3180:	9b 83       	std	Y+3, r25	; 0x03
    3182:	cd 5c       	subi	r28, 0xCD	; 205
    3184:	d1 40       	sbci	r29, 0x01	; 1
    3186:	c4 01       	movw	r24, r8
    3188:	b3 01       	movw	r22, r6
    318a:	c3 53       	subi	r28, 0x33	; 51
    318c:	de 4f       	sbci	r29, 0xFE	; 254
    318e:	28 81       	ld	r18, Y
    3190:	39 81       	ldd	r19, Y+1	; 0x01
    3192:	4a 81       	ldd	r20, Y+2	; 0x02
    3194:	5b 81       	ldd	r21, Y+3	; 0x03
    3196:	cd 5c       	subi	r28, 0xCD	; 205
    3198:	d1 40       	sbci	r29, 0x01	; 1
    319a:	0e 94 42 3b 	call	0x7684	; 0x7684 <__mulsf3>
    319e:	a5 96       	adiw	r28, 0x25	; 37
    31a0:	6c af       	std	Y+60, r22	; 0x3c
    31a2:	7d af       	std	Y+61, r23	; 0x3d
    31a4:	8e af       	std	Y+62, r24	; 0x3e
    31a6:	9f af       	std	Y+63, r25	; 0x3f
    31a8:	a5 97       	sbiw	r28, 0x25	; 37
	R07.value[0][1] = -sin(desiredXPosition[3]) * cos(desiredXPosition[5]) + cos(desiredXPosition[3]) * sin(desiredXPosition[4]) * sin(desiredXPosition[5]);
    31aa:	c8 01       	movw	r24, r16
    31ac:	b7 01       	movw	r22, r14
    31ae:	0e 94 a5 3b 	call	0x774a	; 0x774a <sin>
    31b2:	5b 01       	movw	r10, r22
    31b4:	6c 01       	movw	r12, r24
    31b6:	e0 90 b8 11 	lds	r14, 0x11B8
    31ba:	f0 90 b9 11 	lds	r15, 0x11B9
    31be:	00 91 ba 11 	lds	r16, 0x11BA
    31c2:	10 91 bb 11 	lds	r17, 0x11BB
    31c6:	c8 01       	movw	r24, r16
    31c8:	b7 01       	movw	r22, r14
    31ca:	0e 94 5f 39 	call	0x72be	; 0x72be <cos>
    31ce:	c7 53       	subi	r28, 0x37	; 55
    31d0:	de 4f       	sbci	r29, 0xFE	; 254
    31d2:	68 83       	st	Y, r22
    31d4:	79 83       	std	Y+1, r23	; 0x01
    31d6:	8a 83       	std	Y+2, r24	; 0x02
    31d8:	9b 83       	std	Y+3, r25	; 0x03
    31da:	c9 5c       	subi	r28, 0xC9	; 201
    31dc:	d1 40       	sbci	r29, 0x01	; 1
    31de:	c2 01       	movw	r24, r4
    31e0:	b1 01       	movw	r22, r2
    31e2:	0e 94 a5 3b 	call	0x774a	; 0x774a <sin>
    31e6:	cb 53       	subi	r28, 0x3B	; 59
    31e8:	de 4f       	sbci	r29, 0xFE	; 254
    31ea:	68 83       	st	Y, r22
    31ec:	79 83       	std	Y+1, r23	; 0x01
    31ee:	8a 83       	std	Y+2, r24	; 0x02
    31f0:	9b 83       	std	Y+3, r25	; 0x03
    31f2:	c5 5c       	subi	r28, 0xC5	; 197
    31f4:	d1 40       	sbci	r29, 0x01	; 1
    31f6:	c4 01       	movw	r24, r8
    31f8:	b3 01       	movw	r22, r6
    31fa:	cb 53       	subi	r28, 0x3B	; 59
    31fc:	de 4f       	sbci	r29, 0xFE	; 254
    31fe:	28 81       	ld	r18, Y
    3200:	39 81       	ldd	r19, Y+1	; 0x01
    3202:	4a 81       	ldd	r20, Y+2	; 0x02
    3204:	5b 81       	ldd	r21, Y+3	; 0x03
    3206:	c5 5c       	subi	r28, 0xC5	; 197
    3208:	d1 40       	sbci	r29, 0x01	; 1
    320a:	0e 94 42 3b 	call	0x7684	; 0x7684 <__mulsf3>
    320e:	cf 52       	subi	r28, 0x2F	; 47
    3210:	de 4f       	sbci	r29, 0xFE	; 254
    3212:	68 83       	st	Y, r22
    3214:	79 83       	std	Y+1, r23	; 0x01
    3216:	8a 83       	std	Y+2, r24	; 0x02
    3218:	9b 83       	std	Y+3, r25	; 0x03
    321a:	c1 5d       	subi	r28, 0xD1	; 209
    321c:	d1 40       	sbci	r29, 0x01	; 1
    321e:	c8 01       	movw	r24, r16
    3220:	b7 01       	movw	r22, r14
    3222:	0e 94 a5 3b 	call	0x774a	; 0x774a <sin>
    3226:	1b 01       	movw	r2, r22
    3228:	2c 01       	movw	r4, r24
    322a:	c6 01       	movw	r24, r12
    322c:	b5 01       	movw	r22, r10
    322e:	90 58       	subi	r25, 0x80	; 128
    3230:	c7 53       	subi	r28, 0x37	; 55
    3232:	de 4f       	sbci	r29, 0xFE	; 254
    3234:	28 81       	ld	r18, Y
    3236:	39 81       	ldd	r19, Y+1	; 0x01
    3238:	4a 81       	ldd	r20, Y+2	; 0x02
    323a:	5b 81       	ldd	r21, Y+3	; 0x03
    323c:	c9 5c       	subi	r28, 0xC9	; 201
    323e:	d1 40       	sbci	r29, 0x01	; 1
    3240:	0e 94 42 3b 	call	0x7684	; 0x7684 <__mulsf3>
    3244:	7b 01       	movw	r14, r22
    3246:	8c 01       	movw	r16, r24
    3248:	cf 52       	subi	r28, 0x2F	; 47
    324a:	de 4f       	sbci	r29, 0xFE	; 254
    324c:	68 81       	ld	r22, Y
    324e:	79 81       	ldd	r23, Y+1	; 0x01
    3250:	8a 81       	ldd	r24, Y+2	; 0x02
    3252:	9b 81       	ldd	r25, Y+3	; 0x03
    3254:	c1 5d       	subi	r28, 0xD1	; 209
    3256:	d1 40       	sbci	r29, 0x01	; 1
    3258:	a2 01       	movw	r20, r4
    325a:	91 01       	movw	r18, r2
    325c:	0e 94 42 3b 	call	0x7684	; 0x7684 <__mulsf3>
    3260:	9b 01       	movw	r18, r22
    3262:	ac 01       	movw	r20, r24
    3264:	c8 01       	movw	r24, r16
    3266:	b7 01       	movw	r22, r14
    3268:	0e 94 7e 38 	call	0x70fc	; 0x70fc <__addsf3>
    326c:	a9 96       	adiw	r28, 0x29	; 41
    326e:	6c af       	std	Y+60, r22	; 0x3c
    3270:	7d af       	std	Y+61, r23	; 0x3d
    3272:	8e af       	std	Y+62, r24	; 0x3e
    3274:	9f af       	std	Y+63, r25	; 0x3f
    3276:	a9 97       	sbiw	r28, 0x29	; 41
	R07.value[0][2] = sin(desiredXPosition[3]) * sin(desiredXPosition[5]) + cos(desiredXPosition[3]) * sin(desiredXPosition[4]) * cos(desiredXPosition[5]);
    3278:	c6 01       	movw	r24, r12
    327a:	b5 01       	movw	r22, r10
    327c:	a2 01       	movw	r20, r4
    327e:	91 01       	movw	r18, r2
    3280:	0e 94 42 3b 	call	0x7684	; 0x7684 <__mulsf3>
    3284:	7b 01       	movw	r14, r22
    3286:	8c 01       	movw	r16, r24
    3288:	cf 52       	subi	r28, 0x2F	; 47
    328a:	de 4f       	sbci	r29, 0xFE	; 254
    328c:	68 81       	ld	r22, Y
    328e:	79 81       	ldd	r23, Y+1	; 0x01
    3290:	8a 81       	ldd	r24, Y+2	; 0x02
    3292:	9b 81       	ldd	r25, Y+3	; 0x03
    3294:	c1 5d       	subi	r28, 0xD1	; 209
    3296:	d1 40       	sbci	r29, 0x01	; 1
    3298:	c7 53       	subi	r28, 0x37	; 55
    329a:	de 4f       	sbci	r29, 0xFE	; 254
    329c:	28 81       	ld	r18, Y
    329e:	39 81       	ldd	r19, Y+1	; 0x01
    32a0:	4a 81       	ldd	r20, Y+2	; 0x02
    32a2:	5b 81       	ldd	r21, Y+3	; 0x03
    32a4:	c9 5c       	subi	r28, 0xC9	; 201
    32a6:	d1 40       	sbci	r29, 0x01	; 1
    32a8:	0e 94 42 3b 	call	0x7684	; 0x7684 <__mulsf3>
    32ac:	9b 01       	movw	r18, r22
    32ae:	ac 01       	movw	r20, r24
    32b0:	c8 01       	movw	r24, r16
    32b2:	b7 01       	movw	r22, r14
    32b4:	0e 94 7e 38 	call	0x70fc	; 0x70fc <__addsf3>
    32b8:	ad 96       	adiw	r28, 0x2d	; 45
    32ba:	6c af       	std	Y+60, r22	; 0x3c
    32bc:	7d af       	std	Y+61, r23	; 0x3d
    32be:	8e af       	std	Y+62, r24	; 0x3e
    32c0:	9f af       	std	Y+63, r25	; 0x3f
    32c2:	ad 97       	sbiw	r28, 0x2d	; 45

	R07.value[1][0] = sin(desiredXPosition[3]) * cos(desiredXPosition[4]);
    32c4:	c6 01       	movw	r24, r12
    32c6:	b5 01       	movw	r22, r10
    32c8:	c3 53       	subi	r28, 0x33	; 51
    32ca:	de 4f       	sbci	r29, 0xFE	; 254
    32cc:	28 81       	ld	r18, Y
    32ce:	39 81       	ldd	r19, Y+1	; 0x01
    32d0:	4a 81       	ldd	r20, Y+2	; 0x02
    32d2:	5b 81       	ldd	r21, Y+3	; 0x03
    32d4:	cd 5c       	subi	r28, 0xCD	; 205
    32d6:	d1 40       	sbci	r29, 0x01	; 1
    32d8:	0e 94 42 3b 	call	0x7684	; 0x7684 <__mulsf3>
    32dc:	e5 96       	adiw	r28, 0x35	; 53
    32de:	6c af       	std	Y+60, r22	; 0x3c
    32e0:	7d af       	std	Y+61, r23	; 0x3d
    32e2:	8e af       	std	Y+62, r24	; 0x3e
    32e4:	9f af       	std	Y+63, r25	; 0x3f
    32e6:	e5 97       	sbiw	r28, 0x35	; 53
	R07.value[1][1] = cos(desiredXPosition[3]) * cos(desiredXPosition[5]) + sin(desiredXPosition[3]) * sin(desiredXPosition[4]) * sin(desiredXPosition[5]);
    32e8:	c6 01       	movw	r24, r12
    32ea:	b5 01       	movw	r22, r10
    32ec:	cb 53       	subi	r28, 0x3B	; 59
    32ee:	de 4f       	sbci	r29, 0xFE	; 254
    32f0:	28 81       	ld	r18, Y
    32f2:	39 81       	ldd	r19, Y+1	; 0x01
    32f4:	4a 81       	ldd	r20, Y+2	; 0x02
    32f6:	5b 81       	ldd	r21, Y+3	; 0x03
    32f8:	c5 5c       	subi	r28, 0xC5	; 197
    32fa:	d1 40       	sbci	r29, 0x01	; 1
    32fc:	0e 94 42 3b 	call	0x7684	; 0x7684 <__mulsf3>
    3300:	5b 01       	movw	r10, r22
    3302:	6c 01       	movw	r12, r24
    3304:	c4 01       	movw	r24, r8
    3306:	b3 01       	movw	r22, r6
    3308:	c7 53       	subi	r28, 0x37	; 55
    330a:	de 4f       	sbci	r29, 0xFE	; 254
    330c:	28 81       	ld	r18, Y
    330e:	39 81       	ldd	r19, Y+1	; 0x01
    3310:	4a 81       	ldd	r20, Y+2	; 0x02
    3312:	5b 81       	ldd	r21, Y+3	; 0x03
    3314:	c9 5c       	subi	r28, 0xC9	; 201
    3316:	d1 40       	sbci	r29, 0x01	; 1
    3318:	0e 94 42 3b 	call	0x7684	; 0x7684 <__mulsf3>
    331c:	7b 01       	movw	r14, r22
    331e:	8c 01       	movw	r16, r24
    3320:	c6 01       	movw	r24, r12
    3322:	b5 01       	movw	r22, r10
    3324:	a2 01       	movw	r20, r4
    3326:	91 01       	movw	r18, r2
    3328:	0e 94 42 3b 	call	0x7684	; 0x7684 <__mulsf3>
    332c:	9b 01       	movw	r18, r22
    332e:	ac 01       	movw	r20, r24
    3330:	c8 01       	movw	r24, r16
    3332:	b7 01       	movw	r22, r14
    3334:	0e 94 7e 38 	call	0x70fc	; 0x70fc <__addsf3>
    3338:	e9 96       	adiw	r28, 0x39	; 57
    333a:	6c af       	std	Y+60, r22	; 0x3c
    333c:	7d af       	std	Y+61, r23	; 0x3d
    333e:	8e af       	std	Y+62, r24	; 0x3e
    3340:	9f af       	std	Y+63, r25	; 0x3f
    3342:	e9 97       	sbiw	r28, 0x39	; 57
	R07.value[1][2] = -cos(desiredXPosition[3]) * sin(desiredXPosition[5]) + sin(desiredXPosition[3]) * sin(desiredXPosition[4]) * cos(desiredXPosition[5]);
    3344:	97 fa       	bst	r9, 7
    3346:	90 94       	com	r9
    3348:	97 f8       	bld	r9, 7
    334a:	90 94       	com	r9
    334c:	c4 01       	movw	r24, r8
    334e:	b3 01       	movw	r22, r6
    3350:	a2 01       	movw	r20, r4
    3352:	91 01       	movw	r18, r2
    3354:	0e 94 42 3b 	call	0x7684	; 0x7684 <__mulsf3>
    3358:	7b 01       	movw	r14, r22
    335a:	8c 01       	movw	r16, r24
    335c:	c6 01       	movw	r24, r12
    335e:	b5 01       	movw	r22, r10
    3360:	c7 53       	subi	r28, 0x37	; 55
    3362:	de 4f       	sbci	r29, 0xFE	; 254
    3364:	28 81       	ld	r18, Y
    3366:	39 81       	ldd	r19, Y+1	; 0x01
    3368:	4a 81       	ldd	r20, Y+2	; 0x02
    336a:	5b 81       	ldd	r21, Y+3	; 0x03
    336c:	c9 5c       	subi	r28, 0xC9	; 201
    336e:	d1 40       	sbci	r29, 0x01	; 1
    3370:	0e 94 42 3b 	call	0x7684	; 0x7684 <__mulsf3>
    3374:	9b 01       	movw	r18, r22
    3376:	ac 01       	movw	r20, r24
    3378:	c8 01       	movw	r24, r16
    337a:	b7 01       	movw	r22, r14
    337c:	0e 94 7e 38 	call	0x70fc	; 0x70fc <__addsf3>
    3380:	ed 96       	adiw	r28, 0x3d	; 61
    3382:	6c af       	std	Y+60, r22	; 0x3c
    3384:	7d af       	std	Y+61, r23	; 0x3d
    3386:	8e af       	std	Y+62, r24	; 0x3e
    3388:	9f af       	std	Y+63, r25	; 0x3f
    338a:	ed 97       	sbiw	r28, 0x3d	; 61

	R07.value[2][0] = -sin(desiredXPosition[4]);
    338c:	cb 53       	subi	r28, 0x3B	; 59
    338e:	de 4f       	sbci	r29, 0xFE	; 254
    3390:	28 81       	ld	r18, Y
    3392:	39 81       	ldd	r19, Y+1	; 0x01
    3394:	4a 81       	ldd	r20, Y+2	; 0x02
    3396:	5b 81       	ldd	r21, Y+3	; 0x03
    3398:	c5 5c       	subi	r28, 0xC5	; 197
    339a:	d1 40       	sbci	r29, 0x01	; 1
    339c:	50 58       	subi	r21, 0x80	; 128
    339e:	cf 57       	subi	r28, 0x7F	; 127
    33a0:	df 4f       	sbci	r29, 0xFF	; 255
    33a2:	28 83       	st	Y, r18
    33a4:	39 83       	std	Y+1, r19	; 0x01
    33a6:	4a 83       	std	Y+2, r20	; 0x02
    33a8:	5b 83       	std	Y+3, r21	; 0x03
    33aa:	c1 58       	subi	r28, 0x81	; 129
    33ac:	d0 40       	sbci	r29, 0x00	; 0
	R07.value[2][1] = cos(desiredXPosition[4]) * sin(desiredXPosition[5]);
    33ae:	c3 53       	subi	r28, 0x33	; 51
    33b0:	de 4f       	sbci	r29, 0xFE	; 254
    33b2:	68 81       	ld	r22, Y
    33b4:	79 81       	ldd	r23, Y+1	; 0x01
    33b6:	8a 81       	ldd	r24, Y+2	; 0x02
    33b8:	9b 81       	ldd	r25, Y+3	; 0x03
    33ba:	cd 5c       	subi	r28, 0xCD	; 205
    33bc:	d1 40       	sbci	r29, 0x01	; 1
    33be:	a2 01       	movw	r20, r4
    33c0:	91 01       	movw	r18, r2
    33c2:	0e 94 42 3b 	call	0x7684	; 0x7684 <__mulsf3>
    33c6:	cb 57       	subi	r28, 0x7B	; 123
    33c8:	df 4f       	sbci	r29, 0xFF	; 255
    33ca:	68 83       	st	Y, r22
    33cc:	79 83       	std	Y+1, r23	; 0x01
    33ce:	8a 83       	std	Y+2, r24	; 0x02
    33d0:	9b 83       	std	Y+3, r25	; 0x03
    33d2:	c5 58       	subi	r28, 0x85	; 133
    33d4:	d0 40       	sbci	r29, 0x00	; 0
	R07.value[2][2] = cos(desiredXPosition[4]) * cos(desiredXPosition[5]);
    33d6:	c3 53       	subi	r28, 0x33	; 51
    33d8:	de 4f       	sbci	r29, 0xFE	; 254
    33da:	68 81       	ld	r22, Y
    33dc:	79 81       	ldd	r23, Y+1	; 0x01
    33de:	8a 81       	ldd	r24, Y+2	; 0x02
    33e0:	9b 81       	ldd	r25, Y+3	; 0x03
    33e2:	cd 5c       	subi	r28, 0xCD	; 205
    33e4:	d1 40       	sbci	r29, 0x01	; 1
    33e6:	c7 53       	subi	r28, 0x37	; 55
    33e8:	de 4f       	sbci	r29, 0xFE	; 254
    33ea:	28 81       	ld	r18, Y
    33ec:	39 81       	ldd	r19, Y+1	; 0x01
    33ee:	4a 81       	ldd	r20, Y+2	; 0x02
    33f0:	5b 81       	ldd	r21, Y+3	; 0x03
    33f2:	c9 5c       	subi	r28, 0xC9	; 201
    33f4:	d1 40       	sbci	r29, 0x01	; 1
    33f6:	0e 94 42 3b 	call	0x7684	; 0x7684 <__mulsf3>
    33fa:	c7 57       	subi	r28, 0x77	; 119
    33fc:	df 4f       	sbci	r29, 0xFF	; 255
    33fe:	68 83       	st	Y, r22
    3400:	79 83       	std	Y+1, r23	; 0x01
    3402:	8a 83       	std	Y+2, r24	; 0x02
    3404:	9b 83       	std	Y+3, r25	; 0x03
    3406:	c9 58       	subi	r28, 0x89	; 137
    3408:	d0 40       	sbci	r29, 0x00	; 0

	R07.value[3][3] = 1;
    340a:	80 e0       	ldi	r24, 0x00	; 0
    340c:	90 e0       	ldi	r25, 0x00	; 0
    340e:	a0 e8       	ldi	r26, 0x80	; 128
    3410:	bf e3       	ldi	r27, 0x3F	; 63
    3412:	c3 56       	subi	r28, 0x63	; 99
    3414:	df 4f       	sbci	r29, 0xFF	; 255
    3416:	88 83       	st	Y, r24
    3418:	99 83       	std	Y+1, r25	; 0x01
    341a:	aa 83       	std	Y+2, r26	; 0x02
    341c:	bb 83       	std	Y+3, r27	; 0x03
    341e:	cd 59       	subi	r28, 0x9D	; 157
    3420:	d0 40       	sbci	r29, 0x00	; 0
	//printf(" \n ");




	if(desiredXPosition[6] > M_PI) desiredXPosition[6] -= 2*M_PI;
    3422:	60 90 bc 11 	lds	r6, 0x11BC
    3426:	70 90 bd 11 	lds	r7, 0x11BD
    342a:	80 90 be 11 	lds	r8, 0x11BE
    342e:	90 90 bf 11 	lds	r9, 0x11BF
    3432:	c4 01       	movw	r24, r8
    3434:	b3 01       	movw	r22, r6
    3436:	2b ed       	ldi	r18, 0xDB	; 219
    3438:	3f e0       	ldi	r19, 0x0F	; 15
    343a:	49 e4       	ldi	r20, 0x49	; 73
    343c:	50 e4       	ldi	r21, 0x40	; 64
    343e:	0e 94 37 3b 	call	0x766e	; 0x766e <__gesf2>
    3442:	18 16       	cp	r1, r24
    3444:	84 f4       	brge	.+32     	; 0x3466 <InverseKinematics+0x44e>
    3446:	c4 01       	movw	r24, r8
    3448:	b3 01       	movw	r22, r6
    344a:	2b ed       	ldi	r18, 0xDB	; 219
    344c:	3f e0       	ldi	r19, 0x0F	; 15
    344e:	49 ec       	ldi	r20, 0xC9	; 201
    3450:	50 e4       	ldi	r21, 0x40	; 64
    3452:	0e 94 7d 38 	call	0x70fa	; 0x70fa <__subsf3>
    3456:	60 93 bc 11 	sts	0x11BC, r22
    345a:	70 93 bd 11 	sts	0x11BD, r23
    345e:	80 93 be 11 	sts	0x11BE, r24
    3462:	90 93 bf 11 	sts	0x11BF, r25
	if(desiredXPosition[6] < -M_PI) desiredXPosition[6] += 2*M_PI;
    3466:	60 90 bc 11 	lds	r6, 0x11BC
    346a:	70 90 bd 11 	lds	r7, 0x11BD
    346e:	80 90 be 11 	lds	r8, 0x11BE
    3472:	90 90 bf 11 	lds	r9, 0x11BF
    3476:	c4 01       	movw	r24, r8
    3478:	b3 01       	movw	r22, r6
    347a:	2b ed       	ldi	r18, 0xDB	; 219
    347c:	3f e0       	ldi	r19, 0x0F	; 15
    347e:	49 e4       	ldi	r20, 0x49	; 73
    3480:	50 ec       	ldi	r21, 0xC0	; 192
    3482:	0e 94 5b 39 	call	0x72b6	; 0x72b6 <__cmpsf2>
    3486:	88 23       	and	r24, r24
    3488:	84 f4       	brge	.+32     	; 0x34aa <InverseKinematics+0x492>
    348a:	c4 01       	movw	r24, r8
    348c:	b3 01       	movw	r22, r6
    348e:	2b ed       	ldi	r18, 0xDB	; 219
    3490:	3f e0       	ldi	r19, 0x0F	; 15
    3492:	49 ec       	ldi	r20, 0xC9	; 201
    3494:	50 e4       	ldi	r21, 0x40	; 64
    3496:	0e 94 7e 38 	call	0x70fc	; 0x70fc <__addsf3>
    349a:	60 93 bc 11 	sts	0x11BC, r22
    349e:	70 93 bd 11 	sts	0x11BD, r23
    34a2:	80 93 be 11 	sts	0x11BE, r24
    34a6:	90 93 bf 11 	sts	0x11BF, r25

	//printf("  DesiredXPosition6 \n ");
	//printf(" %f ",desiredXPosition[6]);

	WristPosition.value[0] = dDH[6];
    34aa:	80 91 67 0c 	lds	r24, 0x0C67
    34ae:	90 91 68 0c 	lds	r25, 0x0C68
    34b2:	a0 91 69 0c 	lds	r26, 0x0C69
    34b6:	b0 91 6a 0c 	lds	r27, 0x0C6A
    34ba:	89 83       	std	Y+1, r24	; 0x01
    34bc:	9a 83       	std	Y+2, r25	; 0x02
    34be:	ab 83       	std	Y+3, r26	; 0x03
    34c0:	bc 83       	std	Y+4, r27	; 0x04
	WristPosition.value[3] = 1;
    34c2:	80 e0       	ldi	r24, 0x00	; 0
    34c4:	90 e0       	ldi	r25, 0x00	; 0
    34c6:	a0 e8       	ldi	r26, 0x80	; 128
    34c8:	bf e3       	ldi	r27, 0x3F	; 63
    34ca:	8d 87       	std	Y+13, r24	; 0x0d
    34cc:	9e 87       	std	Y+14, r25	; 0x0e
    34ce:	af 87       	std	Y+15, r26	; 0x0f
    34d0:	b8 8b       	std	Y+16, r27	; 0x10

	WristPosition = multMV(R07,WristPosition);
    34d2:	de 01       	movw	r26, r28
    34d4:	af 59       	subi	r26, 0x9F	; 159
    34d6:	be 4f       	sbci	r27, 0xFE	; 254
    34d8:	fe 01       	movw	r30, r28
    34da:	ef 59       	subi	r30, 0x9F	; 159
    34dc:	ff 4f       	sbci	r31, 0xFF	; 255
    34de:	80 e4       	ldi	r24, 0x40	; 64
    34e0:	01 90       	ld	r0, Z+
    34e2:	0d 92       	st	X+, r0
    34e4:	81 50       	subi	r24, 0x01	; 1
    34e6:	e1 f7       	brne	.-8      	; 0x34e0 <InverseKinematics+0x4c8>
    34e8:	de 01       	movw	r26, r28
    34ea:	af 5b       	subi	r26, 0xBF	; 191
    34ec:	bf 4f       	sbci	r27, 0xFF	; 255
    34ee:	fe 01       	movw	r30, r28
    34f0:	31 96       	adiw	r30, 0x01	; 1
    34f2:	80 e1       	ldi	r24, 0x10	; 16
    34f4:	01 90       	ld	r0, Z+
    34f6:	0d 92       	st	X+, r0
    34f8:	81 50       	subi	r24, 0x01	; 1
    34fa:	e1 f7       	brne	.-8      	; 0x34f4 <InverseKinematics+0x4dc>
    34fc:	31 e5       	ldi	r19, 0x51	; 81
    34fe:	43 2e       	mov	r4, r19
    3500:	51 2c       	mov	r5, r1
    3502:	4c 0e       	add	r4, r28
    3504:	5d 1e       	adc	r5, r29
    3506:	00 e0       	ldi	r16, 0x00	; 0
    3508:	10 e0       	ldi	r17, 0x00	; 0

	//float temp[4];
	vector4 partial;
	float temp, result;

		for(int k = 0;k<4;k++)
    350a:	21 e4       	ldi	r18, 0x41	; 65
    350c:	e2 2e       	mov	r14, r18
    350e:	f1 2c       	mov	r15, r1
    3510:	ec 0e       	add	r14, r28
    3512:	fd 1e       	adc	r15, r29
			{	
				temp = 0;
				for(int l = 0;l<4;l++)
    3514:	90 e1       	ldi	r25, 0x10	; 16
    3516:	29 2e       	mov	r2, r25
    3518:	31 2c       	mov	r3, r1
    351a:	2e 0c       	add	r2, r14
    351c:	3f 1c       	adc	r3, r15
    351e:	24 c0       	rjmp	.+72     	; 0x3568 <InverseKinematics+0x550>
				{	
					temp += (b.value[k][l] * c.value[l]);
    3520:	d6 01       	movw	r26, r12
    3522:	6d 91       	ld	r22, X+
    3524:	7d 91       	ld	r23, X+
    3526:	8d 91       	ld	r24, X+
    3528:	9d 91       	ld	r25, X+
    352a:	6d 01       	movw	r12, r26
    352c:	f5 01       	movw	r30, r10
    352e:	21 91       	ld	r18, Z+
    3530:	31 91       	ld	r19, Z+
    3532:	41 91       	ld	r20, Z+
    3534:	51 91       	ld	r21, Z+
    3536:	5f 01       	movw	r10, r30
    3538:	0e 94 42 3b 	call	0x7684	; 0x7684 <__mulsf3>
    353c:	9b 01       	movw	r18, r22
    353e:	ac 01       	movw	r20, r24
    3540:	c4 01       	movw	r24, r8
    3542:	b3 01       	movw	r22, r6
    3544:	0e 94 7e 38 	call	0x70fc	; 0x70fc <__addsf3>
    3548:	3b 01       	movw	r6, r22
    354a:	4c 01       	movw	r8, r24
	float temp, result;

		for(int k = 0;k<4;k++)
			{	
				temp = 0;
				for(int l = 0;l<4;l++)
    354c:	a2 14       	cp	r10, r2
    354e:	b3 04       	cpc	r11, r3
    3550:	39 f7       	brne	.-50     	; 0x3520 <InverseKinematics+0x508>
				{	
					temp += (b.value[k][l] * c.value[l]);
				}
				partial.value[k] = temp;
    3552:	d2 01       	movw	r26, r4
    3554:	6d 93       	st	X+, r22
    3556:	7d 93       	st	X+, r23
    3558:	8d 93       	st	X+, r24
    355a:	9d 93       	st	X+, r25
    355c:	2d 01       	movw	r4, r26

	//float temp[4];
	vector4 partial;
	float temp, result;

		for(int k = 0;k<4;k++)
    355e:	0f 5f       	subi	r16, 0xFF	; 255
    3560:	1f 4f       	sbci	r17, 0xFF	; 255
    3562:	04 30       	cpi	r16, 0x04	; 4
    3564:	11 05       	cpc	r17, r1
    3566:	c1 f0       	breq	.+48     	; 0x3598 <InverseKinematics+0x580>
    3568:	68 01       	movw	r12, r16
    356a:	84 e0       	ldi	r24, 0x04	; 4
    356c:	cc 0c       	add	r12, r12
    356e:	dd 1c       	adc	r13, r13
    3570:	8a 95       	dec	r24
    3572:	e1 f7       	brne	.-8      	; 0x356c <InverseKinematics+0x554>
    3574:	e1 e6       	ldi	r30, 0x61	; 97
    3576:	f1 e0       	ldi	r31, 0x01	; 1
    3578:	ec 0f       	add	r30, r28
    357a:	fd 1f       	adc	r31, r29
    357c:	ce 0e       	add	r12, r30
    357e:	df 1e       	adc	r13, r31
    3580:	57 01       	movw	r10, r14
    3582:	0f 2e       	mov	r0, r31
    3584:	f0 e0       	ldi	r31, 0x00	; 0
    3586:	6f 2e       	mov	r6, r31
    3588:	f0 e0       	ldi	r31, 0x00	; 0
    358a:	7f 2e       	mov	r7, r31
    358c:	f0 e0       	ldi	r31, 0x00	; 0
    358e:	8f 2e       	mov	r8, r31
    3590:	f0 e0       	ldi	r31, 0x00	; 0
    3592:	9f 2e       	mov	r9, r31
    3594:	f0 2d       	mov	r31, r0
    3596:	c4 cf       	rjmp	.-120    	; 0x3520 <InverseKinematics+0x508>
		//for(int l = 0;l<4;l++)
		//	{	
		//		result += (a.value[l] * partial.value[l]);
		//	}
		//return result;
		return partial;
    3598:	de 01       	movw	r26, r28
    359a:	91 96       	adiw	r26, 0x21	; 33
    359c:	fe 01       	movw	r30, r28
    359e:	ef 5a       	subi	r30, 0xAF	; 175
    35a0:	ff 4f       	sbci	r31, 0xFF	; 255
    35a2:	80 e1       	ldi	r24, 0x10	; 16
    35a4:	01 90       	ld	r0, Z+
    35a6:	0d 92       	st	X+, r0
    35a8:	81 50       	subi	r24, 0x01	; 1
    35aa:	e1 f7       	brne	.-8      	; 0x35a4 <InverseKinematics+0x58c>
	//printf(" %f ",desiredXPosition[6]);

	WristPosition.value[0] = dDH[6];
	WristPosition.value[3] = 1;

	WristPosition = multMV(R07,WristPosition);
    35ac:	de 01       	movw	r26, r28
    35ae:	11 96       	adiw	r26, 0x01	; 1
    35b0:	fe 01       	movw	r30, r28
    35b2:	b1 96       	adiw	r30, 0x21	; 33
    35b4:	80 e1       	ldi	r24, 0x10	; 16
    35b6:	01 90       	ld	r0, Z+
    35b8:	0d 92       	st	X+, r0
    35ba:	81 50       	subi	r24, 0x01	; 1
    35bc:	e1 f7       	brne	.-8      	; 0x35b6 <InverseKinematics+0x59e>

	

	//printf("WP  %f %f %f %f \n\r",WristPosition.value[0],WristPosition.value[1],WristPosition.value[2],WristPosition.value[3]);

	desiredXPosition[0] = desiredXPosition[0] - WristPosition.value[0];
    35be:	60 91 a4 11 	lds	r22, 0x11A4
    35c2:	70 91 a5 11 	lds	r23, 0x11A5
    35c6:	80 91 a6 11 	lds	r24, 0x11A6
    35ca:	90 91 a7 11 	lds	r25, 0x11A7
    35ce:	29 81       	ldd	r18, Y+1	; 0x01
    35d0:	3a 81       	ldd	r19, Y+2	; 0x02
    35d2:	4b 81       	ldd	r20, Y+3	; 0x03
    35d4:	5c 81       	ldd	r21, Y+4	; 0x04
    35d6:	0e 94 7d 38 	call	0x70fa	; 0x70fa <__subsf3>
    35da:	cb 52       	subi	r28, 0x2B	; 43
    35dc:	de 4f       	sbci	r29, 0xFE	; 254
    35de:	68 83       	st	Y, r22
    35e0:	79 83       	std	Y+1, r23	; 0x01
    35e2:	8a 83       	std	Y+2, r24	; 0x02
    35e4:	9b 83       	std	Y+3, r25	; 0x03
    35e6:	c5 5d       	subi	r28, 0xD5	; 213
    35e8:	d1 40       	sbci	r29, 0x01	; 1
	desiredXPosition[1] = desiredXPosition[1] - WristPosition.value[1];
    35ea:	60 91 a8 11 	lds	r22, 0x11A8
    35ee:	70 91 a9 11 	lds	r23, 0x11A9
    35f2:	80 91 aa 11 	lds	r24, 0x11AA
    35f6:	90 91 ab 11 	lds	r25, 0x11AB
    35fa:	2d 81       	ldd	r18, Y+5	; 0x05
    35fc:	3e 81       	ldd	r19, Y+6	; 0x06
    35fe:	4f 81       	ldd	r20, Y+7	; 0x07
    3600:	58 85       	ldd	r21, Y+8	; 0x08
    3602:	0e 94 7d 38 	call	0x70fa	; 0x70fa <__subsf3>
    3606:	c7 52       	subi	r28, 0x27	; 39
    3608:	de 4f       	sbci	r29, 0xFE	; 254
    360a:	68 83       	st	Y, r22
    360c:	79 83       	std	Y+1, r23	; 0x01
    360e:	8a 83       	std	Y+2, r24	; 0x02
    3610:	9b 83       	std	Y+3, r25	; 0x03
    3612:	c9 5d       	subi	r28, 0xD9	; 217
    3614:	d1 40       	sbci	r29, 0x01	; 1
	desiredXPosition[2] = desiredXPosition[2] - WristPosition.value[2];
    3616:	60 91 ac 11 	lds	r22, 0x11AC
    361a:	70 91 ad 11 	lds	r23, 0x11AD
    361e:	80 91 ae 11 	lds	r24, 0x11AE
    3622:	90 91 af 11 	lds	r25, 0x11AF
    3626:	29 85       	ldd	r18, Y+9	; 0x09
    3628:	3a 85       	ldd	r19, Y+10	; 0x0a
    362a:	4b 85       	ldd	r20, Y+11	; 0x0b
    362c:	5c 85       	ldd	r21, Y+12	; 0x0c
    362e:	0e 94 7d 38 	call	0x70fa	; 0x70fa <__subsf3>
    3632:	c3 52       	subi	r28, 0x23	; 35
    3634:	de 4f       	sbci	r29, 0xFE	; 254
    3636:	68 83       	st	Y, r22
    3638:	cd 5d       	subi	r28, 0xDD	; 221
    363a:	d1 40       	sbci	r29, 0x01	; 1
    363c:	c2 52       	subi	r28, 0x22	; 34
    363e:	de 4f       	sbci	r29, 0xFE	; 254
    3640:	78 83       	st	Y, r23
    3642:	ce 5d       	subi	r28, 0xDE	; 222
    3644:	d1 40       	sbci	r29, 0x01	; 1
    3646:	c1 52       	subi	r28, 0x21	; 33
    3648:	de 4f       	sbci	r29, 0xFE	; 254
    364a:	88 83       	st	Y, r24
    364c:	cf 5d       	subi	r28, 0xDF	; 223
    364e:	d1 40       	sbci	r29, 0x01	; 1
    3650:	c0 52       	subi	r28, 0x20	; 32
    3652:	de 4f       	sbci	r29, 0xFE	; 254
    3654:	98 83       	st	Y, r25
    3656:	c0 5e       	subi	r28, 0xE0	; 224
    3658:	d1 40       	sbci	r29, 0x01	; 1
    365a:	96 2e       	mov	r9, r22
    365c:	87 2e       	mov	r8, r23
    365e:	78 2e       	mov	r7, r24
    3660:	69 2e       	mov	r6, r25
    3662:	86 2f       	mov	r24, r22
    3664:	98 2d       	mov	r25, r8
    3666:	a7 2d       	mov	r26, r7
    3668:	b6 2d       	mov	r27, r6
    366a:	80 93 ac 11 	sts	0x11AC, r24
    366e:	90 93 ad 11 	sts	0x11AD, r25
    3672:	a0 93 ae 11 	sts	0x11AE, r26
    3676:	b0 93 af 11 	sts	0x11AF, r27
	WristPosition.value[2] = desiredXPosition[2];
	WristPosition.value[3] = 1;

	

	desiredQPosition[0] = atan2(desiredXPosition[1],desiredXPosition[0]);
    367a:	c7 52       	subi	r28, 0x27	; 39
    367c:	de 4f       	sbci	r29, 0xFE	; 254
    367e:	68 81       	ld	r22, Y
    3680:	79 81       	ldd	r23, Y+1	; 0x01
    3682:	8a 81       	ldd	r24, Y+2	; 0x02
    3684:	9b 81       	ldd	r25, Y+3	; 0x03
    3686:	c9 5d       	subi	r28, 0xD9	; 217
    3688:	d1 40       	sbci	r29, 0x01	; 1
    368a:	cb 52       	subi	r28, 0x2B	; 43
    368c:	de 4f       	sbci	r29, 0xFE	; 254
    368e:	28 81       	ld	r18, Y
    3690:	39 81       	ldd	r19, Y+1	; 0x01
    3692:	4a 81       	ldd	r20, Y+2	; 0x02
    3694:	5b 81       	ldd	r21, Y+3	; 0x03
    3696:	c5 5d       	subi	r28, 0xD5	; 213
    3698:	d1 40       	sbci	r29, 0x01	; 1
    369a:	0e 94 08 39 	call	0x7210	; 0x7210 <atan2>
    369e:	cf 53       	subi	r28, 0x3F	; 63
    36a0:	de 4f       	sbci	r29, 0xFE	; 254
    36a2:	68 83       	st	Y, r22
    36a4:	79 83       	std	Y+1, r23	; 0x01
    36a6:	8a 83       	std	Y+2, r24	; 0x02
    36a8:	9b 83       	std	Y+3, r25	; 0x03
    36aa:	c1 5c       	subi	r28, 0xC1	; 193
    36ac:	d1 40       	sbci	r29, 0x01	; 1
    36ae:	60 93 50 11 	sts	0x1150, r22
    36b2:	70 93 51 11 	sts	0x1151, r23
    36b6:	80 93 52 11 	sts	0x1152, r24
    36ba:	90 93 53 11 	sts	0x1153, r25

	//CORRECCION
	desiredXPosition[0] = desiredXPosition[0] -  aDH[0] * cos(desiredQPosition[0]);
    36be:	0e 94 5f 39 	call	0x72be	; 0x72be <cos>
    36c2:	20 91 c9 10 	lds	r18, 0x10C9
    36c6:	30 91 ca 10 	lds	r19, 0x10CA
    36ca:	40 91 cb 10 	lds	r20, 0x10CB
    36ce:	50 91 cc 10 	lds	r21, 0x10CC
    36d2:	0e 94 42 3b 	call	0x7684	; 0x7684 <__mulsf3>
    36d6:	9b 01       	movw	r18, r22
    36d8:	ac 01       	movw	r20, r24
    36da:	cb 52       	subi	r28, 0x2B	; 43
    36dc:	de 4f       	sbci	r29, 0xFE	; 254
    36de:	68 81       	ld	r22, Y
    36e0:	79 81       	ldd	r23, Y+1	; 0x01
    36e2:	8a 81       	ldd	r24, Y+2	; 0x02
    36e4:	9b 81       	ldd	r25, Y+3	; 0x03
    36e6:	c5 5d       	subi	r28, 0xD5	; 213
    36e8:	d1 40       	sbci	r29, 0x01	; 1
    36ea:	0e 94 7d 38 	call	0x70fa	; 0x70fa <__subsf3>
    36ee:	5b 01       	movw	r10, r22
    36f0:	6c 01       	movw	r12, r24
    36f2:	60 93 a4 11 	sts	0x11A4, r22
    36f6:	70 93 a5 11 	sts	0x11A5, r23
    36fa:	80 93 a6 11 	sts	0x11A6, r24
    36fe:	90 93 a7 11 	sts	0x11A7, r25
	desiredXPosition[1] = desiredXPosition[1] -  aDH[0] * sin(desiredQPosition[0]);
    3702:	cf 53       	subi	r28, 0x3F	; 63
    3704:	de 4f       	sbci	r29, 0xFE	; 254
    3706:	68 81       	ld	r22, Y
    3708:	79 81       	ldd	r23, Y+1	; 0x01
    370a:	8a 81       	ldd	r24, Y+2	; 0x02
    370c:	9b 81       	ldd	r25, Y+3	; 0x03
    370e:	c1 5c       	subi	r28, 0xC1	; 193
    3710:	d1 40       	sbci	r29, 0x01	; 1
    3712:	0e 94 a5 3b 	call	0x774a	; 0x774a <sin>
    3716:	20 91 c9 10 	lds	r18, 0x10C9
    371a:	30 91 ca 10 	lds	r19, 0x10CA
    371e:	40 91 cb 10 	lds	r20, 0x10CB
    3722:	50 91 cc 10 	lds	r21, 0x10CC
    3726:	0e 94 42 3b 	call	0x7684	; 0x7684 <__mulsf3>
    372a:	9b 01       	movw	r18, r22
    372c:	ac 01       	movw	r20, r24
    372e:	c7 52       	subi	r28, 0x27	; 39
    3730:	de 4f       	sbci	r29, 0xFE	; 254
    3732:	68 81       	ld	r22, Y
    3734:	79 81       	ldd	r23, Y+1	; 0x01
    3736:	8a 81       	ldd	r24, Y+2	; 0x02
    3738:	9b 81       	ldd	r25, Y+3	; 0x03
    373a:	c9 5d       	subi	r28, 0xD9	; 217
    373c:	d1 40       	sbci	r29, 0x01	; 1
    373e:	0e 94 7d 38 	call	0x70fa	; 0x70fa <__subsf3>
    3742:	7b 01       	movw	r14, r22
    3744:	8c 01       	movw	r16, r24
    3746:	60 93 a8 11 	sts	0x11A8, r22
    374a:	70 93 a9 11 	sts	0x11A9, r23
    374e:	80 93 aa 11 	sts	0x11AA, r24
    3752:	90 93 ab 11 	sts	0x11AB, r25

	// FIN CORRECCION
	r = sqrt( desiredXPosition[0]*desiredXPosition[0] + desiredXPosition[1]*desiredXPosition[1] + (desiredXPosition[2] - dDH[0])*(desiredXPosition[2] - dDH[0]));
    3756:	80 91 4f 0c 	lds	r24, 0x0C4F
    375a:	90 91 50 0c 	lds	r25, 0x0C50
    375e:	a0 91 51 0c 	lds	r26, 0x0C51
    3762:	b0 91 52 0c 	lds	r27, 0x0C52
    3766:	c3 54       	subi	r28, 0x43	; 67
    3768:	de 4f       	sbci	r29, 0xFE	; 254
    376a:	88 83       	st	Y, r24
    376c:	99 83       	std	Y+1, r25	; 0x01
    376e:	aa 83       	std	Y+2, r26	; 0x02
    3770:	bb 83       	std	Y+3, r27	; 0x03
    3772:	cd 5b       	subi	r28, 0xBD	; 189
    3774:	d1 40       	sbci	r29, 0x01	; 1
    3776:	69 2d       	mov	r22, r9
    3778:	78 2d       	mov	r23, r8
    377a:	87 2d       	mov	r24, r7
    377c:	96 2d       	mov	r25, r6
    377e:	c3 54       	subi	r28, 0x43	; 67
    3780:	de 4f       	sbci	r29, 0xFE	; 254
    3782:	28 81       	ld	r18, Y
    3784:	39 81       	ldd	r19, Y+1	; 0x01
    3786:	4a 81       	ldd	r20, Y+2	; 0x02
    3788:	5b 81       	ldd	r21, Y+3	; 0x03
    378a:	cd 5b       	subi	r28, 0xBD	; 189
    378c:	d1 40       	sbci	r29, 0x01	; 1
    378e:	0e 94 7d 38 	call	0x70fa	; 0x70fa <__subsf3>
    3792:	1b 01       	movw	r2, r22
    3794:	2c 01       	movw	r4, r24
    3796:	c6 01       	movw	r24, r12
    3798:	b5 01       	movw	r22, r10
    379a:	a6 01       	movw	r20, r12
    379c:	95 01       	movw	r18, r10
    379e:	0e 94 42 3b 	call	0x7684	; 0x7684 <__mulsf3>
    37a2:	3b 01       	movw	r6, r22
    37a4:	4c 01       	movw	r8, r24
    37a6:	c8 01       	movw	r24, r16
    37a8:	b7 01       	movw	r22, r14
    37aa:	a8 01       	movw	r20, r16
    37ac:	97 01       	movw	r18, r14
    37ae:	0e 94 42 3b 	call	0x7684	; 0x7684 <__mulsf3>
    37b2:	5b 01       	movw	r10, r22
    37b4:	6c 01       	movw	r12, r24
    37b6:	c4 01       	movw	r24, r8
    37b8:	b3 01       	movw	r22, r6
    37ba:	a6 01       	movw	r20, r12
    37bc:	95 01       	movw	r18, r10
    37be:	0e 94 7e 38 	call	0x70fc	; 0x70fc <__addsf3>
    37c2:	7b 01       	movw	r14, r22
    37c4:	8c 01       	movw	r16, r24
    37c6:	c2 01       	movw	r24, r4
    37c8:	b1 01       	movw	r22, r2
    37ca:	a2 01       	movw	r20, r4
    37cc:	91 01       	movw	r18, r2
    37ce:	0e 94 42 3b 	call	0x7684	; 0x7684 <__mulsf3>
    37d2:	9b 01       	movw	r18, r22
    37d4:	ac 01       	movw	r20, r24
    37d6:	c8 01       	movw	r24, r16
    37d8:	b7 01       	movw	r22, r14
    37da:	0e 94 7e 38 	call	0x70fc	; 0x70fc <__addsf3>
    37de:	0e 94 af 3b 	call	0x775e	; 0x775e <sqrt>
    37e2:	c3 55       	subi	r28, 0x53	; 83
    37e4:	de 4f       	sbci	r29, 0xFE	; 254
    37e6:	68 83       	st	Y, r22
    37e8:	79 83       	std	Y+1, r23	; 0x01
    37ea:	8a 83       	std	Y+2, r24	; 0x02
    37ec:	9b 83       	std	Y+3, r25	; 0x03
    37ee:	cd 5a       	subi	r28, 0xAD	; 173
    37f0:	d1 40       	sbci	r29, 0x01	; 1
	
	//printf("d q %f %f %f %f %f %f %f \n\r",desiredQPosition[0],desiredQPosition[1],desiredQPosition[2],desiredQPosition[3],desiredQPosition[4],desiredQPosition[5],desiredQPosition[6]);

	//printf("r= %f \n\f",r);

	if (r >= (dDH[2] + dDH[4]))
    37f2:	80 91 57 0c 	lds	r24, 0x0C57
    37f6:	90 91 58 0c 	lds	r25, 0x0C58
    37fa:	a0 91 59 0c 	lds	r26, 0x0C59
    37fe:	b0 91 5a 0c 	lds	r27, 0x0C5A
    3802:	c7 54       	subi	r28, 0x47	; 71
    3804:	de 4f       	sbci	r29, 0xFE	; 254
    3806:	88 83       	st	Y, r24
    3808:	99 83       	std	Y+1, r25	; 0x01
    380a:	aa 83       	std	Y+2, r26	; 0x02
    380c:	bb 83       	std	Y+3, r27	; 0x03
    380e:	c9 5b       	subi	r28, 0xB9	; 185
    3810:	d1 40       	sbci	r29, 0x01	; 1
    3812:	80 91 5f 0c 	lds	r24, 0x0C5F
    3816:	90 91 60 0c 	lds	r25, 0x0C60
    381a:	a0 91 61 0c 	lds	r26, 0x0C61
    381e:	b0 91 62 0c 	lds	r27, 0x0C62
    3822:	cb 54       	subi	r28, 0x4B	; 75
    3824:	de 4f       	sbci	r29, 0xFE	; 254
    3826:	88 83       	st	Y, r24
    3828:	99 83       	std	Y+1, r25	; 0x01
    382a:	aa 83       	std	Y+2, r26	; 0x02
    382c:	bb 83       	std	Y+3, r27	; 0x03
    382e:	c5 5b       	subi	r28, 0xB5	; 181
    3830:	d1 40       	sbci	r29, 0x01	; 1
    3832:	c7 54       	subi	r28, 0x47	; 71
    3834:	de 4f       	sbci	r29, 0xFE	; 254
    3836:	68 81       	ld	r22, Y
    3838:	79 81       	ldd	r23, Y+1	; 0x01
    383a:	8a 81       	ldd	r24, Y+2	; 0x02
    383c:	9b 81       	ldd	r25, Y+3	; 0x03
    383e:	c9 5b       	subi	r28, 0xB9	; 185
    3840:	d1 40       	sbci	r29, 0x01	; 1
    3842:	cb 54       	subi	r28, 0x4B	; 75
    3844:	de 4f       	sbci	r29, 0xFE	; 254
    3846:	28 81       	ld	r18, Y
    3848:	39 81       	ldd	r19, Y+1	; 0x01
    384a:	4a 81       	ldd	r20, Y+2	; 0x02
    384c:	5b 81       	ldd	r21, Y+3	; 0x03
    384e:	c5 5b       	subi	r28, 0xB5	; 181
    3850:	d1 40       	sbci	r29, 0x01	; 1
    3852:	0e 94 7e 38 	call	0x70fc	; 0x70fc <__addsf3>
    3856:	9b 01       	movw	r18, r22
    3858:	ac 01       	movw	r20, r24
    385a:	c3 55       	subi	r28, 0x53	; 83
    385c:	de 4f       	sbci	r29, 0xFE	; 254
    385e:	68 81       	ld	r22, Y
    3860:	79 81       	ldd	r23, Y+1	; 0x01
    3862:	8a 81       	ldd	r24, Y+2	; 0x02
    3864:	9b 81       	ldd	r25, Y+3	; 0x03
    3866:	cd 5a       	subi	r28, 0xAD	; 173
    3868:	d1 40       	sbci	r29, 0x01	; 1
    386a:	0e 94 37 3b 	call	0x766e	; 0x766e <__gesf2>
    386e:	88 23       	and	r24, r24
    3870:	cc f0       	brlt	.+50     	; 0x38a4 <InverseKinematics+0x88c>
    3872:	40 e0       	ldi	r20, 0x00	; 0
    3874:	50 e0       	ldi	r21, 0x00	; 0
	{
	
		for(int i = 0;i<DOF;i++)
		{
			desiredQPosition[i] = currentQPosition[i];
    3876:	9a 01       	movw	r18, r20
    3878:	20 5b       	subi	r18, 0xB0	; 176
    387a:	3e 4e       	sbci	r19, 0xEE	; 238
    387c:	fa 01       	movw	r30, r20
    387e:	eb 51       	subi	r30, 0x1B	; 27
    3880:	ff 4e       	sbci	r31, 0xEF	; 239
    3882:	80 81       	ld	r24, Z
    3884:	91 81       	ldd	r25, Z+1	; 0x01
    3886:	a2 81       	ldd	r26, Z+2	; 0x02
    3888:	b3 81       	ldd	r27, Z+3	; 0x03
    388a:	f9 01       	movw	r30, r18
    388c:	80 83       	st	Z, r24
    388e:	91 83       	std	Z+1, r25	; 0x01
    3890:	a2 83       	std	Z+2, r26	; 0x02
    3892:	b3 83       	std	Z+3, r27	; 0x03
    3894:	4c 5f       	subi	r20, 0xFC	; 252
    3896:	5f 4f       	sbci	r21, 0xFF	; 255
	//printf("r= %f \n\f",r);

	if (r >= (dDH[2] + dDH[4]))
	{
	
		for(int i = 0;i<DOF;i++)
    3898:	4c 31       	cpi	r20, 0x1C	; 28
    389a:	51 05       	cpc	r21, r1
    389c:	61 f7       	brne	.-40     	; 0x3876 <InverseKinematics+0x85e>

		}

		CalculateHT(1);
		printf("dINV qF %f %f %f %f %f %f %f \r",desiredQPosition[0],desiredQPosition[1],desiredQPosition[2],desiredQPosition[3],desiredQPosition[4],desiredQPosition[5],desiredQPosition[6]);
}
    389e:	80 e0       	ldi	r24, 0x00	; 0
    38a0:	90 e0       	ldi	r25, 0x00	; 0
    38a2:	07 c6       	rjmp	.+3086   	; 0x44b2 <InverseKinematics+0x149a>
		//printf("regreso %f %f %f %f %f %f %f \n\r",desiredQPosition[0],desiredQPosition[1],desiredQPosition[2],desiredQPosition[3],desiredQPosition[4],desiredQPosition[5],desiredQPosition[6]);
		return 0;
	}
	

	alpha = atan2((desiredXPosition[2] - dDH[0]), sqrt(pow(desiredXPosition[0],2) + pow(desiredXPosition[1],2))); 
    38a4:	b3 01       	movw	r22, r6
    38a6:	c4 01       	movw	r24, r8
    38a8:	95 01       	movw	r18, r10
    38aa:	a6 01       	movw	r20, r12
    38ac:	0e 94 7e 38 	call	0x70fc	; 0x70fc <__addsf3>
    38b0:	0e 94 af 3b 	call	0x775e	; 0x775e <sqrt>
    38b4:	9b 01       	movw	r18, r22
    38b6:	ac 01       	movw	r20, r24
    38b8:	c2 01       	movw	r24, r4
    38ba:	b1 01       	movw	r22, r2
    38bc:	0e 94 08 39 	call	0x7210	; 0x7210 <atan2>
    38c0:	2b 01       	movw	r4, r22
    38c2:	3c 01       	movw	r6, r24
	gamma = acos((-dDH[2] * dDH[2] - dDH[4] * dDH[4] + r * r) / (-2 * dDH[2] * dDH[4]));
    38c4:	c7 54       	subi	r28, 0x47	; 71
    38c6:	de 4f       	sbci	r29, 0xFE	; 254
    38c8:	68 81       	ld	r22, Y
    38ca:	79 81       	ldd	r23, Y+1	; 0x01
    38cc:	8a 81       	ldd	r24, Y+2	; 0x02
    38ce:	9b 81       	ldd	r25, Y+3	; 0x03
    38d0:	c9 5b       	subi	r28, 0xB9	; 185
    38d2:	d1 40       	sbci	r29, 0x01	; 1
    38d4:	90 58       	subi	r25, 0x80	; 128
    38d6:	c7 54       	subi	r28, 0x47	; 71
    38d8:	de 4f       	sbci	r29, 0xFE	; 254
    38da:	28 81       	ld	r18, Y
    38dc:	39 81       	ldd	r19, Y+1	; 0x01
    38de:	4a 81       	ldd	r20, Y+2	; 0x02
    38e0:	5b 81       	ldd	r21, Y+3	; 0x03
    38e2:	c9 5b       	subi	r28, 0xB9	; 185
    38e4:	d1 40       	sbci	r29, 0x01	; 1
    38e6:	0e 94 42 3b 	call	0x7684	; 0x7684 <__mulsf3>
    38ea:	7b 01       	movw	r14, r22
    38ec:	8c 01       	movw	r16, r24
    38ee:	cb 54       	subi	r28, 0x4B	; 75
    38f0:	de 4f       	sbci	r29, 0xFE	; 254
    38f2:	68 81       	ld	r22, Y
    38f4:	79 81       	ldd	r23, Y+1	; 0x01
    38f6:	8a 81       	ldd	r24, Y+2	; 0x02
    38f8:	9b 81       	ldd	r25, Y+3	; 0x03
    38fa:	c5 5b       	subi	r28, 0xB5	; 181
    38fc:	d1 40       	sbci	r29, 0x01	; 1
    38fe:	9b 01       	movw	r18, r22
    3900:	ac 01       	movw	r20, r24
    3902:	0e 94 42 3b 	call	0x7684	; 0x7684 <__mulsf3>
    3906:	9b 01       	movw	r18, r22
    3908:	ac 01       	movw	r20, r24
    390a:	c8 01       	movw	r24, r16
    390c:	b7 01       	movw	r22, r14
    390e:	0e 94 7d 38 	call	0x70fa	; 0x70fa <__subsf3>
    3912:	7b 01       	movw	r14, r22
    3914:	8c 01       	movw	r16, r24
    3916:	c3 55       	subi	r28, 0x53	; 83
    3918:	de 4f       	sbci	r29, 0xFE	; 254
    391a:	68 81       	ld	r22, Y
    391c:	79 81       	ldd	r23, Y+1	; 0x01
    391e:	8a 81       	ldd	r24, Y+2	; 0x02
    3920:	9b 81       	ldd	r25, Y+3	; 0x03
    3922:	cd 5a       	subi	r28, 0xAD	; 173
    3924:	d1 40       	sbci	r29, 0x01	; 1
    3926:	9b 01       	movw	r18, r22
    3928:	ac 01       	movw	r20, r24
    392a:	0e 94 42 3b 	call	0x7684	; 0x7684 <__mulsf3>
    392e:	9b 01       	movw	r18, r22
    3930:	ac 01       	movw	r20, r24
    3932:	c8 01       	movw	r24, r16
    3934:	b7 01       	movw	r22, r14
    3936:	0e 94 7e 38 	call	0x70fc	; 0x70fc <__addsf3>
    393a:	7b 01       	movw	r14, r22
    393c:	8c 01       	movw	r16, r24
    393e:	c7 54       	subi	r28, 0x47	; 71
    3940:	de 4f       	sbci	r29, 0xFE	; 254
    3942:	68 81       	ld	r22, Y
    3944:	79 81       	ldd	r23, Y+1	; 0x01
    3946:	8a 81       	ldd	r24, Y+2	; 0x02
    3948:	9b 81       	ldd	r25, Y+3	; 0x03
    394a:	c9 5b       	subi	r28, 0xB9	; 185
    394c:	d1 40       	sbci	r29, 0x01	; 1
    394e:	20 e0       	ldi	r18, 0x00	; 0
    3950:	30 e0       	ldi	r19, 0x00	; 0
    3952:	40 e0       	ldi	r20, 0x00	; 0
    3954:	50 ec       	ldi	r21, 0xC0	; 192
    3956:	0e 94 42 3b 	call	0x7684	; 0x7684 <__mulsf3>
    395a:	cb 54       	subi	r28, 0x4B	; 75
    395c:	de 4f       	sbci	r29, 0xFE	; 254
    395e:	28 81       	ld	r18, Y
    3960:	39 81       	ldd	r19, Y+1	; 0x01
    3962:	4a 81       	ldd	r20, Y+2	; 0x02
    3964:	5b 81       	ldd	r21, Y+3	; 0x03
    3966:	c5 5b       	subi	r28, 0xB5	; 181
    3968:	d1 40       	sbci	r29, 0x01	; 1
    396a:	0e 94 42 3b 	call	0x7684	; 0x7684 <__mulsf3>
    396e:	9b 01       	movw	r18, r22
    3970:	ac 01       	movw	r20, r24
    3972:	c8 01       	movw	r24, r16
    3974:	b7 01       	movw	r22, r14
    3976:	0e 94 62 39 	call	0x72c4	; 0x72c4 <__divsf3>
    397a:	0e 94 6f 38 	call	0x70de	; 0x70de <acos>
	beta = asin(dDH[4] * sin(gamma) / r);
    397e:	0e 94 a5 3b 	call	0x774a	; 0x774a <sin>
    3982:	9b 01       	movw	r18, r22
    3984:	ac 01       	movw	r20, r24
    3986:	cb 54       	subi	r28, 0x4B	; 75
    3988:	de 4f       	sbci	r29, 0xFE	; 254
    398a:	68 81       	ld	r22, Y
    398c:	79 81       	ldd	r23, Y+1	; 0x01
    398e:	8a 81       	ldd	r24, Y+2	; 0x02
    3990:	9b 81       	ldd	r25, Y+3	; 0x03
    3992:	c5 5b       	subi	r28, 0xB5	; 181
    3994:	d1 40       	sbci	r29, 0x01	; 1
    3996:	0e 94 42 3b 	call	0x7684	; 0x7684 <__mulsf3>
    399a:	c3 55       	subi	r28, 0x53	; 83
    399c:	de 4f       	sbci	r29, 0xFE	; 254
    399e:	28 81       	ld	r18, Y
    39a0:	39 81       	ldd	r19, Y+1	; 0x01
    39a2:	4a 81       	ldd	r20, Y+2	; 0x02
    39a4:	5b 81       	ldd	r21, Y+3	; 0x03
    39a6:	cd 5a       	subi	r28, 0xAD	; 173
    39a8:	d1 40       	sbci	r29, 0x01	; 1
    39aa:	0e 94 62 39 	call	0x72c4	; 0x72c4 <__divsf3>
    39ae:	0e 94 e2 38 	call	0x71c4	; 0x71c4 <asin>
    39b2:	c7 55       	subi	r28, 0x57	; 87
    39b4:	de 4f       	sbci	r29, 0xFE	; 254
    39b6:	68 83       	st	Y, r22
    39b8:	79 83       	std	Y+1, r23	; 0x01
    39ba:	8a 83       	std	Y+2, r24	; 0x02
    39bc:	9b 83       	std	Y+3, r25	; 0x03
    39be:	c9 5a       	subi	r28, 0xA9	; 169
    39c0:	d1 40       	sbci	r29, 0x01	; 1

	//printf("agb: %f %f %f \n\f",alpha, gamma, beta);	

	//Esto siempre es considerando la solucin de codo arriba, hay que checar que onda con la 
	//otra solucin
	tunningRadiusElbow = dDH[2] * sin(beta);
    39c2:	0e 94 a5 3b 	call	0x774a	; 0x774a <sin>
    39c6:	9b 01       	movw	r18, r22
    39c8:	ac 01       	movw	r20, r24

	//printf("tunning= %f \n\f",tunningRadiusElbow);	

	//Posicin del codo con respecto al sistema Oelbow
	Pelbow.value[0] = 0;
    39ca:	80 e0       	ldi	r24, 0x00	; 0
    39cc:	90 e0       	ldi	r25, 0x00	; 0
    39ce:	a0 e0       	ldi	r26, 0x00	; 0
    39d0:	b0 e0       	ldi	r27, 0x00	; 0
    39d2:	89 8b       	std	Y+17, r24	; 0x11
    39d4:	9a 8b       	std	Y+18, r25	; 0x12
    39d6:	ab 8b       	std	Y+19, r26	; 0x13
    39d8:	bc 8b       	std	Y+20, r27	; 0x14
	Pelbow.value[1] = -tunningRadiusElbow * cos(desiredXPosition[6]);
    39da:	c7 54       	subi	r28, 0x47	; 71
    39dc:	de 4f       	sbci	r29, 0xFE	; 254
    39de:	68 81       	ld	r22, Y
    39e0:	79 81       	ldd	r23, Y+1	; 0x01
    39e2:	8a 81       	ldd	r24, Y+2	; 0x02
    39e4:	9b 81       	ldd	r25, Y+3	; 0x03
    39e6:	c9 5b       	subi	r28, 0xB9	; 185
    39e8:	d1 40       	sbci	r29, 0x01	; 1
    39ea:	0e 94 42 3b 	call	0x7684	; 0x7684 <__mulsf3>
    39ee:	7b 01       	movw	r14, r22
    39f0:	8c 01       	movw	r16, r24
    39f2:	17 fb       	bst	r17, 7
    39f4:	10 95       	com	r17
    39f6:	17 f9       	bld	r17, 7
    39f8:	10 95       	com	r17
    39fa:	a0 90 bc 11 	lds	r10, 0x11BC
    39fe:	b0 90 bd 11 	lds	r11, 0x11BD
    3a02:	c0 90 be 11 	lds	r12, 0x11BE
    3a06:	d0 90 bf 11 	lds	r13, 0x11BF
    3a0a:	c6 01       	movw	r24, r12
    3a0c:	b5 01       	movw	r22, r10
    3a0e:	0e 94 5f 39 	call	0x72be	; 0x72be <cos>
    3a12:	9b 01       	movw	r18, r22
    3a14:	ac 01       	movw	r20, r24
    3a16:	c8 01       	movw	r24, r16
    3a18:	b7 01       	movw	r22, r14
    3a1a:	0e 94 42 3b 	call	0x7684	; 0x7684 <__mulsf3>
    3a1e:	6d 8b       	std	Y+21, r22	; 0x15
    3a20:	7e 8b       	std	Y+22, r23	; 0x16
    3a22:	8f 8b       	std	Y+23, r24	; 0x17
    3a24:	98 8f       	std	Y+24, r25	; 0x18
	Pelbow.value[2] = -tunningRadiusElbow * sin(desiredXPosition[6]);
    3a26:	c6 01       	movw	r24, r12
    3a28:	b5 01       	movw	r22, r10
    3a2a:	0e 94 a5 3b 	call	0x774a	; 0x774a <sin>
    3a2e:	9b 01       	movw	r18, r22
    3a30:	ac 01       	movw	r20, r24
    3a32:	c8 01       	movw	r24, r16
    3a34:	b7 01       	movw	r22, r14
    3a36:	0e 94 42 3b 	call	0x7684	; 0x7684 <__mulsf3>
    3a3a:	69 8f       	std	Y+25, r22	; 0x19
    3a3c:	7a 8f       	std	Y+26, r23	; 0x1a
    3a3e:	8b 8f       	std	Y+27, r24	; 0x1b
    3a40:	9c 8f       	std	Y+28, r25	; 0x1c
	Pelbow.value[3] = 1;
    3a42:	80 e0       	ldi	r24, 0x00	; 0
    3a44:	90 e0       	ldi	r25, 0x00	; 0
    3a46:	a0 e8       	ldi	r26, 0x80	; 128
    3a48:	bf e3       	ldi	r27, 0x3F	; 63
    3a4a:	8d 8f       	std	Y+29, r24	; 0x1d
    3a4c:	9e 8f       	std	Y+30, r25	; 0x1e
    3a4e:	af 8f       	std	Y+31, r26	; 0x1f
    3a50:	b8 a3       	std	Y+32, r27	; 0x20

	
	//printf("Pelbow  %f %f %f %f \n\r",Pelbow.value[0],Pelbow.value[1],Pelbow.value[2],Pelbow.value[3]);

	//Transformacin del sistema sobre el que gira el codo al sistema base
	oRe.value[0][0] = cos(desiredQPosition[0]) * cos(-alpha);
    3a52:	cf 53       	subi	r28, 0x3F	; 63
    3a54:	de 4f       	sbci	r29, 0xFE	; 254
    3a56:	68 81       	ld	r22, Y
    3a58:	79 81       	ldd	r23, Y+1	; 0x01
    3a5a:	8a 81       	ldd	r24, Y+2	; 0x02
    3a5c:	9b 81       	ldd	r25, Y+3	; 0x03
    3a5e:	c1 5c       	subi	r28, 0xC1	; 193
    3a60:	d1 40       	sbci	r29, 0x01	; 1
    3a62:	0e 94 5f 39 	call	0x72be	; 0x72be <cos>
    3a66:	cb 55       	subi	r28, 0x5B	; 91
    3a68:	de 4f       	sbci	r29, 0xFE	; 254
    3a6a:	68 83       	st	Y, r22
    3a6c:	79 83       	std	Y+1, r23	; 0x01
    3a6e:	8a 83       	std	Y+2, r24	; 0x02
    3a70:	9b 83       	std	Y+3, r25	; 0x03
    3a72:	c5 5a       	subi	r28, 0xA5	; 165
    3a74:	d1 40       	sbci	r29, 0x01	; 1
    3a76:	c3 01       	movw	r24, r6
    3a78:	b2 01       	movw	r22, r4
    3a7a:	0e 94 5f 39 	call	0x72be	; 0x72be <cos>
    3a7e:	4b 01       	movw	r8, r22
    3a80:	5c 01       	movw	r10, r24
    3a82:	11 e2       	ldi	r17, 0x21	; 33
    3a84:	c1 2e       	mov	r12, r17
    3a86:	11 e0       	ldi	r17, 0x01	; 1
    3a88:	d1 2e       	mov	r13, r17
    3a8a:	cc 0e       	add	r12, r28
    3a8c:	dd 1e       	adc	r13, r29
    3a8e:	cb 55       	subi	r28, 0x5B	; 91
    3a90:	de 4f       	sbci	r29, 0xFE	; 254
    3a92:	68 81       	ld	r22, Y
    3a94:	79 81       	ldd	r23, Y+1	; 0x01
    3a96:	8a 81       	ldd	r24, Y+2	; 0x02
    3a98:	9b 81       	ldd	r25, Y+3	; 0x03
    3a9a:	c5 5a       	subi	r28, 0xA5	; 165
    3a9c:	d1 40       	sbci	r29, 0x01	; 1
    3a9e:	a5 01       	movw	r20, r10
    3aa0:	94 01       	movw	r18, r8
    3aa2:	0e 94 42 3b 	call	0x7684	; 0x7684 <__mulsf3>
    3aa6:	d6 01       	movw	r26, r12
    3aa8:	6d 93       	st	X+, r22
    3aaa:	7d 93       	st	X+, r23
    3aac:	8d 93       	st	X+, r24
    3aae:	9c 93       	st	X, r25
    3ab0:	13 97       	sbiw	r26, 0x03	; 3
	oRe.value[1][0] = sin(desiredQPosition[0]) * cos(-alpha);
    3ab2:	cf 53       	subi	r28, 0x3F	; 63
    3ab4:	de 4f       	sbci	r29, 0xFE	; 254
    3ab6:	68 81       	ld	r22, Y
    3ab8:	79 81       	ldd	r23, Y+1	; 0x01
    3aba:	8a 81       	ldd	r24, Y+2	; 0x02
    3abc:	9b 81       	ldd	r25, Y+3	; 0x03
    3abe:	c1 5c       	subi	r28, 0xC1	; 193
    3ac0:	d1 40       	sbci	r29, 0x01	; 1
    3ac2:	0e 94 a5 3b 	call	0x774a	; 0x774a <sin>
    3ac6:	cf 55       	subi	r28, 0x5F	; 95
    3ac8:	de 4f       	sbci	r29, 0xFE	; 254
    3aca:	68 83       	st	Y, r22
    3acc:	79 83       	std	Y+1, r23	; 0x01
    3ace:	8a 83       	std	Y+2, r24	; 0x02
    3ad0:	9b 83       	std	Y+3, r25	; 0x03
    3ad2:	c1 5a       	subi	r28, 0xA1	; 161
    3ad4:	d1 40       	sbci	r29, 0x01	; 1
    3ad6:	a5 01       	movw	r20, r10
    3ad8:	94 01       	movw	r18, r8
    3ada:	0e 94 42 3b 	call	0x7684	; 0x7684 <__mulsf3>
    3ade:	f6 01       	movw	r30, r12
    3ae0:	60 8b       	std	Z+16, r22	; 0x10
    3ae2:	71 8b       	std	Z+17, r23	; 0x11
    3ae4:	82 8b       	std	Z+18, r24	; 0x12
    3ae6:	93 8b       	std	Z+19, r25	; 0x13
	oRe.value[2][0] = -sin(-alpha);
    3ae8:	c3 01       	movw	r24, r6
    3aea:	b2 01       	movw	r22, r4
    3aec:	0e 94 a5 3b 	call	0x774a	; 0x774a <sin>
    3af0:	cf 54       	subi	r28, 0x4F	; 79
    3af2:	de 4f       	sbci	r29, 0xFE	; 254
    3af4:	68 83       	st	Y, r22
    3af6:	79 83       	std	Y+1, r23	; 0x01
    3af8:	8a 83       	std	Y+2, r24	; 0x02
    3afa:	9b 83       	std	Y+3, r25	; 0x03
    3afc:	c1 5b       	subi	r28, 0xB1	; 177
    3afe:	d1 40       	sbci	r29, 0x01	; 1
    3b00:	d6 01       	movw	r26, r12
    3b02:	90 96       	adiw	r26, 0x20	; 32
    3b04:	6d 93       	st	X+, r22
    3b06:	7d 93       	st	X+, r23
    3b08:	8d 93       	st	X+, r24
    3b0a:	9c 93       	st	X, r25
    3b0c:	93 97       	sbiw	r26, 0x23	; 35

	oRe.value[0][1] = -sin(desiredQPosition[0]);
    3b0e:	cf 55       	subi	r28, 0x5F	; 95
    3b10:	de 4f       	sbci	r29, 0xFE	; 254
    3b12:	88 81       	ld	r24, Y
    3b14:	99 81       	ldd	r25, Y+1	; 0x01
    3b16:	aa 81       	ldd	r26, Y+2	; 0x02
    3b18:	bb 81       	ldd	r27, Y+3	; 0x03
    3b1a:	c1 5a       	subi	r28, 0xA1	; 161
    3b1c:	d1 40       	sbci	r29, 0x01	; 1
    3b1e:	b0 58       	subi	r27, 0x80	; 128
    3b20:	f6 01       	movw	r30, r12
    3b22:	84 83       	std	Z+4, r24	; 0x04
    3b24:	95 83       	std	Z+5, r25	; 0x05
    3b26:	a6 83       	std	Z+6, r26	; 0x06
    3b28:	b7 83       	std	Z+7, r27	; 0x07
	oRe.value[1][1] = cos(desiredQPosition[0]);
    3b2a:	cb 55       	subi	r28, 0x5B	; 91
    3b2c:	de 4f       	sbci	r29, 0xFE	; 254
    3b2e:	88 81       	ld	r24, Y
    3b30:	99 81       	ldd	r25, Y+1	; 0x01
    3b32:	aa 81       	ldd	r26, Y+2	; 0x02
    3b34:	bb 81       	ldd	r27, Y+3	; 0x03
    3b36:	c5 5a       	subi	r28, 0xA5	; 165
    3b38:	d1 40       	sbci	r29, 0x01	; 1
    3b3a:	84 8b       	std	Z+20, r24	; 0x14
    3b3c:	95 8b       	std	Z+21, r25	; 0x15
    3b3e:	a6 8b       	std	Z+22, r26	; 0x16
    3b40:	b7 8b       	std	Z+23, r27	; 0x17
	oRe.value[2][1] = 0;
    3b42:	80 e0       	ldi	r24, 0x00	; 0
    3b44:	90 e0       	ldi	r25, 0x00	; 0
    3b46:	a0 e0       	ldi	r26, 0x00	; 0
    3b48:	b0 e0       	ldi	r27, 0x00	; 0
    3b4a:	84 a3       	std	Z+36, r24	; 0x24
    3b4c:	95 a3       	std	Z+37, r25	; 0x25
    3b4e:	a6 a3       	std	Z+38, r26	; 0x26
    3b50:	b7 a3       	std	Z+39, r27	; 0x27

	oRe.value[0][2] = cos(desiredQPosition[0]) * sin(-alpha);
    3b52:	77 fa       	bst	r7, 7
    3b54:	70 94       	com	r7
    3b56:	77 f8       	bld	r7, 7
    3b58:	70 94       	com	r7
    3b5a:	c3 01       	movw	r24, r6
    3b5c:	b2 01       	movw	r22, r4
    3b5e:	0e 94 a5 3b 	call	0x774a	; 0x774a <sin>
    3b62:	7b 01       	movw	r14, r22
    3b64:	8c 01       	movw	r16, r24
    3b66:	cb 55       	subi	r28, 0x5B	; 91
    3b68:	de 4f       	sbci	r29, 0xFE	; 254
    3b6a:	68 81       	ld	r22, Y
    3b6c:	79 81       	ldd	r23, Y+1	; 0x01
    3b6e:	8a 81       	ldd	r24, Y+2	; 0x02
    3b70:	9b 81       	ldd	r25, Y+3	; 0x03
    3b72:	c5 5a       	subi	r28, 0xA5	; 165
    3b74:	d1 40       	sbci	r29, 0x01	; 1
    3b76:	a8 01       	movw	r20, r16
    3b78:	97 01       	movw	r18, r14
    3b7a:	0e 94 42 3b 	call	0x7684	; 0x7684 <__mulsf3>
    3b7e:	d6 01       	movw	r26, r12
    3b80:	18 96       	adiw	r26, 0x08	; 8
    3b82:	6d 93       	st	X+, r22
    3b84:	7d 93       	st	X+, r23
    3b86:	8d 93       	st	X+, r24
    3b88:	9c 93       	st	X, r25
    3b8a:	1b 97       	sbiw	r26, 0x0b	; 11
	oRe.value[1][2] = sin(desiredQPosition[0]) * sin(-alpha);
    3b8c:	cf 55       	subi	r28, 0x5F	; 95
    3b8e:	de 4f       	sbci	r29, 0xFE	; 254
    3b90:	68 81       	ld	r22, Y
    3b92:	79 81       	ldd	r23, Y+1	; 0x01
    3b94:	8a 81       	ldd	r24, Y+2	; 0x02
    3b96:	9b 81       	ldd	r25, Y+3	; 0x03
    3b98:	c1 5a       	subi	r28, 0xA1	; 161
    3b9a:	d1 40       	sbci	r29, 0x01	; 1
    3b9c:	a8 01       	movw	r20, r16
    3b9e:	97 01       	movw	r18, r14
    3ba0:	0e 94 42 3b 	call	0x7684	; 0x7684 <__mulsf3>
    3ba4:	f6 01       	movw	r30, r12
    3ba6:	60 8f       	std	Z+24, r22	; 0x18
    3ba8:	71 8f       	std	Z+25, r23	; 0x19
    3baa:	82 8f       	std	Z+26, r24	; 0x1a
    3bac:	93 8f       	std	Z+27, r25	; 0x1b
	oRe.value[2][2] = cos(-alpha);
    3bae:	d6 01       	movw	r26, r12
    3bb0:	98 96       	adiw	r26, 0x28	; 40
    3bb2:	8d 92       	st	X+, r8
    3bb4:	9d 92       	st	X+, r9
    3bb6:	ad 92       	st	X+, r10
    3bb8:	bc 92       	st	X, r11
    3bba:	9b 97       	sbiw	r26, 0x2b	; 43

	oRe.value[0][3] = dDH[2] * cos(beta) * cos(alpha) * cos(desiredQPosition[0]);
    3bbc:	c7 55       	subi	r28, 0x57	; 87
    3bbe:	de 4f       	sbci	r29, 0xFE	; 254
    3bc0:	68 81       	ld	r22, Y
    3bc2:	79 81       	ldd	r23, Y+1	; 0x01
    3bc4:	8a 81       	ldd	r24, Y+2	; 0x02
    3bc6:	9b 81       	ldd	r25, Y+3	; 0x03
    3bc8:	c9 5a       	subi	r28, 0xA9	; 169
    3bca:	d1 40       	sbci	r29, 0x01	; 1
    3bcc:	0e 94 5f 39 	call	0x72be	; 0x72be <cos>
    3bd0:	9b 01       	movw	r18, r22
    3bd2:	ac 01       	movw	r20, r24
    3bd4:	c7 54       	subi	r28, 0x47	; 71
    3bd6:	de 4f       	sbci	r29, 0xFE	; 254
    3bd8:	68 81       	ld	r22, Y
    3bda:	79 81       	ldd	r23, Y+1	; 0x01
    3bdc:	8a 81       	ldd	r24, Y+2	; 0x02
    3bde:	9b 81       	ldd	r25, Y+3	; 0x03
    3be0:	c9 5b       	subi	r28, 0xB9	; 185
    3be2:	d1 40       	sbci	r29, 0x01	; 1
    3be4:	0e 94 42 3b 	call	0x7684	; 0x7684 <__mulsf3>
    3be8:	2b 01       	movw	r4, r22
    3bea:	3c 01       	movw	r6, r24
    3bec:	a5 01       	movw	r20, r10
    3bee:	94 01       	movw	r18, r8
    3bf0:	0e 94 42 3b 	call	0x7684	; 0x7684 <__mulsf3>
    3bf4:	7b 01       	movw	r14, r22
    3bf6:	8c 01       	movw	r16, r24
    3bf8:	cb 55       	subi	r28, 0x5B	; 91
    3bfa:	de 4f       	sbci	r29, 0xFE	; 254
    3bfc:	28 81       	ld	r18, Y
    3bfe:	39 81       	ldd	r19, Y+1	; 0x01
    3c00:	4a 81       	ldd	r20, Y+2	; 0x02
    3c02:	5b 81       	ldd	r21, Y+3	; 0x03
    3c04:	c5 5a       	subi	r28, 0xA5	; 165
    3c06:	d1 40       	sbci	r29, 0x01	; 1
    3c08:	0e 94 42 3b 	call	0x7684	; 0x7684 <__mulsf3>
    3c0c:	f6 01       	movw	r30, r12
    3c0e:	64 87       	std	Z+12, r22	; 0x0c
    3c10:	75 87       	std	Z+13, r23	; 0x0d
    3c12:	86 87       	std	Z+14, r24	; 0x0e
    3c14:	97 87       	std	Z+15, r25	; 0x0f
	oRe.value[1][3] = dDH[2] * cos(beta) * cos(alpha) * sin(desiredQPosition[0]);
    3c16:	c8 01       	movw	r24, r16
    3c18:	b7 01       	movw	r22, r14
    3c1a:	cf 55       	subi	r28, 0x5F	; 95
    3c1c:	de 4f       	sbci	r29, 0xFE	; 254
    3c1e:	28 81       	ld	r18, Y
    3c20:	39 81       	ldd	r19, Y+1	; 0x01
    3c22:	4a 81       	ldd	r20, Y+2	; 0x02
    3c24:	5b 81       	ldd	r21, Y+3	; 0x03
    3c26:	c1 5a       	subi	r28, 0xA1	; 161
    3c28:	d1 40       	sbci	r29, 0x01	; 1
    3c2a:	0e 94 42 3b 	call	0x7684	; 0x7684 <__mulsf3>
    3c2e:	d6 01       	movw	r26, r12
    3c30:	5c 96       	adiw	r26, 0x1c	; 28
    3c32:	6d 93       	st	X+, r22
    3c34:	7d 93       	st	X+, r23
    3c36:	8d 93       	st	X+, r24
    3c38:	9c 93       	st	X, r25
    3c3a:	5f 97       	sbiw	r26, 0x1f	; 31
	oRe.value[2][3] = dDH[2] * cos(beta) * sin(alpha) + dDH[0];
    3c3c:	c3 01       	movw	r24, r6
    3c3e:	b2 01       	movw	r22, r4
    3c40:	cf 54       	subi	r28, 0x4F	; 79
    3c42:	de 4f       	sbci	r29, 0xFE	; 254
    3c44:	28 81       	ld	r18, Y
    3c46:	39 81       	ldd	r19, Y+1	; 0x01
    3c48:	4a 81       	ldd	r20, Y+2	; 0x02
    3c4a:	5b 81       	ldd	r21, Y+3	; 0x03
    3c4c:	c1 5b       	subi	r28, 0xB1	; 177
    3c4e:	d1 40       	sbci	r29, 0x01	; 1
    3c50:	0e 94 42 3b 	call	0x7684	; 0x7684 <__mulsf3>
    3c54:	c3 54       	subi	r28, 0x43	; 67
    3c56:	de 4f       	sbci	r29, 0xFE	; 254
    3c58:	28 81       	ld	r18, Y
    3c5a:	39 81       	ldd	r19, Y+1	; 0x01
    3c5c:	4a 81       	ldd	r20, Y+2	; 0x02
    3c5e:	5b 81       	ldd	r21, Y+3	; 0x03
    3c60:	cd 5b       	subi	r28, 0xBD	; 189
    3c62:	d1 40       	sbci	r29, 0x01	; 1
    3c64:	0e 94 7e 38 	call	0x70fc	; 0x70fc <__addsf3>
    3c68:	f6 01       	movw	r30, r12
    3c6a:	64 a7       	std	Z+44, r22	; 0x2c
    3c6c:	75 a7       	std	Z+45, r23	; 0x2d
    3c6e:	86 a7       	std	Z+46, r24	; 0x2e
    3c70:	97 a7       	std	Z+47, r25	; 0x2f
	oRe.value[3][3] = 1;
    3c72:	80 e0       	ldi	r24, 0x00	; 0
    3c74:	90 e0       	ldi	r25, 0x00	; 0
    3c76:	a0 e8       	ldi	r26, 0x80	; 128
    3c78:	bf e3       	ldi	r27, 0x3F	; 63
    3c7a:	84 af       	std	Z+60, r24	; 0x3c
    3c7c:	95 af       	std	Z+61, r25	; 0x3d
    3c7e:	a6 af       	std	Z+62, r26	; 0x3e
    3c80:	b7 af       	std	Z+63, r27	; 0x3f
	//printf("%f \t %f \t %f \t %f \t \n",oRe.value[2][0],oRe.value[2][1],oRe.value[2][2],oRe.value[2][3]);
	//printf("%f \t %f \t %f \t %f \t \n",oRe.value[3][0],oRe.value[3][1],oRe.value[3][2],oRe.value[3][3]);
	//printf(" \n ");


	Pelbow =  multMV(oRe,Pelbow); //Transformo coordenadas de posicin del codo con respecto al sistema base
    3c82:	de 01       	movw	r26, r28
    3c84:	af 59       	subi	r26, 0x9F	; 159
    3c86:	be 4f       	sbci	r27, 0xFE	; 254
    3c88:	80 e4       	ldi	r24, 0x40	; 64
    3c8a:	01 90       	ld	r0, Z+
    3c8c:	0d 92       	st	X+, r0
    3c8e:	81 50       	subi	r24, 0x01	; 1
    3c90:	e1 f7       	brne	.-8      	; 0x3c8a <InverseKinematics+0xc72>
    3c92:	de 01       	movw	r26, r28
    3c94:	af 5a       	subi	r26, 0xAF	; 175
    3c96:	bf 4f       	sbci	r27, 0xFF	; 255
    3c98:	fe 01       	movw	r30, r28
    3c9a:	71 96       	adiw	r30, 0x11	; 17
    3c9c:	80 e1       	ldi	r24, 0x10	; 16
    3c9e:	01 90       	ld	r0, Z+
    3ca0:	0d 92       	st	X+, r0
    3ca2:	81 50       	subi	r24, 0x01	; 1
    3ca4:	e1 f7       	brne	.-8      	; 0x3c9e <InverseKinematics+0xc86>
    3ca6:	b1 e4       	ldi	r27, 0x41	; 65
    3ca8:	4b 2e       	mov	r4, r27
    3caa:	51 2c       	mov	r5, r1
    3cac:	4c 0e       	add	r4, r28
    3cae:	5d 1e       	adc	r5, r29
    3cb0:	00 e0       	ldi	r16, 0x00	; 0
    3cb2:	10 e0       	ldi	r17, 0x00	; 0

	//float temp[4];
	vector4 partial;
	float temp, result;

		for(int k = 0;k<4;k++)
    3cb4:	a1 e5       	ldi	r26, 0x51	; 81
    3cb6:	ea 2e       	mov	r14, r26
    3cb8:	f1 2c       	mov	r15, r1
    3cba:	ec 0e       	add	r14, r28
    3cbc:	fd 1e       	adc	r15, r29
			{	
				temp = 0;
				for(int l = 0;l<4;l++)
    3cbe:	f0 e1       	ldi	r31, 0x10	; 16
    3cc0:	2f 2e       	mov	r2, r31
    3cc2:	31 2c       	mov	r3, r1
    3cc4:	2e 0c       	add	r2, r14
    3cc6:	3f 1c       	adc	r3, r15
    3cc8:	24 c0       	rjmp	.+72     	; 0x3d12 <InverseKinematics+0xcfa>
				{	
					temp += (b.value[k][l] * c.value[l]);
    3cca:	d6 01       	movw	r26, r12
    3ccc:	6d 91       	ld	r22, X+
    3cce:	7d 91       	ld	r23, X+
    3cd0:	8d 91       	ld	r24, X+
    3cd2:	9d 91       	ld	r25, X+
    3cd4:	6d 01       	movw	r12, r26
    3cd6:	f5 01       	movw	r30, r10
    3cd8:	21 91       	ld	r18, Z+
    3cda:	31 91       	ld	r19, Z+
    3cdc:	41 91       	ld	r20, Z+
    3cde:	51 91       	ld	r21, Z+
    3ce0:	5f 01       	movw	r10, r30
    3ce2:	0e 94 42 3b 	call	0x7684	; 0x7684 <__mulsf3>
    3ce6:	9b 01       	movw	r18, r22
    3ce8:	ac 01       	movw	r20, r24
    3cea:	c4 01       	movw	r24, r8
    3cec:	b3 01       	movw	r22, r6
    3cee:	0e 94 7e 38 	call	0x70fc	; 0x70fc <__addsf3>
    3cf2:	3b 01       	movw	r6, r22
    3cf4:	4c 01       	movw	r8, r24
	float temp, result;

		for(int k = 0;k<4;k++)
			{	
				temp = 0;
				for(int l = 0;l<4;l++)
    3cf6:	a2 14       	cp	r10, r2
    3cf8:	b3 04       	cpc	r11, r3
    3cfa:	39 f7       	brne	.-50     	; 0x3cca <InverseKinematics+0xcb2>
				{	
					temp += (b.value[k][l] * c.value[l]);
				}
				partial.value[k] = temp;
    3cfc:	d2 01       	movw	r26, r4
    3cfe:	6d 93       	st	X+, r22
    3d00:	7d 93       	st	X+, r23
    3d02:	8d 93       	st	X+, r24
    3d04:	9d 93       	st	X+, r25
    3d06:	2d 01       	movw	r4, r26

	//float temp[4];
	vector4 partial;
	float temp, result;

		for(int k = 0;k<4;k++)
    3d08:	0f 5f       	subi	r16, 0xFF	; 255
    3d0a:	1f 4f       	sbci	r17, 0xFF	; 255
    3d0c:	04 30       	cpi	r16, 0x04	; 4
    3d0e:	11 05       	cpc	r17, r1
    3d10:	c1 f0       	breq	.+48     	; 0x3d42 <InverseKinematics+0xd2a>
    3d12:	68 01       	movw	r12, r16
    3d14:	e4 e0       	ldi	r30, 0x04	; 4
    3d16:	cc 0c       	add	r12, r12
    3d18:	dd 1c       	adc	r13, r13
    3d1a:	ea 95       	dec	r30
    3d1c:	e1 f7       	brne	.-8      	; 0x3d16 <InverseKinematics+0xcfe>
    3d1e:	e1 e6       	ldi	r30, 0x61	; 97
    3d20:	f1 e0       	ldi	r31, 0x01	; 1
    3d22:	ec 0f       	add	r30, r28
    3d24:	fd 1f       	adc	r31, r29
    3d26:	ce 0e       	add	r12, r30
    3d28:	df 1e       	adc	r13, r31
    3d2a:	57 01       	movw	r10, r14
    3d2c:	0f 2e       	mov	r0, r31
    3d2e:	f0 e0       	ldi	r31, 0x00	; 0
    3d30:	6f 2e       	mov	r6, r31
    3d32:	f0 e0       	ldi	r31, 0x00	; 0
    3d34:	7f 2e       	mov	r7, r31
    3d36:	f0 e0       	ldi	r31, 0x00	; 0
    3d38:	8f 2e       	mov	r8, r31
    3d3a:	f0 e0       	ldi	r31, 0x00	; 0
    3d3c:	9f 2e       	mov	r9, r31
    3d3e:	f0 2d       	mov	r31, r0
    3d40:	c4 cf       	rjmp	.-120    	; 0x3cca <InverseKinematics+0xcb2>
		//for(int l = 0;l<4;l++)
		//	{	
		//		result += (a.value[l] * partial.value[l]);
		//	}
		//return result;
		return partial;
    3d42:	de 01       	movw	r26, r28
    3d44:	d1 96       	adiw	r26, 0x31	; 49
    3d46:	fe 01       	movw	r30, r28
    3d48:	ef 5b       	subi	r30, 0xBF	; 191
    3d4a:	ff 4f       	sbci	r31, 0xFF	; 255
    3d4c:	80 e1       	ldi	r24, 0x10	; 16
    3d4e:	01 90       	ld	r0, Z+
    3d50:	0d 92       	st	X+, r0
    3d52:	81 50       	subi	r24, 0x01	; 1
    3d54:	e1 f7       	brne	.-8      	; 0x3d4e <InverseKinematics+0xd36>
	//printf("%f \t %f \t %f \t %f \t \n",oRe.value[2][0],oRe.value[2][1],oRe.value[2][2],oRe.value[2][3]);
	//printf("%f \t %f \t %f \t %f \t \n",oRe.value[3][0],oRe.value[3][1],oRe.value[3][2],oRe.value[3][3]);
	//printf(" \n ");


	Pelbow =  multMV(oRe,Pelbow); //Transformo coordenadas de posicin del codo con respecto al sistema base
    3d56:	de 01       	movw	r26, r28
    3d58:	51 96       	adiw	r26, 0x11	; 17
    3d5a:	fe 01       	movw	r30, r28
    3d5c:	f1 96       	adiw	r30, 0x31	; 49
    3d5e:	80 e1       	ldi	r24, 0x10	; 16
    3d60:	01 90       	ld	r0, Z+
    3d62:	0d 92       	st	X+, r0
    3d64:	81 50       	subi	r24, 0x01	; 1
    3d66:	e1 f7       	brne	.-8      	; 0x3d60 <InverseKinematics+0xd48>

	
	//printf("Pelbow  %f %f %f %f \n\r",Pelbow.value[0],Pelbow.value[1],Pelbow.value[2],Pelbow.value[3]);


	desiredQPosition[0] = atan2(Pelbow.value[1] + aDH[0] * sin(desiredQPosition[0]), Pelbow.value[0] + aDH[0] * cos(desiredQPosition[0]));
    3d68:	6d 88       	ldd	r6, Y+21	; 0x15
    3d6a:	7e 88       	ldd	r7, Y+22	; 0x16
    3d6c:	8f 88       	ldd	r8, Y+23	; 0x17
    3d6e:	98 8c       	ldd	r9, Y+24	; 0x18
    3d70:	a0 90 c9 10 	lds	r10, 0x10C9
    3d74:	b0 90 ca 10 	lds	r11, 0x10CA
    3d78:	c0 90 cb 10 	lds	r12, 0x10CB
    3d7c:	d0 90 cc 10 	lds	r13, 0x10CC
    3d80:	e9 88       	ldd	r14, Y+17	; 0x11
    3d82:	fa 88       	ldd	r15, Y+18	; 0x12
    3d84:	0b 89       	ldd	r16, Y+19	; 0x13
    3d86:	1c 89       	ldd	r17, Y+20	; 0x14
    3d88:	c6 01       	movw	r24, r12
    3d8a:	b5 01       	movw	r22, r10
    3d8c:	cf 55       	subi	r28, 0x5F	; 95
    3d8e:	de 4f       	sbci	r29, 0xFE	; 254
    3d90:	28 81       	ld	r18, Y
    3d92:	39 81       	ldd	r19, Y+1	; 0x01
    3d94:	4a 81       	ldd	r20, Y+2	; 0x02
    3d96:	5b 81       	ldd	r21, Y+3	; 0x03
    3d98:	c1 5a       	subi	r28, 0xA1	; 161
    3d9a:	d1 40       	sbci	r29, 0x01	; 1
    3d9c:	0e 94 42 3b 	call	0x7684	; 0x7684 <__mulsf3>
    3da0:	9b 01       	movw	r18, r22
    3da2:	ac 01       	movw	r20, r24
    3da4:	c4 01       	movw	r24, r8
    3da6:	b3 01       	movw	r22, r6
    3da8:	0e 94 7e 38 	call	0x70fc	; 0x70fc <__addsf3>
    3dac:	1b 01       	movw	r2, r22
    3dae:	2c 01       	movw	r4, r24
    3db0:	c6 01       	movw	r24, r12
    3db2:	b5 01       	movw	r22, r10
    3db4:	cb 55       	subi	r28, 0x5B	; 91
    3db6:	de 4f       	sbci	r29, 0xFE	; 254
    3db8:	28 81       	ld	r18, Y
    3dba:	39 81       	ldd	r19, Y+1	; 0x01
    3dbc:	4a 81       	ldd	r20, Y+2	; 0x02
    3dbe:	5b 81       	ldd	r21, Y+3	; 0x03
    3dc0:	c5 5a       	subi	r28, 0xA5	; 165
    3dc2:	d1 40       	sbci	r29, 0x01	; 1
    3dc4:	0e 94 42 3b 	call	0x7684	; 0x7684 <__mulsf3>
    3dc8:	9b 01       	movw	r18, r22
    3dca:	ac 01       	movw	r20, r24
    3dcc:	c8 01       	movw	r24, r16
    3dce:	b7 01       	movw	r22, r14
    3dd0:	0e 94 7e 38 	call	0x70fc	; 0x70fc <__addsf3>
    3dd4:	9b 01       	movw	r18, r22
    3dd6:	ac 01       	movw	r20, r24
    3dd8:	c2 01       	movw	r24, r4
    3dda:	b1 01       	movw	r22, r2
    3ddc:	0e 94 08 39 	call	0x7210	; 0x7210 <atan2>
    3de0:	60 93 50 11 	sts	0x1150, r22
    3de4:	70 93 51 11 	sts	0x1151, r23
    3de8:	80 93 52 11 	sts	0x1152, r24
    3dec:	90 93 53 11 	sts	0x1153, r25
	desiredQPosition[1] = atan2(Pelbow.value[2] - dDH[0], sqrt(Pelbow.value[0] * Pelbow.value[0] + Pelbow.value[1] * Pelbow.value[1]));
    3df0:	c8 01       	movw	r24, r16
    3df2:	b7 01       	movw	r22, r14
    3df4:	a8 01       	movw	r20, r16
    3df6:	97 01       	movw	r18, r14
    3df8:	0e 94 42 3b 	call	0x7684	; 0x7684 <__mulsf3>
    3dfc:	7b 01       	movw	r14, r22
    3dfe:	8c 01       	movw	r16, r24
    3e00:	c4 01       	movw	r24, r8
    3e02:	b3 01       	movw	r22, r6
    3e04:	a4 01       	movw	r20, r8
    3e06:	93 01       	movw	r18, r6
    3e08:	0e 94 42 3b 	call	0x7684	; 0x7684 <__mulsf3>
    3e0c:	9b 01       	movw	r18, r22
    3e0e:	ac 01       	movw	r20, r24
    3e10:	c8 01       	movw	r24, r16
    3e12:	b7 01       	movw	r22, r14
    3e14:	0e 94 7e 38 	call	0x70fc	; 0x70fc <__addsf3>
    3e18:	0e 94 af 3b 	call	0x775e	; 0x775e <sqrt>
    3e1c:	7b 01       	movw	r14, r22
    3e1e:	8c 01       	movw	r16, r24
    3e20:	69 8d       	ldd	r22, Y+25	; 0x19
    3e22:	7a 8d       	ldd	r23, Y+26	; 0x1a
    3e24:	8b 8d       	ldd	r24, Y+27	; 0x1b
    3e26:	9c 8d       	ldd	r25, Y+28	; 0x1c
    3e28:	20 91 4f 0c 	lds	r18, 0x0C4F
    3e2c:	30 91 50 0c 	lds	r19, 0x0C50
    3e30:	40 91 51 0c 	lds	r20, 0x0C51
    3e34:	50 91 52 0c 	lds	r21, 0x0C52
    3e38:	0e 94 7d 38 	call	0x70fa	; 0x70fa <__subsf3>
    3e3c:	a8 01       	movw	r20, r16
    3e3e:	97 01       	movw	r18, r14
    3e40:	0e 94 08 39 	call	0x7210	; 0x7210 <atan2>
    3e44:	60 93 54 11 	sts	0x1154, r22
    3e48:	70 93 55 11 	sts	0x1155, r23
    3e4c:	80 93 56 11 	sts	0x1156, r24
    3e50:	90 93 57 11 	sts	0x1157, r25
	desiredQPosition[2] = 0;
    3e54:	80 e0       	ldi	r24, 0x00	; 0
    3e56:	90 e0       	ldi	r25, 0x00	; 0
    3e58:	a0 e0       	ldi	r26, 0x00	; 0
    3e5a:	b0 e0       	ldi	r27, 0x00	; 0
    3e5c:	80 93 58 11 	sts	0x1158, r24
    3e60:	90 93 59 11 	sts	0x1159, r25
    3e64:	a0 93 5a 11 	sts	0x115A, r26
    3e68:	b0 93 5b 11 	sts	0x115B, r27
	desiredQPosition[3] = 0;
    3e6c:	80 93 5c 11 	sts	0x115C, r24
    3e70:	90 93 5d 11 	sts	0x115D, r25
    3e74:	a0 93 5e 11 	sts	0x115E, r26
    3e78:	b0 93 5f 11 	sts	0x115F, r27

	//printf("d q %f %f %f %f %f %f %f \n\r",desiredQPosition[0],desiredQPosition[1],desiredQPosition[2],desiredQPosition[3],desiredQPosition[4],desiredQPosition[5],desiredQPosition[6]);
	
	CalculateHT(1);
    3e7c:	81 e0       	ldi	r24, 0x01	; 1
    3e7e:	90 e0       	ldi	r25, 0x00	; 0
    3e80:	0e 94 8e 15 	call	0x2b1c	; 0x2b1c <CalculateHT>
	
	
	//R40 = calculateHomogenMatrix(4, 0);

	// De cero a tres por culpa de los ndices. En Calculate HT, al guardar las transformaciones de 0 a los sitemas 1-7, H0[0] no es identidad es H01
	R40 = InvH(H0[3]);
    3e84:	8d b7       	in	r24, 0x3d	; 61
    3e86:	9e b7       	in	r25, 0x3e	; 62
    3e88:	80 54       	subi	r24, 0x40	; 64
    3e8a:	90 40       	sbci	r25, 0x00	; 0
    3e8c:	0f b6       	in	r0, 0x3f	; 63
    3e8e:	f8 94       	cli
    3e90:	9e bf       	out	0x3e, r25	; 62
    3e92:	0f be       	out	0x3f, r0	; 63
    3e94:	8d bf       	out	0x3d, r24	; 61
    3e96:	ad b7       	in	r26, 0x3d	; 61
    3e98:	be b7       	in	r27, 0x3e	; 62
    3e9a:	11 96       	adiw	r26, 0x01	; 1
    3e9c:	eb e2       	ldi	r30, 0x2B	; 43
    3e9e:	fd e0       	ldi	r31, 0x0D	; 13
    3ea0:	80 e4       	ldi	r24, 0x40	; 64
    3ea2:	01 90       	ld	r0, Z+
    3ea4:	0d 92       	st	X+, r0
    3ea6:	81 50       	subi	r24, 0x01	; 1
    3ea8:	e1 f7       	brne	.-8      	; 0x3ea2 <InverseKinematics+0xe8a>
    3eaa:	ce 01       	movw	r24, r28
    3eac:	8f 51       	subi	r24, 0x1F	; 31
    3eae:	9f 4f       	sbci	r25, 0xFF	; 255
    3eb0:	0e 94 30 07 	call	0xe60	; 0xe60 <InvH>
	
	//Esta matriz tambin se utiliza para obtener la posicin del centro de la mueca con respecto al codo
	vector4 wp;
	
	//WristPosition = multMV(R40 , WristPosition);
	wp = multMV(R40 , WristPosition);
    3eb4:	de 01       	movw	r26, r28
    3eb6:	af 59       	subi	r26, 0x9F	; 159
    3eb8:	be 4f       	sbci	r27, 0xFE	; 254
    3eba:	fe 01       	movw	r30, r28
    3ebc:	ef 51       	subi	r30, 0x1F	; 31
    3ebe:	ff 4f       	sbci	r31, 0xFF	; 255
    3ec0:	80 e4       	ldi	r24, 0x40	; 64
    3ec2:	01 90       	ld	r0, Z+
    3ec4:	0d 92       	st	X+, r0
    3ec6:	81 50       	subi	r24, 0x01	; 1
    3ec8:	e1 f7       	brne	.-8      	; 0x3ec2 <InverseKinematics+0xeaa>
	//printf("d x %f %f %f %f %f %f %f \n\r",desiredXPosition[0],desiredXPosition[1],desiredXPosition[2],desiredXPosition[3],desiredXPosition[4],desiredXPosition[5],desiredXPosition[6]);

	WristPosition.value[0] = desiredXPosition[0];
	WristPosition.value[1] = desiredXPosition[1];
	WristPosition.value[2] = desiredXPosition[2];
	WristPosition.value[3] = 1;
    3eca:	80 e0       	ldi	r24, 0x00	; 0
    3ecc:	90 e0       	ldi	r25, 0x00	; 0
    3ece:	a0 e8       	ldi	r26, 0x80	; 128
    3ed0:	bf e3       	ldi	r27, 0x3F	; 63
    3ed2:	8d 87       	std	Y+13, r24	; 0x0d
    3ed4:	9e 87       	std	Y+14, r25	; 0x0e
    3ed6:	af 87       	std	Y+15, r26	; 0x0f
    3ed8:	b8 8b       	std	Y+16, r27	; 0x10

	//printf("d x %f %f %f %f %f %f %f \n\r",desiredXPosition[0],desiredXPosition[1],desiredXPosition[2],desiredXPosition[3],desiredXPosition[4],desiredXPosition[5],desiredXPosition[6]);

	WristPosition.value[0] = desiredXPosition[0];
	WristPosition.value[1] = desiredXPosition[1];
	WristPosition.value[2] = desiredXPosition[2];
    3eda:	c3 52       	subi	r28, 0x23	; 35
    3edc:	de 4f       	sbci	r29, 0xFE	; 254
    3ede:	28 81       	ld	r18, Y
    3ee0:	cd 5d       	subi	r28, 0xDD	; 221
    3ee2:	d1 40       	sbci	r29, 0x01	; 1
    3ee4:	c2 52       	subi	r28, 0x22	; 34
    3ee6:	de 4f       	sbci	r29, 0xFE	; 254
    3ee8:	38 81       	ld	r19, Y
    3eea:	ce 5d       	subi	r28, 0xDE	; 222
    3eec:	d1 40       	sbci	r29, 0x01	; 1
    3eee:	c1 52       	subi	r28, 0x21	; 33
    3ef0:	de 4f       	sbci	r29, 0xFE	; 254
    3ef2:	48 81       	ld	r20, Y
    3ef4:	cf 5d       	subi	r28, 0xDF	; 223
    3ef6:	d1 40       	sbci	r29, 0x01	; 1
    3ef8:	c0 52       	subi	r28, 0x20	; 32
    3efa:	de 4f       	sbci	r29, 0xFE	; 254
    3efc:	58 81       	ld	r21, Y
    3efe:	c0 5e       	subi	r28, 0xE0	; 224
    3f00:	d1 40       	sbci	r29, 0x01	; 1
    3f02:	c9 01       	movw	r24, r18
    3f04:	da 01       	movw	r26, r20
    3f06:	89 87       	std	Y+9, r24	; 0x09
    3f08:	9a 87       	std	Y+10, r25	; 0x0a
    3f0a:	ab 87       	std	Y+11, r26	; 0x0b
    3f0c:	bc 87       	std	Y+12, r27	; 0x0c
	desiredXPosition[2] = desiredXPosition[2] - WristPosition.value[2];

	//printf("d x %f %f %f %f %f %f %f \n\r",desiredXPosition[0],desiredXPosition[1],desiredXPosition[2],desiredXPosition[3],desiredXPosition[4],desiredXPosition[5],desiredXPosition[6]);

	WristPosition.value[0] = desiredXPosition[0];
	WristPosition.value[1] = desiredXPosition[1];
    3f0e:	c7 52       	subi	r28, 0x27	; 39
    3f10:	de 4f       	sbci	r29, 0xFE	; 254
    3f12:	88 81       	ld	r24, Y
    3f14:	99 81       	ldd	r25, Y+1	; 0x01
    3f16:	aa 81       	ldd	r26, Y+2	; 0x02
    3f18:	bb 81       	ldd	r27, Y+3	; 0x03
    3f1a:	c9 5d       	subi	r28, 0xD9	; 217
    3f1c:	d1 40       	sbci	r29, 0x01	; 1
    3f1e:	8d 83       	std	Y+5, r24	; 0x05
    3f20:	9e 83       	std	Y+6, r25	; 0x06
    3f22:	af 83       	std	Y+7, r26	; 0x07
    3f24:	b8 87       	std	Y+8, r27	; 0x08
	desiredXPosition[1] = desiredXPosition[1] - WristPosition.value[1];
	desiredXPosition[2] = desiredXPosition[2] - WristPosition.value[2];

	//printf("d x %f %f %f %f %f %f %f \n\r",desiredXPosition[0],desiredXPosition[1],desiredXPosition[2],desiredXPosition[3],desiredXPosition[4],desiredXPosition[5],desiredXPosition[6]);

	WristPosition.value[0] = desiredXPosition[0];
    3f26:	cb 52       	subi	r28, 0x2B	; 43
    3f28:	de 4f       	sbci	r29, 0xFE	; 254
    3f2a:	88 81       	ld	r24, Y
    3f2c:	99 81       	ldd	r25, Y+1	; 0x01
    3f2e:	aa 81       	ldd	r26, Y+2	; 0x02
    3f30:	bb 81       	ldd	r27, Y+3	; 0x03
    3f32:	c5 5d       	subi	r28, 0xD5	; 213
    3f34:	d1 40       	sbci	r29, 0x01	; 1
    3f36:	89 83       	std	Y+1, r24	; 0x01
    3f38:	9a 83       	std	Y+2, r25	; 0x02
    3f3a:	ab 83       	std	Y+3, r26	; 0x03
    3f3c:	bc 83       	std	Y+4, r27	; 0x04
	
	//Esta matriz tambin se utiliza para obtener la posicin del centro de la mueca con respecto al codo
	vector4 wp;
	
	//WristPosition = multMV(R40 , WristPosition);
	wp = multMV(R40 , WristPosition);
    3f3e:	de 01       	movw	r26, r28
    3f40:	af 5b       	subi	r26, 0xBF	; 191
    3f42:	bf 4f       	sbci	r27, 0xFF	; 255
    3f44:	fe 01       	movw	r30, r28
    3f46:	31 96       	adiw	r30, 0x01	; 1
    3f48:	80 e1       	ldi	r24, 0x10	; 16
    3f4a:	01 90       	ld	r0, Z+
    3f4c:	0d 92       	st	X+, r0
    3f4e:	81 50       	subi	r24, 0x01	; 1
    3f50:	e1 f7       	brne	.-8      	; 0x3f4a <InverseKinematics+0xf32>
    3f52:	71 e5       	ldi	r23, 0x51	; 81
    3f54:	47 2e       	mov	r4, r23
    3f56:	51 2c       	mov	r5, r1
    3f58:	4c 0e       	add	r4, r28
    3f5a:	5d 1e       	adc	r5, r29
    3f5c:	00 e0       	ldi	r16, 0x00	; 0
    3f5e:	10 e0       	ldi	r17, 0x00	; 0
    3f60:	ad b7       	in	r26, 0x3d	; 61
    3f62:	be b7       	in	r27, 0x3e	; 62
    3f64:	a0 5c       	subi	r26, 0xC0	; 192
    3f66:	bf 4f       	sbci	r27, 0xFF	; 255
    3f68:	0f b6       	in	r0, 0x3f	; 63
    3f6a:	f8 94       	cli
    3f6c:	be bf       	out	0x3e, r27	; 62
    3f6e:	0f be       	out	0x3f, r0	; 63
    3f70:	ad bf       	out	0x3d, r26	; 61

	//float temp[4];
	vector4 partial;
	float temp, result;

		for(int k = 0;k<4;k++)
    3f72:	61 e4       	ldi	r22, 0x41	; 65
    3f74:	e6 2e       	mov	r14, r22
    3f76:	f1 2c       	mov	r15, r1
    3f78:	ec 0e       	add	r14, r28
    3f7a:	fd 1e       	adc	r15, r29
			{	
				temp = 0;
				for(int l = 0;l<4;l++)
    3f7c:	50 e1       	ldi	r21, 0x10	; 16
    3f7e:	25 2e       	mov	r2, r21
    3f80:	31 2c       	mov	r3, r1
    3f82:	2e 0c       	add	r2, r14
    3f84:	3f 1c       	adc	r3, r15
    3f86:	24 c0       	rjmp	.+72     	; 0x3fd0 <InverseKinematics+0xfb8>
				{	
					temp += (b.value[k][l] * c.value[l]);
    3f88:	f6 01       	movw	r30, r12
    3f8a:	61 91       	ld	r22, Z+
    3f8c:	71 91       	ld	r23, Z+
    3f8e:	81 91       	ld	r24, Z+
    3f90:	91 91       	ld	r25, Z+
    3f92:	6f 01       	movw	r12, r30
    3f94:	d5 01       	movw	r26, r10
    3f96:	2d 91       	ld	r18, X+
    3f98:	3d 91       	ld	r19, X+
    3f9a:	4d 91       	ld	r20, X+
    3f9c:	5d 91       	ld	r21, X+
    3f9e:	5d 01       	movw	r10, r26
    3fa0:	0e 94 42 3b 	call	0x7684	; 0x7684 <__mulsf3>
    3fa4:	9b 01       	movw	r18, r22
    3fa6:	ac 01       	movw	r20, r24
    3fa8:	c4 01       	movw	r24, r8
    3faa:	b3 01       	movw	r22, r6
    3fac:	0e 94 7e 38 	call	0x70fc	; 0x70fc <__addsf3>
    3fb0:	3b 01       	movw	r6, r22
    3fb2:	4c 01       	movw	r8, r24
	float temp, result;

		for(int k = 0;k<4;k++)
			{	
				temp = 0;
				for(int l = 0;l<4;l++)
    3fb4:	a2 14       	cp	r10, r2
    3fb6:	b3 04       	cpc	r11, r3
    3fb8:	39 f7       	brne	.-50     	; 0x3f88 <InverseKinematics+0xf70>
				{	
					temp += (b.value[k][l] * c.value[l]);
				}
				partial.value[k] = temp;
    3fba:	f2 01       	movw	r30, r4
    3fbc:	61 93       	st	Z+, r22
    3fbe:	71 93       	st	Z+, r23
    3fc0:	81 93       	st	Z+, r24
    3fc2:	91 93       	st	Z+, r25
    3fc4:	2f 01       	movw	r4, r30

	//float temp[4];
	vector4 partial;
	float temp, result;

		for(int k = 0;k<4;k++)
    3fc6:	0f 5f       	subi	r16, 0xFF	; 255
    3fc8:	1f 4f       	sbci	r17, 0xFF	; 255
    3fca:	04 30       	cpi	r16, 0x04	; 4
    3fcc:	11 05       	cpc	r17, r1
    3fce:	c1 f0       	breq	.+48     	; 0x4000 <InverseKinematics+0xfe8>
    3fd0:	68 01       	movw	r12, r16
    3fd2:	44 e0       	ldi	r20, 0x04	; 4
    3fd4:	cc 0c       	add	r12, r12
    3fd6:	dd 1c       	adc	r13, r13
    3fd8:	4a 95       	dec	r20
    3fda:	e1 f7       	brne	.-8      	; 0x3fd4 <InverseKinematics+0xfbc>
    3fdc:	81 e6       	ldi	r24, 0x61	; 97
    3fde:	91 e0       	ldi	r25, 0x01	; 1
    3fe0:	8c 0f       	add	r24, r28
    3fe2:	9d 1f       	adc	r25, r29
    3fe4:	c8 0e       	add	r12, r24
    3fe6:	d9 1e       	adc	r13, r25
    3fe8:	57 01       	movw	r10, r14
    3fea:	0f 2e       	mov	r0, r31
    3fec:	f0 e0       	ldi	r31, 0x00	; 0
    3fee:	6f 2e       	mov	r6, r31
    3ff0:	f0 e0       	ldi	r31, 0x00	; 0
    3ff2:	7f 2e       	mov	r7, r31
    3ff4:	f0 e0       	ldi	r31, 0x00	; 0
    3ff6:	8f 2e       	mov	r8, r31
    3ff8:	f0 e0       	ldi	r31, 0x00	; 0
    3ffa:	9f 2e       	mov	r9, r31
    3ffc:	f0 2d       	mov	r31, r0
    3ffe:	c4 cf       	rjmp	.-120    	; 0x3f88 <InverseKinematics+0xf70>
		//for(int l = 0;l<4;l++)
		//	{	
		//		result += (a.value[l] * partial.value[l]);
		//	}
		//return result;
		return partial;
    4000:	fe 01       	movw	r30, r28
    4002:	ef 5a       	subi	r30, 0xAF	; 175
    4004:	ff 4f       	sbci	r31, 0xFF	; 255
    4006:	60 84       	ldd	r6, Z+8	; 0x08
    4008:	71 84       	ldd	r7, Z+9	; 0x09
    400a:	82 84       	ldd	r8, Z+10	; 0x0a
    400c:	93 84       	ldd	r9, Z+11	; 0x0b
    400e:	e0 80       	ld	r14, Z
    4010:	f1 80       	ldd	r15, Z+1	; 0x01
    4012:	02 81       	ldd	r16, Z+2	; 0x02
    4014:	13 81       	ldd	r17, Z+3	; 0x03
    4016:	a4 80       	ldd	r10, Z+4	; 0x04
    4018:	b5 80       	ldd	r11, Z+5	; 0x05
    401a:	c6 80       	ldd	r12, Z+6	; 0x06
    401c:	d7 80       	ldd	r13, Z+7	; 0x07
	
	
	//printf("WP  %f %f %f %f \n\r",wp.value[0],wp.value[1],wp.value[2],wp.value[3]);

	
	desiredQPosition[2] = atan2(wp.value[1],wp.value[0]);
    401e:	c6 01       	movw	r24, r12
    4020:	b5 01       	movw	r22, r10
    4022:	a8 01       	movw	r20, r16
    4024:	97 01       	movw	r18, r14
    4026:	0e 94 08 39 	call	0x7210	; 0x7210 <atan2>
    402a:	60 93 58 11 	sts	0x1158, r22
    402e:	70 93 59 11 	sts	0x1159, r23
    4032:	80 93 5a 11 	sts	0x115A, r24
    4036:	90 93 5b 11 	sts	0x115B, r25
	//desiredQPosition[3] = M_PI_2 - atan2(wp.value[2],
	//sqrt(wp.value[0] * wp.value[0] + wp.value[1]* wp.value[1]));
	
	desiredQPosition[3] = M_PI_2 - atan2(wp.value[2],sqrt(wp.value[0] * wp.value[0] + wp.value[1]* wp.value[1]));
    403a:	c8 01       	movw	r24, r16
    403c:	b7 01       	movw	r22, r14
    403e:	a8 01       	movw	r20, r16
    4040:	97 01       	movw	r18, r14
    4042:	0e 94 42 3b 	call	0x7684	; 0x7684 <__mulsf3>
    4046:	7b 01       	movw	r14, r22
    4048:	8c 01       	movw	r16, r24
    404a:	c6 01       	movw	r24, r12
    404c:	b5 01       	movw	r22, r10
    404e:	a6 01       	movw	r20, r12
    4050:	95 01       	movw	r18, r10
    4052:	0e 94 42 3b 	call	0x7684	; 0x7684 <__mulsf3>
    4056:	9b 01       	movw	r18, r22
    4058:	ac 01       	movw	r20, r24
    405a:	c8 01       	movw	r24, r16
    405c:	b7 01       	movw	r22, r14
    405e:	0e 94 7e 38 	call	0x70fc	; 0x70fc <__addsf3>
    4062:	0e 94 af 3b 	call	0x775e	; 0x775e <sqrt>
    4066:	9b 01       	movw	r18, r22
    4068:	ac 01       	movw	r20, r24
    406a:	c4 01       	movw	r24, r8
    406c:	b3 01       	movw	r22, r6
    406e:	0e 94 08 39 	call	0x7210	; 0x7210 <atan2>
    4072:	9b 01       	movw	r18, r22
    4074:	ac 01       	movw	r20, r24
    4076:	6b ed       	ldi	r22, 0xDB	; 219
    4078:	7f e0       	ldi	r23, 0x0F	; 15
    407a:	89 ec       	ldi	r24, 0xC9	; 201
    407c:	9f e3       	ldi	r25, 0x3F	; 63
    407e:	0e 94 7d 38 	call	0x70fa	; 0x70fa <__subsf3>
    4082:	60 93 5c 11 	sts	0x115C, r22
    4086:	70 93 5d 11 	sts	0x115D, r23
    408a:	80 93 5e 11 	sts	0x115E, r24
    408e:	90 93 5f 11 	sts	0x115F, r25

	//printf("d q %f %f %f %f %f %f %f \n\r",desiredQPosition[0],desiredQPosition[1],desiredQPosition[2],desiredQPosition[3],desiredQPosition[4],desiredQPosition[5],desiredQPosition[6]);



	CalculateHT(1);
    4092:	81 e0       	ldi	r24, 0x01	; 1
    4094:	90 e0       	ldi	r25, 0x00	; 0
    4096:	0e 94 8e 15 	call	0x2b1c	; 0x2b1c <CalculateHT>
	
	//A partir de aqu se calculan los ngulos de orientacin
	//R40 = calculateHomogenMatrix(4, 0);
	R40 = InvH(H0[3]);
    409a:	ad b7       	in	r26, 0x3d	; 61
    409c:	be b7       	in	r27, 0x3e	; 62
    409e:	a0 54       	subi	r26, 0x40	; 64
    40a0:	b0 40       	sbci	r27, 0x00	; 0
    40a2:	0f b6       	in	r0, 0x3f	; 63
    40a4:	f8 94       	cli
    40a6:	be bf       	out	0x3e, r27	; 62
    40a8:	0f be       	out	0x3f, r0	; 63
    40aa:	ad bf       	out	0x3d, r26	; 61
    40ac:	11 96       	adiw	r26, 0x01	; 1
    40ae:	eb e2       	ldi	r30, 0x2B	; 43
    40b0:	fd e0       	ldi	r31, 0x0D	; 13
    40b2:	80 e4       	ldi	r24, 0x40	; 64
    40b4:	01 90       	ld	r0, Z+
    40b6:	0d 92       	st	X+, r0
    40b8:	81 50       	subi	r24, 0x01	; 1
    40ba:	e1 f7       	brne	.-8      	; 0x40b4 <InverseKinematics+0x109c>
    40bc:	ce 01       	movw	r24, r28
    40be:	8f 51       	subi	r24, 0x1F	; 31
    40c0:	9f 4f       	sbci	r25, 0xFF	; 255
    40c2:	0e 94 30 07 	call	0xe60	; 0xe60 <InvH>
	//printf("%f \t %f \t %f \t %f \t \n",R40.value[3][0],R40.value[3][1],R40.value[3][2],R40.value[3][3]);
	//printf(" \n ");


	//R47 = R40 * R07;
	R47 = mult(R40 , R07);
    40c6:	ed b7       	in	r30, 0x3d	; 61
    40c8:	fe b7       	in	r31, 0x3e	; 62
    40ca:	e0 5c       	subi	r30, 0xC0	; 192
    40cc:	ff 4f       	sbci	r31, 0xFF	; 255
    40ce:	0f b6       	in	r0, 0x3f	; 63
    40d0:	f8 94       	cli
    40d2:	fe bf       	out	0x3e, r31	; 62
    40d4:	0f be       	out	0x3f, r0	; 63
    40d6:	ed bf       	out	0x3d, r30	; 61
    40d8:	8d b7       	in	r24, 0x3d	; 61
    40da:	9e b7       	in	r25, 0x3e	; 62
    40dc:	80 58       	subi	r24, 0x80	; 128
    40de:	90 40       	sbci	r25, 0x00	; 0
    40e0:	0f b6       	in	r0, 0x3f	; 63
    40e2:	f8 94       	cli
    40e4:	9e bf       	out	0x3e, r25	; 62
    40e6:	0f be       	out	0x3f, r0	; 63
    40e8:	8d bf       	out	0x3d, r24	; 61
    40ea:	2d b7       	in	r18, 0x3d	; 61
    40ec:	3e b7       	in	r19, 0x3e	; 62
    40ee:	2f 5f       	subi	r18, 0xFF	; 255
    40f0:	3f 4f       	sbci	r19, 0xFF	; 255
    40f2:	d9 01       	movw	r26, r18
    40f4:	fe 01       	movw	r30, r28
    40f6:	ef 51       	subi	r30, 0x1F	; 31
    40f8:	ff 4f       	sbci	r31, 0xFF	; 255
    40fa:	80 e4       	ldi	r24, 0x40	; 64
    40fc:	01 90       	ld	r0, Z+
    40fe:	0d 92       	st	X+, r0
    4100:	81 50       	subi	r24, 0x01	; 1
    4102:	e1 f7       	brne	.-8      	; 0x40fc <InverseKinematics+0x10e4>
    4104:	d9 01       	movw	r26, r18
    4106:	a0 5c       	subi	r26, 0xC0	; 192
    4108:	bf 4f       	sbci	r27, 0xFF	; 255
    410a:	fe 01       	movw	r30, r28
    410c:	ef 59       	subi	r30, 0x9F	; 159
    410e:	ff 4f       	sbci	r31, 0xFF	; 255
    4110:	80 e4       	ldi	r24, 0x40	; 64
    4112:	01 90       	ld	r0, Z+
    4114:	0d 92       	st	X+, r0
    4116:	81 50       	subi	r24, 0x01	; 1
    4118:	e1 f7       	brne	.-8      	; 0x4112 <InverseKinematics+0x10fa>
    411a:	ce 01       	movw	r24, r28
    411c:	8f 55       	subi	r24, 0x5F	; 95
    411e:	9f 4f       	sbci	r25, 0xFF	; 255
    4120:	0e 94 a7 04 	call	0x94e	; 0x94e <mult>
	//printf("%f \t %f \t %f \t %f \t \n",R47.value[2][0],R47.value[2][1],R47.value[2][2],R47.value[2][3]);
	//printf("%f \t %f \t %f \t %f \t \n",R47.value[3][0],R47.value[3][1],R47.value[3][2],R47.value[3][3]);
	//printf(" \n ");


	if ((R47.value[0][0] < 0.0001)&&(R47.value[0][0] > -0.0001))
    4124:	8e 01       	movw	r16, r28
    4126:	0f 55       	subi	r16, 0x5F	; 95
    4128:	1f 4f       	sbci	r17, 0xFF	; 255
    412a:	d8 01       	movw	r26, r16
    412c:	8d 90       	ld	r8, X+
    412e:	9d 90       	ld	r9, X+
    4130:	ad 90       	ld	r10, X+
    4132:	bc 90       	ld	r11, X
    4134:	ed b7       	in	r30, 0x3d	; 61
    4136:	fe b7       	in	r31, 0x3e	; 62
    4138:	e0 58       	subi	r30, 0x80	; 128
    413a:	ff 4f       	sbci	r31, 0xFF	; 255
    413c:	0f b6       	in	r0, 0x3f	; 63
    413e:	f8 94       	cli
    4140:	fe bf       	out	0x3e, r31	; 62
    4142:	0f be       	out	0x3f, r0	; 63
    4144:	ed bf       	out	0x3d, r30	; 61
    4146:	c5 01       	movw	r24, r10
    4148:	b4 01       	movw	r22, r8
    414a:	27 e1       	ldi	r18, 0x17	; 23
    414c:	37 eb       	ldi	r19, 0xB7	; 183
    414e:	41 ed       	ldi	r20, 0xD1	; 209
    4150:	58 e3       	ldi	r21, 0x38	; 56
    4152:	0e 94 5b 39 	call	0x72b6	; 0x72b6 <__cmpsf2>
    4156:	88 23       	and	r24, r24
    4158:	64 f5       	brge	.+88     	; 0x41b2 <InverseKinematics+0x119a>
    415a:	c5 01       	movw	r24, r10
    415c:	b4 01       	movw	r22, r8
    415e:	27 e1       	ldi	r18, 0x17	; 23
    4160:	37 eb       	ldi	r19, 0xB7	; 183
    4162:	41 ed       	ldi	r20, 0xD1	; 209
    4164:	58 eb       	ldi	r21, 0xB8	; 184
    4166:	0e 94 37 3b 	call	0x766e	; 0x766e <__gesf2>
    416a:	18 16       	cp	r1, r24
    416c:	14 f5       	brge	.+68     	; 0x41b2 <InverseKinematics+0x119a>
	{
		desiredQPosition[4] = 0;
    416e:	80 e0       	ldi	r24, 0x00	; 0
    4170:	90 e0       	ldi	r25, 0x00	; 0
    4172:	a0 e0       	ldi	r26, 0x00	; 0
    4174:	b0 e0       	ldi	r27, 0x00	; 0
    4176:	80 93 60 11 	sts	0x1160, r24
    417a:	90 93 61 11 	sts	0x1161, r25
    417e:	a0 93 62 11 	sts	0x1162, r26
    4182:	b0 93 63 11 	sts	0x1163, r27
		desiredQPosition[5] = 0;
    4186:	80 93 64 11 	sts	0x1164, r24
    418a:	90 93 65 11 	sts	0x1165, r25
    418e:	a0 93 66 11 	sts	0x1166, r26
    4192:	b0 93 67 11 	sts	0x1167, r27
		desiredQPosition[6] = atan2(R47.value[1][1], R47.value[1][2]);
    4196:	d8 01       	movw	r26, r16
    4198:	54 96       	adiw	r26, 0x14	; 20
    419a:	6d 91       	ld	r22, X+
    419c:	7d 91       	ld	r23, X+
    419e:	8d 91       	ld	r24, X+
    41a0:	9c 91       	ld	r25, X
    41a2:	57 97       	sbiw	r26, 0x17	; 23
    41a4:	58 96       	adiw	r26, 0x18	; 24
    41a6:	2d 91       	ld	r18, X+
    41a8:	3d 91       	ld	r19, X+
    41aa:	4d 91       	ld	r20, X+
    41ac:	5c 91       	ld	r21, X
    41ae:	5b 97       	sbiw	r26, 0x1b	; 27
    41b0:	43 c0       	rjmp	.+134    	; 0x4238 <InverseKinematics+0x1220>
		//printf("d q1 %f %f %f %f %f %f %f \n\r",desiredQPosition[0],desiredQPosition[1],desiredQPosition[2],desiredQPosition[3],desiredQPosition[4],desiredQPosition[5],desiredQPosition[6]);
	}
	else
	{
		desiredQPosition[5] = atan2(sqrt(1 - pow(R47.value[2][0], 2)), (R47.value[2][0]));
    41b2:	31 ea       	ldi	r19, 0xA1	; 161
    41b4:	c3 2e       	mov	r12, r19
    41b6:	d1 2c       	mov	r13, r1
    41b8:	cc 0e       	add	r12, r28
    41ba:	dd 1e       	adc	r13, r29
    41bc:	f6 01       	movw	r30, r12
    41be:	e0 a0       	ldd	r14, Z+32	; 0x20
    41c0:	f1 a0       	ldd	r15, Z+33	; 0x21
    41c2:	02 a1       	ldd	r16, Z+34	; 0x22
    41c4:	13 a1       	ldd	r17, Z+35	; 0x23
    41c6:	c8 01       	movw	r24, r16
    41c8:	b7 01       	movw	r22, r14
    41ca:	a8 01       	movw	r20, r16
    41cc:	97 01       	movw	r18, r14
    41ce:	0e 94 42 3b 	call	0x7684	; 0x7684 <__mulsf3>
    41d2:	9b 01       	movw	r18, r22
    41d4:	ac 01       	movw	r20, r24
    41d6:	60 e0       	ldi	r22, 0x00	; 0
    41d8:	70 e0       	ldi	r23, 0x00	; 0
    41da:	80 e8       	ldi	r24, 0x80	; 128
    41dc:	9f e3       	ldi	r25, 0x3F	; 63
    41de:	0e 94 7d 38 	call	0x70fa	; 0x70fa <__subsf3>
    41e2:	0e 94 af 3b 	call	0x775e	; 0x775e <sqrt>
    41e6:	a8 01       	movw	r20, r16
    41e8:	97 01       	movw	r18, r14
    41ea:	0e 94 08 39 	call	0x7210	; 0x7210 <atan2>
    41ee:	60 93 64 11 	sts	0x1164, r22
    41f2:	70 93 65 11 	sts	0x1165, r23
    41f6:	80 93 66 11 	sts	0x1166, r24
    41fa:	90 93 67 11 	sts	0x1167, r25
		desiredQPosition[4] = atan2(R47.value[1][0], R47.value[0][0]);
    41fe:	d6 01       	movw	r26, r12
    4200:	50 96       	adiw	r26, 0x10	; 16
    4202:	6d 91       	ld	r22, X+
    4204:	7d 91       	ld	r23, X+
    4206:	8d 91       	ld	r24, X+
    4208:	9c 91       	ld	r25, X
    420a:	53 97       	sbiw	r26, 0x13	; 19
    420c:	a5 01       	movw	r20, r10
    420e:	94 01       	movw	r18, r8
    4210:	0e 94 08 39 	call	0x7210	; 0x7210 <atan2>
    4214:	60 93 60 11 	sts	0x1160, r22
    4218:	70 93 61 11 	sts	0x1161, r23
    421c:	80 93 62 11 	sts	0x1162, r24
    4220:	90 93 63 11 	sts	0x1163, r25
		desiredQPosition[6] = atan2(R47.value[2][2], -R47.value[2][1]);
    4224:	f6 01       	movw	r30, r12
    4226:	60 a5       	ldd	r22, Z+40	; 0x28
    4228:	71 a5       	ldd	r23, Z+41	; 0x29
    422a:	82 a5       	ldd	r24, Z+42	; 0x2a
    422c:	93 a5       	ldd	r25, Z+43	; 0x2b
    422e:	24 a1       	ldd	r18, Z+36	; 0x24
    4230:	35 a1       	ldd	r19, Z+37	; 0x25
    4232:	46 a1       	ldd	r20, Z+38	; 0x26
    4234:	57 a1       	ldd	r21, Z+39	; 0x27
    4236:	50 58       	subi	r21, 0x80	; 128
    4238:	0e 94 08 39 	call	0x7210	; 0x7210 <atan2>
    423c:	60 93 68 11 	sts	0x1168, r22
    4240:	70 93 69 11 	sts	0x1169, r23
    4244:	80 93 6a 11 	sts	0x116A, r24
    4248:	90 93 6b 11 	sts	0x116B, r25
		//printf("d q2 %f %f %f %f %f %f %f \n\r",desiredQPosition[0],desiredQPosition[1],desiredQPosition[2],desiredQPosition[3],desiredQPosition[4],desiredQPosition[5],desiredQPosition[6]);
	}
				
	if (desiredQPosition[4] > 2.4)
    424c:	60 90 60 11 	lds	r6, 0x1160
    4250:	70 90 61 11 	lds	r7, 0x1161
    4254:	80 90 62 11 	lds	r8, 0x1162
    4258:	90 90 63 11 	lds	r9, 0x1163
    425c:	c4 01       	movw	r24, r8
    425e:	b3 01       	movw	r22, r6
    4260:	2a e9       	ldi	r18, 0x9A	; 154
    4262:	39 e9       	ldi	r19, 0x99	; 153
    4264:	49 e1       	ldi	r20, 0x19	; 25
    4266:	50 e4       	ldi	r21, 0x40	; 64
    4268:	0e 94 37 3b 	call	0x766e	; 0x766e <__gesf2>
    426c:	18 16       	cp	r1, r24
    426e:	0c f0       	brlt	.+2      	; 0x4272 <InverseKinematics+0x125a>
    4270:	4c c0       	rjmp	.+152    	; 0x430a <InverseKinematics+0x12f2>
	{
		desiredQPosition[4] -= M_PI;
    4272:	c4 01       	movw	r24, r8
    4274:	b3 01       	movw	r22, r6
    4276:	2b ed       	ldi	r18, 0xDB	; 219
    4278:	3f e0       	ldi	r19, 0x0F	; 15
    427a:	49 e4       	ldi	r20, 0x49	; 73
    427c:	50 e4       	ldi	r21, 0x40	; 64
    427e:	0e 94 7d 38 	call	0x70fa	; 0x70fa <__subsf3>
    4282:	60 93 60 11 	sts	0x1160, r22
    4286:	70 93 61 11 	sts	0x1161, r23
    428a:	80 93 62 11 	sts	0x1162, r24
    428e:	90 93 63 11 	sts	0x1163, r25
		desiredQPosition[5] *= -1;
    4292:	80 91 64 11 	lds	r24, 0x1164
    4296:	90 91 65 11 	lds	r25, 0x1165
    429a:	a0 91 66 11 	lds	r26, 0x1166
    429e:	b0 91 67 11 	lds	r27, 0x1167
    42a2:	b0 58       	subi	r27, 0x80	; 128
    42a4:	80 93 64 11 	sts	0x1164, r24
    42a8:	90 93 65 11 	sts	0x1165, r25
    42ac:	a0 93 66 11 	sts	0x1166, r26
    42b0:	b0 93 67 11 	sts	0x1167, r27
		if (desiredQPosition[6] > 0) desiredQPosition[6] -= M_PI;
    42b4:	60 90 68 11 	lds	r6, 0x1168
    42b8:	70 90 69 11 	lds	r7, 0x1169
    42bc:	80 90 6a 11 	lds	r8, 0x116A
    42c0:	90 90 6b 11 	lds	r9, 0x116B
    42c4:	c4 01       	movw	r24, r8
    42c6:	b3 01       	movw	r22, r6
    42c8:	20 e0       	ldi	r18, 0x00	; 0
    42ca:	30 e0       	ldi	r19, 0x00	; 0
    42cc:	40 e0       	ldi	r20, 0x00	; 0
    42ce:	50 e0       	ldi	r21, 0x00	; 0
    42d0:	0e 94 37 3b 	call	0x766e	; 0x766e <__gesf2>
    42d4:	18 16       	cp	r1, r24
    42d6:	4c f4       	brge	.+18     	; 0x42ea <InverseKinematics+0x12d2>
    42d8:	c4 01       	movw	r24, r8
    42da:	b3 01       	movw	r22, r6
    42dc:	2b ed       	ldi	r18, 0xDB	; 219
    42de:	3f e0       	ldi	r19, 0x0F	; 15
    42e0:	49 e4       	ldi	r20, 0x49	; 73
    42e2:	50 e4       	ldi	r21, 0x40	; 64
    42e4:	0e 94 7d 38 	call	0x70fa	; 0x70fa <__subsf3>
    42e8:	08 c0       	rjmp	.+16     	; 0x42fa <InverseKinematics+0x12e2>
		else desiredQPosition[6] += M_PI;
    42ea:	c4 01       	movw	r24, r8
    42ec:	b3 01       	movw	r22, r6
    42ee:	2b ed       	ldi	r18, 0xDB	; 219
    42f0:	3f e0       	ldi	r19, 0x0F	; 15
    42f2:	49 e4       	ldi	r20, 0x49	; 73
    42f4:	50 e4       	ldi	r21, 0x40	; 64
    42f6:	0e 94 7e 38 	call	0x70fc	; 0x70fc <__addsf3>
    42fa:	60 93 68 11 	sts	0x1168, r22
    42fe:	70 93 69 11 	sts	0x1169, r23
    4302:	80 93 6a 11 	sts	0x116A, r24
    4306:	90 93 6b 11 	sts	0x116B, r25

		//printf("d q3 %f %f %f %f %f %f %f \n\r",desiredQPosition[0],desiredQPosition[1],desiredQPosition[2],desiredQPosition[3],desiredQPosition[4],desiredQPosition[5],desiredQPosition[6]);

	}
		if (desiredQPosition[4] < -2.4)
    430a:	60 90 60 11 	lds	r6, 0x1160
    430e:	70 90 61 11 	lds	r7, 0x1161
    4312:	80 90 62 11 	lds	r8, 0x1162
    4316:	90 90 63 11 	lds	r9, 0x1163
    431a:	c4 01       	movw	r24, r8
    431c:	b3 01       	movw	r22, r6
    431e:	2a e9       	ldi	r18, 0x9A	; 154
    4320:	39 e9       	ldi	r19, 0x99	; 153
    4322:	49 e1       	ldi	r20, 0x19	; 25
    4324:	50 ec       	ldi	r21, 0xC0	; 192
    4326:	0e 94 5b 39 	call	0x72b6	; 0x72b6 <__cmpsf2>
    432a:	88 23       	and	r24, r24
    432c:	0c f0       	brlt	.+2      	; 0x4330 <InverseKinematics+0x1318>
    432e:	4c c0       	rjmp	.+152    	; 0x43c8 <InverseKinematics+0x13b0>
		{
			desiredQPosition[4] += M_PI;
    4330:	c4 01       	movw	r24, r8
    4332:	b3 01       	movw	r22, r6
    4334:	2b ed       	ldi	r18, 0xDB	; 219
    4336:	3f e0       	ldi	r19, 0x0F	; 15
    4338:	49 e4       	ldi	r20, 0x49	; 73
    433a:	50 e4       	ldi	r21, 0x40	; 64
    433c:	0e 94 7e 38 	call	0x70fc	; 0x70fc <__addsf3>
    4340:	60 93 60 11 	sts	0x1160, r22
    4344:	70 93 61 11 	sts	0x1161, r23
    4348:	80 93 62 11 	sts	0x1162, r24
    434c:	90 93 63 11 	sts	0x1163, r25
			desiredQPosition[5] *= -1;
    4350:	80 91 64 11 	lds	r24, 0x1164
    4354:	90 91 65 11 	lds	r25, 0x1165
    4358:	a0 91 66 11 	lds	r26, 0x1166
    435c:	b0 91 67 11 	lds	r27, 0x1167
    4360:	b0 58       	subi	r27, 0x80	; 128
    4362:	80 93 64 11 	sts	0x1164, r24
    4366:	90 93 65 11 	sts	0x1165, r25
    436a:	a0 93 66 11 	sts	0x1166, r26
    436e:	b0 93 67 11 	sts	0x1167, r27
			if (desiredQPosition[6] > 0) desiredQPosition[6] -= M_PI;
    4372:	60 90 68 11 	lds	r6, 0x1168
    4376:	70 90 69 11 	lds	r7, 0x1169
    437a:	80 90 6a 11 	lds	r8, 0x116A
    437e:	90 90 6b 11 	lds	r9, 0x116B
    4382:	c4 01       	movw	r24, r8
    4384:	b3 01       	movw	r22, r6
    4386:	20 e0       	ldi	r18, 0x00	; 0
    4388:	30 e0       	ldi	r19, 0x00	; 0
    438a:	40 e0       	ldi	r20, 0x00	; 0
    438c:	50 e0       	ldi	r21, 0x00	; 0
    438e:	0e 94 37 3b 	call	0x766e	; 0x766e <__gesf2>
    4392:	18 16       	cp	r1, r24
    4394:	4c f4       	brge	.+18     	; 0x43a8 <InverseKinematics+0x1390>
    4396:	c4 01       	movw	r24, r8
    4398:	b3 01       	movw	r22, r6
    439a:	2b ed       	ldi	r18, 0xDB	; 219
    439c:	3f e0       	ldi	r19, 0x0F	; 15
    439e:	49 e4       	ldi	r20, 0x49	; 73
    43a0:	50 e4       	ldi	r21, 0x40	; 64
    43a2:	0e 94 7d 38 	call	0x70fa	; 0x70fa <__subsf3>
    43a6:	08 c0       	rjmp	.+16     	; 0x43b8 <InverseKinematics+0x13a0>
			else desiredQPosition[6] += M_PI;
    43a8:	c4 01       	movw	r24, r8
    43aa:	b3 01       	movw	r22, r6
    43ac:	2b ed       	ldi	r18, 0xDB	; 219
    43ae:	3f e0       	ldi	r19, 0x0F	; 15
    43b0:	49 e4       	ldi	r20, 0x49	; 73
    43b2:	50 e4       	ldi	r21, 0x40	; 64
    43b4:	0e 94 7e 38 	call	0x70fc	; 0x70fc <__addsf3>
    43b8:	60 93 68 11 	sts	0x1168, r22
    43bc:	70 93 69 11 	sts	0x1169, r23
    43c0:	80 93 6a 11 	sts	0x116A, r24
    43c4:	90 93 6b 11 	sts	0x116B, r25

			//printf("d q4 %f %f %f %f %f %f %f \n\r",desiredQPosition[0],desiredQPosition[1],desiredQPosition[2],desiredQPosition[3],desiredQPosition[4],desiredQPosition[5],desiredQPosition[6]);

		}

		CalculateHT(1);
    43c8:	81 e0       	ldi	r24, 0x01	; 1
    43ca:	90 e0       	ldi	r25, 0x00	; 0
    43cc:	0e 94 8e 15 	call	0x2b1c	; 0x2b1c <CalculateHT>
		printf("dINV qF %f %f %f %f %f %f %f \r",desiredQPosition[0],desiredQPosition[1],desiredQPosition[2],desiredQPosition[3],desiredQPosition[4],desiredQPosition[5],desiredQPosition[6]);
    43d0:	8d b7       	in	r24, 0x3d	; 61
    43d2:	9e b7       	in	r25, 0x3e	; 62
    43d4:	4e 97       	sbiw	r24, 0x1e	; 30
    43d6:	0f b6       	in	r0, 0x3f	; 63
    43d8:	f8 94       	cli
    43da:	9e bf       	out	0x3e, r25	; 62
    43dc:	0f be       	out	0x3f, r0	; 63
    43de:	8d bf       	out	0x3d, r24	; 61
    43e0:	ed b7       	in	r30, 0x3d	; 61
    43e2:	fe b7       	in	r31, 0x3e	; 62
    43e4:	31 96       	adiw	r30, 0x01	; 1
    43e6:	8c e2       	ldi	r24, 0x2C	; 44
    43e8:	96 e0       	ldi	r25, 0x06	; 6
    43ea:	ad b7       	in	r26, 0x3d	; 61
    43ec:	be b7       	in	r27, 0x3e	; 62
    43ee:	12 96       	adiw	r26, 0x02	; 2
    43f0:	9c 93       	st	X, r25
    43f2:	8e 93       	st	-X, r24
    43f4:	11 97       	sbiw	r26, 0x01	; 1
    43f6:	80 91 50 11 	lds	r24, 0x1150
    43fa:	90 91 51 11 	lds	r25, 0x1151
    43fe:	a0 91 52 11 	lds	r26, 0x1152
    4402:	b0 91 53 11 	lds	r27, 0x1153
    4406:	82 83       	std	Z+2, r24	; 0x02
    4408:	93 83       	std	Z+3, r25	; 0x03
    440a:	a4 83       	std	Z+4, r26	; 0x04
    440c:	b5 83       	std	Z+5, r27	; 0x05
    440e:	80 91 54 11 	lds	r24, 0x1154
    4412:	90 91 55 11 	lds	r25, 0x1155
    4416:	a0 91 56 11 	lds	r26, 0x1156
    441a:	b0 91 57 11 	lds	r27, 0x1157
    441e:	86 83       	std	Z+6, r24	; 0x06
    4420:	97 83       	std	Z+7, r25	; 0x07
    4422:	a0 87       	std	Z+8, r26	; 0x08
    4424:	b1 87       	std	Z+9, r27	; 0x09
    4426:	80 91 58 11 	lds	r24, 0x1158
    442a:	90 91 59 11 	lds	r25, 0x1159
    442e:	a0 91 5a 11 	lds	r26, 0x115A
    4432:	b0 91 5b 11 	lds	r27, 0x115B
    4436:	82 87       	std	Z+10, r24	; 0x0a
    4438:	93 87       	std	Z+11, r25	; 0x0b
    443a:	a4 87       	std	Z+12, r26	; 0x0c
    443c:	b5 87       	std	Z+13, r27	; 0x0d
    443e:	80 91 5c 11 	lds	r24, 0x115C
    4442:	90 91 5d 11 	lds	r25, 0x115D
    4446:	a0 91 5e 11 	lds	r26, 0x115E
    444a:	b0 91 5f 11 	lds	r27, 0x115F
    444e:	86 87       	std	Z+14, r24	; 0x0e
    4450:	97 87       	std	Z+15, r25	; 0x0f
    4452:	a0 8b       	std	Z+16, r26	; 0x10
    4454:	b1 8b       	std	Z+17, r27	; 0x11
    4456:	80 91 60 11 	lds	r24, 0x1160
    445a:	90 91 61 11 	lds	r25, 0x1161
    445e:	a0 91 62 11 	lds	r26, 0x1162
    4462:	b0 91 63 11 	lds	r27, 0x1163
    4466:	82 8b       	std	Z+18, r24	; 0x12
    4468:	93 8b       	std	Z+19, r25	; 0x13
    446a:	a4 8b       	std	Z+20, r26	; 0x14
    446c:	b5 8b       	std	Z+21, r27	; 0x15
    446e:	80 91 64 11 	lds	r24, 0x1164
    4472:	90 91 65 11 	lds	r25, 0x1165
    4476:	a0 91 66 11 	lds	r26, 0x1166
    447a:	b0 91 67 11 	lds	r27, 0x1167
    447e:	86 8b       	std	Z+22, r24	; 0x16
    4480:	97 8b       	std	Z+23, r25	; 0x17
    4482:	a0 8f       	std	Z+24, r26	; 0x18
    4484:	b1 8f       	std	Z+25, r27	; 0x19
    4486:	80 91 68 11 	lds	r24, 0x1168
    448a:	90 91 69 11 	lds	r25, 0x1169
    448e:	a0 91 6a 11 	lds	r26, 0x116A
    4492:	b0 91 6b 11 	lds	r27, 0x116B
    4496:	82 8f       	std	Z+26, r24	; 0x1a
    4498:	93 8f       	std	Z+27, r25	; 0x1b
    449a:	a4 8f       	std	Z+28, r26	; 0x1c
    449c:	b5 8f       	std	Z+29, r27	; 0x1d
    449e:	0e 94 fc 3e 	call	0x7df8	; 0x7df8 <printf>
    44a2:	ed b7       	in	r30, 0x3d	; 61
    44a4:	fe b7       	in	r31, 0x3e	; 62
    44a6:	7e 96       	adiw	r30, 0x1e	; 30
    44a8:	0f b6       	in	r0, 0x3f	; 63
    44aa:	f8 94       	cli
    44ac:	fe bf       	out	0x3e, r31	; 62
    44ae:	0f be       	out	0x3f, r0	; 63
    44b0:	ed bf       	out	0x3d, r30	; 61
}
    44b2:	ce 51       	subi	r28, 0x1E	; 30
    44b4:	de 4f       	sbci	r29, 0xFE	; 254
    44b6:	0f b6       	in	r0, 0x3f	; 63
    44b8:	f8 94       	cli
    44ba:	de bf       	out	0x3e, r29	; 62
    44bc:	0f be       	out	0x3f, r0	; 63
    44be:	cd bf       	out	0x3d, r28	; 61
    44c0:	cf 91       	pop	r28
    44c2:	df 91       	pop	r29
    44c4:	1f 91       	pop	r17
    44c6:	0f 91       	pop	r16
    44c8:	ff 90       	pop	r15
    44ca:	ef 90       	pop	r14
    44cc:	df 90       	pop	r13
    44ce:	cf 90       	pop	r12
    44d0:	bf 90       	pop	r11
    44d2:	af 90       	pop	r10
    44d4:	9f 90       	pop	r9
    44d6:	8f 90       	pop	r8
    44d8:	7f 90       	pop	r7
    44da:	6f 90       	pop	r6
    44dc:	5f 90       	pop	r5
    44de:	4f 90       	pop	r4
    44e0:	3f 90       	pop	r3
    44e2:	2f 90       	pop	r2
    44e4:	08 95       	ret

000044e6 <TestMult>:
void TestMult()
{


	//printf("d 1 %f %f %f %f %f %f %f \n\r",desiredXPosition[0],desiredXPosition[1],desiredXPosition[2],desiredXPosition[3],desiredXPosition[4],desiredXPosition[5],desiredXPosition[6]);
	InverseKinematics();
    44e6:	0e 94 0c 18 	call	0x3018	; 0x3018 <InverseKinematics>
	

	printf("d F %f %f %f %f %f %f %f \r",desiredQPosition[0],desiredQPosition[1],desiredQPosition[2],desiredQPosition[3],desiredQPosition[4],desiredQPosition[5],desiredQPosition[6]);
    44ea:	8d b7       	in	r24, 0x3d	; 61
    44ec:	9e b7       	in	r25, 0x3e	; 62
    44ee:	4e 97       	sbiw	r24, 0x1e	; 30
    44f0:	0f b6       	in	r0, 0x3f	; 63
    44f2:	f8 94       	cli
    44f4:	9e bf       	out	0x3e, r25	; 62
    44f6:	0f be       	out	0x3f, r0	; 63
    44f8:	8d bf       	out	0x3d, r24	; 61
    44fa:	ed b7       	in	r30, 0x3d	; 61
    44fc:	fe b7       	in	r31, 0x3e	; 62
    44fe:	31 96       	adiw	r30, 0x01	; 1
    4500:	8b e4       	ldi	r24, 0x4B	; 75
    4502:	96 e0       	ldi	r25, 0x06	; 6
    4504:	ad b7       	in	r26, 0x3d	; 61
    4506:	be b7       	in	r27, 0x3e	; 62
    4508:	12 96       	adiw	r26, 0x02	; 2
    450a:	9c 93       	st	X, r25
    450c:	8e 93       	st	-X, r24
    450e:	11 97       	sbiw	r26, 0x01	; 1
    4510:	80 91 50 11 	lds	r24, 0x1150
    4514:	90 91 51 11 	lds	r25, 0x1151
    4518:	a0 91 52 11 	lds	r26, 0x1152
    451c:	b0 91 53 11 	lds	r27, 0x1153
    4520:	82 83       	std	Z+2, r24	; 0x02
    4522:	93 83       	std	Z+3, r25	; 0x03
    4524:	a4 83       	std	Z+4, r26	; 0x04
    4526:	b5 83       	std	Z+5, r27	; 0x05
    4528:	80 91 54 11 	lds	r24, 0x1154
    452c:	90 91 55 11 	lds	r25, 0x1155
    4530:	a0 91 56 11 	lds	r26, 0x1156
    4534:	b0 91 57 11 	lds	r27, 0x1157
    4538:	86 83       	std	Z+6, r24	; 0x06
    453a:	97 83       	std	Z+7, r25	; 0x07
    453c:	a0 87       	std	Z+8, r26	; 0x08
    453e:	b1 87       	std	Z+9, r27	; 0x09
    4540:	80 91 58 11 	lds	r24, 0x1158
    4544:	90 91 59 11 	lds	r25, 0x1159
    4548:	a0 91 5a 11 	lds	r26, 0x115A
    454c:	b0 91 5b 11 	lds	r27, 0x115B
    4550:	82 87       	std	Z+10, r24	; 0x0a
    4552:	93 87       	std	Z+11, r25	; 0x0b
    4554:	a4 87       	std	Z+12, r26	; 0x0c
    4556:	b5 87       	std	Z+13, r27	; 0x0d
    4558:	80 91 5c 11 	lds	r24, 0x115C
    455c:	90 91 5d 11 	lds	r25, 0x115D
    4560:	a0 91 5e 11 	lds	r26, 0x115E
    4564:	b0 91 5f 11 	lds	r27, 0x115F
    4568:	86 87       	std	Z+14, r24	; 0x0e
    456a:	97 87       	std	Z+15, r25	; 0x0f
    456c:	a0 8b       	std	Z+16, r26	; 0x10
    456e:	b1 8b       	std	Z+17, r27	; 0x11
    4570:	80 91 60 11 	lds	r24, 0x1160
    4574:	90 91 61 11 	lds	r25, 0x1161
    4578:	a0 91 62 11 	lds	r26, 0x1162
    457c:	b0 91 63 11 	lds	r27, 0x1163
    4580:	82 8b       	std	Z+18, r24	; 0x12
    4582:	93 8b       	std	Z+19, r25	; 0x13
    4584:	a4 8b       	std	Z+20, r26	; 0x14
    4586:	b5 8b       	std	Z+21, r27	; 0x15
    4588:	80 91 64 11 	lds	r24, 0x1164
    458c:	90 91 65 11 	lds	r25, 0x1165
    4590:	a0 91 66 11 	lds	r26, 0x1166
    4594:	b0 91 67 11 	lds	r27, 0x1167
    4598:	86 8b       	std	Z+22, r24	; 0x16
    459a:	97 8b       	std	Z+23, r25	; 0x17
    459c:	a0 8f       	std	Z+24, r26	; 0x18
    459e:	b1 8f       	std	Z+25, r27	; 0x19
    45a0:	80 91 68 11 	lds	r24, 0x1168
    45a4:	90 91 69 11 	lds	r25, 0x1169
    45a8:	a0 91 6a 11 	lds	r26, 0x116A
    45ac:	b0 91 6b 11 	lds	r27, 0x116B
    45b0:	82 8f       	std	Z+26, r24	; 0x1a
    45b2:	93 8f       	std	Z+27, r25	; 0x1b
    45b4:	a4 8f       	std	Z+28, r26	; 0x1c
    45b6:	b5 8f       	std	Z+29, r27	; 0x1d
    45b8:	0e 94 fc 3e 	call	0x7df8	; 0x7df8 <printf>
    45bc:	8d b7       	in	r24, 0x3d	; 61
    45be:	9e b7       	in	r25, 0x3e	; 62
    45c0:	4e 96       	adiw	r24, 0x1e	; 30
    45c2:	0f b6       	in	r0, 0x3f	; 63
    45c4:	f8 94       	cli
    45c6:	9e bf       	out	0x3e, r25	; 62
    45c8:	0f be       	out	0x3f, r0	; 63
    45ca:	8d bf       	out	0x3d, r24	; 61
	

	
}
    45cc:	08 95       	ret

000045ce <SetdesiredPosition>:
		currentQPosition[i] = GetPosition(i);
	}
}

int SetdesiredPosition(float p0,float p1,float p2,float p3,float p4,float p5,float p6, float tf)
{
    45ce:	2f 92       	push	r2
    45d0:	3f 92       	push	r3
    45d2:	4f 92       	push	r4
    45d4:	5f 92       	push	r5
    45d6:	6f 92       	push	r6
    45d8:	7f 92       	push	r7
    45da:	8f 92       	push	r8
    45dc:	9f 92       	push	r9
    45de:	af 92       	push	r10
    45e0:	bf 92       	push	r11
    45e2:	cf 92       	push	r12
    45e4:	df 92       	push	r13
    45e6:	ef 92       	push	r14
    45e8:	ff 92       	push	r15
    45ea:	0f 93       	push	r16
    45ec:	1f 93       	push	r17
    45ee:	df 93       	push	r29
    45f0:	cf 93       	push	r28
    45f2:	cd b7       	in	r28, 0x3d	; 61
    45f4:	de b7       	in	r29, 0x3e	; 62
    45f6:	62 97       	sbiw	r28, 0x12	; 18
    45f8:	0f b6       	in	r0, 0x3f	; 63
    45fa:	f8 94       	cli
    45fc:	de bf       	out	0x3e, r29	; 62
    45fe:	0f be       	out	0x3f, r0	; 63
    4600:	cd bf       	out	0x3d, r28	; 61
    4602:	3b 01       	movw	r6, r22
    4604:	4c 01       	movw	r8, r24
    4606:	19 01       	movw	r2, r18
    4608:	2a 01       	movw	r4, r20
	int succes;
	succes = 0;

	SetMaxSpeeds(20);
    460a:	60 e0       	ldi	r22, 0x00	; 0
    460c:	70 e0       	ldi	r23, 0x00	; 0
    460e:	80 ea       	ldi	r24, 0xA0	; 160
    4610:	91 e4       	ldi	r25, 0x41	; 65
    4612:	0e 94 ba 0f 	call	0x1f74	; 0x1f74 <SetMaxSpeeds>
	updateQPosition();
    4616:	0e 94 6a 12 	call	0x24d4	; 0x24d4 <updateQPosition>

	if(tf<0.5)
    461a:	6c a9       	ldd	r22, Y+52	; 0x34
    461c:	7d a9       	ldd	r23, Y+53	; 0x35
    461e:	8e a9       	ldd	r24, Y+54	; 0x36
    4620:	9f a9       	ldd	r25, Y+55	; 0x37
    4622:	20 e0       	ldi	r18, 0x00	; 0
    4624:	30 e0       	ldi	r19, 0x00	; 0
    4626:	40 e0       	ldi	r20, 0x00	; 0
    4628:	5f e3       	ldi	r21, 0x3F	; 63
    462a:	0e 94 5b 39 	call	0x72b6	; 0x72b6 <__cmpsf2>
    462e:	88 23       	and	r24, r24
    4630:	0c f4       	brge	.+2      	; 0x4634 <SetdesiredPosition+0x66>
    4632:	ea c1       	rjmp	.+980    	; 0x4a08 <SetdesiredPosition+0x43a>
		return 0;
	}

	// 1) Escribe Dato. Posicin Cartesiana Deseada.

	if(instructionSet==1)
    4634:	80 91 64 08 	lds	r24, 0x0864
    4638:	90 91 65 08 	lds	r25, 0x0865
    463c:	81 30       	cpi	r24, 0x01	; 1
    463e:	91 05       	cpc	r25, r1
    4640:	09 f0       	breq	.+2      	; 0x4644 <SetdesiredPosition+0x76>
    4642:	49 c0       	rjmp	.+146    	; 0x46d6 <SetdesiredPosition+0x108>
	{
	
		desiredXPosition[0] = p0;
    4644:	60 92 a4 11 	sts	0x11A4, r6
    4648:	70 92 a5 11 	sts	0x11A5, r7
    464c:	80 92 a6 11 	sts	0x11A6, r8
    4650:	90 92 a7 11 	sts	0x11A7, r9
		desiredXPosition[1] = p1;
    4654:	20 92 a8 11 	sts	0x11A8, r2
    4658:	30 92 a9 11 	sts	0x11A9, r3
    465c:	40 92 aa 11 	sts	0x11AA, r4
    4660:	50 92 ab 11 	sts	0x11AB, r5
		desiredXPosition[2] = p2;
    4664:	e0 92 ac 11 	sts	0x11AC, r14
    4668:	f0 92 ad 11 	sts	0x11AD, r15
    466c:	00 93 ae 11 	sts	0x11AE, r16
    4670:	10 93 af 11 	sts	0x11AF, r17
		desiredXPosition[3] = p3;
    4674:	a0 92 b0 11 	sts	0x11B0, r10
    4678:	b0 92 b1 11 	sts	0x11B1, r11
    467c:	c0 92 b2 11 	sts	0x11B2, r12
    4680:	d0 92 b3 11 	sts	0x11B3, r13
		desiredXPosition[4] = p4;
    4684:	88 a5       	ldd	r24, Y+40	; 0x28
    4686:	99 a5       	ldd	r25, Y+41	; 0x29
    4688:	aa a5       	ldd	r26, Y+42	; 0x2a
    468a:	bb a5       	ldd	r27, Y+43	; 0x2b
    468c:	80 93 b4 11 	sts	0x11B4, r24
    4690:	90 93 b5 11 	sts	0x11B5, r25
    4694:	a0 93 b6 11 	sts	0x11B6, r26
    4698:	b0 93 b7 11 	sts	0x11B7, r27
		desiredXPosition[5] = p5;
    469c:	8c a5       	ldd	r24, Y+44	; 0x2c
    469e:	9d a5       	ldd	r25, Y+45	; 0x2d
    46a0:	ae a5       	ldd	r26, Y+46	; 0x2e
    46a2:	bf a5       	ldd	r27, Y+47	; 0x2f
    46a4:	80 93 b8 11 	sts	0x11B8, r24
    46a8:	90 93 b9 11 	sts	0x11B9, r25
    46ac:	a0 93 ba 11 	sts	0x11BA, r26
    46b0:	b0 93 bb 11 	sts	0x11BB, r27
		desiredXPosition[6] = p6;
    46b4:	88 a9       	ldd	r24, Y+48	; 0x30
    46b6:	99 a9       	ldd	r25, Y+49	; 0x31
    46b8:	aa a9       	ldd	r26, Y+50	; 0x32
    46ba:	bb a9       	ldd	r27, Y+51	; 0x33
    46bc:	80 93 bc 11 	sts	0x11BC, r24
    46c0:	90 93 bd 11 	sts	0x11BD, r25
    46c4:	a0 93 be 11 	sts	0x11BE, r26
    46c8:	b0 93 bf 11 	sts	0x11BF, r27

		// 2) Cinemtica Inversa

		//printf("Inverse Kinematics \n\r");
		succes = InverseKinematics();
    46cc:	0e 94 0c 18 	call	0x3018	; 0x3018 <InverseKinematics>
    46d0:	9a 8b       	std	Y+18, r25	; 0x12
    46d2:	89 8b       	std	Y+17, r24	; 0x11
    46d4:	4d c0       	rjmp	.+154    	; 0x4770 <SetdesiredPosition+0x1a2>
	}
	else if(instructionSet==2)
    46d6:	02 97       	sbiw	r24, 0x02	; 2
    46d8:	19 f0       	breq	.+6      	; 0x46e0 <SetdesiredPosition+0x112>
    46da:	1a 8a       	std	Y+18, r1	; 0x12
    46dc:	19 8a       	std	Y+17, r1	; 0x11
    46de:	48 c0       	rjmp	.+144    	; 0x4770 <SetdesiredPosition+0x1a2>
	{
		desiredQPosition[0] = p0;
    46e0:	60 92 50 11 	sts	0x1150, r6
    46e4:	70 92 51 11 	sts	0x1151, r7
    46e8:	80 92 52 11 	sts	0x1152, r8
    46ec:	90 92 53 11 	sts	0x1153, r9
		desiredQPosition[1] = p1;
    46f0:	20 92 54 11 	sts	0x1154, r2
    46f4:	30 92 55 11 	sts	0x1155, r3
    46f8:	40 92 56 11 	sts	0x1156, r4
    46fc:	50 92 57 11 	sts	0x1157, r5
		desiredQPosition[2] = p2;
    4700:	e0 92 58 11 	sts	0x1158, r14
    4704:	f0 92 59 11 	sts	0x1159, r15
    4708:	00 93 5a 11 	sts	0x115A, r16
    470c:	10 93 5b 11 	sts	0x115B, r17
		desiredQPosition[3] = p3;
    4710:	a0 92 5c 11 	sts	0x115C, r10
    4714:	b0 92 5d 11 	sts	0x115D, r11
    4718:	c0 92 5e 11 	sts	0x115E, r12
    471c:	d0 92 5f 11 	sts	0x115F, r13
		desiredQPosition[4] = p4;
    4720:	88 a5       	ldd	r24, Y+40	; 0x28
    4722:	99 a5       	ldd	r25, Y+41	; 0x29
    4724:	aa a5       	ldd	r26, Y+42	; 0x2a
    4726:	bb a5       	ldd	r27, Y+43	; 0x2b
    4728:	80 93 60 11 	sts	0x1160, r24
    472c:	90 93 61 11 	sts	0x1161, r25
    4730:	a0 93 62 11 	sts	0x1162, r26
    4734:	b0 93 63 11 	sts	0x1163, r27
		desiredQPosition[5] = p5;
    4738:	8c a5       	ldd	r24, Y+44	; 0x2c
    473a:	9d a5       	ldd	r25, Y+45	; 0x2d
    473c:	ae a5       	ldd	r26, Y+46	; 0x2e
    473e:	bf a5       	ldd	r27, Y+47	; 0x2f
    4740:	80 93 64 11 	sts	0x1164, r24
    4744:	90 93 65 11 	sts	0x1165, r25
    4748:	a0 93 66 11 	sts	0x1166, r26
    474c:	b0 93 67 11 	sts	0x1167, r27
		desiredQPosition[6] = p6;
    4750:	88 a9       	ldd	r24, Y+48	; 0x30
    4752:	99 a9       	ldd	r25, Y+49	; 0x31
    4754:	aa a9       	ldd	r26, Y+50	; 0x32
    4756:	bb a9       	ldd	r27, Y+51	; 0x33
    4758:	80 93 68 11 	sts	0x1168, r24
    475c:	90 93 69 11 	sts	0x1169, r25
    4760:	a0 93 6a 11 	sts	0x116A, r26
    4764:	b0 93 6b 11 	sts	0x116B, r27
    4768:	a1 e0       	ldi	r26, 0x01	; 1
    476a:	b0 e0       	ldi	r27, 0x00	; 0
    476c:	ba 8b       	std	Y+18, r27	; 0x12
    476e:	a9 8b       	std	Y+17, r26	; 0x11
	//	printf("Angular Pos \n\r");
		succes = 1;
	}

	timeCounter = 0;
    4770:	10 92 63 08 	sts	0x0863, r1
    4774:	10 92 62 08 	sts	0x0862, r1
	executionTF = tf;
    4778:	8c a9       	ldd	r24, Y+52	; 0x34
    477a:	9d a9       	ldd	r25, Y+53	; 0x35
    477c:	ae a9       	ldd	r26, Y+54	; 0x36
    477e:	bf a9       	ldd	r27, Y+55	; 0x37
    4780:	80 93 5e 08 	sts	0x085E, r24
    4784:	90 93 5f 08 	sts	0x085F, r25
    4788:	a0 93 60 08 	sts	0x0860, r26
    478c:	b0 93 61 08 	sts	0x0861, r27

	printf("CurrentQPos: %f , %f , %f , %f  , %f , %f , %f \r", currentQPosition[0],currentQPosition[1],currentQPosition[2],currentQPosition[3],currentQPosition[4],currentQPosition[5],currentQPosition[6]);
    4790:	ad b7       	in	r26, 0x3d	; 61
    4792:	be b7       	in	r27, 0x3e	; 62
    4794:	5e 97       	sbiw	r26, 0x1e	; 30
    4796:	0f b6       	in	r0, 0x3f	; 63
    4798:	f8 94       	cli
    479a:	be bf       	out	0x3e, r27	; 62
    479c:	0f be       	out	0x3f, r0	; 63
    479e:	ad bf       	out	0x3d, r26	; 61
    47a0:	ed b7       	in	r30, 0x3d	; 61
    47a2:	fe b7       	in	r31, 0x3e	; 62
    47a4:	31 96       	adiw	r30, 0x01	; 1
    47a6:	86 e6       	ldi	r24, 0x66	; 102
    47a8:	96 e0       	ldi	r25, 0x06	; 6
    47aa:	12 96       	adiw	r26, 0x02	; 2
    47ac:	9c 93       	st	X, r25
    47ae:	8e 93       	st	-X, r24
    47b0:	11 97       	sbiw	r26, 0x01	; 1
    47b2:	80 91 e5 10 	lds	r24, 0x10E5
    47b6:	90 91 e6 10 	lds	r25, 0x10E6
    47ba:	a0 91 e7 10 	lds	r26, 0x10E7
    47be:	b0 91 e8 10 	lds	r27, 0x10E8
    47c2:	82 83       	std	Z+2, r24	; 0x02
    47c4:	93 83       	std	Z+3, r25	; 0x03
    47c6:	a4 83       	std	Z+4, r26	; 0x04
    47c8:	b5 83       	std	Z+5, r27	; 0x05
    47ca:	80 91 e9 10 	lds	r24, 0x10E9
    47ce:	90 91 ea 10 	lds	r25, 0x10EA
    47d2:	a0 91 eb 10 	lds	r26, 0x10EB
    47d6:	b0 91 ec 10 	lds	r27, 0x10EC
    47da:	86 83       	std	Z+6, r24	; 0x06
    47dc:	97 83       	std	Z+7, r25	; 0x07
    47de:	a0 87       	std	Z+8, r26	; 0x08
    47e0:	b1 87       	std	Z+9, r27	; 0x09
    47e2:	80 91 ed 10 	lds	r24, 0x10ED
    47e6:	90 91 ee 10 	lds	r25, 0x10EE
    47ea:	a0 91 ef 10 	lds	r26, 0x10EF
    47ee:	b0 91 f0 10 	lds	r27, 0x10F0
    47f2:	82 87       	std	Z+10, r24	; 0x0a
    47f4:	93 87       	std	Z+11, r25	; 0x0b
    47f6:	a4 87       	std	Z+12, r26	; 0x0c
    47f8:	b5 87       	std	Z+13, r27	; 0x0d
    47fa:	80 91 f1 10 	lds	r24, 0x10F1
    47fe:	90 91 f2 10 	lds	r25, 0x10F2
    4802:	a0 91 f3 10 	lds	r26, 0x10F3
    4806:	b0 91 f4 10 	lds	r27, 0x10F4
    480a:	86 87       	std	Z+14, r24	; 0x0e
    480c:	97 87       	std	Z+15, r25	; 0x0f
    480e:	a0 8b       	std	Z+16, r26	; 0x10
    4810:	b1 8b       	std	Z+17, r27	; 0x11
    4812:	80 91 f5 10 	lds	r24, 0x10F5
    4816:	90 91 f6 10 	lds	r25, 0x10F6
    481a:	a0 91 f7 10 	lds	r26, 0x10F7
    481e:	b0 91 f8 10 	lds	r27, 0x10F8
    4822:	82 8b       	std	Z+18, r24	; 0x12
    4824:	93 8b       	std	Z+19, r25	; 0x13
    4826:	a4 8b       	std	Z+20, r26	; 0x14
    4828:	b5 8b       	std	Z+21, r27	; 0x15
    482a:	80 91 f9 10 	lds	r24, 0x10F9
    482e:	90 91 fa 10 	lds	r25, 0x10FA
    4832:	a0 91 fb 10 	lds	r26, 0x10FB
    4836:	b0 91 fc 10 	lds	r27, 0x10FC
    483a:	86 8b       	std	Z+22, r24	; 0x16
    483c:	97 8b       	std	Z+23, r25	; 0x17
    483e:	a0 8f       	std	Z+24, r26	; 0x18
    4840:	b1 8f       	std	Z+25, r27	; 0x19
    4842:	80 91 fd 10 	lds	r24, 0x10FD
    4846:	90 91 fe 10 	lds	r25, 0x10FE
    484a:	a0 91 ff 10 	lds	r26, 0x10FF
    484e:	b0 91 00 11 	lds	r27, 0x1100
    4852:	82 8f       	std	Z+26, r24	; 0x1a
    4854:	93 8f       	std	Z+27, r25	; 0x1b
    4856:	a4 8f       	std	Z+28, r26	; 0x1c
    4858:	b5 8f       	std	Z+29, r27	; 0x1d
    485a:	0e 94 fc 3e 	call	0x7df8	; 0x7df8 <printf>
	printf("DesiredQPos: %f , %f , %f , %f  , %f , %f , %f \r", desiredQPosition[0],desiredQPosition[1],desiredQPosition[2],desiredQPosition[3],desiredQPosition[4],desiredQPosition[5],desiredQPosition[6]);
    485e:	ed b7       	in	r30, 0x3d	; 61
    4860:	fe b7       	in	r31, 0x3e	; 62
    4862:	31 96       	adiw	r30, 0x01	; 1
    4864:	87 e9       	ldi	r24, 0x97	; 151
    4866:	96 e0       	ldi	r25, 0x06	; 6
    4868:	ad b7       	in	r26, 0x3d	; 61
    486a:	be b7       	in	r27, 0x3e	; 62
    486c:	12 96       	adiw	r26, 0x02	; 2
    486e:	9c 93       	st	X, r25
    4870:	8e 93       	st	-X, r24
    4872:	11 97       	sbiw	r26, 0x01	; 1
    4874:	80 91 50 11 	lds	r24, 0x1150
    4878:	90 91 51 11 	lds	r25, 0x1151
    487c:	a0 91 52 11 	lds	r26, 0x1152
    4880:	b0 91 53 11 	lds	r27, 0x1153
    4884:	82 83       	std	Z+2, r24	; 0x02
    4886:	93 83       	std	Z+3, r25	; 0x03
    4888:	a4 83       	std	Z+4, r26	; 0x04
    488a:	b5 83       	std	Z+5, r27	; 0x05
    488c:	80 91 54 11 	lds	r24, 0x1154
    4890:	90 91 55 11 	lds	r25, 0x1155
    4894:	a0 91 56 11 	lds	r26, 0x1156
    4898:	b0 91 57 11 	lds	r27, 0x1157
    489c:	86 83       	std	Z+6, r24	; 0x06
    489e:	97 83       	std	Z+7, r25	; 0x07
    48a0:	a0 87       	std	Z+8, r26	; 0x08
    48a2:	b1 87       	std	Z+9, r27	; 0x09
    48a4:	80 91 58 11 	lds	r24, 0x1158
    48a8:	90 91 59 11 	lds	r25, 0x1159
    48ac:	a0 91 5a 11 	lds	r26, 0x115A
    48b0:	b0 91 5b 11 	lds	r27, 0x115B
    48b4:	82 87       	std	Z+10, r24	; 0x0a
    48b6:	93 87       	std	Z+11, r25	; 0x0b
    48b8:	a4 87       	std	Z+12, r26	; 0x0c
    48ba:	b5 87       	std	Z+13, r27	; 0x0d
    48bc:	80 91 5c 11 	lds	r24, 0x115C
    48c0:	90 91 5d 11 	lds	r25, 0x115D
    48c4:	a0 91 5e 11 	lds	r26, 0x115E
    48c8:	b0 91 5f 11 	lds	r27, 0x115F
    48cc:	86 87       	std	Z+14, r24	; 0x0e
    48ce:	97 87       	std	Z+15, r25	; 0x0f
    48d0:	a0 8b       	std	Z+16, r26	; 0x10
    48d2:	b1 8b       	std	Z+17, r27	; 0x11
    48d4:	80 91 60 11 	lds	r24, 0x1160
    48d8:	90 91 61 11 	lds	r25, 0x1161
    48dc:	a0 91 62 11 	lds	r26, 0x1162
    48e0:	b0 91 63 11 	lds	r27, 0x1163
    48e4:	82 8b       	std	Z+18, r24	; 0x12
    48e6:	93 8b       	std	Z+19, r25	; 0x13
    48e8:	a4 8b       	std	Z+20, r26	; 0x14
    48ea:	b5 8b       	std	Z+21, r27	; 0x15
    48ec:	80 91 64 11 	lds	r24, 0x1164
    48f0:	90 91 65 11 	lds	r25, 0x1165
    48f4:	a0 91 66 11 	lds	r26, 0x1166
    48f8:	b0 91 67 11 	lds	r27, 0x1167
    48fc:	86 8b       	std	Z+22, r24	; 0x16
    48fe:	97 8b       	std	Z+23, r25	; 0x17
    4900:	a0 8f       	std	Z+24, r26	; 0x18
    4902:	b1 8f       	std	Z+25, r27	; 0x19
    4904:	80 91 68 11 	lds	r24, 0x1168
    4908:	90 91 69 11 	lds	r25, 0x1169
    490c:	a0 91 6a 11 	lds	r26, 0x116A
    4910:	b0 91 6b 11 	lds	r27, 0x116B
    4914:	82 8f       	std	Z+26, r24	; 0x1a
    4916:	93 8f       	std	Z+27, r25	; 0x1b
    4918:	a4 8f       	std	Z+28, r26	; 0x1c
    491a:	b5 8f       	std	Z+29, r27	; 0x1d
    491c:	0e 94 fc 3e 	call	0x7df8	; 0x7df8 <printf>
    4920:	ee 24       	eor	r14, r14
    4922:	ff 24       	eor	r15, r15
    4924:	00 e0       	ldi	r16, 0x00	; 0
    4926:	10 e0       	ldi	r17, 0x00	; 0
    4928:	8d b7       	in	r24, 0x3d	; 61
    492a:	9e b7       	in	r25, 0x3e	; 62
    492c:	4e 96       	adiw	r24, 0x1e	; 30
    492e:	0f b6       	in	r0, 0x3f	; 63
    4930:	f8 94       	cli
    4932:	9e bf       	out	0x3e, r25	; 62
    4934:	0f be       	out	0x3f, r0	; 63
    4936:	8d bf       	out	0x3d, r24	; 61

	// 2) Constantes de Planeacin-
	for(int i = 0;i<DOF;i++)
	{
		currentQPosition[i] = GetPosition(i);
    4938:	c7 01       	movw	r24, r14
    493a:	0e 94 3e 11 	call	0x227c	; 0x227c <GetPosition>
    493e:	f8 01       	movw	r30, r16
    4940:	eb 51       	subi	r30, 0x1B	; 27
    4942:	ff 4e       	sbci	r31, 0xEF	; 239
    4944:	60 83       	st	Z, r22
    4946:	71 83       	std	Z+1, r23	; 0x01
    4948:	82 83       	std	Z+2, r24	; 0x02
    494a:	93 83       	std	Z+3, r25	; 0x03
		initialQPosition[i] = currentQPosition[i];
    494c:	f8 01       	movw	r30, r16
    494e:	e5 50       	subi	r30, 0x05	; 5
    4950:	f5 4f       	sbci	r31, 0xF5	; 245
    4952:	60 83       	st	Z, r22
    4954:	71 83       	std	Z+1, r23	; 0x01
    4956:	82 83       	std	Z+2, r24	; 0x02
    4958:	93 83       	std	Z+3, r25	; 0x03

	printf("CurrentQPos: %f , %f , %f , %f  , %f , %f , %f \r", currentQPosition[0],currentQPosition[1],currentQPosition[2],currentQPosition[3],currentQPosition[4],currentQPosition[5],currentQPosition[6]);
	printf("DesiredQPos: %f , %f , %f , %f  , %f , %f , %f \r", desiredQPosition[0],desiredQPosition[1],desiredQPosition[2],desiredQPosition[3],desiredQPosition[4],desiredQPosition[5],desiredQPosition[6]);

	// 2) Constantes de Planeacin-
	for(int i = 0;i<DOF;i++)
    495a:	08 94       	sec
    495c:	e1 1c       	adc	r14, r1
    495e:	f1 1c       	adc	r15, r1
    4960:	0c 5f       	subi	r16, 0xFC	; 252
    4962:	1f 4f       	sbci	r17, 0xFF	; 255
    4964:	97 e0       	ldi	r25, 0x07	; 7
    4966:	e9 16       	cp	r14, r25
    4968:	f1 04       	cpc	r15, r1
    496a:	31 f7       	brne	.-52     	; 0x4938 <SetdesiredPosition+0x36a>
		initialQPosition[i] = currentQPosition[i];
		
	}
	for(int i = 0; i<DOF;i++)
	{
		LSPBcoef[i] = coefLSPB (initialQPosition[i],desiredQPosition[i], executionTF);
    496c:	20 90 5e 08 	lds	r2, 0x085E
    4970:	30 90 5f 08 	lds	r3, 0x085F
    4974:	40 90 60 08 	lds	r4, 0x0860
    4978:	50 90 61 08 	lds	r5, 0x0861
    497c:	66 24       	eor	r6, r6
    497e:	77 24       	eor	r7, r7
    4980:	88 24       	eor	r8, r8
    4982:	99 24       	eor	r9, r9
    4984:	53 01       	movw	r10, r6
    4986:	24 e0       	ldi	r18, 0x04	; 4
    4988:	aa 0c       	add	r10, r10
    498a:	bb 1c       	adc	r11, r11
    498c:	2a 95       	dec	r18
    498e:	e1 f7       	brne	.-8      	; 0x4988 <SetdesiredPosition+0x3ba>
    4990:	af ed       	ldi	r26, 0xDF	; 223
    4992:	bb e0       	ldi	r27, 0x0B	; 11
    4994:	aa 0e       	add	r10, r26
    4996:	bb 1e       	adc	r11, r27
    4998:	f4 01       	movw	r30, r8
    499a:	e5 50       	subi	r30, 0x05	; 5
    499c:	f5 4f       	sbci	r31, 0xF5	; 245
    499e:	40 81       	ld	r20, Z
    49a0:	51 81       	ldd	r21, Z+1	; 0x01
    49a2:	62 81       	ldd	r22, Z+2	; 0x02
    49a4:	73 81       	ldd	r23, Z+3	; 0x03
    49a6:	f4 01       	movw	r30, r8
    49a8:	e0 5b       	subi	r30, 0xB0	; 176
    49aa:	fe 4e       	sbci	r31, 0xEE	; 238
    49ac:	00 81       	ld	r16, Z
    49ae:	11 81       	ldd	r17, Z+1	; 0x01
    49b0:	22 81       	ldd	r18, Z+2	; 0x02
    49b2:	33 81       	ldd	r19, Z+3	; 0x03
    49b4:	ce 01       	movw	r24, r28
    49b6:	01 96       	adiw	r24, 0x01	; 1
    49b8:	72 01       	movw	r14, r4
    49ba:	61 01       	movw	r12, r2
    49bc:	0e 94 46 08 	call	0x108c	; 0x108c <coefLSPB>
    49c0:	d5 01       	movw	r26, r10
    49c2:	fe 01       	movw	r30, r28
    49c4:	31 96       	adiw	r30, 0x01	; 1
    49c6:	80 e1       	ldi	r24, 0x10	; 16
    49c8:	01 90       	ld	r0, Z+
    49ca:	0d 92       	st	X+, r0
    49cc:	81 50       	subi	r24, 0x01	; 1
    49ce:	e1 f7       	brne	.-8      	; 0x49c8 <SetdesiredPosition+0x3fa>
	{
		currentQPosition[i] = GetPosition(i);
		initialQPosition[i] = currentQPosition[i];
		
	}
	for(int i = 0; i<DOF;i++)
    49d0:	08 94       	sec
    49d2:	61 1c       	adc	r6, r1
    49d4:	71 1c       	adc	r7, r1
    49d6:	84 e0       	ldi	r24, 0x04	; 4
    49d8:	90 e0       	ldi	r25, 0x00	; 0
    49da:	88 0e       	add	r8, r24
    49dc:	99 1e       	adc	r9, r25
    49de:	97 e0       	ldi	r25, 0x07	; 7
    49e0:	69 16       	cp	r6, r25
    49e2:	71 04       	cpc	r7, r1
    49e4:	79 f6       	brne	.-98     	; 0x4984 <SetdesiredPosition+0x3b6>
	{
		LSPBcoef[i] = coefLSPB (initialQPosition[i],desiredQPosition[i], executionTF);
	}
	
	if(succes)
    49e6:	a9 89       	ldd	r26, Y+17	; 0x11
    49e8:	ba 89       	ldd	r27, Y+18	; 0x12
    49ea:	ab 2b       	or	r26, r27
    49ec:	49 f0       	breq	.+18     	; 0x4a00 <SetdesiredPosition+0x432>
	{
		doControl = 1;
    49ee:	81 e0       	ldi	r24, 0x01	; 1
    49f0:	90 e0       	ldi	r25, 0x00	; 0
    49f2:	90 93 5b 08 	sts	0x085B, r25
    49f6:	80 93 5a 08 	sts	0x085A, r24
    49fa:	21 e0       	ldi	r18, 0x01	; 1
    49fc:	30 e0       	ldi	r19, 0x00	; 0
    49fe:	06 c0       	rjmp	.+12     	; 0x4a0c <SetdesiredPosition+0x43e>
		return 1;
	}
	else{
		doControl = 0;
    4a00:	10 92 5b 08 	sts	0x085B, r1
    4a04:	10 92 5a 08 	sts	0x085A, r1
    4a08:	20 e0       	ldi	r18, 0x00	; 0
    4a0a:	30 e0       	ldi	r19, 0x00	; 0
		return 0;
	}
}
    4a0c:	c9 01       	movw	r24, r18
    4a0e:	62 96       	adiw	r28, 0x12	; 18
    4a10:	0f b6       	in	r0, 0x3f	; 63
    4a12:	f8 94       	cli
    4a14:	de bf       	out	0x3e, r29	; 62
    4a16:	0f be       	out	0x3f, r0	; 63
    4a18:	cd bf       	out	0x3d, r28	; 61
    4a1a:	cf 91       	pop	r28
    4a1c:	df 91       	pop	r29
    4a1e:	1f 91       	pop	r17
    4a20:	0f 91       	pop	r16
    4a22:	ff 90       	pop	r15
    4a24:	ef 90       	pop	r14
    4a26:	df 90       	pop	r13
    4a28:	cf 90       	pop	r12
    4a2a:	bf 90       	pop	r11
    4a2c:	af 90       	pop	r10
    4a2e:	9f 90       	pop	r9
    4a30:	8f 90       	pop	r8
    4a32:	7f 90       	pop	r7
    4a34:	6f 90       	pop	r6
    4a36:	5f 90       	pop	r5
    4a38:	4f 90       	pop	r4
    4a3a:	3f 90       	pop	r3
    4a3c:	2f 90       	pop	r2
    4a3e:	08 95       	ret

00004a40 <PrintErrorCode>:

// Print error bit of status packet
int PrintErrorCode()
{
	
	if(dxl_get_rxpacket_error(ERRBIT_VOLTAGE) == 1)
    4a40:	81 e0       	ldi	r24, 0x01	; 1
    4a42:	90 e0       	ldi	r25, 0x00	; 0
    4a44:	0e 94 c7 30 	call	0x618e	; 0x618e <dxl_get_rxpacket_error>
    4a48:	01 97       	sbiw	r24, 0x01	; 1
    4a4a:	39 f1       	breq	.+78     	; 0x4a9a <PrintErrorCode+0x5a>
		PORTC ^= 0b0010000;
		// Voltage Error
		//printf("vo\r");
		return 0;
	}
	if(dxl_get_rxpacket_error(ERRBIT_ANGLE) == 1)
    4a4c:	82 e0       	ldi	r24, 0x02	; 2
    4a4e:	90 e0       	ldi	r25, 0x00	; 0
    4a50:	0e 94 c7 30 	call	0x618e	; 0x618e <dxl_get_rxpacket_error>
    4a54:	01 97       	sbiw	r24, 0x01	; 1
    4a56:	09 f1       	breq	.+66     	; 0x4a9a <PrintErrorCode+0x5a>
		PORTC ^= 0b0010000;
		// Angle Limit error
		//printf("al\r");
		return 0;
	}
	if(dxl_get_rxpacket_error(ERRBIT_OVERHEAT) == 1)
    4a58:	84 e0       	ldi	r24, 0x04	; 4
    4a5a:	90 e0       	ldi	r25, 0x00	; 0
    4a5c:	0e 94 c7 30 	call	0x618e	; 0x618e <dxl_get_rxpacket_error>
    4a60:	01 97       	sbiw	r24, 0x01	; 1
    4a62:	d9 f0       	breq	.+54     	; 0x4a9a <PrintErrorCode+0x5a>
		PORTC ^= 0b0010000;
		// Overheat error
		//printf("oh\r");
		return 0;
	}
	if(dxl_get_rxpacket_error(ERRBIT_RANGE) == 1)
    4a64:	88 e0       	ldi	r24, 0x08	; 8
    4a66:	90 e0       	ldi	r25, 0x00	; 0
    4a68:	0e 94 c7 30 	call	0x618e	; 0x618e <dxl_get_rxpacket_error>
    4a6c:	01 97       	sbiw	r24, 0x01	; 1
    4a6e:	a9 f0       	breq	.+42     	; 0x4a9a <PrintErrorCode+0x5a>
		PORTC ^= 0b0010000;
		// Range error
		//printf("or\r");
		return 0;
	}
	if(dxl_get_rxpacket_error(ERRBIT_CHECKSUM) == 1)
    4a70:	80 e1       	ldi	r24, 0x10	; 16
    4a72:	90 e0       	ldi	r25, 0x00	; 0
    4a74:	0e 94 c7 30 	call	0x618e	; 0x618e <dxl_get_rxpacket_error>
    4a78:	01 97       	sbiw	r24, 0x01	; 1
    4a7a:	79 f0       	breq	.+30     	; 0x4a9a <PrintErrorCode+0x5a>
		PORTC ^= 0b0010000;
		//Checksum error
		//printf("ch\r");
		return 0;
	}
	if(dxl_get_rxpacket_error(ERRBIT_OVERLOAD) == 1)
    4a7c:	80 e2       	ldi	r24, 0x20	; 32
    4a7e:	90 e0       	ldi	r25, 0x00	; 0
    4a80:	0e 94 c7 30 	call	0x618e	; 0x618e <dxl_get_rxpacket_error>
    4a84:	01 97       	sbiw	r24, 0x01	; 1
    4a86:	49 f0       	breq	.+18     	; 0x4a9a <PrintErrorCode+0x5a>
		PORTC ^= 0b0010000;
		//OverLoad error
		//printf("ol\r");
		return 0;
	}
	if(dxl_get_rxpacket_error(ERRBIT_INSTRUCTION) == 1)
    4a88:	80 e4       	ldi	r24, 0x40	; 64
    4a8a:	90 e0       	ldi	r25, 0x00	; 0
    4a8c:	0e 94 c7 30 	call	0x618e	; 0x618e <dxl_get_rxpacket_error>
    4a90:	01 97       	sbiw	r24, 0x01	; 1
    4a92:	19 f0       	breq	.+6      	; 0x4a9a <PrintErrorCode+0x5a>
    4a94:	21 e0       	ldi	r18, 0x01	; 1
    4a96:	30 e0       	ldi	r19, 0x00	; 0
    4a98:	06 c0       	rjmp	.+12     	; 0x4aa6 <PrintErrorCode+0x66>
	{
		PORTC ^= 0b0010000;
    4a9a:	88 b1       	in	r24, 0x08	; 8
    4a9c:	90 e1       	ldi	r25, 0x10	; 16
    4a9e:	89 27       	eor	r24, r25
    4aa0:	88 b9       	out	0x08, r24	; 8
    4aa2:	20 e0       	ldi	r18, 0x00	; 0
    4aa4:	30 e0       	ldi	r19, 0x00	; 0
		// Instruction error
		//printf("in\r");
		return 0;
	}
	return 1;
}
    4aa6:	c9 01       	movw	r24, r18
    4aa8:	08 95       	ret

00004aaa <Ping2>:
}


//Returns de exact error code
int Ping2(int id)
{
    4aaa:	cf 93       	push	r28
    4aac:	df 93       	push	r29
	int errT = 1;

	dxl_ping(id);
    4aae:	0e 94 9b 32 	call	0x6536	; 0x6536 <dxl_ping>
	
	if(dxl_get_rxpacket_error(1)==1) // Error de Voltaje
    4ab2:	81 e0       	ldi	r24, 0x01	; 1
    4ab4:	90 e0       	ldi	r25, 0x00	; 0
    4ab6:	0e 94 c7 30 	call	0x618e	; 0x618e <dxl_get_rxpacket_error>
    4aba:	01 97       	sbiw	r24, 0x01	; 1
    4abc:	19 f4       	brne	.+6      	; 0x4ac4 <Ping2+0x1a>
    4abe:	c2 e0       	ldi	r28, 0x02	; 2
    4ac0:	d0 e0       	ldi	r29, 0x00	; 0
    4ac2:	02 c0       	rjmp	.+4      	; 0x4ac8 <Ping2+0x1e>
    4ac4:	c1 e0       	ldi	r28, 0x01	; 1
    4ac6:	d0 e0       	ldi	r29, 0x00	; 0
	errT = errT*2;
	if(dxl_get_rxpacket_error(4)==1) // Error de SobreCalentamiento
    4ac8:	84 e0       	ldi	r24, 0x04	; 4
    4aca:	90 e0       	ldi	r25, 0x00	; 0
    4acc:	0e 94 c7 30 	call	0x618e	; 0x618e <dxl_get_rxpacket_error>
    4ad0:	01 97       	sbiw	r24, 0x01	; 1
    4ad2:	29 f4       	brne	.+10     	; 0x4ade <Ping2+0x34>
	errT = errT*3;
    4ad4:	ce 01       	movw	r24, r28
    4ad6:	88 0f       	add	r24, r24
    4ad8:	99 1f       	adc	r25, r25
    4ada:	c8 0f       	add	r28, r24
    4adc:	d9 1f       	adc	r29, r25
	if(dxl_get_rxpacket_error(32)==1) // Error de SobreCarga
    4ade:	80 e2       	ldi	r24, 0x20	; 32
    4ae0:	90 e0       	ldi	r25, 0x00	; 0
    4ae2:	0e 94 c7 30 	call	0x618e	; 0x618e <dxl_get_rxpacket_error>
    4ae6:	01 97       	sbiw	r24, 0x01	; 1
    4ae8:	39 f4       	brne	.+14     	; 0x4af8 <Ping2+0x4e>
	errT = errT*5;
    4aea:	ce 01       	movw	r24, r28
    4aec:	88 0f       	add	r24, r24
    4aee:	99 1f       	adc	r25, r25
    4af0:	88 0f       	add	r24, r24
    4af2:	99 1f       	adc	r25, r25
    4af4:	c8 0f       	add	r28, r24
    4af6:	d9 1f       	adc	r29, r25

	return errT;
}
    4af8:	ce 01       	movw	r24, r28
    4afa:	df 91       	pop	r29
    4afc:	cf 91       	pop	r28
    4afe:	08 95       	ret

00004b00 <StatusReport>:

//Returns the error code of every servo
void StatusReport()
{
    4b00:	2f 92       	push	r2
    4b02:	3f 92       	push	r3
    4b04:	4f 92       	push	r4
    4b06:	5f 92       	push	r5
    4b08:	6f 92       	push	r6
    4b0a:	7f 92       	push	r7
    4b0c:	8f 92       	push	r8
    4b0e:	9f 92       	push	r9
    4b10:	af 92       	push	r10
    4b12:	bf 92       	push	r11
    4b14:	cf 92       	push	r12
    4b16:	df 92       	push	r13
    4b18:	ef 92       	push	r14
    4b1a:	ff 92       	push	r15
    4b1c:	0f 93       	push	r16
    4b1e:	1f 93       	push	r17
	int p0,p10,p1,p2,p3,p4,p5,p6,p7;
	p0 = Ping2(0);
    4b20:	80 e0       	ldi	r24, 0x00	; 0
    4b22:	90 e0       	ldi	r25, 0x00	; 0
    4b24:	0e 94 55 25 	call	0x4aaa	; 0x4aaa <Ping2>
    4b28:	2c 01       	movw	r4, r24
	p10 = Ping2(10);
    4b2a:	8a e0       	ldi	r24, 0x0A	; 10
    4b2c:	90 e0       	ldi	r25, 0x00	; 0
    4b2e:	0e 94 55 25 	call	0x4aaa	; 0x4aaa <Ping2>
    4b32:	1c 01       	movw	r2, r24
	p1 = Ping2(1);
    4b34:	81 e0       	ldi	r24, 0x01	; 1
    4b36:	90 e0       	ldi	r25, 0x00	; 0
    4b38:	0e 94 55 25 	call	0x4aaa	; 0x4aaa <Ping2>
    4b3c:	3c 01       	movw	r6, r24
	p2 = Ping2(2);
    4b3e:	82 e0       	ldi	r24, 0x02	; 2
    4b40:	90 e0       	ldi	r25, 0x00	; 0
    4b42:	0e 94 55 25 	call	0x4aaa	; 0x4aaa <Ping2>
    4b46:	4c 01       	movw	r8, r24
	p3 = Ping2(3);
    4b48:	83 e0       	ldi	r24, 0x03	; 3
    4b4a:	90 e0       	ldi	r25, 0x00	; 0
    4b4c:	0e 94 55 25 	call	0x4aaa	; 0x4aaa <Ping2>
    4b50:	5c 01       	movw	r10, r24
	p4 = Ping2(4);
    4b52:	84 e0       	ldi	r24, 0x04	; 4
    4b54:	90 e0       	ldi	r25, 0x00	; 0
    4b56:	0e 94 55 25 	call	0x4aaa	; 0x4aaa <Ping2>
    4b5a:	6c 01       	movw	r12, r24
	p5 = Ping2(5);
    4b5c:	85 e0       	ldi	r24, 0x05	; 5
    4b5e:	90 e0       	ldi	r25, 0x00	; 0
    4b60:	0e 94 55 25 	call	0x4aaa	; 0x4aaa <Ping2>
    4b64:	7c 01       	movw	r14, r24
	p6 = Ping2(6);
    4b66:	86 e0       	ldi	r24, 0x06	; 6
    4b68:	90 e0       	ldi	r25, 0x00	; 0
    4b6a:	0e 94 55 25 	call	0x4aaa	; 0x4aaa <Ping2>
    4b6e:	8c 01       	movw	r16, r24
	p7 = Ping2(7);
    4b70:	87 e0       	ldi	r24, 0x07	; 7
    4b72:	90 e0       	ldi	r25, 0x00	; 0
    4b74:	0e 94 55 25 	call	0x4aaa	; 0x4aaa <Ping2>

	printf("S 1 %d %d %d %d %d %d %d %d %d\r",p0,p1,p2,p3,p4,p5,p6,p7,p10);
    4b78:	2d b7       	in	r18, 0x3d	; 61
    4b7a:	3e b7       	in	r19, 0x3e	; 62
    4b7c:	24 51       	subi	r18, 0x14	; 20
    4b7e:	30 40       	sbci	r19, 0x00	; 0
    4b80:	0f b6       	in	r0, 0x3f	; 63
    4b82:	f8 94       	cli
    4b84:	3e bf       	out	0x3e, r19	; 62
    4b86:	0f be       	out	0x3f, r0	; 63
    4b88:	2d bf       	out	0x3d, r18	; 61
    4b8a:	ed b7       	in	r30, 0x3d	; 61
    4b8c:	fe b7       	in	r31, 0x3e	; 62
    4b8e:	31 96       	adiw	r30, 0x01	; 1
    4b90:	28 ec       	ldi	r18, 0xC8	; 200
    4b92:	36 e0       	ldi	r19, 0x06	; 6
    4b94:	ad b7       	in	r26, 0x3d	; 61
    4b96:	be b7       	in	r27, 0x3e	; 62
    4b98:	12 96       	adiw	r26, 0x02	; 2
    4b9a:	3c 93       	st	X, r19
    4b9c:	2e 93       	st	-X, r18
    4b9e:	11 97       	sbiw	r26, 0x01	; 1
    4ba0:	53 82       	std	Z+3, r5	; 0x03
    4ba2:	42 82       	std	Z+2, r4	; 0x02
    4ba4:	75 82       	std	Z+5, r7	; 0x05
    4ba6:	64 82       	std	Z+4, r6	; 0x04
    4ba8:	97 82       	std	Z+7, r9	; 0x07
    4baa:	86 82       	std	Z+6, r8	; 0x06
    4bac:	b1 86       	std	Z+9, r11	; 0x09
    4bae:	a0 86       	std	Z+8, r10	; 0x08
    4bb0:	d3 86       	std	Z+11, r13	; 0x0b
    4bb2:	c2 86       	std	Z+10, r12	; 0x0a
    4bb4:	f5 86       	std	Z+13, r15	; 0x0d
    4bb6:	e4 86       	std	Z+12, r14	; 0x0c
    4bb8:	17 87       	std	Z+15, r17	; 0x0f
    4bba:	06 87       	std	Z+14, r16	; 0x0e
    4bbc:	91 8b       	std	Z+17, r25	; 0x11
    4bbe:	80 8b       	std	Z+16, r24	; 0x10
    4bc0:	33 8a       	std	Z+19, r3	; 0x13
    4bc2:	22 8a       	std	Z+18, r2	; 0x12
    4bc4:	0e 94 fc 3e 	call	0x7df8	; 0x7df8 <printf>
    4bc8:	2d b7       	in	r18, 0x3d	; 61
    4bca:	3e b7       	in	r19, 0x3e	; 62
    4bcc:	2c 5e       	subi	r18, 0xEC	; 236
    4bce:	3f 4f       	sbci	r19, 0xFF	; 255
    4bd0:	0f b6       	in	r0, 0x3f	; 63
    4bd2:	f8 94       	cli
    4bd4:	3e bf       	out	0x3e, r19	; 62
    4bd6:	0f be       	out	0x3f, r0	; 63
    4bd8:	2d bf       	out	0x3d, r18	; 61
}
    4bda:	1f 91       	pop	r17
    4bdc:	0f 91       	pop	r16
    4bde:	ff 90       	pop	r15
    4be0:	ef 90       	pop	r14
    4be2:	df 90       	pop	r13
    4be4:	cf 90       	pop	r12
    4be6:	bf 90       	pop	r11
    4be8:	af 90       	pop	r10
    4bea:	9f 90       	pop	r9
    4bec:	8f 90       	pop	r8
    4bee:	7f 90       	pop	r7
    4bf0:	6f 90       	pop	r6
    4bf2:	5f 90       	pop	r5
    4bf4:	4f 90       	pop	r4
    4bf6:	3f 90       	pop	r3
    4bf8:	2f 90       	pop	r2
    4bfa:	08 95       	ret

00004bfc <Ping>:


int Ping(int id)
{

	dxl_ping(id);
    4bfc:	0e 94 9b 32 	call	0x6536	; 0x6536 <dxl_ping>

	CommStatus = dxl_get_result();
    4c00:	0e 94 b4 30 	call	0x6168	; 0x6168 <dxl_get_result>
    4c04:	90 93 ac 0e 	sts	0x0EAC, r25
    4c08:	80 93 ab 0e 	sts	0x0EAB, r24
		if( CommStatus == COMM_RXSUCCESS )
    4c0c:	01 97       	sbiw	r24, 0x01	; 1
    4c0e:	19 f0       	breq	.+6      	; 0x4c16 <Ping+0x1a>
    4c10:	20 e0       	ldi	r18, 0x00	; 0
    4c12:	30 e0       	ldi	r19, 0x00	; 0
    4c14:	03 c0       	rjmp	.+6      	; 0x4c1c <Ping+0x20>
		{
		return 	PrintErrorCode();
    4c16:	0e 94 20 25 	call	0x4a40	; 0x4a40 <PrintErrorCode>
    4c1a:	9c 01       	movw	r18, r24
		else
		{
			//PrintCommStatus(CommStatus);
			return 0;
		}
}
    4c1c:	c9 01       	movw	r24, r18
    4c1e:	08 95       	ret

00004c20 <ArmPing>:

	printf("S 1 %d %d %d %d %d %d %d %d %d\r",p0,p1,p2,p3,p4,p5,p6,p7,p10);
}

void ArmPing()
{
    4c20:	6f 92       	push	r6
    4c22:	7f 92       	push	r7
    4c24:	8f 92       	push	r8
    4c26:	9f 92       	push	r9
    4c28:	af 92       	push	r10
    4c2a:	bf 92       	push	r11
    4c2c:	cf 92       	push	r12
    4c2e:	df 92       	push	r13
    4c30:	ef 92       	push	r14
    4c32:	ff 92       	push	r15
    4c34:	0f 93       	push	r16
    4c36:	1f 93       	push	r17
	int p0,p1,p2,p3,p4,p5,p6;
	p0 = Ping(0);
    4c38:	80 e0       	ldi	r24, 0x00	; 0
    4c3a:	90 e0       	ldi	r25, 0x00	; 0
    4c3c:	0e 94 fe 25 	call	0x4bfc	; 0x4bfc <Ping>
    4c40:	3c 01       	movw	r6, r24
	p1 = Ping(1);
    4c42:	81 e0       	ldi	r24, 0x01	; 1
    4c44:	90 e0       	ldi	r25, 0x00	; 0
    4c46:	0e 94 fe 25 	call	0x4bfc	; 0x4bfc <Ping>
    4c4a:	4c 01       	movw	r8, r24
	p2 = Ping(2);
    4c4c:	82 e0       	ldi	r24, 0x02	; 2
    4c4e:	90 e0       	ldi	r25, 0x00	; 0
    4c50:	0e 94 fe 25 	call	0x4bfc	; 0x4bfc <Ping>
    4c54:	5c 01       	movw	r10, r24
	p3 = Ping(3);
    4c56:	83 e0       	ldi	r24, 0x03	; 3
    4c58:	90 e0       	ldi	r25, 0x00	; 0
    4c5a:	0e 94 fe 25 	call	0x4bfc	; 0x4bfc <Ping>
    4c5e:	6c 01       	movw	r12, r24
	p4 = Ping(4);
    4c60:	84 e0       	ldi	r24, 0x04	; 4
    4c62:	90 e0       	ldi	r25, 0x00	; 0
    4c64:	0e 94 fe 25 	call	0x4bfc	; 0x4bfc <Ping>
    4c68:	7c 01       	movw	r14, r24
	p5 = Ping(5);
    4c6a:	85 e0       	ldi	r24, 0x05	; 5
    4c6c:	90 e0       	ldi	r25, 0x00	; 0
    4c6e:	0e 94 fe 25 	call	0x4bfc	; 0x4bfc <Ping>
    4c72:	8c 01       	movw	r16, r24
	p6 = Ping(6);
    4c74:	86 e0       	ldi	r24, 0x06	; 6
    4c76:	90 e0       	ldi	r25, 0x00	; 0
    4c78:	0e 94 fe 25 	call	0x4bfc	; 0x4bfc <Ping>


	printf("i 1 %d %d %d %d %d %d %d \r",p0,p1,p2,p3,p4,p5,p6);
    4c7c:	2d b7       	in	r18, 0x3d	; 61
    4c7e:	3e b7       	in	r19, 0x3e	; 62
    4c80:	20 51       	subi	r18, 0x10	; 16
    4c82:	30 40       	sbci	r19, 0x00	; 0
    4c84:	0f b6       	in	r0, 0x3f	; 63
    4c86:	f8 94       	cli
    4c88:	3e bf       	out	0x3e, r19	; 62
    4c8a:	0f be       	out	0x3f, r0	; 63
    4c8c:	2d bf       	out	0x3d, r18	; 61
    4c8e:	ed b7       	in	r30, 0x3d	; 61
    4c90:	fe b7       	in	r31, 0x3e	; 62
    4c92:	31 96       	adiw	r30, 0x01	; 1
    4c94:	28 ee       	ldi	r18, 0xE8	; 232
    4c96:	36 e0       	ldi	r19, 0x06	; 6
    4c98:	ad b7       	in	r26, 0x3d	; 61
    4c9a:	be b7       	in	r27, 0x3e	; 62
    4c9c:	12 96       	adiw	r26, 0x02	; 2
    4c9e:	3c 93       	st	X, r19
    4ca0:	2e 93       	st	-X, r18
    4ca2:	11 97       	sbiw	r26, 0x01	; 1
    4ca4:	73 82       	std	Z+3, r7	; 0x03
    4ca6:	62 82       	std	Z+2, r6	; 0x02
    4ca8:	95 82       	std	Z+5, r9	; 0x05
    4caa:	84 82       	std	Z+4, r8	; 0x04
    4cac:	b7 82       	std	Z+7, r11	; 0x07
    4cae:	a6 82       	std	Z+6, r10	; 0x06
    4cb0:	d1 86       	std	Z+9, r13	; 0x09
    4cb2:	c0 86       	std	Z+8, r12	; 0x08
    4cb4:	f3 86       	std	Z+11, r15	; 0x0b
    4cb6:	e2 86       	std	Z+10, r14	; 0x0a
    4cb8:	15 87       	std	Z+13, r17	; 0x0d
    4cba:	04 87       	std	Z+12, r16	; 0x0c
    4cbc:	97 87       	std	Z+15, r25	; 0x0f
    4cbe:	86 87       	std	Z+14, r24	; 0x0e
    4cc0:	0e 94 fc 3e 	call	0x7df8	; 0x7df8 <printf>
    4cc4:	2d b7       	in	r18, 0x3d	; 61
    4cc6:	3e b7       	in	r19, 0x3e	; 62
    4cc8:	20 5f       	subi	r18, 0xF0	; 240
    4cca:	3f 4f       	sbci	r19, 0xFF	; 255
    4ccc:	0f b6       	in	r0, 0x3f	; 63
    4cce:	f8 94       	cli
    4cd0:	3e bf       	out	0x3e, r19	; 62
    4cd2:	0f be       	out	0x3f, r0	; 63
    4cd4:	2d bf       	out	0x3d, r18	; 61
}
    4cd6:	1f 91       	pop	r17
    4cd8:	0f 91       	pop	r16
    4cda:	ff 90       	pop	r15
    4cdc:	ef 90       	pop	r14
    4cde:	df 90       	pop	r13
    4ce0:	cf 90       	pop	r12
    4ce2:	bf 90       	pop	r11
    4ce4:	af 90       	pop	r10
    4ce6:	9f 90       	pop	r9
    4ce8:	8f 90       	pop	r8
    4cea:	7f 90       	pop	r7
    4cec:	6f 90       	pop	r6
    4cee:	08 95       	ret

00004cf0 <GetVoltage>:
}

float GetVoltage(int id)
{
	float voltageBits = 0;
	 voltageBits = dxl_read_byte( id, SERVO_VOLTAGE  );
    4cf0:	6a e2       	ldi	r22, 0x2A	; 42
    4cf2:	70 e0       	ldi	r23, 0x00	; 0
    4cf4:	0e 94 80 32 	call	0x6500	; 0x6500 <dxl_read_byte>
    4cf8:	aa 27       	eor	r26, r26
    4cfa:	97 fd       	sbrc	r25, 7
    4cfc:	a0 95       	com	r26
    4cfe:	ba 2f       	mov	r27, r26
    4d00:	bc 01       	movw	r22, r24
    4d02:	cd 01       	movw	r24, r26
    4d04:	0e 94 fd 39 	call	0x73fa	; 0x73fa <__floatsisf>
    4d08:	20 e0       	ldi	r18, 0x00	; 0
    4d0a:	30 e0       	ldi	r19, 0x00	; 0
    4d0c:	40 e2       	ldi	r20, 0x20	; 32
    4d0e:	51 e4       	ldi	r21, 0x41	; 65
    4d10:	0e 94 62 39 	call	0x72c4	; 0x72c4 <__divsf3>
	float voltage = 0;
	 voltage = voltageBits / 10.0;
	return voltage;
}
    4d14:	08 95       	ret

00004d16 <SetUpServos>:
int   PrintErrorCode();
void  PrintCommStatus(int CommStatus);

///////
void SetUpServos()
{	
    4d16:	2f 92       	push	r2
    4d18:	3f 92       	push	r3
    4d1a:	4f 92       	push	r4
    4d1c:	5f 92       	push	r5
    4d1e:	6f 92       	push	r6
    4d20:	7f 92       	push	r7
    4d22:	8f 92       	push	r8
    4d24:	9f 92       	push	r9
    4d26:	af 92       	push	r10
    4d28:	bf 92       	push	r11
    4d2a:	cf 92       	push	r12
    4d2c:	df 92       	push	r13
    4d2e:	ef 92       	push	r14
    4d30:	ff 92       	push	r15
    4d32:	0f 93       	push	r16
    4d34:	1f 93       	push	r17
	float voltage12 = 0;
	voltage12 = GetVoltage(7);
    4d36:	87 e0       	ldi	r24, 0x07	; 7
    4d38:	90 e0       	ldi	r25, 0x00	; 0
    4d3a:	0e 94 78 26 	call	0x4cf0	; 0x4cf0 <GetVoltage>
    4d3e:	1b 01       	movw	r2, r22
    4d40:	2c 01       	movw	r4, r24
	printf("Voltage12: %f \r",voltage12);
    4d42:	00 d0       	rcall	.+0      	; 0x4d44 <SetUpServos+0x2e>
    4d44:	00 d0       	rcall	.+0      	; 0x4d46 <SetUpServos+0x30>
    4d46:	83 e0       	ldi	r24, 0x03	; 3
    4d48:	97 e0       	ldi	r25, 0x07	; 7
    4d4a:	ed b7       	in	r30, 0x3d	; 61
    4d4c:	fe b7       	in	r31, 0x3e	; 62
    4d4e:	92 83       	std	Z+2, r25	; 0x02
    4d50:	81 83       	std	Z+1, r24	; 0x01
    4d52:	23 82       	std	Z+3, r2	; 0x03
    4d54:	34 82       	std	Z+4, r3	; 0x04
    4d56:	45 82       	std	Z+5, r4	; 0x05
    4d58:	56 82       	std	Z+6, r5	; 0x06
    4d5a:	0e 94 fc 3e 	call	0x7df8	; 0x7df8 <printf>
    4d5e:	24 ef       	ldi	r18, 0xF4	; 244
    4d60:	31 e0       	ldi	r19, 0x01	; 1
    4d62:	8d b7       	in	r24, 0x3d	; 61
    4d64:	9e b7       	in	r25, 0x3e	; 62
    4d66:	06 96       	adiw	r24, 0x06	; 6
    4d68:	0f b6       	in	r0, 0x3f	; 63
    4d6a:	f8 94       	cli
    4d6c:	9e bf       	out	0x3e, r25	; 62
    4d6e:	0f be       	out	0x3f, r0	; 63
    4d70:	8d bf       	out	0x3d, r24	; 61
    4d72:	40 e9       	ldi	r20, 0x90	; 144
    4d74:	51 e0       	ldi	r21, 0x01	; 1
    4d76:	ca 01       	movw	r24, r20
    4d78:	01 97       	sbiw	r24, 0x01	; 1
    4d7a:	f1 f7       	brne	.-4      	; 0x4d78 <SetUpServos+0x62>
		{
			// wait 1/10 ms
			_delay_loop_2(((F_CPU) / 4e3) / 10);
			__ticks --;
    4d7c:	21 50       	subi	r18, 0x01	; 1
    4d7e:	30 40       	sbci	r19, 0x00	; 0
		__ticks = 1;
	else if (__tmp > 65535)
	{
		//	__ticks = requested delay in 1/10 ms
		__ticks = (uint16_t) (__ms * 10.0);
		while(__ticks)
    4d80:	d1 f7       	brne	.-12     	; 0x4d76 <SetUpServos+0x60>
	_delay_ms(50);
	float voltage18 = 0;
	voltage18 = GetVoltage(0);
    4d82:	80 e0       	ldi	r24, 0x00	; 0
    4d84:	90 e0       	ldi	r25, 0x00	; 0
    4d86:	0e 94 78 26 	call	0x4cf0	; 0x4cf0 <GetVoltage>
    4d8a:	3b 01       	movw	r6, r22
    4d8c:	4c 01       	movw	r8, r24
	printf("Voltage18: %f \r",voltage18);
    4d8e:	00 d0       	rcall	.+0      	; 0x4d90 <SetUpServos+0x7a>
    4d90:	00 d0       	rcall	.+0      	; 0x4d92 <SetUpServos+0x7c>
    4d92:	83 e1       	ldi	r24, 0x13	; 19
    4d94:	97 e0       	ldi	r25, 0x07	; 7
    4d96:	ed b7       	in	r30, 0x3d	; 61
    4d98:	fe b7       	in	r31, 0x3e	; 62
    4d9a:	92 83       	std	Z+2, r25	; 0x02
    4d9c:	81 83       	std	Z+1, r24	; 0x01
    4d9e:	63 82       	std	Z+3, r6	; 0x03
    4da0:	74 82       	std	Z+4, r7	; 0x04
    4da2:	85 82       	std	Z+5, r8	; 0x05
    4da4:	96 82       	std	Z+6, r9	; 0x06
    4da6:	0e 94 fc 3e 	call	0x7df8	; 0x7df8 <printf>
	

	ids[0] = 0;
    4daa:	10 92 ea 0a 	sts	0x0AEA, r1
    4dae:	10 92 e9 0a 	sts	0x0AE9, r1
	ids[1] = 1;
    4db2:	21 e0       	ldi	r18, 0x01	; 1
    4db4:	30 e0       	ldi	r19, 0x00	; 0
    4db6:	30 93 ec 0a 	sts	0x0AEC, r19
    4dba:	20 93 eb 0a 	sts	0x0AEB, r18
	ids[2] = 2;
    4dbe:	82 e0       	ldi	r24, 0x02	; 2
    4dc0:	90 e0       	ldi	r25, 0x00	; 0
    4dc2:	90 93 ee 0a 	sts	0x0AEE, r25
    4dc6:	80 93 ed 0a 	sts	0x0AED, r24
	ids[3] = 3;
    4dca:	83 e0       	ldi	r24, 0x03	; 3
    4dcc:	90 e0       	ldi	r25, 0x00	; 0
    4dce:	90 93 f0 0a 	sts	0x0AF0, r25
    4dd2:	80 93 ef 0a 	sts	0x0AEF, r24
	ids[4] = 4;
    4dd6:	84 e0       	ldi	r24, 0x04	; 4
    4dd8:	90 e0       	ldi	r25, 0x00	; 0
    4dda:	90 93 f2 0a 	sts	0x0AF2, r25
    4dde:	80 93 f1 0a 	sts	0x0AF1, r24
	ids[5] = 5;
    4de2:	85 e0       	ldi	r24, 0x05	; 5
    4de4:	90 e0       	ldi	r25, 0x00	; 0
    4de6:	90 93 f4 0a 	sts	0x0AF4, r25
    4dea:	80 93 f3 0a 	sts	0x0AF3, r24
	ids[6] = 6;
    4dee:	86 e0       	ldi	r24, 0x06	; 6
    4df0:	90 e0       	ldi	r25, 0x00	; 0
    4df2:	90 93 f6 0a 	sts	0x0AF6, r25
    4df6:	80 93 f5 0a 	sts	0x0AF5, r24

	ids[7] = 7;
    4dfa:	87 e0       	ldi	r24, 0x07	; 7
    4dfc:	90 e0       	ldi	r25, 0x00	; 0
    4dfe:	90 93 f8 0a 	sts	0x0AF8, r25
    4e02:	80 93 f7 0a 	sts	0x0AF7, r24
	ids[8] = 17;
    4e06:	81 e1       	ldi	r24, 0x11	; 17
    4e08:	90 e0       	ldi	r25, 0x00	; 0
    4e0a:	90 93 fa 0a 	sts	0x0AFA, r25
    4e0e:	80 93 f9 0a 	sts	0x0AF9, r24

	// Arm
	ceroPosition[0] = 81;   // 33
    4e12:	80 e0       	ldi	r24, 0x00	; 0
    4e14:	90 e0       	ldi	r25, 0x00	; 0
    4e16:	a2 ea       	ldi	r26, 0xA2	; 162
    4e18:	b2 e4       	ldi	r27, 0x42	; 66
    4e1a:	80 93 17 0b 	sts	0x0B17, r24
    4e1e:	90 93 18 0b 	sts	0x0B18, r25
    4e22:	a0 93 19 0b 	sts	0x0B19, r26
    4e26:	b0 93 1a 0b 	sts	0x0B1A, r27
	ceroPosition[1] = 0;	//180
    4e2a:	80 e0       	ldi	r24, 0x00	; 0
    4e2c:	90 e0       	ldi	r25, 0x00	; 0
    4e2e:	a0 e0       	ldi	r26, 0x00	; 0
    4e30:	b0 e0       	ldi	r27, 0x00	; 0
    4e32:	80 93 1b 0b 	sts	0x0B1B, r24
    4e36:	90 93 1c 0b 	sts	0x0B1C, r25
    4e3a:	a0 93 1d 0b 	sts	0x0B1D, r26
    4e3e:	b0 93 1e 0b 	sts	0x0B1E, r27
	ceroPosition[2] = 90;
    4e42:	80 e0       	ldi	r24, 0x00	; 0
    4e44:	90 e0       	ldi	r25, 0x00	; 0
    4e46:	a4 eb       	ldi	r26, 0xB4	; 180
    4e48:	b2 e4       	ldi	r27, 0x42	; 66
    4e4a:	80 93 1f 0b 	sts	0x0B1F, r24
    4e4e:	90 93 20 0b 	sts	0x0B20, r25
    4e52:	a0 93 21 0b 	sts	0x0B21, r26
    4e56:	b0 93 22 0b 	sts	0x0B22, r27
	ceroPosition[3] = 90; //
    4e5a:	80 93 23 0b 	sts	0x0B23, r24
    4e5e:	90 93 24 0b 	sts	0x0B24, r25
    4e62:	a0 93 25 0b 	sts	0x0B25, r26
    4e66:	b0 93 26 0b 	sts	0x0B26, r27
	ceroPosition[4] = 90;
    4e6a:	80 93 27 0b 	sts	0x0B27, r24
    4e6e:	90 93 28 0b 	sts	0x0B28, r25
    4e72:	a0 93 29 0b 	sts	0x0B29, r26
    4e76:	b0 93 2a 0b 	sts	0x0B2A, r27
	ceroPosition[5] = 90;
    4e7a:	80 93 2b 0b 	sts	0x0B2B, r24
    4e7e:	90 93 2c 0b 	sts	0x0B2C, r25
    4e82:	a0 93 2d 0b 	sts	0x0B2D, r26
    4e86:	b0 93 2e 0b 	sts	0x0B2E, r27
	ceroPosition[6] = 90;
    4e8a:	80 93 2f 0b 	sts	0x0B2F, r24
    4e8e:	90 93 30 0b 	sts	0x0B30, r25
    4e92:	a0 93 31 0b 	sts	0x0B31, r26
    4e96:	b0 93 32 0b 	sts	0x0B32, r27

	ceroPosition[7] = 120;
    4e9a:	80 e0       	ldi	r24, 0x00	; 0
    4e9c:	90 e0       	ldi	r25, 0x00	; 0
    4e9e:	a0 ef       	ldi	r26, 0xF0	; 240
    4ea0:	b2 e4       	ldi	r27, 0x42	; 66
    4ea2:	80 93 33 0b 	sts	0x0B33, r24
    4ea6:	90 93 34 0b 	sts	0x0B34, r25
    4eaa:	a0 93 35 0b 	sts	0x0B35, r26
    4eae:	b0 93 36 0b 	sts	0x0B36, r27
	ceroPosition[8] = 238;
    4eb2:	80 e0       	ldi	r24, 0x00	; 0
    4eb4:	90 e0       	ldi	r25, 0x00	; 0
    4eb6:	ae e6       	ldi	r26, 0x6E	; 110
    4eb8:	b3 e4       	ldi	r27, 0x43	; 67
    4eba:	80 93 37 0b 	sts	0x0B37, r24
    4ebe:	90 93 38 0b 	sts	0x0B38, r25
    4ec2:	a0 93 39 0b 	sts	0x0B39, r26
    4ec6:	b0 93 3a 0b 	sts	0x0B3A, r27
	
	//1: CW 0: CCW
	cw[0] = 1;
    4eca:	30 93 02 11 	sts	0x1102, r19
    4ece:	20 93 01 11 	sts	0x1101, r18
	cw[1] = 0;//1
    4ed2:	10 92 04 11 	sts	0x1104, r1
    4ed6:	10 92 03 11 	sts	0x1103, r1
	cw[2] = 0;
    4eda:	10 92 06 11 	sts	0x1106, r1
    4ede:	10 92 05 11 	sts	0x1105, r1
	cw[3] = 1;
    4ee2:	30 93 08 11 	sts	0x1108, r19
    4ee6:	20 93 07 11 	sts	0x1107, r18
	cw[4] = 0;
    4eea:	10 92 0a 11 	sts	0x110A, r1
    4eee:	10 92 09 11 	sts	0x1109, r1
	cw[5] = 1;
    4ef2:	30 93 0c 11 	sts	0x110C, r19
    4ef6:	20 93 0b 11 	sts	0x110B, r18
	cw[6] = 0;
    4efa:	10 92 0e 11 	sts	0x110E, r1
    4efe:	10 92 0d 11 	sts	0x110D, r1

	cw[7] = 0;
    4f02:	10 92 10 11 	sts	0x1110, r1
    4f06:	10 92 0f 11 	sts	0x110F, r1
	cw[8] = 1;
    4f0a:	30 93 12 11 	sts	0x1112, r19
    4f0e:	20 93 11 11 	sts	0x1111, r18

	maxBits[0] = 4095.0;
    4f12:	20 e0       	ldi	r18, 0x00	; 0
    4f14:	30 ef       	ldi	r19, 0xF0	; 240
    4f16:	4f e7       	ldi	r20, 0x7F	; 127
    4f18:	55 e4       	ldi	r21, 0x45	; 69
    4f1a:	20 93 bb 0b 	sts	0x0BBB, r18
    4f1e:	30 93 bc 0b 	sts	0x0BBC, r19
    4f22:	40 93 bd 0b 	sts	0x0BBD, r20
    4f26:	50 93 be 0b 	sts	0x0BBE, r21
	maxBits[1] = 4095.0;   ////// CAMBIAR a 64
    4f2a:	20 93 bf 0b 	sts	0x0BBF, r18
    4f2e:	30 93 c0 0b 	sts	0x0BC0, r19
    4f32:	40 93 c1 0b 	sts	0x0BC1, r20
    4f36:	50 93 c2 0b 	sts	0x0BC2, r21
	maxBits[2] = 1023.0;
    4f3a:	80 e0       	ldi	r24, 0x00	; 0
    4f3c:	90 ec       	ldi	r25, 0xC0	; 192
    4f3e:	af e7       	ldi	r26, 0x7F	; 127
    4f40:	b4 e4       	ldi	r27, 0x44	; 68
    4f42:	80 93 c3 0b 	sts	0x0BC3, r24
    4f46:	90 93 c4 0b 	sts	0x0BC4, r25
    4f4a:	a0 93 c5 0b 	sts	0x0BC5, r26
    4f4e:	b0 93 c6 0b 	sts	0x0BC6, r27
	maxBits[3] = 4095.0;
    4f52:	20 93 c7 0b 	sts	0x0BC7, r18
    4f56:	30 93 c8 0b 	sts	0x0BC8, r19
    4f5a:	40 93 c9 0b 	sts	0x0BC9, r20
    4f5e:	50 93 ca 0b 	sts	0x0BCA, r21
	maxBits[4] = 1023.0;
    4f62:	80 93 cb 0b 	sts	0x0BCB, r24
    4f66:	90 93 cc 0b 	sts	0x0BCC, r25
    4f6a:	a0 93 cd 0b 	sts	0x0BCD, r26
    4f6e:	b0 93 ce 0b 	sts	0x0BCE, r27
	maxBits[5] = 1023.0;
    4f72:	80 93 cf 0b 	sts	0x0BCF, r24
    4f76:	90 93 d0 0b 	sts	0x0BD0, r25
    4f7a:	a0 93 d1 0b 	sts	0x0BD1, r26
    4f7e:	b0 93 d2 0b 	sts	0x0BD2, r27
	maxBits[6] = 1023.0;
    4f82:	80 93 d3 0b 	sts	0x0BD3, r24
    4f86:	90 93 d4 0b 	sts	0x0BD4, r25
    4f8a:	a0 93 d5 0b 	sts	0x0BD5, r26
    4f8e:	b0 93 d6 0b 	sts	0x0BD6, r27
	maxBits[7] = 1023.0;
    4f92:	80 93 d7 0b 	sts	0x0BD7, r24
    4f96:	90 93 d8 0b 	sts	0x0BD8, r25
    4f9a:	a0 93 d9 0b 	sts	0x0BD9, r26
    4f9e:	b0 93 da 0b 	sts	0x0BDA, r27
	maxBits[8] = 1023.0;
    4fa2:	80 93 db 0b 	sts	0x0BDB, r24
    4fa6:	90 93 dc 0b 	sts	0x0BDC, r25
    4faa:	a0 93 dd 0b 	sts	0x0BDD, r26
    4fae:	b0 93 de 0b 	sts	0x0BDE, r27

	maxDegrees[0] = 250.92;
    4fb2:	85 e8       	ldi	r24, 0x85	; 133
    4fb4:	9b ee       	ldi	r25, 0xEB	; 235
    4fb6:	aa e7       	ldi	r26, 0x7A	; 122
    4fb8:	b3 e4       	ldi	r27, 0x43	; 67
    4fba:	80 93 3b 0b 	sts	0x0B3B, r24
    4fbe:	90 93 3c 0b 	sts	0x0B3C, r25
    4fc2:	a0 93 3d 0b 	sts	0x0B3D, r26
    4fc6:	b0 93 3e 0b 	sts	0x0B3E, r27
	maxDegrees[1] = 250.92; ////// CAMBIAR a 64
    4fca:	80 93 3f 0b 	sts	0x0B3F, r24
    4fce:	90 93 40 0b 	sts	0x0B40, r25
    4fd2:	a0 93 41 0b 	sts	0x0B41, r26
    4fd6:	b0 93 42 0b 	sts	0x0B42, r27
	maxDegrees[2] = 300.0;
    4fda:	20 e0       	ldi	r18, 0x00	; 0
    4fdc:	30 e0       	ldi	r19, 0x00	; 0
    4fde:	46 e9       	ldi	r20, 0x96	; 150
    4fe0:	53 e4       	ldi	r21, 0x43	; 67
    4fe2:	20 93 43 0b 	sts	0x0B43, r18
    4fe6:	30 93 44 0b 	sts	0x0B44, r19
    4fea:	40 93 45 0b 	sts	0x0B45, r20
    4fee:	50 93 46 0b 	sts	0x0B46, r21
	maxDegrees[3] = 359.999;
    4ff2:	8f ed       	ldi	r24, 0xDF	; 223
    4ff4:	9f ef       	ldi	r25, 0xFF	; 255
    4ff6:	a3 eb       	ldi	r26, 0xB3	; 179
    4ff8:	b3 e4       	ldi	r27, 0x43	; 67
    4ffa:	80 93 47 0b 	sts	0x0B47, r24
    4ffe:	90 93 48 0b 	sts	0x0B48, r25
    5002:	a0 93 49 0b 	sts	0x0B49, r26
    5006:	b0 93 4a 0b 	sts	0x0B4A, r27
	maxDegrees[4] = 300.0;
    500a:	20 93 4b 0b 	sts	0x0B4B, r18
    500e:	30 93 4c 0b 	sts	0x0B4C, r19
    5012:	40 93 4d 0b 	sts	0x0B4D, r20
    5016:	50 93 4e 0b 	sts	0x0B4E, r21
	maxDegrees[5] = 300.0;
    501a:	20 93 4f 0b 	sts	0x0B4F, r18
    501e:	30 93 50 0b 	sts	0x0B50, r19
    5022:	40 93 51 0b 	sts	0x0B51, r20
    5026:	50 93 52 0b 	sts	0x0B52, r21
	maxDegrees[6] = 300.0;
    502a:	20 93 53 0b 	sts	0x0B53, r18
    502e:	30 93 54 0b 	sts	0x0B54, r19
    5032:	40 93 55 0b 	sts	0x0B55, r20
    5036:	50 93 56 0b 	sts	0x0B56, r21

	maxDegrees[7] = 300.0;
    503a:	20 93 57 0b 	sts	0x0B57, r18
    503e:	30 93 58 0b 	sts	0x0B58, r19
    5042:	40 93 59 0b 	sts	0x0B59, r20
    5046:	50 93 5a 0b 	sts	0x0B5A, r21
	maxDegrees[8] = 300.0;
    504a:	20 93 5b 0b 	sts	0x0B5B, r18
    504e:	30 93 5c 0b 	sts	0x0B5C, r19
    5052:	40 93 5d 0b 	sts	0x0B5D, r20
    5056:	50 93 5e 0b 	sts	0x0B5E, r21

	float maxTorque106 = (voltage18 * 5.945945946) - 4.0;		// EX-106
    505a:	c4 01       	movw	r24, r8
    505c:	b3 01       	movw	r22, r6
    505e:	20 e3       	ldi	r18, 0x30	; 48
    5060:	35 e4       	ldi	r19, 0x45	; 69
    5062:	4e eb       	ldi	r20, 0xBE	; 190
    5064:	50 e4       	ldi	r21, 0x40	; 64
    5066:	0e 94 42 3b 	call	0x7684	; 0x7684 <__mulsf3>
    506a:	20 e0       	ldi	r18, 0x00	; 0
    506c:	30 e0       	ldi	r19, 0x00	; 0
    506e:	40 e8       	ldi	r20, 0x80	; 128
    5070:	50 e4       	ldi	r21, 0x40	; 64
    5072:	0e 94 7d 38 	call	0x70fa	; 0x70fa <__subsf3>
    5076:	7b 01       	movw	r14, r22
    5078:	8c 01       	movw	r16, r24
	float maxTorque64  = (voltage18 * 4.266666667) + 0.4;		// RX-64
    507a:	c4 01       	movw	r24, r8
    507c:	b3 01       	movw	r22, r6
    507e:	29 e8       	ldi	r18, 0x89	; 137
    5080:	38 e8       	ldi	r19, 0x88	; 136
    5082:	48 e8       	ldi	r20, 0x88	; 136
    5084:	50 e4       	ldi	r21, 0x40	; 64
    5086:	0e 94 42 3b 	call	0x7684	; 0x7684 <__mulsf3>
    508a:	2d ec       	ldi	r18, 0xCD	; 205
    508c:	3c ec       	ldi	r19, 0xCC	; 204
    508e:	4c ec       	ldi	r20, 0xCC	; 204
    5090:	5e e3       	ldi	r21, 0x3E	; 62
    5092:	0e 94 7e 38 	call	0x70fc	; 0x70fc <__addsf3>
    5096:	5b 01       	movw	r10, r22
    5098:	6c 01       	movw	r12, r24
	float maxTorque28  = (voltage18 * 1.446153846) + 10.9461;
    509a:	c4 01       	movw	r24, r8
    509c:	b3 01       	movw	r22, r6
    509e:	22 e9       	ldi	r18, 0x92	; 146
    50a0:	3b e1       	ldi	r19, 0x1B	; 27
    50a2:	49 eb       	ldi	r20, 0xB9	; 185
    50a4:	5f e3       	ldi	r21, 0x3F	; 63
    50a6:	0e 94 42 3b 	call	0x7684	; 0x7684 <__mulsf3>
    50aa:	2a e3       	ldi	r18, 0x3A	; 58
    50ac:	33 e2       	ldi	r19, 0x23	; 35
    50ae:	4f e2       	ldi	r20, 0x2F	; 47
    50b0:	51 e4       	ldi	r21, 0x41	; 65
    50b2:	0e 94 7e 38 	call	0x70fc	; 0x70fc <__addsf3>
    50b6:	3b 01       	movw	r6, r22
    50b8:	4c 01       	movw	r8, r24
	float maxTorque12  = (voltage12 * 1.5) + 1.5;
    50ba:	c2 01       	movw	r24, r4
    50bc:	b1 01       	movw	r22, r2
    50be:	20 e0       	ldi	r18, 0x00	; 0
    50c0:	30 e0       	ldi	r19, 0x00	; 0
    50c2:	40 ec       	ldi	r20, 0xC0	; 192
    50c4:	5f e3       	ldi	r21, 0x3F	; 63
    50c6:	0e 94 42 3b 	call	0x7684	; 0x7684 <__mulsf3>
    50ca:	20 e0       	ldi	r18, 0x00	; 0
    50cc:	30 e0       	ldi	r19, 0x00	; 0
    50ce:	40 ec       	ldi	r20, 0xC0	; 192
    50d0:	5f e3       	ldi	r21, 0x3F	; 63
    50d2:	0e 94 7e 38 	call	0x70fc	; 0x70fc <__addsf3>
    50d6:	1b 01       	movw	r2, r22
    50d8:	2c 01       	movw	r4, r24


	maxTorque[0] = maxTorque106;
    50da:	c7 01       	movw	r24, r14
    50dc:	d8 01       	movw	r26, r16
    50de:	80 93 97 0b 	sts	0x0B97, r24
    50e2:	90 93 98 0b 	sts	0x0B98, r25
    50e6:	a0 93 99 0b 	sts	0x0B99, r26
    50ea:	b0 93 9a 0b 	sts	0x0B9A, r27
	maxTorque[1] = maxTorque106;			///// CAMBIAR A 64
    50ee:	80 93 9b 0b 	sts	0x0B9B, r24
    50f2:	90 93 9c 0b 	sts	0x0B9C, r25
    50f6:	a0 93 9d 0b 	sts	0x0B9D, r26
    50fa:	b0 93 9e 0b 	sts	0x0B9E, r27
	maxTorque[2] = maxTorque28;
    50fe:	c3 01       	movw	r24, r6
    5100:	d4 01       	movw	r26, r8
    5102:	80 93 9f 0b 	sts	0x0B9F, r24
    5106:	90 93 a0 0b 	sts	0x0BA0, r25
    510a:	a0 93 a1 0b 	sts	0x0BA1, r26
    510e:	b0 93 a2 0b 	sts	0x0BA2, r27
	maxTorque[3] = maxTorque106;
    5112:	c7 01       	movw	r24, r14
    5114:	d8 01       	movw	r26, r16
    5116:	80 93 a3 0b 	sts	0x0BA3, r24
    511a:	90 93 a4 0b 	sts	0x0BA4, r25
    511e:	a0 93 a5 0b 	sts	0x0BA5, r26
    5122:	b0 93 a6 0b 	sts	0x0BA6, r27
	maxTorque[4] = maxTorque64;
    5126:	c5 01       	movw	r24, r10
    5128:	d6 01       	movw	r26, r12
    512a:	80 93 a7 0b 	sts	0x0BA7, r24
    512e:	90 93 a8 0b 	sts	0x0BA8, r25
    5132:	a0 93 a9 0b 	sts	0x0BA9, r26
    5136:	b0 93 aa 0b 	sts	0x0BAA, r27
	maxTorque[5] = maxTorque64;
    513a:	80 93 ab 0b 	sts	0x0BAB, r24
    513e:	90 93 ac 0b 	sts	0x0BAC, r25
    5142:	a0 93 ad 0b 	sts	0x0BAD, r26
    5146:	b0 93 ae 0b 	sts	0x0BAE, r27
	maxTorque[6] = maxTorque28;
    514a:	c3 01       	movw	r24, r6
    514c:	d4 01       	movw	r26, r8
    514e:	80 93 af 0b 	sts	0x0BAF, r24
    5152:	90 93 b0 0b 	sts	0x0BB0, r25
    5156:	a0 93 b1 0b 	sts	0x0BB1, r26
    515a:	b0 93 b2 0b 	sts	0x0BB2, r27

	maxTorque[7] = maxTorque12;
    515e:	c1 01       	movw	r24, r2
    5160:	d2 01       	movw	r26, r4
    5162:	80 93 b3 0b 	sts	0x0BB3, r24
    5166:	90 93 b4 0b 	sts	0x0BB4, r25
    516a:	a0 93 b5 0b 	sts	0x0BB5, r26
    516e:	b0 93 b6 0b 	sts	0x0BB6, r27
	maxTorque[8] = maxTorque12;
    5172:	80 93 b7 0b 	sts	0x0BB7, r24
    5176:	90 93 b8 0b 	sts	0x0BB8, r25
    517a:	a0 93 b9 0b 	sts	0x0BB9, r26
    517e:	b0 93 ba 0b 	sts	0x0BBA, r27
	
	printf("MAXTORQUE106: %f \r",maxTorque106);
    5182:	83 e2       	ldi	r24, 0x23	; 35
    5184:	97 e0       	ldi	r25, 0x07	; 7
    5186:	ed b7       	in	r30, 0x3d	; 61
    5188:	fe b7       	in	r31, 0x3e	; 62
    518a:	92 83       	std	Z+2, r25	; 0x02
    518c:	81 83       	std	Z+1, r24	; 0x01
    518e:	c7 01       	movw	r24, r14
    5190:	d8 01       	movw	r26, r16
    5192:	83 83       	std	Z+3, r24	; 0x03
    5194:	94 83       	std	Z+4, r25	; 0x04
    5196:	a5 83       	std	Z+5, r26	; 0x05
    5198:	b6 83       	std	Z+6, r27	; 0x06
    519a:	0e 94 fc 3e 	call	0x7df8	; 0x7df8 <printf>
	printf("MAXTORQUE64: %f \r",maxTorque64);
    519e:	86 e3       	ldi	r24, 0x36	; 54
    51a0:	97 e0       	ldi	r25, 0x07	; 7
    51a2:	ed b7       	in	r30, 0x3d	; 61
    51a4:	fe b7       	in	r31, 0x3e	; 62
    51a6:	92 83       	std	Z+2, r25	; 0x02
    51a8:	81 83       	std	Z+1, r24	; 0x01
    51aa:	c5 01       	movw	r24, r10
    51ac:	d6 01       	movw	r26, r12
    51ae:	83 83       	std	Z+3, r24	; 0x03
    51b0:	94 83       	std	Z+4, r25	; 0x04
    51b2:	a5 83       	std	Z+5, r26	; 0x05
    51b4:	b6 83       	std	Z+6, r27	; 0x06
    51b6:	0e 94 fc 3e 	call	0x7df8	; 0x7df8 <printf>
	printf("MAXTORQUE28: %f \r",maxTorque28);
    51ba:	88 e4       	ldi	r24, 0x48	; 72
    51bc:	97 e0       	ldi	r25, 0x07	; 7
    51be:	ed b7       	in	r30, 0x3d	; 61
    51c0:	fe b7       	in	r31, 0x3e	; 62
    51c2:	92 83       	std	Z+2, r25	; 0x02
    51c4:	81 83       	std	Z+1, r24	; 0x01
    51c6:	c3 01       	movw	r24, r6
    51c8:	d4 01       	movw	r26, r8
    51ca:	83 83       	std	Z+3, r24	; 0x03
    51cc:	94 83       	std	Z+4, r25	; 0x04
    51ce:	a5 83       	std	Z+5, r26	; 0x05
    51d0:	b6 83       	std	Z+6, r27	; 0x06
    51d2:	0e 94 fc 3e 	call	0x7df8	; 0x7df8 <printf>
	printf("MAXTORQUE12: %f \r",maxTorque12);
    51d6:	8a e5       	ldi	r24, 0x5A	; 90
    51d8:	97 e0       	ldi	r25, 0x07	; 7
    51da:	ed b7       	in	r30, 0x3d	; 61
    51dc:	fe b7       	in	r31, 0x3e	; 62
    51de:	92 83       	std	Z+2, r25	; 0x02
    51e0:	81 83       	std	Z+1, r24	; 0x01
    51e2:	c1 01       	movw	r24, r2
    51e4:	d2 01       	movw	r26, r4
    51e6:	83 83       	std	Z+3, r24	; 0x03
    51e8:	94 83       	std	Z+4, r25	; 0x04
    51ea:	a5 83       	std	Z+5, r26	; 0x05
    51ec:	b6 83       	std	Z+6, r27	; 0x06
    51ee:	0e 94 fc 3e 	call	0x7df8	; 0x7df8 <printf>
    51f2:	8d b7       	in	r24, 0x3d	; 61
    51f4:	9e b7       	in	r25, 0x3e	; 62
    51f6:	06 96       	adiw	r24, 0x06	; 6
    51f8:	0f b6       	in	r0, 0x3f	; 63
    51fa:	f8 94       	cli
    51fc:	9e bf       	out	0x3e, r25	; 62
    51fe:	0f be       	out	0x3f, r0	; 63
    5200:	8d bf       	out	0x3d, r24	; 61

}
    5202:	1f 91       	pop	r17
    5204:	0f 91       	pop	r16
    5206:	ff 90       	pop	r15
    5208:	ef 90       	pop	r14
    520a:	df 90       	pop	r13
    520c:	cf 90       	pop	r12
    520e:	bf 90       	pop	r11
    5210:	af 90       	pop	r10
    5212:	9f 90       	pop	r9
    5214:	8f 90       	pop	r8
    5216:	7f 90       	pop	r7
    5218:	6f 90       	pop	r6
    521a:	5f 90       	pop	r5
    521c:	4f 90       	pop	r4
    521e:	3f 90       	pop	r3
    5220:	2f 90       	pop	r2
    5222:	08 95       	ret

00005224 <ArmTorque>:
	dxl_write_byte( 6, 24 , e7);
	return 1;
}

void ArmTorque(float* servoTorque)
{
    5224:	cf 92       	push	r12
    5226:	df 92       	push	r13
    5228:	ef 92       	push	r14
    522a:	ff 92       	push	r15
    522c:	0f 93       	push	r16
    522e:	1f 93       	push	r17
    5230:	cf 93       	push	r28
    5232:	df 93       	push	r29
    5234:	18 2f       	mov	r17, r24
    5236:	09 2f       	mov	r16, r25
		int i;
		int GoalTorque;
		// Make syncwrite packet
		dxl_set_txpacket_id(BROADCAST_ID);
    5238:	8e ef       	ldi	r24, 0xFE	; 254
    523a:	90 e0       	ldi	r25, 0x00	; 0
    523c:	0e 94 b9 30 	call	0x6172	; 0x6172 <dxl_set_txpacket_id>
		dxl_set_txpacket_instruction(INST_SYNC_WRITE);
    5240:	83 e8       	ldi	r24, 0x83	; 131
    5242:	90 e0       	ldi	r25, 0x00	; 0
    5244:	0e 94 bc 30 	call	0x6178	; 0x6178 <dxl_set_txpacket_instruction>
		dxl_set_txpacket_parameter(0, SERVO_PROG_SPEED);
    5248:	80 e0       	ldi	r24, 0x00	; 0
    524a:	90 e0       	ldi	r25, 0x00	; 0
    524c:	60 e2       	ldi	r22, 0x20	; 32
    524e:	70 e0       	ldi	r23, 0x00	; 0
    5250:	0e 94 bf 30 	call	0x617e	; 0x617e <dxl_set_txpacket_parameter>
		dxl_set_txpacket_parameter(1, 2);
    5254:	81 e0       	ldi	r24, 0x01	; 1
    5256:	90 e0       	ldi	r25, 0x00	; 0
    5258:	62 e0       	ldi	r22, 0x02	; 2
    525a:	70 e0       	ldi	r23, 0x00	; 0
    525c:	0e 94 bf 30 	call	0x617e	; 0x617e <dxl_set_txpacket_parameter>
    5260:	21 2f       	mov	r18, r17
    5262:	30 2f       	mov	r19, r16
    5264:	c9 01       	movw	r24, r18
    5266:	6c 01       	movw	r12, r24
    5268:	ee 24       	eor	r14, r14
    526a:	ff 24       	eor	r15, r15
    526c:	c2 e0       	ldi	r28, 0x02	; 2
    526e:	d0 e0       	ldi	r29, 0x00	; 0
		for( i=0; i<DOF; i++ )
		{
			dxl_set_txpacket_parameter(2+3*i, i);
    5270:	ce 01       	movw	r24, r28
    5272:	b7 01       	movw	r22, r14
    5274:	0e 94 bf 30 	call	0x617e	; 0x617e <dxl_set_txpacket_parameter>
			GoalTorque = (int)(SetTorque(i,servoTorque[i]));
    5278:	f6 01       	movw	r30, r12
    527a:	41 91       	ld	r20, Z+
    527c:	51 91       	ld	r21, Z+
    527e:	61 91       	ld	r22, Z+
    5280:	71 91       	ld	r23, Z+
    5282:	6f 01       	movw	r12, r30
    5284:	c7 01       	movw	r24, r14
    5286:	0e 94 7f 02 	call	0x4fe	; 0x4fe <SetTorque>
    528a:	8c 01       	movw	r16, r24
			//printf( "%i  ", GoalTorque );
			dxl_set_txpacket_parameter(2+3*i+1, dxl_get_lowbyte(GoalTorque));
    528c:	08 94       	sec
    528e:	e1 1c       	adc	r14, r1
    5290:	f1 1c       	adc	r15, r1
    5292:	0e 94 e1 30 	call	0x61c2	; 0x61c2 <dxl_get_lowbyte>
    5296:	bc 01       	movw	r22, r24
    5298:	ce 01       	movw	r24, r28
    529a:	01 96       	adiw	r24, 0x01	; 1
    529c:	0e 94 bf 30 	call	0x617e	; 0x617e <dxl_set_txpacket_parameter>
			dxl_set_txpacket_parameter(2+3*i+2, dxl_get_highbyte(GoalTorque));
    52a0:	c8 01       	movw	r24, r16
    52a2:	0e 94 e5 30 	call	0x61ca	; 0x61ca <dxl_get_highbyte>
    52a6:	bc 01       	movw	r22, r24
    52a8:	ce 01       	movw	r24, r28
    52aa:	02 96       	adiw	r24, 0x02	; 2
    52ac:	0e 94 bf 30 	call	0x617e	; 0x617e <dxl_set_txpacket_parameter>
    52b0:	23 96       	adiw	r28, 0x03	; 3
		// Make syncwrite packet
		dxl_set_txpacket_id(BROADCAST_ID);
		dxl_set_txpacket_instruction(INST_SYNC_WRITE);
		dxl_set_txpacket_parameter(0, SERVO_PROG_SPEED);
		dxl_set_txpacket_parameter(1, 2);
		for( i=0; i<DOF; i++ )
    52b2:	f7 e0       	ldi	r31, 0x07	; 7
    52b4:	ef 16       	cp	r14, r31
    52b6:	f1 04       	cpc	r15, r1
    52b8:	d9 f6       	brne	.-74     	; 0x5270 <ArmTorque+0x4c>
			GoalTorque = (int)(SetTorque(i,servoTorque[i]));
			//printf( "%i  ", GoalTorque );
			dxl_set_txpacket_parameter(2+3*i+1, dxl_get_lowbyte(GoalTorque));
			dxl_set_txpacket_parameter(2+3*i+2, dxl_get_highbyte(GoalTorque));
		}
		dxl_set_txpacket_length((2+1)*DOF+4);
    52ba:	89 e1       	ldi	r24, 0x19	; 25
    52bc:	90 e0       	ldi	r25, 0x00	; 0
    52be:	0e 94 c4 30 	call	0x6188	; 0x6188 <dxl_set_txpacket_length>

		//printf("\n");
		dxl_txrx_packet();
    52c2:	0e 94 1e 32 	call	0x643c	; 0x643c <dxl_txrx_packet>


		
		if(printStatus==1)
    52c6:	80 91 58 08 	lds	r24, 0x0858
    52ca:	90 91 59 08 	lds	r25, 0x0859
    52ce:	01 97       	sbiw	r24, 0x01	; 1
    52d0:	71 f4       	brne	.+28     	; 0x52ee <ArmTorque+0xca>
		{
			CommStatus = dxl_get_result();
    52d2:	0e 94 b4 30 	call	0x6168	; 0x6168 <dxl_get_result>
    52d6:	90 93 ac 0e 	sts	0x0EAC, r25
    52da:	80 93 ab 0e 	sts	0x0EAB, r24
			if( CommStatus == COMM_RXSUCCESS )
    52de:	81 30       	cpi	r24, 0x01	; 1
    52e0:	91 05       	cpc	r25, r1
    52e2:	19 f4       	brne	.+6      	; 0x52ea <ArmTorque+0xc6>
			{
				PrintErrorCode();
    52e4:	0e 94 20 25 	call	0x4a40	; 0x4a40 <PrintErrorCode>
    52e8:	02 c0       	rjmp	.+4      	; 0x52ee <ArmTorque+0xca>
			}
		
			else
			{
				PrintCommStatus(CommStatus);
    52ea:	0e 94 9a 0a 	call	0x1534	; 0x1534 <PrintCommStatus>
			
			//PORTC ^= 0b0010000;
			}
		}
}
    52ee:	df 91       	pop	r29
    52f0:	cf 91       	pop	r28
    52f2:	1f 91       	pop	r17
    52f4:	0f 91       	pop	r16
    52f6:	ff 90       	pop	r15
    52f8:	ef 90       	pop	r14
    52fa:	df 90       	pop	r13
    52fc:	cf 90       	pop	r12
    52fe:	08 95       	ret

00005300 <ArmPosition>:
	//printf("Id %d, Position: %f, PosBits = %d \n\f",id,position,bits);
	return bits;
}

void ArmPosition(float* servoPos)
{
    5300:	cf 92       	push	r12
    5302:	df 92       	push	r13
    5304:	ef 92       	push	r14
    5306:	ff 92       	push	r15
    5308:	0f 93       	push	r16
    530a:	1f 93       	push	r17
    530c:	cf 93       	push	r28
    530e:	df 93       	push	r29
    5310:	18 2f       	mov	r17, r24
    5312:	09 2f       	mov	r16, r25
		int i;
		int GoalPos;
		// Make syncwrite packet
		dxl_set_txpacket_id(BROADCAST_ID);
    5314:	8e ef       	ldi	r24, 0xFE	; 254
    5316:	90 e0       	ldi	r25, 0x00	; 0
    5318:	0e 94 b9 30 	call	0x6172	; 0x6172 <dxl_set_txpacket_id>
		dxl_set_txpacket_instruction(INST_SYNC_WRITE);
    531c:	83 e8       	ldi	r24, 0x83	; 131
    531e:	90 e0       	ldi	r25, 0x00	; 0
    5320:	0e 94 bc 30 	call	0x6178	; 0x6178 <dxl_set_txpacket_instruction>
		dxl_set_txpacket_parameter(0, SERVO_GOAL_POSITION_L);
    5324:	80 e0       	ldi	r24, 0x00	; 0
    5326:	90 e0       	ldi	r25, 0x00	; 0
    5328:	6e e1       	ldi	r22, 0x1E	; 30
    532a:	70 e0       	ldi	r23, 0x00	; 0
    532c:	0e 94 bf 30 	call	0x617e	; 0x617e <dxl_set_txpacket_parameter>
		dxl_set_txpacket_parameter(1, 2);
    5330:	81 e0       	ldi	r24, 0x01	; 1
    5332:	90 e0       	ldi	r25, 0x00	; 0
    5334:	62 e0       	ldi	r22, 0x02	; 2
    5336:	70 e0       	ldi	r23, 0x00	; 0
    5338:	0e 94 bf 30 	call	0x617e	; 0x617e <dxl_set_txpacket_parameter>
    533c:	21 2f       	mov	r18, r17
    533e:	30 2f       	mov	r19, r16
    5340:	c9 01       	movw	r24, r18
    5342:	6c 01       	movw	r12, r24
    5344:	ee 24       	eor	r14, r14
    5346:	ff 24       	eor	r15, r15
    5348:	c2 e0       	ldi	r28, 0x02	; 2
    534a:	d0 e0       	ldi	r29, 0x00	; 0
		for( i=0; i<DOF; i++ )
		{
			dxl_set_txpacket_parameter(2+3*i, i);
    534c:	ce 01       	movw	r24, r28
    534e:	b7 01       	movw	r22, r14
    5350:	0e 94 bf 30 	call	0x617e	; 0x617e <dxl_set_txpacket_parameter>
			GoalPos = (int)(SetPosition(i,servoPos[i]));
    5354:	f6 01       	movw	r30, r12
    5356:	41 91       	ld	r20, Z+
    5358:	51 91       	ld	r21, Z+
    535a:	61 91       	ld	r22, Z+
    535c:	71 91       	ld	r23, Z+
    535e:	6f 01       	movw	r12, r30
    5360:	c7 01       	movw	r24, r14
    5362:	0e 94 a2 01 	call	0x344	; 0x344 <SetPosition>
    5366:	8c 01       	movw	r16, r24
			//printf( "%i  ", GoalPos );
			dxl_set_txpacket_parameter(2+3*i+1, dxl_get_lowbyte(GoalPos));
    5368:	08 94       	sec
    536a:	e1 1c       	adc	r14, r1
    536c:	f1 1c       	adc	r15, r1
    536e:	0e 94 e1 30 	call	0x61c2	; 0x61c2 <dxl_get_lowbyte>
    5372:	bc 01       	movw	r22, r24
    5374:	ce 01       	movw	r24, r28
    5376:	01 96       	adiw	r24, 0x01	; 1
    5378:	0e 94 bf 30 	call	0x617e	; 0x617e <dxl_set_txpacket_parameter>
			dxl_set_txpacket_parameter(2+3*i+2, dxl_get_highbyte(GoalPos));
    537c:	c8 01       	movw	r24, r16
    537e:	0e 94 e5 30 	call	0x61ca	; 0x61ca <dxl_get_highbyte>
    5382:	bc 01       	movw	r22, r24
    5384:	ce 01       	movw	r24, r28
    5386:	02 96       	adiw	r24, 0x02	; 2
    5388:	0e 94 bf 30 	call	0x617e	; 0x617e <dxl_set_txpacket_parameter>
    538c:	23 96       	adiw	r28, 0x03	; 3
		// Make syncwrite packet
		dxl_set_txpacket_id(BROADCAST_ID);
		dxl_set_txpacket_instruction(INST_SYNC_WRITE);
		dxl_set_txpacket_parameter(0, SERVO_GOAL_POSITION_L);
		dxl_set_txpacket_parameter(1, 2);
		for( i=0; i<DOF; i++ )
    538e:	f7 e0       	ldi	r31, 0x07	; 7
    5390:	ef 16       	cp	r14, r31
    5392:	f1 04       	cpc	r15, r1
    5394:	d9 f6       	brne	.-74     	; 0x534c <ArmPosition+0x4c>
			GoalPos = (int)(SetPosition(i,servoPos[i]));
			//printf( "%i  ", GoalPos );
			dxl_set_txpacket_parameter(2+3*i+1, dxl_get_lowbyte(GoalPos));
			dxl_set_txpacket_parameter(2+3*i+2, dxl_get_highbyte(GoalPos));
		}
		dxl_set_txpacket_length((2+1)*DOF+4);
    5396:	89 e1       	ldi	r24, 0x19	; 25
    5398:	90 e0       	ldi	r25, 0x00	; 0
    539a:	0e 94 c4 30 	call	0x6188	; 0x6188 <dxl_set_txpacket_length>

		//printf("\n");
		dxl_txrx_packet();
    539e:	0e 94 1e 32 	call	0x643c	; 0x643c <dxl_txrx_packet>


		CommStatus = dxl_get_result();
    53a2:	0e 94 b4 30 	call	0x6168	; 0x6168 <dxl_get_result>
    53a6:	90 93 ac 0e 	sts	0x0EAC, r25
    53aa:	80 93 ab 0e 	sts	0x0EAB, r24
		if( CommStatus == COMM_RXSUCCESS )
    53ae:	81 30       	cpi	r24, 0x01	; 1
    53b0:	91 05       	cpc	r25, r1
    53b2:	19 f4       	brne	.+6      	; 0x53ba <ArmPosition+0xba>
			PrintErrorCode();
    53b4:	0e 94 20 25 	call	0x4a40	; 0x4a40 <PrintErrorCode>
    53b8:	02 c0       	rjmp	.+4      	; 0x53be <ArmPosition+0xbe>
		else
			PrintCommStatus(CommStatus);
    53ba:	0e 94 9a 0a 	call	0x1534	; 0x1534 <PrintCommStatus>



}
    53be:	df 91       	pop	r29
    53c0:	cf 91       	pop	r28
    53c2:	1f 91       	pop	r17
    53c4:	0f 91       	pop	r16
    53c6:	ff 90       	pop	r15
    53c8:	ef 90       	pop	r14
    53ca:	df 90       	pop	r13
    53cc:	cf 90       	pop	r12
    53ce:	08 95       	ret

000053d0 <executeControl>:
		}	
	}
}

void executeControl()
{
    53d0:	4f 92       	push	r4
    53d2:	5f 92       	push	r5
    53d4:	6f 92       	push	r6
    53d6:	7f 92       	push	r7
    53d8:	8f 92       	push	r8
    53da:	9f 92       	push	r9
    53dc:	af 92       	push	r10
    53de:	bf 92       	push	r11
    53e0:	cf 92       	push	r12
    53e2:	df 92       	push	r13
    53e4:	ef 92       	push	r14
    53e6:	ff 92       	push	r15
    53e8:	0f 93       	push	r16
    53ea:	1f 93       	push	r17
    53ec:	df 93       	push	r29
    53ee:	cf 93       	push	r28
    53f0:	cd b7       	in	r28, 0x3d	; 61
    53f2:	de b7       	in	r29, 0x3e	; 62
    53f4:	6c 97       	sbiw	r28, 0x1c	; 28
    53f6:	0f b6       	in	r0, 0x3f	; 63
    53f8:	f8 94       	cli
    53fa:	de bf       	out	0x3e, r29	; 62
    53fc:	0f be       	out	0x3f, r0	; 63
    53fe:	cd bf       	out	0x3d, r28	; 61
	
	// READING
	if(doReading == 1 && doControl == 0)
    5400:	80 91 49 08 	lds	r24, 0x0849
    5404:	90 91 4a 08 	lds	r25, 0x084A
    5408:	01 97       	sbiw	r24, 0x01	; 1
    540a:	09 f0       	breq	.+2      	; 0x540e <executeControl+0x3e>
    540c:	03 c1       	rjmp	.+518    	; 0x5614 <executeControl+0x244>
    540e:	80 91 5a 08 	lds	r24, 0x085A
    5412:	90 91 5b 08 	lds	r25, 0x085B
    5416:	89 2b       	or	r24, r25
    5418:	09 f0       	breq	.+2      	; 0x541c <executeControl+0x4c>
    541a:	fc c0       	rjmp	.+504    	; 0x5614 <executeControl+0x244>
	{
	    updateQPosition();
    541c:	0e 94 6a 12 	call	0x24d4	; 0x24d4 <updateQPosition>
		
		//}
		

	//printf("Test g 1 %f %f %f %f %f %f %f \r\n",currentQPosition[0],currentQPosition[1],currentQPosition[2],currentQPosition[3],currentQPosition[4],currentQPosition[5],currentQPosition[6]);
	ForwardKinematics();
    5420:	0e 94 f1 16 	call	0x2de2	; 0x2de2 <ForwardKinematics>
	
	if(instructionSet == 1)
    5424:	80 91 64 08 	lds	r24, 0x0864
    5428:	90 91 65 08 	lds	r25, 0x0865
    542c:	01 97       	sbiw	r24, 0x01	; 1
    542e:	09 f0       	breq	.+2      	; 0x5432 <executeControl+0x62>
    5430:	75 c0       	rjmp	.+234    	; 0x551c <executeControl+0x14c>
	{

		printf("p 1 %f %f %f %f %f %f %f \r", currentXPosition[0],currentXPosition[1],currentXPosition[2],currentXPosition[3],currentXPosition[4],currentXPosition[5],currentXPosition[6]);	
    5432:	8d b7       	in	r24, 0x3d	; 61
    5434:	9e b7       	in	r25, 0x3e	; 62
    5436:	4e 97       	sbiw	r24, 0x1e	; 30
    5438:	0f b6       	in	r0, 0x3f	; 63
    543a:	f8 94       	cli
    543c:	9e bf       	out	0x3e, r25	; 62
    543e:	0f be       	out	0x3f, r0	; 63
    5440:	8d bf       	out	0x3d, r24	; 61
    5442:	ed b7       	in	r30, 0x3d	; 61
    5444:	fe b7       	in	r31, 0x3e	; 62
    5446:	31 96       	adiw	r30, 0x01	; 1
    5448:	8c e6       	ldi	r24, 0x6C	; 108
    544a:	97 e0       	ldi	r25, 0x07	; 7
    544c:	ad b7       	in	r26, 0x3d	; 61
    544e:	be b7       	in	r27, 0x3e	; 62
    5450:	12 96       	adiw	r26, 0x02	; 2
    5452:	9c 93       	st	X, r25
    5454:	8e 93       	st	-X, r24
    5456:	11 97       	sbiw	r26, 0x01	; 1
    5458:	80 91 5f 0b 	lds	r24, 0x0B5F
    545c:	90 91 60 0b 	lds	r25, 0x0B60
    5460:	a0 91 61 0b 	lds	r26, 0x0B61
    5464:	b0 91 62 0b 	lds	r27, 0x0B62
    5468:	82 83       	std	Z+2, r24	; 0x02
    546a:	93 83       	std	Z+3, r25	; 0x03
    546c:	a4 83       	std	Z+4, r26	; 0x04
    546e:	b5 83       	std	Z+5, r27	; 0x05
    5470:	80 91 63 0b 	lds	r24, 0x0B63
    5474:	90 91 64 0b 	lds	r25, 0x0B64
    5478:	a0 91 65 0b 	lds	r26, 0x0B65
    547c:	b0 91 66 0b 	lds	r27, 0x0B66
    5480:	86 83       	std	Z+6, r24	; 0x06
    5482:	97 83       	std	Z+7, r25	; 0x07
    5484:	a0 87       	std	Z+8, r26	; 0x08
    5486:	b1 87       	std	Z+9, r27	; 0x09
    5488:	80 91 67 0b 	lds	r24, 0x0B67
    548c:	90 91 68 0b 	lds	r25, 0x0B68
    5490:	a0 91 69 0b 	lds	r26, 0x0B69
    5494:	b0 91 6a 0b 	lds	r27, 0x0B6A
    5498:	82 87       	std	Z+10, r24	; 0x0a
    549a:	93 87       	std	Z+11, r25	; 0x0b
    549c:	a4 87       	std	Z+12, r26	; 0x0c
    549e:	b5 87       	std	Z+13, r27	; 0x0d
    54a0:	80 91 6b 0b 	lds	r24, 0x0B6B
    54a4:	90 91 6c 0b 	lds	r25, 0x0B6C
    54a8:	a0 91 6d 0b 	lds	r26, 0x0B6D
    54ac:	b0 91 6e 0b 	lds	r27, 0x0B6E
    54b0:	86 87       	std	Z+14, r24	; 0x0e
    54b2:	97 87       	std	Z+15, r25	; 0x0f
    54b4:	a0 8b       	std	Z+16, r26	; 0x10
    54b6:	b1 8b       	std	Z+17, r27	; 0x11
    54b8:	80 91 6f 0b 	lds	r24, 0x0B6F
    54bc:	90 91 70 0b 	lds	r25, 0x0B70
    54c0:	a0 91 71 0b 	lds	r26, 0x0B71
    54c4:	b0 91 72 0b 	lds	r27, 0x0B72
    54c8:	82 8b       	std	Z+18, r24	; 0x12
    54ca:	93 8b       	std	Z+19, r25	; 0x13
    54cc:	a4 8b       	std	Z+20, r26	; 0x14
    54ce:	b5 8b       	std	Z+21, r27	; 0x15
    54d0:	80 91 73 0b 	lds	r24, 0x0B73
    54d4:	90 91 74 0b 	lds	r25, 0x0B74
    54d8:	a0 91 75 0b 	lds	r26, 0x0B75
    54dc:	b0 91 76 0b 	lds	r27, 0x0B76
    54e0:	86 8b       	std	Z+22, r24	; 0x16
    54e2:	97 8b       	std	Z+23, r25	; 0x17
    54e4:	a0 8f       	std	Z+24, r26	; 0x18
    54e6:	b1 8f       	std	Z+25, r27	; 0x19
    54e8:	80 91 77 0b 	lds	r24, 0x0B77
    54ec:	90 91 78 0b 	lds	r25, 0x0B78
    54f0:	a0 91 79 0b 	lds	r26, 0x0B79
    54f4:	b0 91 7a 0b 	lds	r27, 0x0B7A
    54f8:	82 8f       	std	Z+26, r24	; 0x1a
    54fa:	93 8f       	std	Z+27, r25	; 0x1b
    54fc:	a4 8f       	std	Z+28, r26	; 0x1c
    54fe:	b5 8f       	std	Z+29, r27	; 0x1d
    5500:	0e 94 fc 3e 	call	0x7df8	; 0x7df8 <printf>

		instructionSet = 0;
    5504:	10 92 65 08 	sts	0x0865, r1
    5508:	10 92 64 08 	sts	0x0864, r1
    550c:	ed b7       	in	r30, 0x3d	; 61
    550e:	fe b7       	in	r31, 0x3e	; 62
    5510:	7e 96       	adiw	r30, 0x1e	; 30
    5512:	0f b6       	in	r0, 0x3f	; 63
    5514:	f8 94       	cli
    5516:	fe bf       	out	0x3e, r31	; 62
    5518:	0f be       	out	0x3f, r0	; 63
    551a:	ed bf       	out	0x3d, r30	; 61
	}

	if(instructionSet == 2)
    551c:	80 91 64 08 	lds	r24, 0x0864
    5520:	90 91 65 08 	lds	r25, 0x0865
    5524:	02 97       	sbiw	r24, 0x02	; 2
    5526:	09 f0       	breq	.+2      	; 0x552a <executeControl+0x15a>
    5528:	75 c0       	rjmp	.+234    	; 0x5614 <executeControl+0x244>
	{
		printf("q 1 %f %f %f %f %f %f %f \r", currentQPosition[0],currentQPosition[1],currentQPosition[2],currentQPosition[3],currentQPosition[4],currentQPosition[5],currentQPosition[6]);	
    552a:	8d b7       	in	r24, 0x3d	; 61
    552c:	9e b7       	in	r25, 0x3e	; 62
    552e:	4e 97       	sbiw	r24, 0x1e	; 30
    5530:	0f b6       	in	r0, 0x3f	; 63
    5532:	f8 94       	cli
    5534:	9e bf       	out	0x3e, r25	; 62
    5536:	0f be       	out	0x3f, r0	; 63
    5538:	8d bf       	out	0x3d, r24	; 61
    553a:	ed b7       	in	r30, 0x3d	; 61
    553c:	fe b7       	in	r31, 0x3e	; 62
    553e:	31 96       	adiw	r30, 0x01	; 1
    5540:	87 e8       	ldi	r24, 0x87	; 135
    5542:	97 e0       	ldi	r25, 0x07	; 7
    5544:	ad b7       	in	r26, 0x3d	; 61
    5546:	be b7       	in	r27, 0x3e	; 62
    5548:	12 96       	adiw	r26, 0x02	; 2
    554a:	9c 93       	st	X, r25
    554c:	8e 93       	st	-X, r24
    554e:	11 97       	sbiw	r26, 0x01	; 1
    5550:	80 91 e5 10 	lds	r24, 0x10E5
    5554:	90 91 e6 10 	lds	r25, 0x10E6
    5558:	a0 91 e7 10 	lds	r26, 0x10E7
    555c:	b0 91 e8 10 	lds	r27, 0x10E8
    5560:	82 83       	std	Z+2, r24	; 0x02
    5562:	93 83       	std	Z+3, r25	; 0x03
    5564:	a4 83       	std	Z+4, r26	; 0x04
    5566:	b5 83       	std	Z+5, r27	; 0x05
    5568:	80 91 e9 10 	lds	r24, 0x10E9
    556c:	90 91 ea 10 	lds	r25, 0x10EA
    5570:	a0 91 eb 10 	lds	r26, 0x10EB
    5574:	b0 91 ec 10 	lds	r27, 0x10EC
    5578:	86 83       	std	Z+6, r24	; 0x06
    557a:	97 83       	std	Z+7, r25	; 0x07
    557c:	a0 87       	std	Z+8, r26	; 0x08
    557e:	b1 87       	std	Z+9, r27	; 0x09
    5580:	80 91 ed 10 	lds	r24, 0x10ED
    5584:	90 91 ee 10 	lds	r25, 0x10EE
    5588:	a0 91 ef 10 	lds	r26, 0x10EF
    558c:	b0 91 f0 10 	lds	r27, 0x10F0
    5590:	82 87       	std	Z+10, r24	; 0x0a
    5592:	93 87       	std	Z+11, r25	; 0x0b
    5594:	a4 87       	std	Z+12, r26	; 0x0c
    5596:	b5 87       	std	Z+13, r27	; 0x0d
    5598:	80 91 f1 10 	lds	r24, 0x10F1
    559c:	90 91 f2 10 	lds	r25, 0x10F2
    55a0:	a0 91 f3 10 	lds	r26, 0x10F3
    55a4:	b0 91 f4 10 	lds	r27, 0x10F4
    55a8:	86 87       	std	Z+14, r24	; 0x0e
    55aa:	97 87       	std	Z+15, r25	; 0x0f
    55ac:	a0 8b       	std	Z+16, r26	; 0x10
    55ae:	b1 8b       	std	Z+17, r27	; 0x11
    55b0:	80 91 f5 10 	lds	r24, 0x10F5
    55b4:	90 91 f6 10 	lds	r25, 0x10F6
    55b8:	a0 91 f7 10 	lds	r26, 0x10F7
    55bc:	b0 91 f8 10 	lds	r27, 0x10F8
    55c0:	82 8b       	std	Z+18, r24	; 0x12
    55c2:	93 8b       	std	Z+19, r25	; 0x13
    55c4:	a4 8b       	std	Z+20, r26	; 0x14
    55c6:	b5 8b       	std	Z+21, r27	; 0x15
    55c8:	80 91 f9 10 	lds	r24, 0x10F9
    55cc:	90 91 fa 10 	lds	r25, 0x10FA
    55d0:	a0 91 fb 10 	lds	r26, 0x10FB
    55d4:	b0 91 fc 10 	lds	r27, 0x10FC
    55d8:	86 8b       	std	Z+22, r24	; 0x16
    55da:	97 8b       	std	Z+23, r25	; 0x17
    55dc:	a0 8f       	std	Z+24, r26	; 0x18
    55de:	b1 8f       	std	Z+25, r27	; 0x19
    55e0:	80 91 fd 10 	lds	r24, 0x10FD
    55e4:	90 91 fe 10 	lds	r25, 0x10FE
    55e8:	a0 91 ff 10 	lds	r26, 0x10FF
    55ec:	b0 91 00 11 	lds	r27, 0x1100
    55f0:	82 8f       	std	Z+26, r24	; 0x1a
    55f2:	93 8f       	std	Z+27, r25	; 0x1b
    55f4:	a4 8f       	std	Z+28, r26	; 0x1c
    55f6:	b5 8f       	std	Z+29, r27	; 0x1d
    55f8:	0e 94 fc 3e 	call	0x7df8	; 0x7df8 <printf>
		instructionSet = 0;
    55fc:	10 92 65 08 	sts	0x0865, r1
    5600:	10 92 64 08 	sts	0x0864, r1
    5604:	ed b7       	in	r30, 0x3d	; 61
    5606:	fe b7       	in	r31, 0x3e	; 62
    5608:	7e 96       	adiw	r30, 0x1e	; 30
    560a:	0f b6       	in	r0, 0x3f	; 63
    560c:	f8 94       	cli
    560e:	fe bf       	out	0x3e, r31	; 62
    5610:	0f be       	out	0x3f, r0	; 63
    5612:	ed bf       	out	0x3d, r30	; 61
	}

	}
	
	if(doControl)
    5614:	80 91 5a 08 	lds	r24, 0x085A
    5618:	90 91 5b 08 	lds	r25, 0x085B
    561c:	89 2b       	or	r24, r25
    561e:	09 f4       	brne	.+2      	; 0x5622 <executeControl+0x252>
    5620:	96 c0       	rjmp	.+300    	; 0x574e <executeControl+0x37e>
	{
		float nextPos[DOF];
		float t;
		//Aqui va ir la evaluacin de la trayectoria y el envo de datos. El preclculo de las constantes de la planeacin se hacen en cmdATM al recibir los datos en la instruccin p

		t = timeCounter * sampleTime;
    5622:	60 91 62 08 	lds	r22, 0x0862
    5626:	70 91 63 08 	lds	r23, 0x0863
    562a:	88 27       	eor	r24, r24
    562c:	77 fd       	sbrc	r23, 7
    562e:	80 95       	com	r24
    5630:	98 2f       	mov	r25, r24
    5632:	0e 94 fd 39 	call	0x73fa	; 0x73fa <__floatsisf>
    5636:	20 91 4b 08 	lds	r18, 0x084B
    563a:	30 91 4c 08 	lds	r19, 0x084C
    563e:	40 91 4d 08 	lds	r20, 0x084D
    5642:	50 91 4e 08 	lds	r21, 0x084E
    5646:	0e 94 42 3b 	call	0x7684	; 0x7684 <__mulsf3>
    564a:	3b 01       	movw	r6, r22
    564c:	4c 01       	movw	r8, r24
    564e:	ee 24       	eor	r14, r14
    5650:	ff 24       	eor	r15, r15
    5652:	00 e0       	ldi	r16, 0x00	; 0
    5654:	10 e0       	ldi	r17, 0x00	; 0
		//printf("time = %f \n",t);

		for(int i = 0; i<DOF;i++)
		{
			
				nextPos[i] = evalLSPB(initialQPosition[i],desiredQPosition[i],LSPBcoef[i],t);
    5656:	2e 01       	movw	r4, r28
    5658:	08 94       	sec
    565a:	41 1c       	adc	r4, r1
    565c:	51 1c       	adc	r5, r1
    565e:	8d b7       	in	r24, 0x3d	; 61
    5660:	9e b7       	in	r25, 0x3e	; 62
    5662:	44 97       	sbiw	r24, 0x14	; 20
    5664:	0f b6       	in	r0, 0x3f	; 63
    5666:	f8 94       	cli
    5668:	9e bf       	out	0x3e, r25	; 62
    566a:	0f be       	out	0x3f, r0	; 63
    566c:	8d bf       	out	0x3d, r24	; 61
    566e:	6d b7       	in	r22, 0x3d	; 61
    5670:	7e b7       	in	r23, 0x3e	; 62
    5672:	6f 5f       	subi	r22, 0xFF	; 255
    5674:	7f 4f       	sbci	r23, 0xFF	; 255
    5676:	f8 01       	movw	r30, r16
    5678:	e5 50       	subi	r30, 0x05	; 5
    567a:	f5 4f       	sbci	r31, 0xF5	; 245
    567c:	a0 80       	ld	r10, Z
    567e:	b1 80       	ldd	r11, Z+1	; 0x01
    5680:	c2 80       	ldd	r12, Z+2	; 0x02
    5682:	d3 80       	ldd	r13, Z+3	; 0x03
    5684:	f8 01       	movw	r30, r16
    5686:	e0 5b       	subi	r30, 0xB0	; 176
    5688:	fe 4e       	sbci	r31, 0xEE	; 238
    568a:	20 81       	ld	r18, Z
    568c:	31 81       	ldd	r19, Z+1	; 0x01
    568e:	42 81       	ldd	r20, Z+2	; 0x02
    5690:	53 81       	ldd	r21, Z+3	; 0x03
    5692:	d7 01       	movw	r26, r14
    5694:	e4 e0       	ldi	r30, 0x04	; 4
    5696:	aa 0f       	add	r26, r26
    5698:	bb 1f       	adc	r27, r27
    569a:	ea 95       	dec	r30
    569c:	e1 f7       	brne	.-8      	; 0x5696 <executeControl+0x2c6>
    569e:	fb 01       	movw	r30, r22
    56a0:	a1 52       	subi	r26, 0x21	; 33
    56a2:	b4 4f       	sbci	r27, 0xF4	; 244
    56a4:	80 e1       	ldi	r24, 0x10	; 16
    56a6:	0d 90       	ld	r0, X+
    56a8:	01 92       	st	Z+, r0
    56aa:	81 50       	subi	r24, 0x01	; 1
    56ac:	e1 f7       	brne	.-8      	; 0x56a6 <executeControl+0x2d6>
    56ae:	db 01       	movw	r26, r22
    56b0:	50 96       	adiw	r26, 0x10	; 16
    56b2:	6d 92       	st	X+, r6
    56b4:	7d 92       	st	X+, r7
    56b6:	8d 92       	st	X+, r8
    56b8:	9c 92       	st	X, r9
    56ba:	53 97       	sbiw	r26, 0x13	; 19
    56bc:	c6 01       	movw	r24, r12
    56be:	b5 01       	movw	r22, r10
    56c0:	0e 94 2e 13 	call	0x265c	; 0x265c <evalLSPB>
    56c4:	f2 01       	movw	r30, r4
    56c6:	e0 0f       	add	r30, r16
    56c8:	f1 1f       	adc	r31, r17
    56ca:	60 83       	st	Z, r22
    56cc:	71 83       	std	Z+1, r23	; 0x01
    56ce:	82 83       	std	Z+2, r24	; 0x02
    56d0:	93 83       	std	Z+3, r25	; 0x03
				
				currentQPosition[i] = GetPosition(i);
    56d2:	ed b7       	in	r30, 0x3d	; 61
    56d4:	fe b7       	in	r31, 0x3e	; 62
    56d6:	74 96       	adiw	r30, 0x14	; 20
    56d8:	0f b6       	in	r0, 0x3f	; 63
    56da:	f8 94       	cli
    56dc:	fe bf       	out	0x3e, r31	; 62
    56de:	0f be       	out	0x3f, r0	; 63
    56e0:	ed bf       	out	0x3d, r30	; 61
    56e2:	c7 01       	movw	r24, r14
    56e4:	0e 94 3e 11 	call	0x227c	; 0x227c <GetPosition>
    56e8:	f8 01       	movw	r30, r16
    56ea:	eb 51       	subi	r30, 0x1B	; 27
    56ec:	ff 4e       	sbci	r31, 0xEF	; 239
    56ee:	60 83       	st	Z, r22
    56f0:	71 83       	std	Z+1, r23	; 0x01
    56f2:	82 83       	std	Z+2, r24	; 0x02
    56f4:	93 83       	std	Z+3, r25	; 0x03

		t = timeCounter * sampleTime;
		//printf("ExecutionTime = %f \n",executionTF);
		//printf("time = %f \n",t);

		for(int i = 0; i<DOF;i++)
    56f6:	08 94       	sec
    56f8:	e1 1c       	adc	r14, r1
    56fa:	f1 1c       	adc	r15, r1
    56fc:	0c 5f       	subi	r16, 0xFC	; 252
    56fe:	1f 4f       	sbci	r17, 0xFF	; 255
    5700:	f7 e0       	ldi	r31, 0x07	; 7
    5702:	ef 16       	cp	r14, r31
    5704:	f1 04       	cpc	r15, r1
    5706:	09 f0       	breq	.+2      	; 0x570a <executeControl+0x33a>
    5708:	aa cf       	rjmp	.-172    	; 0x565e <executeControl+0x28e>
				//if(abs(currentQPosition[i] - nextPos[i])>maxTol)
				//currentQPosition[i] = nextPos[i];
			
		}
		
		ArmPosition(nextPos);
    570a:	c2 01       	movw	r24, r4
    570c:	0e 94 80 29 	call	0x5300	; 0x5300 <ArmPosition>
    5710:	80 e2       	ldi	r24, 0x20	; 32
    5712:	9e e4       	ldi	r25, 0x4E	; 78
    5714:	01 97       	sbiw	r24, 0x01	; 1
    5716:	f1 f7       	brne	.-4      	; 0x5714 <executeControl+0x344>
		//printf("%f , %f , %f , %f , %f  , %f , %f , %f \n", t, nextPos[0],nextPos[1],nextPos[2],nextPos[3],nextPos[4],nextPos[5],nextPos[6]);
		_delay_ms(5);
		timeCounter++;
    5718:	80 91 62 08 	lds	r24, 0x0862
    571c:	90 91 63 08 	lds	r25, 0x0863
    5720:	01 96       	adiw	r24, 0x01	; 1
    5722:	90 93 63 08 	sts	0x0863, r25
    5726:	80 93 62 08 	sts	0x0862, r24
		
		if(t >= executionTF)
    572a:	c4 01       	movw	r24, r8
    572c:	b3 01       	movw	r22, r6
    572e:	20 91 5e 08 	lds	r18, 0x085E
    5732:	30 91 5f 08 	lds	r19, 0x085F
    5736:	40 91 60 08 	lds	r20, 0x0860
    573a:	50 91 61 08 	lds	r21, 0x0861
    573e:	0e 94 37 3b 	call	0x766e	; 0x766e <__gesf2>
    5742:	88 23       	and	r24, r24
    5744:	24 f0       	brlt	.+8      	; 0x574e <executeControl+0x37e>
		{
			doControl = 0;
    5746:	10 92 5b 08 	sts	0x085B, r1
    574a:	10 92 5a 08 	sts	0x085A, r1
		}

	}
	
}
    574e:	6c 96       	adiw	r28, 0x1c	; 28
    5750:	0f b6       	in	r0, 0x3f	; 63
    5752:	f8 94       	cli
    5754:	de bf       	out	0x3e, r29	; 62
    5756:	0f be       	out	0x3f, r0	; 63
    5758:	cd bf       	out	0x3d, r28	; 61
    575a:	cf 91       	pop	r28
    575c:	df 91       	pop	r29
    575e:	1f 91       	pop	r17
    5760:	0f 91       	pop	r16
    5762:	ff 90       	pop	r15
    5764:	ef 90       	pop	r14
    5766:	df 90       	pop	r13
    5768:	cf 90       	pop	r12
    576a:	bf 90       	pop	r11
    576c:	af 90       	pop	r10
    576e:	9f 90       	pop	r9
    5770:	8f 90       	pop	r8
    5772:	7f 90       	pop	r7
    5774:	6f 90       	pop	r6
    5776:	5f 90       	pop	r5
    5778:	4f 90       	pop	r4
    577a:	08 95       	ret

0000577c <ServoTorqueEnabled>:
		dxl_write_byte( i, 24 , enable );
	}
}

int ServoTorqueEnabled(int e1,int e2,int e3,int e4,int e5,int e6,int e7)
{
    577c:	6f 92       	push	r6
    577e:	7f 92       	push	r7
    5780:	8f 92       	push	r8
    5782:	9f 92       	push	r9
    5784:	af 92       	push	r10
    5786:	bf 92       	push	r11
    5788:	cf 92       	push	r12
    578a:	df 92       	push	r13
    578c:	ef 92       	push	r14
    578e:	ff 92       	push	r15
    5790:	0f 93       	push	r16
    5792:	1f 93       	push	r17
    5794:	fc 01       	movw	r30, r24
    5796:	5b 01       	movw	r10, r22
    5798:	4a 01       	movw	r8, r20
    579a:	39 01       	movw	r6, r18
	
	dxl_write_byte( 0, 24 , e1);
    579c:	80 e0       	ldi	r24, 0x00	; 0
    579e:	90 e0       	ldi	r25, 0x00	; 0
    57a0:	68 e1       	ldi	r22, 0x18	; 24
    57a2:	70 e0       	ldi	r23, 0x00	; 0
    57a4:	af 01       	movw	r20, r30
    57a6:	0e 94 69 32 	call	0x64d2	; 0x64d2 <dxl_write_byte>
	dxl_write_byte( 1, 24 , e2);
    57aa:	81 e0       	ldi	r24, 0x01	; 1
    57ac:	90 e0       	ldi	r25, 0x00	; 0
    57ae:	68 e1       	ldi	r22, 0x18	; 24
    57b0:	70 e0       	ldi	r23, 0x00	; 0
    57b2:	a5 01       	movw	r20, r10
    57b4:	0e 94 69 32 	call	0x64d2	; 0x64d2 <dxl_write_byte>
	dxl_write_byte( 2, 24 , e3);
    57b8:	82 e0       	ldi	r24, 0x02	; 2
    57ba:	90 e0       	ldi	r25, 0x00	; 0
    57bc:	68 e1       	ldi	r22, 0x18	; 24
    57be:	70 e0       	ldi	r23, 0x00	; 0
    57c0:	a4 01       	movw	r20, r8
    57c2:	0e 94 69 32 	call	0x64d2	; 0x64d2 <dxl_write_byte>
	dxl_write_byte( 3, 24 , e4);
    57c6:	83 e0       	ldi	r24, 0x03	; 3
    57c8:	90 e0       	ldi	r25, 0x00	; 0
    57ca:	68 e1       	ldi	r22, 0x18	; 24
    57cc:	70 e0       	ldi	r23, 0x00	; 0
    57ce:	a3 01       	movw	r20, r6
    57d0:	0e 94 69 32 	call	0x64d2	; 0x64d2 <dxl_write_byte>
	dxl_write_byte( 4, 24 , e5);
    57d4:	84 e0       	ldi	r24, 0x04	; 4
    57d6:	90 e0       	ldi	r25, 0x00	; 0
    57d8:	68 e1       	ldi	r22, 0x18	; 24
    57da:	70 e0       	ldi	r23, 0x00	; 0
    57dc:	a8 01       	movw	r20, r16
    57de:	0e 94 69 32 	call	0x64d2	; 0x64d2 <dxl_write_byte>
	dxl_write_byte( 5, 24 , e6);
    57e2:	85 e0       	ldi	r24, 0x05	; 5
    57e4:	90 e0       	ldi	r25, 0x00	; 0
    57e6:	68 e1       	ldi	r22, 0x18	; 24
    57e8:	70 e0       	ldi	r23, 0x00	; 0
    57ea:	a7 01       	movw	r20, r14
    57ec:	0e 94 69 32 	call	0x64d2	; 0x64d2 <dxl_write_byte>
	dxl_write_byte( 6, 24 , e7);
    57f0:	86 e0       	ldi	r24, 0x06	; 6
    57f2:	90 e0       	ldi	r25, 0x00	; 0
    57f4:	68 e1       	ldi	r22, 0x18	; 24
    57f6:	70 e0       	ldi	r23, 0x00	; 0
    57f8:	a6 01       	movw	r20, r12
    57fa:	0e 94 69 32 	call	0x64d2	; 0x64d2 <dxl_write_byte>
	return 1;
}
    57fe:	81 e0       	ldi	r24, 0x01	; 1
    5800:	90 e0       	ldi	r25, 0x00	; 0
    5802:	1f 91       	pop	r17
    5804:	0f 91       	pop	r16
    5806:	ff 90       	pop	r15
    5808:	ef 90       	pop	r14
    580a:	df 90       	pop	r13
    580c:	cf 90       	pop	r12
    580e:	bf 90       	pop	r11
    5810:	af 90       	pop	r10
    5812:	9f 90       	pop	r9
    5814:	8f 90       	pop	r8
    5816:	7f 90       	pop	r7
    5818:	6f 90       	pop	r6
    581a:	08 95       	ret

0000581c <ArmTorqueEnabled>:
{
	dxl_write_byte( id, 24 , enable );
}

void ArmTorqueEnabled(int enable)
{
    581c:	0f 93       	push	r16
    581e:	1f 93       	push	r17
    5820:	cf 93       	push	r28
    5822:	df 93       	push	r29
    5824:	8c 01       	movw	r16, r24
    5826:	c0 e0       	ldi	r28, 0x00	; 0
    5828:	d0 e0       	ldi	r29, 0x00	; 0
	for(int i = 0;i<DOF;i++)
	{
		dxl_write_byte( i, 24 , enable );
    582a:	ce 01       	movw	r24, r28
    582c:	68 e1       	ldi	r22, 0x18	; 24
    582e:	70 e0       	ldi	r23, 0x00	; 0
    5830:	a8 01       	movw	r20, r16
    5832:	0e 94 69 32 	call	0x64d2	; 0x64d2 <dxl_write_byte>
	dxl_write_byte( id, 24 , enable );
}

void ArmTorqueEnabled(int enable)
{
	for(int i = 0;i<DOF;i++)
    5836:	21 96       	adiw	r28, 0x01	; 1
    5838:	c7 30       	cpi	r28, 0x07	; 7
    583a:	d1 05       	cpc	r29, r1
    583c:	b1 f7       	brne	.-20     	; 0x582a <ArmTorqueEnabled+0xe>
	{
		dxl_write_byte( i, 24 , enable );
	}
}
    583e:	df 91       	pop	r29
    5840:	cf 91       	pop	r28
    5842:	1f 91       	pop	r17
    5844:	0f 91       	pop	r16
    5846:	08 95       	ret

00005848 <execCommand>:
	printf("THERE IS NO WARRANTY IN ELECTRICAL PARTS\n\n");

}

int execCommand()
{ 	
    5848:	2f 92       	push	r2
    584a:	3f 92       	push	r3
    584c:	4f 92       	push	r4
    584e:	5f 92       	push	r5
    5850:	6f 92       	push	r6
    5852:	7f 92       	push	r7
    5854:	8f 92       	push	r8
    5856:	9f 92       	push	r9
    5858:	af 92       	push	r10
    585a:	bf 92       	push	r11
    585c:	cf 92       	push	r12
    585e:	df 92       	push	r13
    5860:	ef 92       	push	r14
    5862:	ff 92       	push	r15
    5864:	0f 93       	push	r16
    5866:	1f 93       	push	r17
    5868:	df 93       	push	r29
    586a:	cf 93       	push	r28
    586c:	cd b7       	in	r28, 0x3d	; 61
    586e:	de b7       	in	r29, 0x3e	; 62
    5870:	2c 97       	sbiw	r28, 0x0c	; 12
    5872:	0f b6       	in	r0, 0x3f	; 63
    5874:	f8 94       	cli
    5876:	de bf       	out	0x3e, r29	; 62
    5878:	0f be       	out	0x3f, r0	; 63
    587a:	cd bf       	out	0x3d, r28	; 61

	int test=0;
	int succes;
	succes = 0;
	//float f1, f2, f3;
	if(!cmdReady) return 0;
    587c:	80 91 f2 08 	lds	r24, 0x08F2
    5880:	90 91 f3 08 	lds	r25, 0x08F3
    5884:	89 2b       	or	r24, r25
    5886:	09 f4       	brne	.+2      	; 0x588a <execCommand+0x42>
    5888:	eb c3       	rjmp	.+2006   	; 0x6060 <execCommand+0x818>
	cmdReady = 0;
    588a:	10 92 f3 08 	sts	0x08F3, r1
    588e:	10 92 f2 08 	sts	0x08F2, r1
	
	if(!fetchCommand()) return 0;
    5892:	0e 94 45 0b 	call	0x168a	; 0x168a <fetchCommand>
    5896:	89 2b       	or	r24, r25
    5898:	09 f4       	brne	.+2      	; 0x589c <execCommand+0x54>
    589a:	e2 c3       	rjmp	.+1988   	; 0x6060 <execCommand+0x818>

	//printf("\n Comando: %s  , cmdReady:%i",buffer,cmdReady);
	
	switch(comando.cmd)
    589c:	80 91 13 11 	lds	r24, 0x1113
    58a0:	90 e0       	ldi	r25, 0x00	; 0
    58a2:	fc 01       	movw	r30, r24
    58a4:	e3 54       	subi	r30, 0x43	; 67
    58a6:	f0 40       	sbci	r31, 0x00	; 0
    58a8:	e7 33       	cpi	r30, 0x37	; 55
    58aa:	f1 05       	cpc	r31, r1
    58ac:	08 f0       	brcs	.+2      	; 0x58b0 <execCommand+0x68>
    58ae:	d8 c3       	rjmp	.+1968   	; 0x6060 <execCommand+0x818>
    58b0:	ea 59       	subi	r30, 0x9A	; 154
    58b2:	ff 4f       	sbci	r31, 0xFF	; 255
    58b4:	ee 0f       	add	r30, r30
    58b6:	ff 1f       	adc	r31, r31
    58b8:	05 90       	lpm	r0, Z+
    58ba:	f4 91       	lpm	r31, Z+
    58bc:	e0 2d       	mov	r30, r0
    58be:	19 94       	eijmp
	{
		case 'c':	//  Close gripper
			gripperCounter = 0;
    58c0:	10 92 6f 08 	sts	0x086F, r1
    58c4:	10 92 6e 08 	sts	0x086E, r1
			CloseGripper(comando.param1);
    58c8:	60 91 14 11 	lds	r22, 0x1114
    58cc:	70 91 15 11 	lds	r23, 0x1115
    58d0:	80 91 16 11 	lds	r24, 0x1116
    58d4:	90 91 17 11 	lds	r25, 0x1117
    58d8:	0e 94 44 10 	call	0x2088	; 0x2088 <CloseGripper>
    58dc:	c4 c3       	rjmp	.+1928   	; 0x6066 <execCommand+0x81e>

			
		case 'C':	// Control Reading ON/OFF
			

			object = ObjectInHand();
    58de:	0e 94 eb 11 	call	0x23d6	; 0x23d6 <ObjectInHand>
    58e2:	90 93 6d 08 	sts	0x086D, r25
    58e6:	80 93 6c 08 	sts	0x086C, r24
			printf("C %d\r",object);
    58ea:	00 d0       	rcall	.+0      	; 0x58ec <execCommand+0xa4>
    58ec:	0f 92       	push	r0
    58ee:	22 ea       	ldi	r18, 0xA2	; 162
    58f0:	37 e0       	ldi	r19, 0x07	; 7
    58f2:	ad b7       	in	r26, 0x3d	; 61
    58f4:	be b7       	in	r27, 0x3e	; 62
    58f6:	12 96       	adiw	r26, 0x02	; 2
    58f8:	3c 93       	st	X, r19
    58fa:	2e 93       	st	-X, r18
    58fc:	11 97       	sbiw	r26, 0x01	; 1
    58fe:	14 96       	adiw	r26, 0x04	; 4
    5900:	9c 93       	st	X, r25
    5902:	8e 93       	st	-X, r24
    5904:	13 97       	sbiw	r26, 0x03	; 3
    5906:	21 c1       	rjmp	.+578    	; 0x5b4a <execCommand+0x302>
			servoPos[4] = comando.param5;
			servoPos[5] = comando.param6;
			servoPos[6] = comando.param7;
			
			ArmPosition(servoPos);*/
			printf("Id %f = %d \r",comando.param1,(int)comando.param2);
    5908:	ed b7       	in	r30, 0x3d	; 61
    590a:	fe b7       	in	r31, 0x3e	; 62
    590c:	38 97       	sbiw	r30, 0x08	; 8
    590e:	0f b6       	in	r0, 0x3f	; 63
    5910:	f8 94       	cli
    5912:	fe bf       	out	0x3e, r31	; 62
    5914:	0f be       	out	0x3f, r0	; 63
    5916:	ed bf       	out	0x3d, r30	; 61
    5918:	0d b7       	in	r16, 0x3d	; 61
    591a:	1e b7       	in	r17, 0x3e	; 62
    591c:	0f 5f       	subi	r16, 0xFF	; 255
    591e:	1f 4f       	sbci	r17, 0xFF	; 255
    5920:	88 ea       	ldi	r24, 0xA8	; 168
    5922:	97 e0       	ldi	r25, 0x07	; 7
    5924:	92 83       	std	Z+2, r25	; 0x02
    5926:	81 83       	std	Z+1, r24	; 0x01
    5928:	80 91 14 11 	lds	r24, 0x1114
    592c:	90 91 15 11 	lds	r25, 0x1115
    5930:	a0 91 16 11 	lds	r26, 0x1116
    5934:	b0 91 17 11 	lds	r27, 0x1117
    5938:	f8 01       	movw	r30, r16
    593a:	82 83       	std	Z+2, r24	; 0x02
    593c:	93 83       	std	Z+3, r25	; 0x03
    593e:	a4 83       	std	Z+4, r26	; 0x04
    5940:	b5 83       	std	Z+5, r27	; 0x05
    5942:	60 91 18 11 	lds	r22, 0x1118
    5946:	70 91 19 11 	lds	r23, 0x1119
    594a:	80 91 1a 11 	lds	r24, 0x111A
    594e:	90 91 1b 11 	lds	r25, 0x111B
    5952:	0e 94 ca 39 	call	0x7394	; 0x7394 <__fixsfsi>
    5956:	d8 01       	movw	r26, r16
    5958:	17 96       	adiw	r26, 0x07	; 7
    595a:	7c 93       	st	X, r23
    595c:	6e 93       	st	-X, r22
    595e:	16 97       	sbiw	r26, 0x06	; 6
    5960:	0e 94 fc 3e 	call	0x7df8	; 0x7df8 <printf>
			dxl_write_word( comando.param1, SERVO_GOAL_POSITION_L, (int)comando.param2);
    5964:	ed b7       	in	r30, 0x3d	; 61
    5966:	fe b7       	in	r31, 0x3e	; 62
    5968:	38 96       	adiw	r30, 0x08	; 8
    596a:	0f b6       	in	r0, 0x3f	; 63
    596c:	f8 94       	cli
    596e:	fe bf       	out	0x3e, r31	; 62
    5970:	0f be       	out	0x3f, r0	; 63
    5972:	ed bf       	out	0x3d, r30	; 61
    5974:	60 91 14 11 	lds	r22, 0x1114
    5978:	70 91 15 11 	lds	r23, 0x1115
    597c:	80 91 16 11 	lds	r24, 0x1116
    5980:	90 91 17 11 	lds	r25, 0x1117
    5984:	0e 94 ca 39 	call	0x7394	; 0x7394 <__fixsfsi>
    5988:	7b 01       	movw	r14, r22
    598a:	8c 01       	movw	r16, r24
    598c:	60 91 18 11 	lds	r22, 0x1118
    5990:	70 91 19 11 	lds	r23, 0x1119
    5994:	80 91 1a 11 	lds	r24, 0x111A
    5998:	90 91 1b 11 	lds	r25, 0x111B
    599c:	0e 94 ca 39 	call	0x7394	; 0x7394 <__fixsfsi>
    59a0:	9b 01       	movw	r18, r22
    59a2:	ac 01       	movw	r20, r24
    59a4:	c7 01       	movw	r24, r14
    59a6:	6e e1       	ldi	r22, 0x1E	; 30
    59a8:	70 e0       	ldi	r23, 0x00	; 0
    59aa:	a9 01       	movw	r20, r18
    59ac:	0e 94 2f 32 	call	0x645e	; 0x645e <dxl_write_word>
    59b0:	5a c3       	rjmp	.+1716   	; 0x6066 <execCommand+0x81e>
		case 'f':	// Set Arm Torque 
			//servoPos[0] = comando.param1;
			//servoPos[1] = comando.param2;
			//servoPos[2] = comando.param3;
			//ArmTorque(servoPos);
			SetTorque2(comando.param1,comando.param2);
    59b2:	60 91 14 11 	lds	r22, 0x1114
    59b6:	70 91 15 11 	lds	r23, 0x1115
    59ba:	80 91 16 11 	lds	r24, 0x1116
    59be:	90 91 17 11 	lds	r25, 0x1117
    59c2:	0e 94 ca 39 	call	0x7394	; 0x7394 <__fixsfsi>
    59c6:	dc 01       	movw	r26, r24
    59c8:	cb 01       	movw	r24, r22
    59ca:	40 91 18 11 	lds	r20, 0x1118
    59ce:	50 91 19 11 	lds	r21, 0x1119
    59d2:	60 91 1a 11 	lds	r22, 0x111A
    59d6:	70 91 1b 11 	lds	r23, 0x111B
    59da:	0e 94 1a 0f 	call	0x1e34	; 0x1e34 <SetTorque2>
    59de:	43 c3       	rjmp	.+1670   	; 0x6066 <execCommand+0x81e>
		

		case 'g':	// Get Position of desired Servo
			//pos = GetPosition(comando.param1);
			//printf("Position: %f \n",pos);
			if(doReading == 1 && doLoop ==1)
    59e0:	80 91 49 08 	lds	r24, 0x0849
    59e4:	90 91 4a 08 	lds	r25, 0x084A
    59e8:	01 97       	sbiw	r24, 0x01	; 1
    59ea:	09 f0       	breq	.+2      	; 0x59ee <execCommand+0x1a6>
    59ec:	79 c0       	rjmp	.+242    	; 0x5ae0 <execCommand+0x298>
    59ee:	80 91 47 08 	lds	r24, 0x0847
    59f2:	90 91 48 08 	lds	r25, 0x0848
    59f6:	01 97       	sbiw	r24, 0x01	; 1
    59f8:	09 f0       	breq	.+2      	; 0x59fc <execCommand+0x1b4>
    59fa:	72 c0       	rjmp	.+228    	; 0x5ae0 <execCommand+0x298>
			{
				updateQPosition();
    59fc:	0e 94 6a 12 	call	0x24d4	; 0x24d4 <updateQPosition>
				printf("g 1 %f %f %f %f %f %f %f \r",currentQPosition[0],currentQPosition[1],currentQPosition[2],currentQPosition[3],currentQPosition[4],currentQPosition[5],currentQPosition[6]);
    5a00:	2d b7       	in	r18, 0x3d	; 61
    5a02:	3e b7       	in	r19, 0x3e	; 62
    5a04:	2e 51       	subi	r18, 0x1E	; 30
    5a06:	30 40       	sbci	r19, 0x00	; 0
    5a08:	0f b6       	in	r0, 0x3f	; 63
    5a0a:	f8 94       	cli
    5a0c:	3e bf       	out	0x3e, r19	; 62
    5a0e:	0f be       	out	0x3f, r0	; 63
    5a10:	2d bf       	out	0x3d, r18	; 61
    5a12:	ed b7       	in	r30, 0x3d	; 61
    5a14:	fe b7       	in	r31, 0x3e	; 62
    5a16:	31 96       	adiw	r30, 0x01	; 1
    5a18:	85 eb       	ldi	r24, 0xB5	; 181
    5a1a:	97 e0       	ldi	r25, 0x07	; 7
    5a1c:	ad b7       	in	r26, 0x3d	; 61
    5a1e:	be b7       	in	r27, 0x3e	; 62
    5a20:	12 96       	adiw	r26, 0x02	; 2
    5a22:	9c 93       	st	X, r25
    5a24:	8e 93       	st	-X, r24
    5a26:	11 97       	sbiw	r26, 0x01	; 1
    5a28:	80 91 e5 10 	lds	r24, 0x10E5
    5a2c:	90 91 e6 10 	lds	r25, 0x10E6
    5a30:	a0 91 e7 10 	lds	r26, 0x10E7
    5a34:	b0 91 e8 10 	lds	r27, 0x10E8
    5a38:	82 83       	std	Z+2, r24	; 0x02
    5a3a:	93 83       	std	Z+3, r25	; 0x03
    5a3c:	a4 83       	std	Z+4, r26	; 0x04
    5a3e:	b5 83       	std	Z+5, r27	; 0x05
    5a40:	80 91 e9 10 	lds	r24, 0x10E9
    5a44:	90 91 ea 10 	lds	r25, 0x10EA
    5a48:	a0 91 eb 10 	lds	r26, 0x10EB
    5a4c:	b0 91 ec 10 	lds	r27, 0x10EC
    5a50:	86 83       	std	Z+6, r24	; 0x06
    5a52:	97 83       	std	Z+7, r25	; 0x07
    5a54:	a0 87       	std	Z+8, r26	; 0x08
    5a56:	b1 87       	std	Z+9, r27	; 0x09
    5a58:	80 91 ed 10 	lds	r24, 0x10ED
    5a5c:	90 91 ee 10 	lds	r25, 0x10EE
    5a60:	a0 91 ef 10 	lds	r26, 0x10EF
    5a64:	b0 91 f0 10 	lds	r27, 0x10F0
    5a68:	82 87       	std	Z+10, r24	; 0x0a
    5a6a:	93 87       	std	Z+11, r25	; 0x0b
    5a6c:	a4 87       	std	Z+12, r26	; 0x0c
    5a6e:	b5 87       	std	Z+13, r27	; 0x0d
    5a70:	80 91 f1 10 	lds	r24, 0x10F1
    5a74:	90 91 f2 10 	lds	r25, 0x10F2
    5a78:	a0 91 f3 10 	lds	r26, 0x10F3
    5a7c:	b0 91 f4 10 	lds	r27, 0x10F4
    5a80:	86 87       	std	Z+14, r24	; 0x0e
    5a82:	97 87       	std	Z+15, r25	; 0x0f
    5a84:	a0 8b       	std	Z+16, r26	; 0x10
    5a86:	b1 8b       	std	Z+17, r27	; 0x11
    5a88:	80 91 f5 10 	lds	r24, 0x10F5
    5a8c:	90 91 f6 10 	lds	r25, 0x10F6
    5a90:	a0 91 f7 10 	lds	r26, 0x10F7
    5a94:	b0 91 f8 10 	lds	r27, 0x10F8
    5a98:	82 8b       	std	Z+18, r24	; 0x12
    5a9a:	93 8b       	std	Z+19, r25	; 0x13
    5a9c:	a4 8b       	std	Z+20, r26	; 0x14
    5a9e:	b5 8b       	std	Z+21, r27	; 0x15
    5aa0:	80 91 f9 10 	lds	r24, 0x10F9
    5aa4:	90 91 fa 10 	lds	r25, 0x10FA
    5aa8:	a0 91 fb 10 	lds	r26, 0x10FB
    5aac:	b0 91 fc 10 	lds	r27, 0x10FC
    5ab0:	86 8b       	std	Z+22, r24	; 0x16
    5ab2:	97 8b       	std	Z+23, r25	; 0x17
    5ab4:	a0 8f       	std	Z+24, r26	; 0x18
    5ab6:	b1 8f       	std	Z+25, r27	; 0x19
    5ab8:	80 91 fd 10 	lds	r24, 0x10FD
    5abc:	90 91 fe 10 	lds	r25, 0x10FE
    5ac0:	a0 91 ff 10 	lds	r26, 0x10FF
    5ac4:	b0 91 00 11 	lds	r27, 0x1100
    5ac8:	82 8f       	std	Z+26, r24	; 0x1a
    5aca:	93 8f       	std	Z+27, r25	; 0x1b
    5acc:	a4 8f       	std	Z+28, r26	; 0x1c
    5ace:	b5 8f       	std	Z+29, r27	; 0x1d
    5ad0:	0e 94 fc 3e 	call	0x7df8	; 0x7df8 <printf>
    5ad4:	21 e0       	ldi	r18, 0x01	; 1
    5ad6:	30 e0       	ldi	r19, 0x00	; 0
    5ad8:	ed b7       	in	r30, 0x3d	; 61
    5ada:	fe b7       	in	r31, 0x3e	; 62
    5adc:	7e 96       	adiw	r30, 0x1e	; 30
    5ade:	77 c0       	rjmp	.+238    	; 0x5bce <execCommand+0x386>
			}else
			{
				printf("g 0\r");
    5ae0:	0f 92       	push	r0
    5ae2:	0f 92       	push	r0
    5ae4:	80 ed       	ldi	r24, 0xD0	; 208
    5ae6:	97 e0       	ldi	r25, 0x07	; 7
    5ae8:	c6 c1       	rjmp	.+908    	; 0x5e76 <execCommand+0x62e>
			}
			
			break;
		case 'G':	// 
			if(comando.param1 ==1)
    5aea:	e0 90 14 11 	lds	r14, 0x1114
    5aee:	f0 90 15 11 	lds	r15, 0x1115
    5af2:	00 91 16 11 	lds	r16, 0x1116
    5af6:	10 91 17 11 	lds	r17, 0x1117
    5afa:	c8 01       	movw	r24, r16
    5afc:	b7 01       	movw	r22, r14
    5afe:	20 e0       	ldi	r18, 0x00	; 0
    5b00:	30 e0       	ldi	r19, 0x00	; 0
    5b02:	40 e8       	ldi	r20, 0x80	; 128
    5b04:	5f e3       	ldi	r21, 0x3F	; 63
    5b06:	0e 94 5b 39 	call	0x72b6	; 0x72b6 <__cmpsf2>
    5b0a:	88 23       	and	r24, r24
    5b0c:	39 f4       	brne	.+14     	; 0x5b1c <execCommand+0x2d4>
			{
				printPosLoop = comando.param1;
    5b0e:	81 e0       	ldi	r24, 0x01	; 1
    5b10:	90 e0       	ldi	r25, 0x00	; 0
    5b12:	90 93 5d 08 	sts	0x085D, r25
    5b16:	80 93 5c 08 	sts	0x085C, r24
    5b1a:	a5 c2       	rjmp	.+1354   	; 0x6066 <execCommand+0x81e>
			}
			else
			{
				printPosLoop = comando.param1;
    5b1c:	c8 01       	movw	r24, r16
    5b1e:	b7 01       	movw	r22, r14
    5b20:	0e 94 ca 39 	call	0x7394	; 0x7394 <__fixsfsi>
    5b24:	70 93 5d 08 	sts	0x085D, r23
    5b28:	60 93 5c 08 	sts	0x085C, r22
				printf("G %d\r",printPosLoop);
    5b2c:	00 d0       	rcall	.+0      	; 0x5b2e <execCommand+0x2e6>
    5b2e:	0f 92       	push	r0
    5b30:	ed b7       	in	r30, 0x3d	; 61
    5b32:	fe b7       	in	r31, 0x3e	; 62
    5b34:	31 96       	adiw	r30, 0x01	; 1
    5b36:	25 ed       	ldi	r18, 0xD5	; 213
    5b38:	37 e0       	ldi	r19, 0x07	; 7
    5b3a:	ad b7       	in	r26, 0x3d	; 61
    5b3c:	be b7       	in	r27, 0x3e	; 62
    5b3e:	12 96       	adiw	r26, 0x02	; 2
    5b40:	3c 93       	st	X, r19
    5b42:	2e 93       	st	-X, r18
    5b44:	11 97       	sbiw	r26, 0x01	; 1
    5b46:	73 83       	std	Z+3, r23	; 0x03
    5b48:	62 83       	std	Z+2, r22	; 0x02
    5b4a:	0e 94 fc 3e 	call	0x7df8	; 0x7df8 <printf>
    5b4e:	21 e0       	ldi	r18, 0x01	; 1
    5b50:	30 e0       	ldi	r19, 0x00	; 0
    5b52:	0f 90       	pop	r0
    5b54:	0f 90       	pop	r0
    5b56:	0f 90       	pop	r0
    5b58:	0f 90       	pop	r0
    5b5a:	87 c2       	rjmp	.+1294   	; 0x606a <execCommand+0x822>
			}
			break;

		case 'h':	//Shows help;
			showHelp();
    5b5c:	0e 94 ba 12 	call	0x2574	; 0x2574 <showHelp>
    5b60:	82 c2       	rjmp	.+1284   	; 0x6066 <execCommand+0x81e>
		
			//pos = 0;
			//pos = GetPosition(comando.param1);
			//printf("k id: %d pos: %d \n", comando.param1,pos);
		
			test = dxl_read_word( (int)comando.param1, SERVO_PRESENT_POSITION_L );
    5b62:	60 91 14 11 	lds	r22, 0x1114
    5b66:	70 91 15 11 	lds	r23, 0x1115
    5b6a:	80 91 16 11 	lds	r24, 0x1116
    5b6e:	90 91 17 11 	lds	r25, 0x1117
    5b72:	0e 94 ca 39 	call	0x7394	; 0x7394 <__fixsfsi>
    5b76:	dc 01       	movw	r26, r24
    5b78:	cb 01       	movw	r24, r22
    5b7a:	64 e2       	ldi	r22, 0x24	; 36
    5b7c:	70 e0       	ldi	r23, 0x00	; 0
    5b7e:	0e 94 4a 32 	call	0x6494	; 0x6494 <dxl_read_word>
			printf("pos %f = %f \r",comando.param1,test);
    5b82:	ed b7       	in	r30, 0x3d	; 61
    5b84:	fe b7       	in	r31, 0x3e	; 62
    5b86:	38 97       	sbiw	r30, 0x08	; 8
    5b88:	0f b6       	in	r0, 0x3f	; 63
    5b8a:	f8 94       	cli
    5b8c:	fe bf       	out	0x3e, r31	; 62
    5b8e:	0f be       	out	0x3f, r0	; 63
    5b90:	ed bf       	out	0x3d, r30	; 61
    5b92:	31 96       	adiw	r30, 0x01	; 1
    5b94:	2b ed       	ldi	r18, 0xDB	; 219
    5b96:	37 e0       	ldi	r19, 0x07	; 7
    5b98:	ad b7       	in	r26, 0x3d	; 61
    5b9a:	be b7       	in	r27, 0x3e	; 62
    5b9c:	12 96       	adiw	r26, 0x02	; 2
    5b9e:	3c 93       	st	X, r19
    5ba0:	2e 93       	st	-X, r18
    5ba2:	11 97       	sbiw	r26, 0x01	; 1
    5ba4:	20 91 14 11 	lds	r18, 0x1114
    5ba8:	30 91 15 11 	lds	r19, 0x1115
    5bac:	40 91 16 11 	lds	r20, 0x1116
    5bb0:	50 91 17 11 	lds	r21, 0x1117
    5bb4:	22 83       	std	Z+2, r18	; 0x02
    5bb6:	33 83       	std	Z+3, r19	; 0x03
    5bb8:	44 83       	std	Z+4, r20	; 0x04
    5bba:	55 83       	std	Z+5, r21	; 0x05
    5bbc:	97 83       	std	Z+7, r25	; 0x07
    5bbe:	86 83       	std	Z+6, r24	; 0x06
    5bc0:	0e 94 fc 3e 	call	0x7df8	; 0x7df8 <printf>
    5bc4:	21 e0       	ldi	r18, 0x01	; 1
    5bc6:	30 e0       	ldi	r19, 0x00	; 0
    5bc8:	ed b7       	in	r30, 0x3d	; 61
    5bca:	fe b7       	in	r31, 0x3e	; 62
    5bcc:	38 96       	adiw	r30, 0x08	; 8
    5bce:	0f b6       	in	r0, 0x3f	; 63
    5bd0:	f8 94       	cli
    5bd2:	fe bf       	out	0x3e, r31	; 62
    5bd4:	0f be       	out	0x3f, r0	; 63
    5bd6:	ed bf       	out	0x3d, r30	; 61
    5bd8:	48 c2       	rjmp	.+1168   	; 0x606a <execCommand+0x822>
			//printf("pos %f = %f = %d \r",comando.param1,comando.param2,test);
			
			break;		

		case 'L':	// Control Loop ON/OFF
			if(comando.param1 == 1)
    5bda:	60 91 14 11 	lds	r22, 0x1114
    5bde:	70 91 15 11 	lds	r23, 0x1115
    5be2:	80 91 16 11 	lds	r24, 0x1116
    5be6:	90 91 17 11 	lds	r25, 0x1117
    5bea:	20 e0       	ldi	r18, 0x00	; 0
    5bec:	30 e0       	ldi	r19, 0x00	; 0
    5bee:	40 e8       	ldi	r20, 0x80	; 128
    5bf0:	5f e3       	ldi	r21, 0x3F	; 63
    5bf2:	0e 94 5b 39 	call	0x72b6	; 0x72b6 <__cmpsf2>
    5bf6:	88 23       	and	r24, r24
    5bf8:	59 f4       	brne	.+22     	; 0x5c10 <execCommand+0x3c8>
			{
			doLoop = 1;
    5bfa:	81 e0       	ldi	r24, 0x01	; 1
    5bfc:	90 e0       	ldi	r25, 0x00	; 0
    5bfe:	90 93 48 08 	sts	0x0848, r25
    5c02:	80 93 47 08 	sts	0x0847, r24
			printf("L 1\r");
    5c06:	0f 92       	push	r0
    5c08:	0f 92       	push	r0
    5c0a:	89 ee       	ldi	r24, 0xE9	; 233
    5c0c:	97 e0       	ldi	r25, 0x07	; 7
    5c0e:	33 c1       	rjmp	.+614    	; 0x5e76 <execCommand+0x62e>
			//PORTC &= 0b0111111;
			}else
			{
			doLoop = 0;
    5c10:	10 92 48 08 	sts	0x0848, r1
    5c14:	10 92 47 08 	sts	0x0847, r1
			printf("L 0\r");
    5c18:	0f 92       	push	r0
    5c1a:	0f 92       	push	r0
    5c1c:	8e ee       	ldi	r24, 0xEE	; 238
    5c1e:	97 e0       	ldi	r25, 0x07	; 7
    5c20:	14 c2       	rjmp	.+1064   	; 0x604a <execCommand+0x802>
			}
			break;

		case 'o':	//  Open gripper

			OpenGripper(comando.param1);
    5c22:	60 91 14 11 	lds	r22, 0x1114
    5c26:	70 91 15 11 	lds	r23, 0x1115
    5c2a:	80 91 16 11 	lds	r24, 0x1116
    5c2e:	90 91 17 11 	lds	r25, 0x1117
    5c32:	0e 94 8c 10 	call	0x2118	; 0x2118 <OpenGripper>
			printf("o 1\r");
    5c36:	0f 92       	push	r0
    5c38:	0f 92       	push	r0
    5c3a:	83 ef       	ldi	r24, 0xF3	; 243
    5c3c:	97 e0       	ldi	r25, 0x07	; 7
    5c3e:	1b c1       	rjmp	.+566    	; 0x5e76 <execCommand+0x62e>
			break;		


		case 'p':	// Sets Desired Position of Control Loop
			instructionSet = 1;
    5c40:	81 e0       	ldi	r24, 0x01	; 1
    5c42:	90 e0       	ldi	r25, 0x00	; 0
    5c44:	90 93 65 08 	sts	0x0865, r25
    5c48:	80 93 64 08 	sts	0x0864, r24
			succes = SetdesiredPosition(comando.param1,comando.param2,comando.param3,comando.param4,comando.param5,comando.param6,comando.param7,comando.param8);
    5c4c:	ed b7       	in	r30, 0x3d	; 61
    5c4e:	fe b7       	in	r31, 0x3e	; 62
    5c50:	70 97       	sbiw	r30, 0x10	; 16
    5c52:	0f b6       	in	r0, 0x3f	; 63
    5c54:	f8 94       	cli
    5c56:	fe bf       	out	0x3e, r31	; 62
    5c58:	0f be       	out	0x3f, r0	; 63
    5c5a:	ed bf       	out	0x3d, r30	; 61
    5c5c:	31 96       	adiw	r30, 0x01	; 1
    5c5e:	60 91 14 11 	lds	r22, 0x1114
    5c62:	70 91 15 11 	lds	r23, 0x1115
    5c66:	80 91 16 11 	lds	r24, 0x1116
    5c6a:	90 91 17 11 	lds	r25, 0x1117
    5c6e:	20 91 18 11 	lds	r18, 0x1118
    5c72:	30 91 19 11 	lds	r19, 0x1119
    5c76:	40 91 1a 11 	lds	r20, 0x111A
    5c7a:	50 91 1b 11 	lds	r21, 0x111B
    5c7e:	e0 90 1c 11 	lds	r14, 0x111C
    5c82:	f0 90 1d 11 	lds	r15, 0x111D
    5c86:	00 91 1e 11 	lds	r16, 0x111E
    5c8a:	10 91 1f 11 	lds	r17, 0x111F
    5c8e:	a0 90 20 11 	lds	r10, 0x1120
    5c92:	b0 90 21 11 	lds	r11, 0x1121
    5c96:	c0 90 22 11 	lds	r12, 0x1122
    5c9a:	d0 90 23 11 	lds	r13, 0x1123
    5c9e:	60 90 24 11 	lds	r6, 0x1124
    5ca2:	70 90 25 11 	lds	r7, 0x1125
    5ca6:	80 90 26 11 	lds	r8, 0x1126
    5caa:	90 90 27 11 	lds	r9, 0x1127
    5cae:	ad b7       	in	r26, 0x3d	; 61
    5cb0:	be b7       	in	r27, 0x3e	; 62
    5cb2:	11 96       	adiw	r26, 0x01	; 1
    5cb4:	6d 92       	st	X+, r6
    5cb6:	7d 92       	st	X+, r7
    5cb8:	8d 92       	st	X+, r8
    5cba:	9c 92       	st	X, r9
    5cbc:	14 97       	sbiw	r26, 0x04	; 4
    5cbe:	60 90 28 11 	lds	r6, 0x1128
    5cc2:	70 90 29 11 	lds	r7, 0x1129
    5cc6:	80 90 2a 11 	lds	r8, 0x112A
    5cca:	90 90 2b 11 	lds	r9, 0x112B
    5cce:	64 82       	std	Z+4, r6	; 0x04
    5cd0:	75 82       	std	Z+5, r7	; 0x05
    5cd2:	86 82       	std	Z+6, r8	; 0x06
    5cd4:	97 82       	std	Z+7, r9	; 0x07
    5cd6:	60 90 2c 11 	lds	r6, 0x112C
    5cda:	70 90 2d 11 	lds	r7, 0x112D
    5cde:	80 90 2e 11 	lds	r8, 0x112E
    5ce2:	90 90 2f 11 	lds	r9, 0x112F
    5ce6:	60 86       	std	Z+8, r6	; 0x08
    5ce8:	71 86       	std	Z+9, r7	; 0x09
    5cea:	82 86       	std	Z+10, r8	; 0x0a
    5cec:	93 86       	std	Z+11, r9	; 0x0b
    5cee:	60 90 30 11 	lds	r6, 0x1130
    5cf2:	70 90 31 11 	lds	r7, 0x1131
    5cf6:	80 90 32 11 	lds	r8, 0x1132
    5cfa:	90 90 33 11 	lds	r9, 0x1133
    5cfe:	64 86       	std	Z+12, r6	; 0x0c
    5d00:	75 86       	std	Z+13, r7	; 0x0d
    5d02:	86 86       	std	Z+14, r8	; 0x0e
    5d04:	97 86       	std	Z+15, r9	; 0x0f
    5d06:	0e 94 e7 22 	call	0x45ce	; 0x45ce <SetdesiredPosition>
			if(!succes)
    5d0a:	ed b7       	in	r30, 0x3d	; 61
    5d0c:	fe b7       	in	r31, 0x3e	; 62
    5d0e:	70 96       	adiw	r30, 0x10	; 16
    5d10:	0f b6       	in	r0, 0x3f	; 63
    5d12:	f8 94       	cli
    5d14:	fe bf       	out	0x3e, r31	; 62
    5d16:	0f be       	out	0x3f, r0	; 63
    5d18:	ed bf       	out	0x3d, r30	; 61
    5d1a:	89 2b       	or	r24, r25
    5d1c:	09 f0       	breq	.+2      	; 0x5d20 <execCommand+0x4d8>
    5d1e:	a3 c1       	rjmp	.+838    	; 0x6066 <execCommand+0x81e>
			{
				printf("p 0 \r");
    5d20:	0f 92       	push	r0
    5d22:	0f 92       	push	r0
    5d24:	88 ef       	ldi	r24, 0xF8	; 248
    5d26:	97 e0       	ldi	r25, 0x07	; 7
    5d28:	74 c0       	rjmp	.+232    	; 0x5e12 <execCommand+0x5ca>
				instructionSet = 0;
			}
			break;
	
		case 'q':	// Sets Desired Position of Control Loop
			instructionSet = 2;
    5d2a:	82 e0       	ldi	r24, 0x02	; 2
    5d2c:	90 e0       	ldi	r25, 0x00	; 0
    5d2e:	90 93 65 08 	sts	0x0865, r25
    5d32:	80 93 64 08 	sts	0x0864, r24
			succes = SetdesiredPosition(comando.param1,comando.param2,comando.param3,comando.param4,comando.param5,comando.param6,comando.param7,comando.param8);
    5d36:	ed b7       	in	r30, 0x3d	; 61
    5d38:	fe b7       	in	r31, 0x3e	; 62
    5d3a:	70 97       	sbiw	r30, 0x10	; 16
    5d3c:	0f b6       	in	r0, 0x3f	; 63
    5d3e:	f8 94       	cli
    5d40:	fe bf       	out	0x3e, r31	; 62
    5d42:	0f be       	out	0x3f, r0	; 63
    5d44:	ed bf       	out	0x3d, r30	; 61
    5d46:	31 96       	adiw	r30, 0x01	; 1
    5d48:	60 91 14 11 	lds	r22, 0x1114
    5d4c:	70 91 15 11 	lds	r23, 0x1115
    5d50:	80 91 16 11 	lds	r24, 0x1116
    5d54:	90 91 17 11 	lds	r25, 0x1117
    5d58:	20 91 18 11 	lds	r18, 0x1118
    5d5c:	30 91 19 11 	lds	r19, 0x1119
    5d60:	40 91 1a 11 	lds	r20, 0x111A
    5d64:	50 91 1b 11 	lds	r21, 0x111B
    5d68:	e0 90 1c 11 	lds	r14, 0x111C
    5d6c:	f0 90 1d 11 	lds	r15, 0x111D
    5d70:	00 91 1e 11 	lds	r16, 0x111E
    5d74:	10 91 1f 11 	lds	r17, 0x111F
    5d78:	a0 90 20 11 	lds	r10, 0x1120
    5d7c:	b0 90 21 11 	lds	r11, 0x1121
    5d80:	c0 90 22 11 	lds	r12, 0x1122
    5d84:	d0 90 23 11 	lds	r13, 0x1123
    5d88:	60 90 24 11 	lds	r6, 0x1124
    5d8c:	70 90 25 11 	lds	r7, 0x1125
    5d90:	80 90 26 11 	lds	r8, 0x1126
    5d94:	90 90 27 11 	lds	r9, 0x1127
    5d98:	ad b7       	in	r26, 0x3d	; 61
    5d9a:	be b7       	in	r27, 0x3e	; 62
    5d9c:	11 96       	adiw	r26, 0x01	; 1
    5d9e:	6d 92       	st	X+, r6
    5da0:	7d 92       	st	X+, r7
    5da2:	8d 92       	st	X+, r8
    5da4:	9c 92       	st	X, r9
    5da6:	14 97       	sbiw	r26, 0x04	; 4
    5da8:	60 90 28 11 	lds	r6, 0x1128
    5dac:	70 90 29 11 	lds	r7, 0x1129
    5db0:	80 90 2a 11 	lds	r8, 0x112A
    5db4:	90 90 2b 11 	lds	r9, 0x112B
    5db8:	64 82       	std	Z+4, r6	; 0x04
    5dba:	75 82       	std	Z+5, r7	; 0x05
    5dbc:	86 82       	std	Z+6, r8	; 0x06
    5dbe:	97 82       	std	Z+7, r9	; 0x07
    5dc0:	60 90 2c 11 	lds	r6, 0x112C
    5dc4:	70 90 2d 11 	lds	r7, 0x112D
    5dc8:	80 90 2e 11 	lds	r8, 0x112E
    5dcc:	90 90 2f 11 	lds	r9, 0x112F
    5dd0:	60 86       	std	Z+8, r6	; 0x08
    5dd2:	71 86       	std	Z+9, r7	; 0x09
    5dd4:	82 86       	std	Z+10, r8	; 0x0a
    5dd6:	93 86       	std	Z+11, r9	; 0x0b
    5dd8:	60 90 30 11 	lds	r6, 0x1130
    5ddc:	70 90 31 11 	lds	r7, 0x1131
    5de0:	80 90 32 11 	lds	r8, 0x1132
    5de4:	90 90 33 11 	lds	r9, 0x1133
    5de8:	64 86       	std	Z+12, r6	; 0x0c
    5dea:	75 86       	std	Z+13, r7	; 0x0d
    5dec:	86 86       	std	Z+14, r8	; 0x0e
    5dee:	97 86       	std	Z+15, r9	; 0x0f
    5df0:	0e 94 e7 22 	call	0x45ce	; 0x45ce <SetdesiredPosition>
			if(!succes)
    5df4:	ed b7       	in	r30, 0x3d	; 61
    5df6:	fe b7       	in	r31, 0x3e	; 62
    5df8:	70 96       	adiw	r30, 0x10	; 16
    5dfa:	0f b6       	in	r0, 0x3f	; 63
    5dfc:	f8 94       	cli
    5dfe:	fe bf       	out	0x3e, r31	; 62
    5e00:	0f be       	out	0x3f, r0	; 63
    5e02:	ed bf       	out	0x3d, r30	; 61
    5e04:	89 2b       	or	r24, r25
    5e06:	09 f0       	breq	.+2      	; 0x5e0a <execCommand+0x5c2>
    5e08:	2e c1       	rjmp	.+604    	; 0x6066 <execCommand+0x81e>
			{
				printf("q 0 \r");
    5e0a:	0f 92       	push	r0
    5e0c:	0f 92       	push	r0
    5e0e:	8e ef       	ldi	r24, 0xFE	; 254
    5e10:	97 e0       	ldi	r25, 0x07	; 7
    5e12:	ad b7       	in	r26, 0x3d	; 61
    5e14:	be b7       	in	r27, 0x3e	; 62
    5e16:	12 96       	adiw	r26, 0x02	; 2
    5e18:	9c 93       	st	X, r25
    5e1a:	8e 93       	st	-X, r24
    5e1c:	11 97       	sbiw	r26, 0x01	; 1
    5e1e:	0e 94 fc 3e 	call	0x7df8	; 0x7df8 <printf>
				instructionSet = 0;
    5e22:	10 92 65 08 	sts	0x0865, r1
    5e26:	10 92 64 08 	sts	0x0864, r1
    5e2a:	15 c1       	rjmp	.+554    	; 0x6056 <execCommand+0x80e>
			}
			break;
		
		
		case 'R':	// Control Reading ON/OFF
			if(comando.param1 == 1)
    5e2c:	60 91 14 11 	lds	r22, 0x1114
    5e30:	70 91 15 11 	lds	r23, 0x1115
    5e34:	80 91 16 11 	lds	r24, 0x1116
    5e38:	90 91 17 11 	lds	r25, 0x1117
    5e3c:	20 e0       	ldi	r18, 0x00	; 0
    5e3e:	30 e0       	ldi	r19, 0x00	; 0
    5e40:	40 e8       	ldi	r20, 0x80	; 128
    5e42:	5f e3       	ldi	r21, 0x3F	; 63
    5e44:	0e 94 5b 39 	call	0x72b6	; 0x72b6 <__cmpsf2>
    5e48:	88 23       	and	r24, r24
    5e4a:	39 f4       	brne	.+14     	; 0x5e5a <execCommand+0x612>
			{
			doReading = 1;
    5e4c:	81 e0       	ldi	r24, 0x01	; 1
    5e4e:	90 e0       	ldi	r25, 0x00	; 0
    5e50:	90 93 4a 08 	sts	0x084A, r25
    5e54:	80 93 49 08 	sts	0x0849, r24
    5e58:	15 c0       	rjmp	.+42     	; 0x5e84 <execCommand+0x63c>
			printf("R 1\r");
			//PORTC &= 0b1011111;
			}else
			{
				if(doControl == 0)
    5e5a:	80 91 5a 08 	lds	r24, 0x085A
    5e5e:	90 91 5b 08 	lds	r25, 0x085B
    5e62:	89 2b       	or	r24, r25
    5e64:	79 f4       	brne	.+30     	; 0x5e84 <execCommand+0x63c>
				{
					doReading = 0;
    5e66:	10 92 4a 08 	sts	0x084A, r1
    5e6a:	10 92 49 08 	sts	0x0849, r1
					printf("R 0\r");
    5e6e:	0f 92       	push	r0
    5e70:	0f 92       	push	r0
    5e72:	89 e0       	ldi	r24, 0x09	; 9
    5e74:	98 e0       	ldi	r25, 0x08	; 8
    5e76:	ad b7       	in	r26, 0x3d	; 61
    5e78:	be b7       	in	r27, 0x3e	; 62
    5e7a:	12 96       	adiw	r26, 0x02	; 2
    5e7c:	9c 93       	st	X, r25
    5e7e:	8e 93       	st	-X, r24
    5e80:	11 97       	sbiw	r26, 0x01	; 1
    5e82:	e7 c0       	rjmp	.+462    	; 0x6052 <execCommand+0x80a>
					//PORTC |= 0b0100000;
				}else
				{
					printf("R 1\r");
    5e84:	0f 92       	push	r0
    5e86:	0f 92       	push	r0
    5e88:	84 e0       	ldi	r24, 0x04	; 4
    5e8a:	98 e0       	ldi	r25, 0x08	; 8
    5e8c:	de c0       	rjmp	.+444    	; 0x604a <execCommand+0x802>
			}
			break;

		
		case 's':	// Set Speed of desired Servo
			SetSpeedPerc(comando.param1,comando.param2);
    5e8e:	60 91 14 11 	lds	r22, 0x1114
    5e92:	70 91 15 11 	lds	r23, 0x1115
    5e96:	80 91 16 11 	lds	r24, 0x1116
    5e9a:	90 91 17 11 	lds	r25, 0x1117
    5e9e:	0e 94 ca 39 	call	0x7394	; 0x7394 <__fixsfsi>
    5ea2:	dc 01       	movw	r26, r24
    5ea4:	cb 01       	movw	r24, r22
    5ea6:	40 91 18 11 	lds	r20, 0x1118
    5eaa:	50 91 19 11 	lds	r21, 0x1119
    5eae:	60 91 1a 11 	lds	r22, 0x111A
    5eb2:	70 91 1b 11 	lds	r23, 0x111B
    5eb6:	0e 94 99 0f 	call	0x1f32	; 0x1f32 <SetSpeedPerc>
    5eba:	d5 c0       	rjmp	.+426    	; 0x6066 <execCommand+0x81e>
			break;
		
		case 'S':	// Get Status Report of every servo
			StatusReport();
    5ebc:	0e 94 80 25 	call	0x4b00	; 0x4b00 <StatusReport>
    5ec0:	d2 c0       	rjmp	.+420    	; 0x6066 <execCommand+0x81e>
			break;
				
		case 't':	// Enables Arm Torque Control 
			if(comando.param1 ==1)
    5ec2:	60 91 14 11 	lds	r22, 0x1114
    5ec6:	70 91 15 11 	lds	r23, 0x1115
    5eca:	80 91 16 11 	lds	r24, 0x1116
    5ece:	90 91 17 11 	lds	r25, 0x1117
    5ed2:	20 e0       	ldi	r18, 0x00	; 0
    5ed4:	30 e0       	ldi	r19, 0x00	; 0
    5ed6:	40 e8       	ldi	r20, 0x80	; 128
    5ed8:	5f e3       	ldi	r21, 0x3F	; 63
    5eda:	0e 94 5b 39 	call	0x72b6	; 0x72b6 <__cmpsf2>
    5ede:	0e e0       	ldi	r16, 0x0E	; 14
    5ee0:	18 e0       	ldi	r17, 0x08	; 8
    5ee2:	88 23       	and	r24, r24
    5ee4:	69 f4       	brne	.+26     	; 0x5f00 <execCommand+0x6b8>
			{
				
				ArmTorqueEnabled(comando.param1);
    5ee6:	81 e0       	ldi	r24, 0x01	; 1
    5ee8:	90 e0       	ldi	r25, 0x00	; 0
    5eea:	0e 94 0e 2c 	call	0x581c	; 0x581c <ArmTorqueEnabled>
				printf("t 1\r");
    5eee:	0f 92       	push	r0
    5ef0:	0f 92       	push	r0
    5ef2:	ad b7       	in	r26, 0x3d	; 61
    5ef4:	be b7       	in	r27, 0x3e	; 62
    5ef6:	12 96       	adiw	r26, 0x02	; 2
    5ef8:	1c 93       	st	X, r17
    5efa:	0e 93       	st	-X, r16
    5efc:	11 97       	sbiw	r26, 0x01	; 1
    5efe:	a9 c0       	rjmp	.+338    	; 0x6052 <execCommand+0x80a>

			}else
			{
				//SetdesiredQPosition(0,0,0,0,0,0,0);
				ArmTorqueEnabled(0);
    5f00:	80 e0       	ldi	r24, 0x00	; 0
    5f02:	90 e0       	ldi	r25, 0x00	; 0
    5f04:	0e 94 0e 2c 	call	0x581c	; 0x581c <ArmTorqueEnabled>
				printf("t 1\r");
    5f08:	0f 92       	push	r0
    5f0a:	0f 92       	push	r0
    5f0c:	ed b7       	in	r30, 0x3d	; 61
    5f0e:	fe b7       	in	r31, 0x3e	; 62
    5f10:	12 83       	std	Z+2, r17	; 0x02
    5f12:	01 83       	std	Z+1, r16	; 0x01
    5f14:	9e c0       	rjmp	.+316    	; 0x6052 <execCommand+0x80a>
			}
			break;
		case 'v':
			Voltage=GetVoltage(0);
    5f16:	80 e0       	ldi	r24, 0x00	; 0
    5f18:	90 e0       	ldi	r25, 0x00	; 0
    5f1a:	0e 94 78 26 	call	0x4cf0	; 0x4cf0 <GetVoltage>
    5f1e:	60 93 f4 08 	sts	0x08F4, r22
    5f22:	70 93 f5 08 	sts	0x08F5, r23
    5f26:	80 93 f6 08 	sts	0x08F6, r24
    5f2a:	90 93 f7 08 	sts	0x08F7, r25
			printf("v 1 %4.1f\r",Voltage);
    5f2e:	00 d0       	rcall	.+0      	; 0x5f30 <execCommand+0x6e8>
    5f30:	00 d0       	rcall	.+0      	; 0x5f32 <execCommand+0x6ea>
    5f32:	23 e1       	ldi	r18, 0x13	; 19
    5f34:	38 e0       	ldi	r19, 0x08	; 8
    5f36:	ad b7       	in	r26, 0x3d	; 61
    5f38:	be b7       	in	r27, 0x3e	; 62
    5f3a:	12 96       	adiw	r26, 0x02	; 2
    5f3c:	3c 93       	st	X, r19
    5f3e:	2e 93       	st	-X, r18
    5f40:	11 97       	sbiw	r26, 0x01	; 1
    5f42:	ed b7       	in	r30, 0x3d	; 61
    5f44:	fe b7       	in	r31, 0x3e	; 62
    5f46:	63 83       	std	Z+3, r22	; 0x03
    5f48:	74 83       	std	Z+4, r23	; 0x04
    5f4a:	85 83       	std	Z+5, r24	; 0x05
    5f4c:	96 83       	std	Z+6, r25	; 0x06
    5f4e:	0e 94 fc 3e 	call	0x7df8	; 0x7df8 <printf>
    5f52:	21 e0       	ldi	r18, 0x01	; 1
    5f54:	30 e0       	ldi	r19, 0x00	; 0
    5f56:	8d b7       	in	r24, 0x3d	; 61
    5f58:	9e b7       	in	r25, 0x3e	; 62
    5f5a:	06 96       	adiw	r24, 0x06	; 6
    5f5c:	0f b6       	in	r0, 0x3f	; 63
    5f5e:	f8 94       	cli
    5f60:	9e bf       	out	0x3e, r25	; 62
    5f62:	0f be       	out	0x3f, r0	; 63
    5f64:	8d bf       	out	0x3d, r24	; 61
    5f66:	81 c0       	rjmp	.+258    	; 0x606a <execCommand+0x822>
			break;

		case 'y':	// Enables Arm Torque Control 
			
			if(ServoTorqueEnabled(comando.param1,comando.param2,comando.param3,comando.param4,comando.param5,comando.param6,comando.param7)==1)
    5f68:	60 91 14 11 	lds	r22, 0x1114
    5f6c:	70 91 15 11 	lds	r23, 0x1115
    5f70:	80 91 16 11 	lds	r24, 0x1116
    5f74:	90 91 17 11 	lds	r25, 0x1117
    5f78:	0e 94 ca 39 	call	0x7394	; 0x7394 <__fixsfsi>
    5f7c:	69 83       	std	Y+1, r22	; 0x01
    5f7e:	7a 83       	std	Y+2, r23	; 0x02
    5f80:	8b 83       	std	Y+3, r24	; 0x03
    5f82:	9c 83       	std	Y+4, r25	; 0x04
    5f84:	60 91 18 11 	lds	r22, 0x1118
    5f88:	70 91 19 11 	lds	r23, 0x1119
    5f8c:	80 91 1a 11 	lds	r24, 0x111A
    5f90:	90 91 1b 11 	lds	r25, 0x111B
    5f94:	0e 94 ca 39 	call	0x7394	; 0x7394 <__fixsfsi>
    5f98:	6d 83       	std	Y+5, r22	; 0x05
    5f9a:	7e 83       	std	Y+6, r23	; 0x06
    5f9c:	8f 83       	std	Y+7, r24	; 0x07
    5f9e:	98 87       	std	Y+8, r25	; 0x08
    5fa0:	60 91 1c 11 	lds	r22, 0x111C
    5fa4:	70 91 1d 11 	lds	r23, 0x111D
    5fa8:	80 91 1e 11 	lds	r24, 0x111E
    5fac:	90 91 1f 11 	lds	r25, 0x111F
    5fb0:	0e 94 ca 39 	call	0x7394	; 0x7394 <__fixsfsi>
    5fb4:	69 87       	std	Y+9, r22	; 0x09
    5fb6:	7a 87       	std	Y+10, r23	; 0x0a
    5fb8:	8b 87       	std	Y+11, r24	; 0x0b
    5fba:	9c 87       	std	Y+12, r25	; 0x0c
    5fbc:	60 91 20 11 	lds	r22, 0x1120
    5fc0:	70 91 21 11 	lds	r23, 0x1121
    5fc4:	80 91 22 11 	lds	r24, 0x1122
    5fc8:	90 91 23 11 	lds	r25, 0x1123
    5fcc:	0e 94 ca 39 	call	0x7394	; 0x7394 <__fixsfsi>
    5fd0:	1b 01       	movw	r2, r22
    5fd2:	2c 01       	movw	r4, r24
    5fd4:	60 91 24 11 	lds	r22, 0x1124
    5fd8:	70 91 25 11 	lds	r23, 0x1125
    5fdc:	80 91 26 11 	lds	r24, 0x1126
    5fe0:	90 91 27 11 	lds	r25, 0x1127
    5fe4:	0e 94 ca 39 	call	0x7394	; 0x7394 <__fixsfsi>
    5fe8:	7b 01       	movw	r14, r22
    5fea:	8c 01       	movw	r16, r24
    5fec:	60 91 28 11 	lds	r22, 0x1128
    5ff0:	70 91 29 11 	lds	r23, 0x1129
    5ff4:	80 91 2a 11 	lds	r24, 0x112A
    5ff8:	90 91 2b 11 	lds	r25, 0x112B
    5ffc:	0e 94 ca 39 	call	0x7394	; 0x7394 <__fixsfsi>
    6000:	3b 01       	movw	r6, r22
    6002:	4c 01       	movw	r8, r24
    6004:	60 91 2c 11 	lds	r22, 0x112C
    6008:	70 91 2d 11 	lds	r23, 0x112D
    600c:	80 91 2e 11 	lds	r24, 0x112E
    6010:	90 91 2f 11 	lds	r25, 0x112F
    6014:	0e 94 ca 39 	call	0x7394	; 0x7394 <__fixsfsi>
    6018:	5b 01       	movw	r10, r22
    601a:	6c 01       	movw	r12, r24
    601c:	89 81       	ldd	r24, Y+1	; 0x01
    601e:	9a 81       	ldd	r25, Y+2	; 0x02
    6020:	6d 81       	ldd	r22, Y+5	; 0x05
    6022:	7e 81       	ldd	r23, Y+6	; 0x06
    6024:	49 85       	ldd	r20, Y+9	; 0x09
    6026:	5a 85       	ldd	r21, Y+10	; 0x0a
    6028:	91 01       	movw	r18, r2
    602a:	87 01       	movw	r16, r14
    602c:	73 01       	movw	r14, r6
    602e:	65 01       	movw	r12, r10
    6030:	0e 94 be 2b 	call	0x577c	; 0x577c <ServoTorqueEnabled>
    6034:	01 97       	sbiw	r24, 0x01	; 1
    6036:	29 f4       	brne	.+10     	; 0x6042 <execCommand+0x7fa>
			{
				printf("y 1\r");
    6038:	0f 92       	push	r0
    603a:	0f 92       	push	r0
    603c:	8e e1       	ldi	r24, 0x1E	; 30
    603e:	98 e0       	ldi	r25, 0x08	; 8
    6040:	1a cf       	rjmp	.-460    	; 0x5e76 <execCommand+0x62e>
			}else
			{
				printf("y 0\r");
    6042:	0f 92       	push	r0
    6044:	0f 92       	push	r0
    6046:	83 e2       	ldi	r24, 0x23	; 35
    6048:	98 e0       	ldi	r25, 0x08	; 8
    604a:	ed b7       	in	r30, 0x3d	; 61
    604c:	fe b7       	in	r31, 0x3e	; 62
    604e:	92 83       	std	Z+2, r25	; 0x02
    6050:	81 83       	std	Z+1, r24	; 0x01
    6052:	0e 94 fc 3e 	call	0x7df8	; 0x7df8 <printf>
    6056:	21 e0       	ldi	r18, 0x01	; 1
    6058:	30 e0       	ldi	r19, 0x00	; 0
    605a:	0f 90       	pop	r0
    605c:	0f 90       	pop	r0
    605e:	05 c0       	rjmp	.+10     	; 0x606a <execCommand+0x822>
    6060:	20 e0       	ldi	r18, 0x00	; 0
    6062:	30 e0       	ldi	r19, 0x00	; 0
    6064:	02 c0       	rjmp	.+4      	; 0x606a <execCommand+0x822>
    6066:	21 e0       	ldi	r18, 0x01	; 1
    6068:	30 e0       	ldi	r19, 0x00	; 0
		default:
			return 0;
	}

	return 1;
}
    606a:	c9 01       	movw	r24, r18
    606c:	2c 96       	adiw	r28, 0x0c	; 12
    606e:	0f b6       	in	r0, 0x3f	; 63
    6070:	f8 94       	cli
    6072:	de bf       	out	0x3e, r29	; 62
    6074:	0f be       	out	0x3f, r0	; 63
    6076:	cd bf       	out	0x3d, r28	; 61
    6078:	cf 91       	pop	r28
    607a:	df 91       	pop	r29
    607c:	1f 91       	pop	r17
    607e:	0f 91       	pop	r16
    6080:	ff 90       	pop	r15
    6082:	ef 90       	pop	r14
    6084:	df 90       	pop	r13
    6086:	cf 90       	pop	r12
    6088:	bf 90       	pop	r11
    608a:	af 90       	pop	r10
    608c:	9f 90       	pop	r9
    608e:	8f 90       	pop	r8
    6090:	7f 90       	pop	r7
    6092:	6f 90       	pop	r6
    6094:	5f 90       	pop	r5
    6096:	4f 90       	pop	r4
    6098:	3f 90       	pop	r3
    609a:	2f 90       	pop	r2
    609c:	08 95       	ret

0000609e <main>:
int count = 0;

void Leds();

int main(void)
{
    609e:	0f 93       	push	r16
    60a0:	1f 93       	push	r17
    60a2:	cf 93       	push	r28
    60a4:	df 93       	push	r29
	//int Value = 0;
	
	DDRC  = 0x7F;
    60a6:	8f e7       	ldi	r24, 0x7F	; 127
    60a8:	87 b9       	out	0x07, r24	; 7
	PORTC = 0x7D;
    60aa:	8d e7       	ldi	r24, 0x7D	; 125
    60ac:	88 b9       	out	0x08, r24	; 8
	serial_initialize(57600);				// USART Initialize
    60ae:	60 e0       	ldi	r22, 0x00	; 0
    60b0:	71 ee       	ldi	r23, 0xE1	; 225
    60b2:	80 e0       	ldi	r24, 0x00	; 0
    60b4:	90 e0       	ldi	r25, 0x00	; 0
    60b6:	0e 94 fb 12 	call	0x25f6	; 0x25f6 <serial_initialize>
	//serial_initialize(250000);				// USART Initialize
	dxl_initialize( 0, 7 ); // Not using device index
    60ba:	80 e0       	ldi	r24, 0x00	; 0
    60bc:	90 e0       	ldi	r25, 0x00	; 0
    60be:	67 e0       	ldi	r22, 0x07	; 7
    60c0:	70 e0       	ldi	r23, 0x00	; 0
    60c2:	0e 94 b1 32 	call	0x6562	; 0x6562 <dxl_initialize>
	sei();
    60c6:	78 94       	sei
	SetUpServos();
    60c8:	0e 94 8b 26 	call	0x4d16	; 0x4d16 <SetUpServos>
	SetConstants();
    60cc:	0e 94 e4 02 	call	0x5c8	; 0x5c8 <SetConstants>
	SetKConstants();
    60d0:	0e 94 d7 05 	call	0xbae	; 0xbae <SetKConstants>

	printf("ARMS CONTROL\r" );
    60d4:	0f 92       	push	r0
    60d6:	0f 92       	push	r0
    60d8:	88 e2       	ldi	r24, 0x28	; 40
    60da:	98 e0       	ldi	r25, 0x08	; 8
    60dc:	ed b7       	in	r30, 0x3d	; 61
    60de:	fe b7       	in	r31, 0x3e	; 62
    60e0:	92 83       	std	Z+2, r25	; 0x02
    60e2:	81 83       	std	Z+1, r24	; 0x01
    60e4:	0e 94 fc 3e 	call	0x7df8	; 0x7df8 <printf>
    60e8:	0f 90       	pop	r0
    60ea:	0f 90       	pop	r0
	{
	
		
	if(cmdReady)
	{
		 if(!execCommand()) printf("Unknown command\r");
    60ec:	06 e3       	ldi	r16, 0x36	; 54
    60ee:	18 e0       	ldi	r17, 0x08	; 8
    60f0:	c0 ee       	ldi	r28, 0xE0	; 224
    60f2:	de e2       	ldi	r29, 0x2E	; 46

	while (1)
	{
	
		
	if(cmdReady)
    60f4:	80 91 f2 08 	lds	r24, 0x08F2
    60f8:	90 91 f3 08 	lds	r25, 0x08F3
    60fc:	89 2b       	or	r24, r25
    60fe:	71 f0       	breq	.+28     	; 0x611c <main+0x7e>
	{
		 if(!execCommand()) printf("Unknown command\r");
    6100:	0e 94 24 2c 	call	0x5848	; 0x5848 <execCommand>
    6104:	89 2b       	or	r24, r25
    6106:	51 f4       	brne	.+20     	; 0x611c <main+0x7e>
    6108:	0f 92       	push	r0
    610a:	0f 92       	push	r0
    610c:	ed b7       	in	r30, 0x3d	; 61
    610e:	fe b7       	in	r31, 0x3e	; 62
    6110:	12 83       	std	Z+2, r17	; 0x02
    6112:	01 83       	std	Z+1, r16	; 0x01
    6114:	0e 94 fc 3e 	call	0x7df8	; 0x7df8 <printf>
    6118:	0f 90       	pop	r0
    611a:	0f 90       	pop	r0
	}
	
	
	if(doLoop)
    611c:	80 91 47 08 	lds	r24, 0x0847
    6120:	90 91 48 08 	lds	r25, 0x0848
    6124:	89 2b       	or	r24, r25
    6126:	61 f0       	breq	.+24     	; 0x6140 <main+0xa2>
	{
		executeControl();
    6128:	0e 94 e8 29 	call	0x53d0	; 0x53d0 <executeControl>
		count = count + 100;
    612c:	80 91 f8 08 	lds	r24, 0x08F8
    6130:	90 91 f9 08 	lds	r25, 0x08F9
    6134:	8c 59       	subi	r24, 0x9C	; 156
    6136:	9f 4f       	sbci	r25, 0xFF	; 255
    6138:	90 93 f9 08 	sts	0x08F9, r25
    613c:	80 93 f8 08 	sts	0x08F8, r24
	}
	
	if(doGripper)
    6140:	80 91 66 08 	lds	r24, 0x0866
    6144:	90 91 67 08 	lds	r25, 0x0867
    6148:	89 2b       	or	r24, r25
    614a:	11 f0       	breq	.+4      	; 0x6150 <main+0xb2>
	{
		executeGripper();
    614c:	0e 94 43 12 	call	0x2486	; 0x2486 <executeGripper>
    6150:	ce 01       	movw	r24, r28
    6152:	01 97       	sbiw	r24, 0x01	; 1
    6154:	f1 f7       	brne	.-4      	; 0x6152 <main+0xb4>
	}
		
		_delay_ms(3);
	

	Leds();
    6156:	0e 94 60 0a 	call	0x14c0	; 0x14c0 <Leds>
    615a:	cc cf       	rjmp	.-104    	; 0x60f4 <main+0x56>

0000615c <TorqueEnabled>:
	dxl_write_word( id, SERVO_PROG_SPEED , bits );
	//return bits;
}

void TorqueEnabled(int id, int enable)
{
    615c:	ab 01       	movw	r20, r22
	dxl_write_byte( id, 24 , enable );
    615e:	68 e1       	ldi	r22, 0x18	; 24
    6160:	70 e0       	ldi	r23, 0x00	; 0
    6162:	0e 94 69 32 	call	0x64d2	; 0x64d2 <dxl_write_byte>
}
    6166:	08 95       	ret

00006168 <dxl_get_result>:
    6168:	80 91 55 08 	lds	r24, 0x0855
    616c:	90 91 56 08 	lds	r25, 0x0856
    6170:	08 95       	ret

00006172 <dxl_set_txpacket_id>:
    6172:	80 93 ff 08 	sts	0x08FF, r24
    6176:	08 95       	ret

00006178 <dxl_set_txpacket_instruction>:
    6178:	80 93 01 09 	sts	0x0901, r24
    617c:	08 95       	ret

0000617e <dxl_set_txpacket_parameter>:
    617e:	fc 01       	movw	r30, r24
    6180:	e3 50       	subi	r30, 0x03	; 3
    6182:	f7 4f       	sbci	r31, 0xF7	; 247
    6184:	65 83       	std	Z+5, r22	; 0x05
    6186:	08 95       	ret

00006188 <dxl_set_txpacket_length>:
    6188:	80 93 00 09 	sts	0x0900, r24
    618c:	08 95       	ret

0000618e <dxl_get_rxpacket_error>:
    618e:	20 e0       	ldi	r18, 0x00	; 0
    6190:	30 e0       	ldi	r19, 0x00	; 0
    6192:	90 91 a1 09 	lds	r25, 0x09A1
    6196:	98 23       	and	r25, r24
    6198:	11 f0       	breq	.+4      	; 0x619e <dxl_get_rxpacket_error+0x10>
    619a:	21 e0       	ldi	r18, 0x01	; 1
    619c:	30 e0       	ldi	r19, 0x00	; 0
    619e:	c9 01       	movw	r24, r18
    61a0:	08 95       	ret

000061a2 <dxl_get_rxpacket_length>:
    61a2:	80 91 a0 09 	lds	r24, 0x09A0
    61a6:	90 e0       	ldi	r25, 0x00	; 0
    61a8:	08 95       	ret

000061aa <dxl_get_rxpacket_parameter>:
    61aa:	fc 01       	movw	r30, r24
    61ac:	e3 56       	subi	r30, 0x63	; 99
    61ae:	f6 4f       	sbci	r31, 0xF6	; 246
    61b0:	85 81       	ldd	r24, Z+5	; 0x05
    61b2:	90 e0       	ldi	r25, 0x00	; 0
    61b4:	08 95       	ret

000061b6 <dxl_makeword>:
    61b6:	36 2f       	mov	r19, r22
    61b8:	20 e0       	ldi	r18, 0x00	; 0
    61ba:	28 0f       	add	r18, r24
    61bc:	39 1f       	adc	r19, r25
    61be:	c9 01       	movw	r24, r18
    61c0:	08 95       	ret

000061c2 <dxl_get_lowbyte>:
    61c2:	28 2f       	mov	r18, r24
    61c4:	30 e0       	ldi	r19, 0x00	; 0
    61c6:	c9 01       	movw	r24, r18
    61c8:	08 95       	ret

000061ca <dxl_get_highbyte>:
    61ca:	80 70       	andi	r24, 0x00	; 0
    61cc:	89 2f       	mov	r24, r25
    61ce:	90 e0       	ldi	r25, 0x00	; 0
    61d0:	08 95       	ret

000061d2 <dxl_rx_packet>:
    61d2:	0f 93       	push	r16
    61d4:	1f 93       	push	r17
    61d6:	cf 93       	push	r28
    61d8:	df 93       	push	r29
    61da:	80 91 e5 09 	lds	r24, 0x09E5
    61de:	90 91 e6 09 	lds	r25, 0x09E6
    61e2:	89 2b       	or	r24, r25
    61e4:	09 f4       	brne	.+2      	; 0x61e8 <dxl_rx_packet+0x16>
    61e6:	bb c0       	rjmp	.+374    	; 0x635e <dxl_rx_packet+0x18c>
    61e8:	80 91 ff 08 	lds	r24, 0x08FF
    61ec:	8e 3f       	cpi	r24, 0xFE	; 254
    61ee:	09 f4       	brne	.+2      	; 0x61f2 <dxl_rx_packet+0x20>
    61f0:	ac c0       	rjmp	.+344    	; 0x634a <dxl_rx_packet+0x178>
    61f2:	80 91 55 08 	lds	r24, 0x0855
    61f6:	90 91 56 08 	lds	r25, 0x0856
    61fa:	89 2b       	or	r24, r25
    61fc:	29 f4       	brne	.+10     	; 0x6208 <dxl_rx_packet+0x36>
    61fe:	10 92 e4 09 	sts	0x09E4, r1
    6202:	86 e0       	ldi	r24, 0x06	; 6
    6204:	80 93 e3 09 	sts	0x09E3, r24
    6208:	80 91 e4 09 	lds	r24, 0x09E4
    620c:	90 e0       	ldi	r25, 0x00	; 0
    620e:	60 91 e3 09 	lds	r22, 0x09E3
    6212:	70 e0       	ldi	r23, 0x00	; 0
    6214:	68 1b       	sub	r22, r24
    6216:	79 0b       	sbc	r23, r25
    6218:	83 56       	subi	r24, 0x63	; 99
    621a:	96 4f       	sbci	r25, 0xF6	; 246
    621c:	0e 94 68 34 	call	0x68d0	; 0x68d0 <dxl_hal_rx>
    6220:	90 91 e4 09 	lds	r25, 0x09E4
    6224:	98 0f       	add	r25, r24
    6226:	90 93 e4 09 	sts	0x09E4, r25
    622a:	80 91 e3 09 	lds	r24, 0x09E3
    622e:	98 17       	cp	r25, r24
    6230:	20 f4       	brcc	.+8      	; 0x623a <dxl_rx_packet+0x68>
    6232:	0e 94 72 33 	call	0x66e4	; 0x66e4 <dxl_hal_timeout>
    6236:	01 97       	sbiw	r24, 0x01	; 1
    6238:	71 f0       	breq	.+28     	; 0x6256 <dxl_rx_packet+0x84>
    623a:	70 91 e4 09 	lds	r23, 0x09E4
    623e:	47 2f       	mov	r20, r23
    6240:	50 e0       	ldi	r21, 0x00	; 0
    6242:	da 01       	movw	r26, r20
    6244:	11 97       	sbiw	r26, 0x01	; 1
    6246:	8a 01       	movw	r16, r20
    6248:	02 50       	subi	r16, 0x02	; 2
    624a:	10 40       	sbci	r17, 0x00	; 0
    624c:	60 e0       	ldi	r22, 0x00	; 0
    624e:	ed 01       	movw	r28, r26
    6250:	c3 56       	subi	r28, 0x63	; 99
    6252:	d6 4f       	sbci	r29, 0xF6	; 246
    6254:	18 c0       	rjmp	.+48     	; 0x6286 <dxl_rx_packet+0xb4>
    6256:	80 91 e4 09 	lds	r24, 0x09E4
    625a:	88 23       	and	r24, r24
    625c:	09 f0       	breq	.+2      	; 0x6260 <dxl_rx_packet+0x8e>
    625e:	72 c0       	rjmp	.+228    	; 0x6344 <dxl_rx_packet+0x172>
    6260:	86 e0       	ldi	r24, 0x06	; 6
    6262:	90 e0       	ldi	r25, 0x00	; 0
    6264:	74 c0       	rjmp	.+232    	; 0x634e <dxl_rx_packet+0x17c>
    6266:	f9 01       	movw	r30, r18
    6268:	e3 56       	subi	r30, 0x63	; 99
    626a:	f6 4f       	sbci	r31, 0xF6	; 246
    626c:	80 81       	ld	r24, Z
    626e:	8f 3f       	cpi	r24, 0xFF	; 255
    6270:	19 f4       	brne	.+6      	; 0x6278 <dxl_rx_packet+0xa6>
    6272:	81 81       	ldd	r24, Z+1	; 0x01
    6274:	8f 3f       	cpi	r24, 0xFF	; 255
    6276:	61 f0       	breq	.+24     	; 0x6290 <dxl_rx_packet+0xbe>
    6278:	20 17       	cp	r18, r16
    627a:	31 07       	cpc	r19, r17
    627c:	19 f4       	brne	.+6      	; 0x6284 <dxl_rx_packet+0xb2>
    627e:	88 81       	ld	r24, Y
    6280:	8f 3f       	cpi	r24, 0xFF	; 255
    6282:	31 f0       	breq	.+12     	; 0x6290 <dxl_rx_packet+0xbe>
    6284:	6f 5f       	subi	r22, 0xFF	; 255
    6286:	26 2f       	mov	r18, r22
    6288:	30 e0       	ldi	r19, 0x00	; 0
    628a:	2a 17       	cp	r18, r26
    628c:	3b 07       	cpc	r19, r27
    628e:	5c f3       	brlt	.-42     	; 0x6266 <dxl_rx_packet+0x94>
    6290:	66 23       	and	r22, r22
    6292:	a1 f0       	breq	.+40     	; 0x62bc <dxl_rx_packet+0xea>
    6294:	90 e0       	ldi	r25, 0x00	; 0
    6296:	42 1b       	sub	r20, r18
    6298:	53 0b       	sbc	r21, r19
    629a:	08 c0       	rjmp	.+16     	; 0x62ac <dxl_rx_packet+0xda>
    629c:	e3 56       	subi	r30, 0x63	; 99
    629e:	f6 4f       	sbci	r31, 0xF6	; 246
    62a0:	df 01       	movw	r26, r30
    62a2:	a2 0f       	add	r26, r18
    62a4:	b3 1f       	adc	r27, r19
    62a6:	8c 91       	ld	r24, X
    62a8:	80 83       	st	Z, r24
    62aa:	9f 5f       	subi	r25, 0xFF	; 255
    62ac:	e9 2f       	mov	r30, r25
    62ae:	f0 e0       	ldi	r31, 0x00	; 0
    62b0:	e4 17       	cp	r30, r20
    62b2:	f5 07       	cpc	r31, r21
    62b4:	9c f3       	brlt	.-26     	; 0x629c <dxl_rx_packet+0xca>
    62b6:	76 1b       	sub	r23, r22
    62b8:	70 93 e4 09 	sts	0x09E4, r23
    62bc:	20 91 e4 09 	lds	r18, 0x09E4
    62c0:	80 91 e3 09 	lds	r24, 0x09E3
    62c4:	28 17       	cp	r18, r24
    62c6:	30 f1       	brcs	.+76     	; 0x6314 <dxl_rx_packet+0x142>
    62c8:	90 91 ff 08 	lds	r25, 0x08FF
    62cc:	80 91 9f 09 	lds	r24, 0x099F
    62d0:	98 17       	cp	r25, r24
    62d2:	c1 f5       	brne	.+112    	; 0x6344 <dxl_rx_packet+0x172>
    62d4:	60 91 a0 09 	lds	r22, 0x09A0
    62d8:	6c 5f       	subi	r22, 0xFC	; 252
    62da:	60 93 e3 09 	sts	0x09E3, r22
    62de:	26 17       	cp	r18, r22
    62e0:	90 f4       	brcc	.+36     	; 0x6306 <dxl_rx_packet+0x134>
    62e2:	82 2f       	mov	r24, r18
    62e4:	90 e0       	ldi	r25, 0x00	; 0
    62e6:	70 e0       	ldi	r23, 0x00	; 0
    62e8:	68 1b       	sub	r22, r24
    62ea:	79 0b       	sbc	r23, r25
    62ec:	83 56       	subi	r24, 0x63	; 99
    62ee:	96 4f       	sbci	r25, 0xF6	; 246
    62f0:	0e 94 68 34 	call	0x68d0	; 0x68d0 <dxl_hal_rx>
    62f4:	90 91 e4 09 	lds	r25, 0x09E4
    62f8:	98 0f       	add	r25, r24
    62fa:	90 93 e4 09 	sts	0x09E4, r25
    62fe:	80 91 e3 09 	lds	r24, 0x09E3
    6302:	98 17       	cp	r25, r24
    6304:	38 f0       	brcs	.+14     	; 0x6314 <dxl_rx_packet+0x142>
    6306:	80 91 a0 09 	lds	r24, 0x09A0
    630a:	a8 2f       	mov	r26, r24
    630c:	b0 e0       	ldi	r27, 0x00	; 0
    630e:	20 e0       	ldi	r18, 0x00	; 0
    6310:	90 e0       	ldi	r25, 0x00	; 0
    6312:	0c c0       	rjmp	.+24     	; 0x632c <dxl_rx_packet+0x15a>
    6314:	85 e0       	ldi	r24, 0x05	; 5
    6316:	90 e0       	ldi	r25, 0x00	; 0
    6318:	90 93 56 08 	sts	0x0856, r25
    631c:	80 93 55 08 	sts	0x0855, r24
    6320:	1e c0       	rjmp	.+60     	; 0x635e <dxl_rx_packet+0x18c>
    6322:	e3 56       	subi	r30, 0x63	; 99
    6324:	f6 4f       	sbci	r31, 0xF6	; 246
    6326:	82 81       	ldd	r24, Z+2	; 0x02
    6328:	98 0f       	add	r25, r24
    632a:	2f 5f       	subi	r18, 0xFF	; 255
    632c:	e2 2f       	mov	r30, r18
    632e:	f0 e0       	ldi	r31, 0x00	; 0
    6330:	ae 17       	cp	r26, r30
    6332:	bf 07       	cpc	r27, r31
    6334:	b4 f7       	brge	.-20     	; 0x6322 <dxl_rx_packet+0x150>
    6336:	a3 56       	subi	r26, 0x63	; 99
    6338:	b6 4f       	sbci	r27, 0xF6	; 246
    633a:	90 95       	com	r25
    633c:	13 96       	adiw	r26, 0x03	; 3
    633e:	8c 91       	ld	r24, X
    6340:	89 17       	cp	r24, r25
    6342:	19 f0       	breq	.+6      	; 0x634a <dxl_rx_packet+0x178>
    6344:	87 e0       	ldi	r24, 0x07	; 7
    6346:	90 e0       	ldi	r25, 0x00	; 0
    6348:	02 c0       	rjmp	.+4      	; 0x634e <dxl_rx_packet+0x17c>
    634a:	81 e0       	ldi	r24, 0x01	; 1
    634c:	90 e0       	ldi	r25, 0x00	; 0
    634e:	90 93 56 08 	sts	0x0856, r25
    6352:	80 93 55 08 	sts	0x0855, r24
    6356:	10 92 e6 09 	sts	0x09E6, r1
    635a:	10 92 e5 09 	sts	0x09E5, r1
    635e:	df 91       	pop	r29
    6360:	cf 91       	pop	r28
    6362:	1f 91       	pop	r17
    6364:	0f 91       	pop	r16
    6366:	08 95       	ret

00006368 <dxl_tx_packet>:
    6368:	1f 93       	push	r17
    636a:	80 91 e5 09 	lds	r24, 0x09E5
    636e:	90 91 e6 09 	lds	r25, 0x09E6
    6372:	01 97       	sbiw	r24, 0x01	; 1
    6374:	09 f4       	brne	.+2      	; 0x6378 <dxl_tx_packet+0x10>
    6376:	60 c0       	rjmp	.+192    	; 0x6438 <dxl_tx_packet+0xd0>
    6378:	81 e0       	ldi	r24, 0x01	; 1
    637a:	90 e0       	ldi	r25, 0x00	; 0
    637c:	90 93 e6 09 	sts	0x09E6, r25
    6380:	80 93 e5 09 	sts	0x09E5, r24
    6384:	80 91 00 09 	lds	r24, 0x0900
    6388:	89 39       	cpi	r24, 0x99	; 153
    638a:	40 f4       	brcc	.+16     	; 0x639c <dxl_tx_packet+0x34>
    638c:	90 91 01 09 	lds	r25, 0x0901
    6390:	89 2f       	mov	r24, r25
    6392:	81 50       	subi	r24, 0x01	; 1
    6394:	86 30       	cpi	r24, 0x06	; 6
    6396:	28 f0       	brcs	.+10     	; 0x63a2 <dxl_tx_packet+0x3a>
    6398:	93 38       	cpi	r25, 0x83	; 131
    639a:	19 f0       	breq	.+6      	; 0x63a2 <dxl_tx_packet+0x3a>
    639c:	84 e0       	ldi	r24, 0x04	; 4
    639e:	90 e0       	ldi	r25, 0x00	; 0
    63a0:	31 c0       	rjmp	.+98     	; 0x6404 <dxl_tx_packet+0x9c>
    63a2:	8f ef       	ldi	r24, 0xFF	; 255
    63a4:	80 93 fd 08 	sts	0x08FD, r24
    63a8:	80 93 fe 08 	sts	0x08FE, r24
    63ac:	80 91 00 09 	lds	r24, 0x0900
    63b0:	a8 2f       	mov	r26, r24
    63b2:	b0 e0       	ldi	r27, 0x00	; 0
    63b4:	20 e0       	ldi	r18, 0x00	; 0
    63b6:	90 e0       	ldi	r25, 0x00	; 0
    63b8:	05 c0       	rjmp	.+10     	; 0x63c4 <dxl_tx_packet+0x5c>
    63ba:	e3 50       	subi	r30, 0x03	; 3
    63bc:	f7 4f       	sbci	r31, 0xF7	; 247
    63be:	82 81       	ldd	r24, Z+2	; 0x02
    63c0:	98 0f       	add	r25, r24
    63c2:	2f 5f       	subi	r18, 0xFF	; 255
    63c4:	e2 2f       	mov	r30, r18
    63c6:	f0 e0       	ldi	r31, 0x00	; 0
    63c8:	ae 17       	cp	r26, r30
    63ca:	bf 07       	cpc	r27, r31
    63cc:	b4 f7       	brge	.-20     	; 0x63ba <dxl_tx_packet+0x52>
    63ce:	a3 50       	subi	r26, 0x03	; 3
    63d0:	b7 4f       	sbci	r27, 0xF7	; 247
    63d2:	90 95       	com	r25
    63d4:	13 96       	adiw	r26, 0x03	; 3
    63d6:	9c 93       	st	X, r25
    63d8:	80 91 55 08 	lds	r24, 0x0855
    63dc:	90 91 56 08 	lds	r25, 0x0856
    63e0:	06 97       	sbiw	r24, 0x06	; 6
    63e2:	02 97       	sbiw	r24, 0x02	; 2
    63e4:	10 f4       	brcc	.+4      	; 0x63ea <dxl_tx_packet+0x82>
    63e6:	0e 94 38 33 	call	0x6670	; 0x6670 <dxl_hal_clear>
    63ea:	10 91 00 09 	lds	r17, 0x0900
    63ee:	1c 5f       	subi	r17, 0xFC	; 252
    63f0:	8d ef       	ldi	r24, 0xFD	; 253
    63f2:	98 e0       	ldi	r25, 0x08	; 8
    63f4:	61 2f       	mov	r22, r17
    63f6:	70 e0       	ldi	r23, 0x00	; 0
    63f8:	0e 94 3d 33 	call	0x667a	; 0x667a <dxl_hal_tx>
    63fc:	18 17       	cp	r17, r24
    63fe:	59 f0       	breq	.+22     	; 0x6416 <dxl_tx_packet+0xae>
    6400:	82 e0       	ldi	r24, 0x02	; 2
    6402:	90 e0       	ldi	r25, 0x00	; 0
    6404:	90 93 56 08 	sts	0x0856, r25
    6408:	80 93 55 08 	sts	0x0855, r24
    640c:	10 92 e6 09 	sts	0x09E6, r1
    6410:	10 92 e5 09 	sts	0x09E5, r1
    6414:	11 c0       	rjmp	.+34     	; 0x6438 <dxl_tx_packet+0xd0>
    6416:	80 91 01 09 	lds	r24, 0x0901
    641a:	82 30       	cpi	r24, 0x02	; 2
    641c:	29 f4       	brne	.+10     	; 0x6428 <dxl_tx_packet+0xc0>
    641e:	80 91 03 09 	lds	r24, 0x0903
    6422:	90 e0       	ldi	r25, 0x00	; 0
    6424:	06 96       	adiw	r24, 0x06	; 6
    6426:	02 c0       	rjmp	.+4      	; 0x642c <dxl_tx_packet+0xc4>
    6428:	86 e0       	ldi	r24, 0x06	; 6
    642a:	90 e0       	ldi	r25, 0x00	; 0
    642c:	0e 94 61 33 	call	0x66c2	; 0x66c2 <dxl_hal_set_timeout>
    6430:	10 92 56 08 	sts	0x0856, r1
    6434:	10 92 55 08 	sts	0x0855, r1
    6438:	1f 91       	pop	r17
    643a:	08 95       	ret

0000643c <dxl_txrx_packet>:
    643c:	0e 94 b4 31 	call	0x6368	; 0x6368 <dxl_tx_packet>
    6440:	80 91 55 08 	lds	r24, 0x0855
    6444:	90 91 56 08 	lds	r25, 0x0856
    6448:	89 2b       	or	r24, r25
    644a:	41 f4       	brne	.+16     	; 0x645c <dxl_txrx_packet+0x20>
    644c:	0e 94 e9 30 	call	0x61d2	; 0x61d2 <dxl_rx_packet>
    6450:	80 91 55 08 	lds	r24, 0x0855
    6454:	90 91 56 08 	lds	r25, 0x0856
    6458:	05 97       	sbiw	r24, 0x05	; 5
    645a:	c1 f3       	breq	.-16     	; 0x644c <dxl_txrx_packet+0x10>
    645c:	08 95       	ret

0000645e <dxl_write_word>:
    645e:	28 2f       	mov	r18, r24
    6460:	80 91 e5 09 	lds	r24, 0x09E5
    6464:	90 91 e6 09 	lds	r25, 0x09E6
    6468:	89 2b       	or	r24, r25
    646a:	99 f4       	brne	.+38     	; 0x6492 <dxl_write_word+0x34>
    646c:	20 93 ff 08 	sts	0x08FF, r18
    6470:	83 e0       	ldi	r24, 0x03	; 3
    6472:	80 93 01 09 	sts	0x0901, r24
    6476:	60 93 02 09 	sts	0x0902, r22
    647a:	ca 01       	movw	r24, r20
    647c:	40 93 03 09 	sts	0x0903, r20
    6480:	80 70       	andi	r24, 0x00	; 0
    6482:	90 93 04 09 	sts	0x0904, r25
    6486:	85 e0       	ldi	r24, 0x05	; 5
    6488:	80 93 00 09 	sts	0x0900, r24
    648c:	0e 94 1e 32 	call	0x643c	; 0x643c <dxl_txrx_packet>
    6490:	08 95       	ret
    6492:	ff cf       	rjmp	.-2      	; 0x6492 <dxl_write_word+0x34>

00006494 <dxl_read_word>:
    6494:	28 2f       	mov	r18, r24
    6496:	80 91 e5 09 	lds	r24, 0x09E5
    649a:	90 91 e6 09 	lds	r25, 0x09E6
    649e:	89 2b       	or	r24, r25
    64a0:	b9 f4       	brne	.+46     	; 0x64d0 <dxl_read_word+0x3c>
    64a2:	20 93 ff 08 	sts	0x08FF, r18
    64a6:	82 e0       	ldi	r24, 0x02	; 2
    64a8:	80 93 01 09 	sts	0x0901, r24
    64ac:	60 93 02 09 	sts	0x0902, r22
    64b0:	80 93 03 09 	sts	0x0903, r24
    64b4:	84 e0       	ldi	r24, 0x04	; 4
    64b6:	80 93 00 09 	sts	0x0900, r24
    64ba:	0e 94 1e 32 	call	0x643c	; 0x643c <dxl_txrx_packet>
    64be:	30 91 a3 09 	lds	r19, 0x09A3
    64c2:	20 e0       	ldi	r18, 0x00	; 0
    64c4:	80 91 a2 09 	lds	r24, 0x09A2
    64c8:	28 0f       	add	r18, r24
    64ca:	31 1d       	adc	r19, r1
    64cc:	c9 01       	movw	r24, r18
    64ce:	08 95       	ret
    64d0:	ff cf       	rjmp	.-2      	; 0x64d0 <dxl_read_word+0x3c>

000064d2 <dxl_write_byte>:
    64d2:	28 2f       	mov	r18, r24
    64d4:	80 91 e5 09 	lds	r24, 0x09E5
    64d8:	90 91 e6 09 	lds	r25, 0x09E6
    64dc:	89 2b       	or	r24, r25
    64de:	79 f4       	brne	.+30     	; 0x64fe <dxl_write_byte+0x2c>
    64e0:	20 93 ff 08 	sts	0x08FF, r18
    64e4:	83 e0       	ldi	r24, 0x03	; 3
    64e6:	80 93 01 09 	sts	0x0901, r24
    64ea:	60 93 02 09 	sts	0x0902, r22
    64ee:	40 93 03 09 	sts	0x0903, r20
    64f2:	84 e0       	ldi	r24, 0x04	; 4
    64f4:	80 93 00 09 	sts	0x0900, r24
    64f8:	0e 94 1e 32 	call	0x643c	; 0x643c <dxl_txrx_packet>
    64fc:	08 95       	ret
    64fe:	ff cf       	rjmp	.-2      	; 0x64fe <dxl_write_byte+0x2c>

00006500 <dxl_read_byte>:
    6500:	28 2f       	mov	r18, r24
    6502:	80 91 e5 09 	lds	r24, 0x09E5
    6506:	90 91 e6 09 	lds	r25, 0x09E6
    650a:	89 2b       	or	r24, r25
    650c:	99 f4       	brne	.+38     	; 0x6534 <dxl_read_byte+0x34>
    650e:	20 93 ff 08 	sts	0x08FF, r18
    6512:	82 e0       	ldi	r24, 0x02	; 2
    6514:	80 93 01 09 	sts	0x0901, r24
    6518:	60 93 02 09 	sts	0x0902, r22
    651c:	81 e0       	ldi	r24, 0x01	; 1
    651e:	80 93 03 09 	sts	0x0903, r24
    6522:	84 e0       	ldi	r24, 0x04	; 4
    6524:	80 93 00 09 	sts	0x0900, r24
    6528:	0e 94 1e 32 	call	0x643c	; 0x643c <dxl_txrx_packet>
    652c:	80 91 a2 09 	lds	r24, 0x09A2
    6530:	90 e0       	ldi	r25, 0x00	; 0
    6532:	08 95       	ret
    6534:	ff cf       	rjmp	.-2      	; 0x6534 <dxl_read_byte+0x34>

00006536 <dxl_ping>:
    6536:	28 2f       	mov	r18, r24
    6538:	80 91 e5 09 	lds	r24, 0x09E5
    653c:	90 91 e6 09 	lds	r25, 0x09E6
    6540:	89 2b       	or	r24, r25
    6542:	59 f4       	brne	.+22     	; 0x655a <dxl_ping+0x24>
    6544:	20 93 ff 08 	sts	0x08FF, r18
    6548:	81 e0       	ldi	r24, 0x01	; 1
    654a:	80 93 01 09 	sts	0x0901, r24
    654e:	82 e0       	ldi	r24, 0x02	; 2
    6550:	80 93 00 09 	sts	0x0900, r24
    6554:	0e 94 1e 32 	call	0x643c	; 0x643c <dxl_txrx_packet>
    6558:	08 95       	ret
    655a:	ff cf       	rjmp	.-2      	; 0x655a <dxl_ping+0x24>

0000655c <dxl_terminate>:
    655c:	0e 94 37 33 	call	0x666e	; 0x666e <dxl_hal_close>
    6560:	08 95       	ret

00006562 <dxl_initialize>:
    6562:	0f 93       	push	r16
    6564:	1f 93       	push	r17
    6566:	8c 01       	movw	r16, r24
    6568:	6f 5f       	subi	r22, 0xFF	; 255
    656a:	7f 4f       	sbci	r23, 0xFF	; 255
    656c:	88 27       	eor	r24, r24
    656e:	77 fd       	sbrc	r23, 7
    6570:	80 95       	com	r24
    6572:	98 2f       	mov	r25, r24
    6574:	0e 94 fd 39 	call	0x73fa	; 0x73fa <__floatsisf>
    6578:	9b 01       	movw	r18, r22
    657a:	ac 01       	movw	r20, r24
    657c:	60 e0       	ldi	r22, 0x00	; 0
    657e:	74 e2       	ldi	r23, 0x24	; 36
    6580:	84 ef       	ldi	r24, 0xF4	; 244
    6582:	99 e4       	ldi	r25, 0x49	; 73
    6584:	0e 94 62 39 	call	0x72c4	; 0x72c4 <__divsf3>
    6588:	ab 01       	movw	r20, r22
    658a:	bc 01       	movw	r22, r24
    658c:	c8 01       	movw	r24, r16
    658e:	0e 94 de 32 	call	0x65bc	; 0x65bc <dxl_hal_open>
    6592:	89 2b       	or	r24, r25
    6594:	19 f4       	brne	.+6      	; 0x659c <dxl_initialize+0x3a>
    6596:	20 e0       	ldi	r18, 0x00	; 0
    6598:	30 e0       	ldi	r19, 0x00	; 0
    659a:	0c c0       	rjmp	.+24     	; 0x65b4 <dxl_initialize+0x52>
    659c:	81 e0       	ldi	r24, 0x01	; 1
    659e:	90 e0       	ldi	r25, 0x00	; 0
    65a0:	90 93 56 08 	sts	0x0856, r25
    65a4:	80 93 55 08 	sts	0x0855, r24
    65a8:	10 92 e6 09 	sts	0x09E6, r1
    65ac:	10 92 e5 09 	sts	0x09E5, r1
    65b0:	21 e0       	ldi	r18, 0x01	; 1
    65b2:	30 e0       	ldi	r19, 0x00	; 0
    65b4:	c9 01       	movw	r24, r18
    65b6:	1f 91       	pop	r17
    65b8:	0f 91       	pop	r16
    65ba:	08 95       	ret

000065bc <dxl_hal_open>:
    65bc:	ef 92       	push	r14
    65be:	ff 92       	push	r15
    65c0:	0f 93       	push	r16
    65c2:	1f 93       	push	r17
    65c4:	7a 01       	movw	r14, r20
    65c6:	8b 01       	movw	r16, r22
    65c8:	82 e4       	ldi	r24, 0x42	; 66
    65ca:	80 93 c0 00 	sts	0x00C0, r24
    65ce:	88 e9       	ldi	r24, 0x98	; 152
    65d0:	80 93 c1 00 	sts	0x00C1, r24
    65d4:	86 e0       	ldi	r24, 0x06	; 6
    65d6:	80 93 c2 00 	sts	0x00C2, r24
    65da:	60 e0       	ldi	r22, 0x00	; 0
    65dc:	74 e2       	ldi	r23, 0x24	; 36
    65de:	84 ef       	ldi	r24, 0xF4	; 244
    65e0:	99 e4       	ldi	r25, 0x49	; 73
    65e2:	a8 01       	movw	r20, r16
    65e4:	97 01       	movw	r18, r14
    65e6:	0e 94 62 39 	call	0x72c4	; 0x72c4 <__divsf3>
    65ea:	0e 94 cf 39 	call	0x739e	; 0x739e <__fixunssfsi>
    65ee:	61 50       	subi	r22, 0x01	; 1
    65f0:	70 40       	sbci	r23, 0x00	; 0
    65f2:	70 93 c5 00 	sts	0x00C5, r23
    65f6:	60 93 c4 00 	sts	0x00C4, r22
    65fa:	60 e0       	ldi	r22, 0x00	; 0
    65fc:	74 e2       	ldi	r23, 0x24	; 36
    65fe:	84 e7       	ldi	r24, 0x74	; 116
    6600:	99 e4       	ldi	r25, 0x49	; 73
    6602:	a8 01       	movw	r20, r16
    6604:	97 01       	movw	r18, r14
    6606:	0e 94 62 39 	call	0x72c4	; 0x72c4 <__divsf3>
    660a:	20 e0       	ldi	r18, 0x00	; 0
    660c:	30 e0       	ldi	r19, 0x00	; 0
    660e:	40 e4       	ldi	r20, 0x40	; 64
    6610:	51 e4       	ldi	r21, 0x41	; 65
    6612:	0e 94 42 3b 	call	0x7684	; 0x7684 <__mulsf3>
    6616:	60 93 ce 11 	sts	0x11CE, r22
    661a:	70 93 cf 11 	sts	0x11CF, r23
    661e:	80 93 d0 11 	sts	0x11D0, r24
    6622:	90 93 d1 11 	sts	0x11D1, r25
    6626:	20 91 ce 11 	lds	r18, 0x11CE
    662a:	30 91 cf 11 	lds	r19, 0x11CF
    662e:	40 91 d0 11 	lds	r20, 0x11D0
    6632:	50 91 d1 11 	lds	r21, 0x11D1
    6636:	60 e0       	ldi	r22, 0x00	; 0
    6638:	70 e0       	ldi	r23, 0x00	; 0
    663a:	8a e7       	ldi	r24, 0x7A	; 122
    663c:	93 e4       	ldi	r25, 0x43	; 67
    663e:	0e 94 62 39 	call	0x72c4	; 0x72c4 <__divsf3>
    6642:	0e 94 cf 39 	call	0x739e	; 0x739e <__fixunssfsi>
    6646:	70 93 cd 11 	sts	0x11CD, r23
    664a:	60 93 cc 11 	sts	0x11CC, r22
    664e:	72 98       	cbi	0x0e, 2	; 14
    6650:	73 9a       	sbi	0x0e, 3	; 14
    6652:	8f ef       	ldi	r24, 0xFF	; 255
    6654:	80 93 c6 00 	sts	0x00C6, r24
    6658:	10 92 e7 0a 	sts	0x0AE7, r1
    665c:	10 92 e8 0a 	sts	0x0AE8, r1
    6660:	81 e0       	ldi	r24, 0x01	; 1
    6662:	90 e0       	ldi	r25, 0x00	; 0
    6664:	1f 91       	pop	r17
    6666:	0f 91       	pop	r16
    6668:	ff 90       	pop	r15
    666a:	ef 90       	pop	r14
    666c:	08 95       	ret

0000666e <dxl_hal_close>:
    666e:	08 95       	ret

00006670 <dxl_hal_clear>:
    6670:	80 91 e8 0a 	lds	r24, 0x0AE8
    6674:	80 93 e7 0a 	sts	0x0AE7, r24
    6678:	08 95       	ret

0000667a <dxl_hal_tx>:
    667a:	ac 01       	movw	r20, r24
    667c:	f8 94       	cli
    667e:	73 98       	cbi	0x0e, 3	; 14
    6680:	72 9a       	sbi	0x0e, 2	; 14
    6682:	20 e0       	ldi	r18, 0x00	; 0
    6684:	30 e0       	ldi	r19, 0x00	; 0
    6686:	11 c0       	rjmp	.+34     	; 0x66aa <dxl_hal_tx+0x30>
    6688:	80 91 c0 00 	lds	r24, 0x00C0
    668c:	85 ff       	sbrs	r24, 5
    668e:	fc cf       	rjmp	.-8      	; 0x6688 <dxl_hal_tx+0xe>
    6690:	80 91 c0 00 	lds	r24, 0x00C0
    6694:	80 64       	ori	r24, 0x40	; 64
    6696:	80 93 c0 00 	sts	0x00C0, r24
    669a:	fa 01       	movw	r30, r20
    669c:	e2 0f       	add	r30, r18
    669e:	f3 1f       	adc	r31, r19
    66a0:	80 81       	ld	r24, Z
    66a2:	80 93 c6 00 	sts	0x00C6, r24
    66a6:	2f 5f       	subi	r18, 0xFF	; 255
    66a8:	3f 4f       	sbci	r19, 0xFF	; 255
    66aa:	26 17       	cp	r18, r22
    66ac:	37 07       	cpc	r19, r23
    66ae:	64 f3       	brlt	.-40     	; 0x6688 <dxl_hal_tx+0xe>
    66b0:	80 91 c0 00 	lds	r24, 0x00C0
    66b4:	86 ff       	sbrs	r24, 6
    66b6:	fc cf       	rjmp	.-8      	; 0x66b0 <dxl_hal_tx+0x36>
    66b8:	72 98       	cbi	0x0e, 2	; 14
    66ba:	73 9a       	sbi	0x0e, 3	; 14
    66bc:	78 94       	sei
    66be:	c9 01       	movw	r24, r18
    66c0:	08 95       	ret

000066c2 <dxl_hal_set_timeout>:
    66c2:	10 92 d5 11 	sts	0x11D5, r1
    66c6:	10 92 d4 11 	sts	0x11D4, r1
    66ca:	20 91 cc 11 	lds	r18, 0x11CC
    66ce:	30 91 cd 11 	lds	r19, 0x11CD
    66d2:	26 5f       	subi	r18, 0xF6	; 246
    66d4:	3f 4f       	sbci	r19, 0xFF	; 255
    66d6:	28 0f       	add	r18, r24
    66d8:	39 1f       	adc	r19, r25
    66da:	30 93 d3 11 	sts	0x11D3, r19
    66de:	20 93 d2 11 	sts	0x11D2, r18
    66e2:	08 95       	ret

000066e4 <dxl_hal_timeout>:
    66e4:	af 92       	push	r10
    66e6:	bf 92       	push	r11
    66e8:	cf 92       	push	r12
    66ea:	df 92       	push	r13
    66ec:	ef 92       	push	r14
    66ee:	ff 92       	push	r15
    66f0:	0f 93       	push	r16
    66f2:	1f 93       	push	r17
    66f4:	80 91 d4 11 	lds	r24, 0x11D4
    66f8:	90 91 d5 11 	lds	r25, 0x11D5
    66fc:	01 96       	adiw	r24, 0x01	; 1
    66fe:	90 93 d5 11 	sts	0x11D5, r25
    6702:	80 93 d4 11 	sts	0x11D4, r24
    6706:	20 91 d4 11 	lds	r18, 0x11D4
    670a:	30 91 d5 11 	lds	r19, 0x11D5
    670e:	80 91 d2 11 	lds	r24, 0x11D2
    6712:	90 91 d3 11 	lds	r25, 0x11D3
    6716:	82 17       	cp	r24, r18
    6718:	93 07       	cpc	r25, r19
    671a:	18 f4       	brcc	.+6      	; 0x6722 <dxl_hal_timeout+0x3e>
    671c:	21 e0       	ldi	r18, 0x01	; 1
    671e:	30 e0       	ldi	r19, 0x00	; 0
    6720:	74 c0       	rjmp	.+232    	; 0x680a <dxl_hal_timeout+0x126>
    6722:	a0 90 ce 11 	lds	r10, 0x11CE
    6726:	b0 90 cf 11 	lds	r11, 0x11CF
    672a:	c0 90 d0 11 	lds	r12, 0x11D0
    672e:	d0 90 d1 11 	lds	r13, 0x11D1
 */
void
_delay_us(double __us)
{
	uint8_t __ticks;
	double __tmp = ((F_CPU) / 3e6) * __us;
    6732:	c6 01       	movw	r24, r12
    6734:	b5 01       	movw	r22, r10
    6736:	2b ea       	ldi	r18, 0xAB	; 171
    6738:	3a ea       	ldi	r19, 0xAA	; 170
    673a:	4a ea       	ldi	r20, 0xAA	; 170
    673c:	50 e4       	ldi	r21, 0x40	; 64
    673e:	0e 94 42 3b 	call	0x7684	; 0x7684 <__mulsf3>
    6742:	7b 01       	movw	r14, r22
    6744:	8c 01       	movw	r16, r24
	if (__tmp < 1.0)
    6746:	20 e0       	ldi	r18, 0x00	; 0
    6748:	30 e0       	ldi	r19, 0x00	; 0
    674a:	40 e8       	ldi	r20, 0x80	; 128
    674c:	5f e3       	ldi	r21, 0x3F	; 63
    674e:	0e 94 5b 39 	call	0x72b6	; 0x72b6 <__cmpsf2>
    6752:	88 23       	and	r24, r24
    6754:	14 f4       	brge	.+4      	; 0x675a <dxl_hal_timeout+0x76>
    6756:	61 e0       	ldi	r22, 0x01	; 1
    6758:	54 c0       	rjmp	.+168    	; 0x6802 <dxl_hal_timeout+0x11e>
		__ticks = 1;
	else if (__tmp > 255)
    675a:	c8 01       	movw	r24, r16
    675c:	b7 01       	movw	r22, r14
    675e:	20 e0       	ldi	r18, 0x00	; 0
    6760:	30 e0       	ldi	r19, 0x00	; 0
    6762:	4f e7       	ldi	r20, 0x7F	; 127
    6764:	53 e4       	ldi	r21, 0x43	; 67
    6766:	0e 94 37 3b 	call	0x766e	; 0x766e <__gesf2>
    676a:	18 16       	cp	r1, r24
    676c:	0c f0       	brlt	.+2      	; 0x6770 <dxl_hal_timeout+0x8c>
    676e:	45 c0       	rjmp	.+138    	; 0x67fa <dxl_hal_timeout+0x116>
	{
		_delay_ms(__us / 1000.0);
    6770:	c6 01       	movw	r24, r12
    6772:	b5 01       	movw	r22, r10
    6774:	20 e0       	ldi	r18, 0x00	; 0
    6776:	30 e0       	ldi	r19, 0x00	; 0
    6778:	4a e7       	ldi	r20, 0x7A	; 122
    677a:	54 e4       	ldi	r21, 0x44	; 68
    677c:	0e 94 62 39 	call	0x72c4	; 0x72c4 <__divsf3>
    6780:	5b 01       	movw	r10, r22
    6782:	6c 01       	movw	r12, r24
 */
void
_delay_ms(double __ms)
{
	uint16_t __ticks;
	double __tmp = ((F_CPU) / 4e3) * __ms;
    6784:	20 e0       	ldi	r18, 0x00	; 0
    6786:	30 e0       	ldi	r19, 0x00	; 0
    6788:	4a e7       	ldi	r20, 0x7A	; 122
    678a:	55 e4       	ldi	r21, 0x45	; 69
    678c:	0e 94 42 3b 	call	0x7684	; 0x7684 <__mulsf3>
    6790:	7b 01       	movw	r14, r22
    6792:	8c 01       	movw	r16, r24
	if (__tmp < 1.0)
    6794:	20 e0       	ldi	r18, 0x00	; 0
    6796:	30 e0       	ldi	r19, 0x00	; 0
    6798:	40 e8       	ldi	r20, 0x80	; 128
    679a:	5f e3       	ldi	r21, 0x3F	; 63
    679c:	0e 94 5b 39 	call	0x72b6	; 0x72b6 <__cmpsf2>
    67a0:	88 23       	and	r24, r24
    67a2:	1c f4       	brge	.+6      	; 0x67aa <dxl_hal_timeout+0xc6>
    67a4:	61 e0       	ldi	r22, 0x01	; 1
    67a6:	70 e0       	ldi	r23, 0x00	; 0
    67a8:	24 c0       	rjmp	.+72     	; 0x67f2 <dxl_hal_timeout+0x10e>
		__ticks = 1;
	else if (__tmp > 65535)
    67aa:	c8 01       	movw	r24, r16
    67ac:	b7 01       	movw	r22, r14
    67ae:	20 e0       	ldi	r18, 0x00	; 0
    67b0:	3f ef       	ldi	r19, 0xFF	; 255
    67b2:	4f e7       	ldi	r20, 0x7F	; 127
    67b4:	57 e4       	ldi	r21, 0x47	; 71
    67b6:	0e 94 37 3b 	call	0x766e	; 0x766e <__gesf2>
    67ba:	18 16       	cp	r1, r24
    67bc:	b4 f4       	brge	.+44     	; 0x67ea <dxl_hal_timeout+0x106>
	{
		//	__ticks = requested delay in 1/10 ms
		__ticks = (uint16_t) (__ms * 10.0);
    67be:	c6 01       	movw	r24, r12
    67c0:	b5 01       	movw	r22, r10
    67c2:	20 e0       	ldi	r18, 0x00	; 0
    67c4:	30 e0       	ldi	r19, 0x00	; 0
    67c6:	40 e2       	ldi	r20, 0x20	; 32
    67c8:	51 e4       	ldi	r21, 0x41	; 65
    67ca:	0e 94 42 3b 	call	0x7684	; 0x7684 <__mulsf3>
    67ce:	0e 94 cf 39 	call	0x739e	; 0x739e <__fixunssfsi>
    67d2:	80 e9       	ldi	r24, 0x90	; 144
    67d4:	91 e0       	ldi	r25, 0x01	; 1
    67d6:	05 c0       	rjmp	.+10     	; 0x67e2 <dxl_hal_timeout+0xfe>
    67d8:	fc 01       	movw	r30, r24
    67da:	31 97       	sbiw	r30, 0x01	; 1
    67dc:	f1 f7       	brne	.-4      	; 0x67da <dxl_hal_timeout+0xf6>
		while(__ticks)
		{
			// wait 1/10 ms
			_delay_loop_2(((F_CPU) / 4e3) / 10);
			__ticks --;
    67de:	61 50       	subi	r22, 0x01	; 1
    67e0:	70 40       	sbci	r23, 0x00	; 0
		__ticks = 1;
	else if (__tmp > 65535)
	{
		//	__ticks = requested delay in 1/10 ms
		__ticks = (uint16_t) (__ms * 10.0);
		while(__ticks)
    67e2:	61 15       	cp	r22, r1
    67e4:	71 05       	cpc	r23, r1
    67e6:	c1 f7       	brne	.-16     	; 0x67d8 <dxl_hal_timeout+0xf4>
    67e8:	0e c0       	rjmp	.+28     	; 0x6806 <dxl_hal_timeout+0x122>
			__ticks --;
		}
		return;
	}
	else
		__ticks = (uint16_t)__tmp;
    67ea:	c8 01       	movw	r24, r16
    67ec:	b7 01       	movw	r22, r14
    67ee:	0e 94 cf 39 	call	0x739e	; 0x739e <__fixunssfsi>
    67f2:	cb 01       	movw	r24, r22
    67f4:	01 97       	sbiw	r24, 0x01	; 1
    67f6:	f1 f7       	brne	.-4      	; 0x67f4 <dxl_hal_timeout+0x110>
    67f8:	06 c0       	rjmp	.+12     	; 0x6806 <dxl_hal_timeout+0x122>
	{
		_delay_ms(__us / 1000.0);
		return;
	}
	else
		__ticks = (uint8_t)__tmp;
    67fa:	c8 01       	movw	r24, r16
    67fc:	b7 01       	movw	r22, r14
    67fe:	0e 94 cf 39 	call	0x739e	; 0x739e <__fixunssfsi>
    can be achieved.
*/
void
_delay_loop_1(uint8_t __count)
{
	__asm__ volatile (
    6802:	6a 95       	dec	r22
    6804:	f1 f7       	brne	.-4      	; 0x6802 <dxl_hal_timeout+0x11e>
    6806:	20 e0       	ldi	r18, 0x00	; 0
    6808:	30 e0       	ldi	r19, 0x00	; 0
    680a:	c9 01       	movw	r24, r18
    680c:	1f 91       	pop	r17
    680e:	0f 91       	pop	r16
    6810:	ff 90       	pop	r15
    6812:	ef 90       	pop	r14
    6814:	df 90       	pop	r13
    6816:	cf 90       	pop	r12
    6818:	bf 90       	pop	r11
    681a:	af 90       	pop	r10
    681c:	08 95       	ret

0000681e <dxl_hal_get_qstate>:
    681e:	90 91 e7 0a 	lds	r25, 0x0AE7
    6822:	80 91 e8 0a 	lds	r24, 0x0AE8
    6826:	98 17       	cp	r25, r24
    6828:	19 f4       	brne	.+6      	; 0x6830 <dxl_hal_get_qstate+0x12>
    682a:	20 e0       	ldi	r18, 0x00	; 0
    682c:	30 e0       	ldi	r19, 0x00	; 0
    682e:	17 c0       	rjmp	.+46     	; 0x685e <dxl_hal_get_qstate+0x40>
    6830:	90 91 e7 0a 	lds	r25, 0x0AE7
    6834:	80 91 e8 0a 	lds	r24, 0x0AE8
    6838:	98 17       	cp	r25, r24
    683a:	38 f4       	brcc	.+14     	; 0x684a <dxl_hal_get_qstate+0x2c>
    683c:	80 91 e8 0a 	lds	r24, 0x0AE8
    6840:	90 91 e7 0a 	lds	r25, 0x0AE7
    6844:	28 2f       	mov	r18, r24
    6846:	30 e0       	ldi	r19, 0x00	; 0
    6848:	08 c0       	rjmp	.+16     	; 0x685a <dxl_hal_get_qstate+0x3c>
    684a:	80 91 e8 0a 	lds	r24, 0x0AE8
    684e:	90 91 e7 0a 	lds	r25, 0x0AE7
    6852:	28 2f       	mov	r18, r24
    6854:	30 e0       	ldi	r19, 0x00	; 0
    6856:	20 50       	subi	r18, 0x00	; 0
    6858:	3f 4f       	sbci	r19, 0xFF	; 255
    685a:	29 1b       	sub	r18, r25
    685c:	31 09       	sbc	r19, r1
    685e:	c9 01       	movw	r24, r18
    6860:	08 95       	ret

00006862 <dxl_hal_put_queue>:
    6862:	1f 93       	push	r17
    6864:	18 2f       	mov	r17, r24
    6866:	0e 94 0f 34 	call	0x681e	; 0x681e <dxl_hal_get_qstate>
    686a:	8f 3f       	cpi	r24, 0xFF	; 255
    686c:	91 05       	cpc	r25, r1
    686e:	91 f0       	breq	.+36     	; 0x6894 <dxl_hal_put_queue+0x32>
    6870:	e0 91 e8 0a 	lds	r30, 0x0AE8
    6874:	f0 e0       	ldi	r31, 0x00	; 0
    6876:	e9 51       	subi	r30, 0x19	; 25
    6878:	f6 4f       	sbci	r31, 0xF6	; 246
    687a:	10 83       	st	Z, r17
    687c:	80 91 e8 0a 	lds	r24, 0x0AE8
    6880:	8f 3f       	cpi	r24, 0xFF	; 255
    6882:	19 f4       	brne	.+6      	; 0x688a <dxl_hal_put_queue+0x28>
    6884:	10 92 e8 0a 	sts	0x0AE8, r1
    6888:	05 c0       	rjmp	.+10     	; 0x6894 <dxl_hal_put_queue+0x32>
    688a:	80 91 e8 0a 	lds	r24, 0x0AE8
    688e:	8f 5f       	subi	r24, 0xFF	; 255
    6890:	80 93 e8 0a 	sts	0x0AE8, r24
    6894:	1f 91       	pop	r17
    6896:	08 95       	ret

00006898 <dxl_hal_get_queue>:
    6898:	90 91 e7 0a 	lds	r25, 0x0AE7
    689c:	80 91 e8 0a 	lds	r24, 0x0AE8
    68a0:	98 17       	cp	r25, r24
    68a2:	11 f4       	brne	.+4      	; 0x68a8 <dxl_hal_get_queue+0x10>
    68a4:	ef ef       	ldi	r30, 0xFF	; 255
    68a6:	12 c0       	rjmp	.+36     	; 0x68cc <dxl_hal_get_queue+0x34>
    68a8:	e0 91 e7 0a 	lds	r30, 0x0AE7
    68ac:	f0 e0       	ldi	r31, 0x00	; 0
    68ae:	e9 51       	subi	r30, 0x19	; 25
    68b0:	f6 4f       	sbci	r31, 0xF6	; 246
    68b2:	e0 81       	ld	r30, Z
    68b4:	80 91 e7 0a 	lds	r24, 0x0AE7
    68b8:	8f 3f       	cpi	r24, 0xFF	; 255
    68ba:	19 f4       	brne	.+6      	; 0x68c2 <dxl_hal_get_queue+0x2a>
    68bc:	10 92 e7 0a 	sts	0x0AE7, r1
    68c0:	05 c0       	rjmp	.+10     	; 0x68cc <dxl_hal_get_queue+0x34>
    68c2:	80 91 e7 0a 	lds	r24, 0x0AE7
    68c6:	8f 5f       	subi	r24, 0xFF	; 255
    68c8:	80 93 e7 0a 	sts	0x0AE7, r24
    68cc:	8e 2f       	mov	r24, r30
    68ce:	08 95       	ret

000068d0 <dxl_hal_rx>:
    68d0:	ef 92       	push	r14
    68d2:	ff 92       	push	r15
    68d4:	0f 93       	push	r16
    68d6:	1f 93       	push	r17
    68d8:	cf 93       	push	r28
    68da:	df 93       	push	r29
    68dc:	7c 01       	movw	r14, r24
    68de:	eb 01       	movw	r28, r22
    68e0:	90 91 e7 0a 	lds	r25, 0x0AE7
    68e4:	80 91 e8 0a 	lds	r24, 0x0AE8
    68e8:	98 17       	cp	r25, r24
    68ea:	19 f4       	brne	.+6      	; 0x68f2 <dxl_hal_rx+0x22>
    68ec:	00 e0       	ldi	r16, 0x00	; 0
    68ee:	10 e0       	ldi	r17, 0x00	; 0
    68f0:	14 c0       	rjmp	.+40     	; 0x691a <dxl_hal_rx+0x4a>
    68f2:	0e 94 0f 34 	call	0x681e	; 0x681e <dxl_hal_get_qstate>
    68f6:	8c 01       	movw	r16, r24
    68f8:	c8 17       	cp	r28, r24
    68fa:	d9 07       	cpc	r29, r25
    68fc:	0c f4       	brge	.+2      	; 0x6900 <dxl_hal_rx+0x30>
    68fe:	8e 01       	movw	r16, r28
    6900:	c0 e0       	ldi	r28, 0x00	; 0
    6902:	d0 e0       	ldi	r29, 0x00	; 0
    6904:	07 c0       	rjmp	.+14     	; 0x6914 <dxl_hal_rx+0x44>
    6906:	0e 94 4c 34 	call	0x6898	; 0x6898 <dxl_hal_get_queue>
    690a:	f7 01       	movw	r30, r14
    690c:	ec 0f       	add	r30, r28
    690e:	fd 1f       	adc	r31, r29
    6910:	80 83       	st	Z, r24
    6912:	21 96       	adiw	r28, 0x01	; 1
    6914:	c0 17       	cp	r28, r16
    6916:	d1 07       	cpc	r29, r17
    6918:	b4 f3       	brlt	.-20     	; 0x6906 <dxl_hal_rx+0x36>
    691a:	c8 01       	movw	r24, r16
    691c:	df 91       	pop	r29
    691e:	cf 91       	pop	r28
    6920:	1f 91       	pop	r17
    6922:	0f 91       	pop	r16
    6924:	ff 90       	pop	r15
    6926:	ef 90       	pop	r14
    6928:	08 95       	ret

0000692a <__vector_25>:
    692a:	1f 92       	push	r1
    692c:	0f 92       	push	r0
    692e:	0f b6       	in	r0, 0x3f	; 63
    6930:	0f 92       	push	r0
    6932:	0b b6       	in	r0, 0x3b	; 59
    6934:	0f 92       	push	r0
    6936:	11 24       	eor	r1, r1
    6938:	2f 93       	push	r18
    693a:	3f 93       	push	r19
    693c:	4f 93       	push	r20
    693e:	5f 93       	push	r21
    6940:	6f 93       	push	r22
    6942:	7f 93       	push	r23
    6944:	8f 93       	push	r24
    6946:	9f 93       	push	r25
    6948:	af 93       	push	r26
    694a:	bf 93       	push	r27
    694c:	ef 93       	push	r30
    694e:	ff 93       	push	r31
    6950:	80 91 c6 00 	lds	r24, 0x00C6
    6954:	0e 94 31 34 	call	0x6862	; 0x6862 <dxl_hal_put_queue>
    6958:	ff 91       	pop	r31
    695a:	ef 91       	pop	r30
    695c:	bf 91       	pop	r27
    695e:	af 91       	pop	r26
    6960:	9f 91       	pop	r25
    6962:	8f 91       	pop	r24
    6964:	7f 91       	pop	r23
    6966:	6f 91       	pop	r22
    6968:	5f 91       	pop	r21
    696a:	4f 91       	pop	r20
    696c:	3f 91       	pop	r19
    696e:	2f 91       	pop	r18
    6970:	0f 90       	pop	r0
    6972:	0b be       	out	0x3b, r0	; 59
    6974:	0f 90       	pop	r0
    6976:	0f be       	out	0x3f, r0	; 63
    6978:	0f 90       	pop	r0
    697a:	1f 90       	pop	r1
    697c:	18 95       	reti

0000697e <vfprintf>:
    697e:	2f 92       	push	r2
    6980:	3f 92       	push	r3
    6982:	4f 92       	push	r4
    6984:	5f 92       	push	r5
    6986:	6f 92       	push	r6
    6988:	7f 92       	push	r7
    698a:	8f 92       	push	r8
    698c:	9f 92       	push	r9
    698e:	af 92       	push	r10
    6990:	bf 92       	push	r11
    6992:	cf 92       	push	r12
    6994:	df 92       	push	r13
    6996:	ef 92       	push	r14
    6998:	ff 92       	push	r15
    699a:	0f 93       	push	r16
    699c:	1f 93       	push	r17
    699e:	df 93       	push	r29
    69a0:	cf 93       	push	r28
    69a2:	cd b7       	in	r28, 0x3d	; 61
    69a4:	de b7       	in	r29, 0x3e	; 62
    69a6:	61 97       	sbiw	r28, 0x11	; 17
    69a8:	0f b6       	in	r0, 0x3f	; 63
    69aa:	f8 94       	cli
    69ac:	de bf       	out	0x3e, r29	; 62
    69ae:	0f be       	out	0x3f, r0	; 63
    69b0:	cd bf       	out	0x3d, r28	; 61
    69b2:	3c 01       	movw	r6, r24
    69b4:	7f 87       	std	Y+15, r23	; 0x0f
    69b6:	6e 87       	std	Y+14, r22	; 0x0e
    69b8:	6a 01       	movw	r12, r20
    69ba:	fc 01       	movw	r30, r24
    69bc:	17 82       	std	Z+7, r1	; 0x07
    69be:	16 82       	std	Z+6, r1	; 0x06
    69c0:	83 81       	ldd	r24, Z+3	; 0x03
    69c2:	81 fd       	sbrc	r24, 1
    69c4:	03 c0       	rjmp	.+6      	; 0x69cc <vfprintf+0x4e>
    69c6:	6f ef       	ldi	r22, 0xFF	; 255
    69c8:	7f ef       	ldi	r23, 0xFF	; 255
    69ca:	6f c3       	rjmp	.+1758   	; 0x70aa <vfprintf+0x72c>
    69cc:	9e 01       	movw	r18, r28
    69ce:	2f 5f       	subi	r18, 0xFF	; 255
    69d0:	3f 4f       	sbci	r19, 0xFF	; 255
    69d2:	39 8b       	std	Y+17, r19	; 0x11
    69d4:	28 8b       	std	Y+16, r18	; 0x10
    69d6:	f3 01       	movw	r30, r6
    69d8:	23 81       	ldd	r18, Z+3	; 0x03
    69da:	ee 85       	ldd	r30, Y+14	; 0x0e
    69dc:	ff 85       	ldd	r31, Y+15	; 0x0f
    69de:	23 fd       	sbrc	r18, 3
    69e0:	85 91       	lpm	r24, Z+
    69e2:	23 ff       	sbrs	r18, 3
    69e4:	81 91       	ld	r24, Z+
    69e6:	ff 87       	std	Y+15, r31	; 0x0f
    69e8:	ee 87       	std	Y+14, r30	; 0x0e
    69ea:	88 23       	and	r24, r24
    69ec:	09 f4       	brne	.+2      	; 0x69f0 <vfprintf+0x72>
    69ee:	5a c3       	rjmp	.+1716   	; 0x70a4 <vfprintf+0x726>
    69f0:	85 32       	cpi	r24, 0x25	; 37
    69f2:	51 f4       	brne	.+20     	; 0x6a08 <vfprintf+0x8a>
    69f4:	ee 85       	ldd	r30, Y+14	; 0x0e
    69f6:	ff 85       	ldd	r31, Y+15	; 0x0f
    69f8:	23 fd       	sbrc	r18, 3
    69fa:	85 91       	lpm	r24, Z+
    69fc:	23 ff       	sbrs	r18, 3
    69fe:	81 91       	ld	r24, Z+
    6a00:	ff 87       	std	Y+15, r31	; 0x0f
    6a02:	ee 87       	std	Y+14, r30	; 0x0e
    6a04:	85 32       	cpi	r24, 0x25	; 37
    6a06:	29 f4       	brne	.+10     	; 0x6a12 <vfprintf+0x94>
    6a08:	90 e0       	ldi	r25, 0x00	; 0
    6a0a:	b3 01       	movw	r22, r6
    6a0c:	0e 94 d0 3e 	call	0x7da0	; 0x7da0 <fputc>
    6a10:	e2 cf       	rjmp	.-60     	; 0x69d6 <vfprintf+0x58>
    6a12:	98 2f       	mov	r25, r24
    6a14:	10 e0       	ldi	r17, 0x00	; 0
    6a16:	88 24       	eor	r8, r8
    6a18:	99 24       	eor	r9, r9
    6a1a:	10 32       	cpi	r17, 0x20	; 32
    6a1c:	b0 f4       	brcc	.+44     	; 0x6a4a <vfprintf+0xcc>
    6a1e:	9b 32       	cpi	r25, 0x2B	; 43
    6a20:	69 f0       	breq	.+26     	; 0x6a3c <vfprintf+0xbe>
    6a22:	9c 32       	cpi	r25, 0x2C	; 44
    6a24:	28 f4       	brcc	.+10     	; 0x6a30 <vfprintf+0xb2>
    6a26:	90 32       	cpi	r25, 0x20	; 32
    6a28:	51 f0       	breq	.+20     	; 0x6a3e <vfprintf+0xc0>
    6a2a:	93 32       	cpi	r25, 0x23	; 35
    6a2c:	71 f4       	brne	.+28     	; 0x6a4a <vfprintf+0xcc>
    6a2e:	0b c0       	rjmp	.+22     	; 0x6a46 <vfprintf+0xc8>
    6a30:	9d 32       	cpi	r25, 0x2D	; 45
    6a32:	39 f0       	breq	.+14     	; 0x6a42 <vfprintf+0xc4>
    6a34:	90 33       	cpi	r25, 0x30	; 48
    6a36:	49 f4       	brne	.+18     	; 0x6a4a <vfprintf+0xcc>
    6a38:	11 60       	ori	r17, 0x01	; 1
    6a3a:	28 c0       	rjmp	.+80     	; 0x6a8c <vfprintf+0x10e>
    6a3c:	12 60       	ori	r17, 0x02	; 2
    6a3e:	14 60       	ori	r17, 0x04	; 4
    6a40:	25 c0       	rjmp	.+74     	; 0x6a8c <vfprintf+0x10e>
    6a42:	18 60       	ori	r17, 0x08	; 8
    6a44:	23 c0       	rjmp	.+70     	; 0x6a8c <vfprintf+0x10e>
    6a46:	10 61       	ori	r17, 0x10	; 16
    6a48:	21 c0       	rjmp	.+66     	; 0x6a8c <vfprintf+0x10e>
    6a4a:	17 fd       	sbrc	r17, 7
    6a4c:	2a c0       	rjmp	.+84     	; 0x6aa2 <vfprintf+0x124>
    6a4e:	89 2f       	mov	r24, r25
    6a50:	80 53       	subi	r24, 0x30	; 48
    6a52:	8a 30       	cpi	r24, 0x0A	; 10
    6a54:	78 f4       	brcc	.+30     	; 0x6a74 <vfprintf+0xf6>
    6a56:	16 ff       	sbrs	r17, 6
    6a58:	06 c0       	rjmp	.+12     	; 0x6a66 <vfprintf+0xe8>
    6a5a:	fa e0       	ldi	r31, 0x0A	; 10
    6a5c:	9f 9e       	mul	r9, r31
    6a5e:	90 2c       	mov	r9, r0
    6a60:	11 24       	eor	r1, r1
    6a62:	98 0e       	add	r9, r24
    6a64:	13 c0       	rjmp	.+38     	; 0x6a8c <vfprintf+0x10e>
    6a66:	3a e0       	ldi	r19, 0x0A	; 10
    6a68:	83 9e       	mul	r8, r19
    6a6a:	80 2c       	mov	r8, r0
    6a6c:	11 24       	eor	r1, r1
    6a6e:	88 0e       	add	r8, r24
    6a70:	10 62       	ori	r17, 0x20	; 32
    6a72:	0c c0       	rjmp	.+24     	; 0x6a8c <vfprintf+0x10e>
    6a74:	9e 32       	cpi	r25, 0x2E	; 46
    6a76:	21 f4       	brne	.+8      	; 0x6a80 <vfprintf+0x102>
    6a78:	16 fd       	sbrc	r17, 6
    6a7a:	14 c3       	rjmp	.+1576   	; 0x70a4 <vfprintf+0x726>
    6a7c:	10 64       	ori	r17, 0x40	; 64
    6a7e:	06 c0       	rjmp	.+12     	; 0x6a8c <vfprintf+0x10e>
    6a80:	9c 36       	cpi	r25, 0x6C	; 108
    6a82:	11 f4       	brne	.+4      	; 0x6a88 <vfprintf+0x10a>
    6a84:	10 68       	ori	r17, 0x80	; 128
    6a86:	02 c0       	rjmp	.+4      	; 0x6a8c <vfprintf+0x10e>
    6a88:	98 36       	cpi	r25, 0x68	; 104
    6a8a:	59 f4       	brne	.+22     	; 0x6aa2 <vfprintf+0x124>
    6a8c:	ee 85       	ldd	r30, Y+14	; 0x0e
    6a8e:	ff 85       	ldd	r31, Y+15	; 0x0f
    6a90:	23 fd       	sbrc	r18, 3
    6a92:	95 91       	lpm	r25, Z+
    6a94:	23 ff       	sbrs	r18, 3
    6a96:	91 91       	ld	r25, Z+
    6a98:	ff 87       	std	Y+15, r31	; 0x0f
    6a9a:	ee 87       	std	Y+14, r30	; 0x0e
    6a9c:	99 23       	and	r25, r25
    6a9e:	09 f0       	breq	.+2      	; 0x6aa2 <vfprintf+0x124>
    6aa0:	bc cf       	rjmp	.-136    	; 0x6a1a <vfprintf+0x9c>
    6aa2:	89 2f       	mov	r24, r25
    6aa4:	85 54       	subi	r24, 0x45	; 69
    6aa6:	83 30       	cpi	r24, 0x03	; 3
    6aa8:	20 f4       	brcc	.+8      	; 0x6ab2 <vfprintf+0x134>
    6aaa:	81 2f       	mov	r24, r17
    6aac:	80 61       	ori	r24, 0x10	; 16
    6aae:	90 5e       	subi	r25, 0xE0	; 224
    6ab0:	07 c0       	rjmp	.+14     	; 0x6ac0 <vfprintf+0x142>
    6ab2:	89 2f       	mov	r24, r25
    6ab4:	85 56       	subi	r24, 0x65	; 101
    6ab6:	83 30       	cpi	r24, 0x03	; 3
    6ab8:	08 f0       	brcs	.+2      	; 0x6abc <vfprintf+0x13e>
    6aba:	9f c1       	rjmp	.+830    	; 0x6dfa <vfprintf+0x47c>
    6abc:	81 2f       	mov	r24, r17
    6abe:	8f 7e       	andi	r24, 0xEF	; 239
    6ac0:	86 fd       	sbrc	r24, 6
    6ac2:	02 c0       	rjmp	.+4      	; 0x6ac8 <vfprintf+0x14a>
    6ac4:	76 e0       	ldi	r23, 0x06	; 6
    6ac6:	97 2e       	mov	r9, r23
    6ac8:	6f e3       	ldi	r22, 0x3F	; 63
    6aca:	f6 2e       	mov	r15, r22
    6acc:	f8 22       	and	r15, r24
    6ace:	95 36       	cpi	r25, 0x65	; 101
    6ad0:	19 f4       	brne	.+6      	; 0x6ad8 <vfprintf+0x15a>
    6ad2:	f0 e4       	ldi	r31, 0x40	; 64
    6ad4:	ff 2a       	or	r15, r31
    6ad6:	07 c0       	rjmp	.+14     	; 0x6ae6 <vfprintf+0x168>
    6ad8:	96 36       	cpi	r25, 0x66	; 102
    6ada:	19 f4       	brne	.+6      	; 0x6ae2 <vfprintf+0x164>
    6adc:	20 e8       	ldi	r18, 0x80	; 128
    6ade:	f2 2a       	or	r15, r18
    6ae0:	02 c0       	rjmp	.+4      	; 0x6ae6 <vfprintf+0x168>
    6ae2:	91 10       	cpse	r9, r1
    6ae4:	9a 94       	dec	r9
    6ae6:	f7 fe       	sbrs	r15, 7
    6ae8:	0a c0       	rjmp	.+20     	; 0x6afe <vfprintf+0x180>
    6aea:	3b e3       	ldi	r19, 0x3B	; 59
    6aec:	39 15       	cp	r19, r9
    6aee:	18 f4       	brcc	.+6      	; 0x6af6 <vfprintf+0x178>
    6af0:	5c e3       	ldi	r21, 0x3C	; 60
    6af2:	b5 2e       	mov	r11, r21
    6af4:	02 c0       	rjmp	.+4      	; 0x6afa <vfprintf+0x17c>
    6af6:	b9 2c       	mov	r11, r9
    6af8:	b3 94       	inc	r11
    6afa:	27 e0       	ldi	r18, 0x07	; 7
    6afc:	09 c0       	rjmp	.+18     	; 0x6b10 <vfprintf+0x192>
    6afe:	47 e0       	ldi	r20, 0x07	; 7
    6b00:	49 15       	cp	r20, r9
    6b02:	20 f4       	brcc	.+8      	; 0x6b0c <vfprintf+0x18e>
    6b04:	bb 24       	eor	r11, r11
    6b06:	47 e0       	ldi	r20, 0x07	; 7
    6b08:	94 2e       	mov	r9, r20
    6b0a:	f7 cf       	rjmp	.-18     	; 0x6afa <vfprintf+0x17c>
    6b0c:	29 2d       	mov	r18, r9
    6b0e:	bb 24       	eor	r11, r11
    6b10:	c6 01       	movw	r24, r12
    6b12:	04 96       	adiw	r24, 0x04	; 4
    6b14:	9d 87       	std	Y+13, r25	; 0x0d
    6b16:	8c 87       	std	Y+12, r24	; 0x0c
    6b18:	f6 01       	movw	r30, r12
    6b1a:	60 81       	ld	r22, Z
    6b1c:	71 81       	ldd	r23, Z+1	; 0x01
    6b1e:	82 81       	ldd	r24, Z+2	; 0x02
    6b20:	93 81       	ldd	r25, Z+3	; 0x03
    6b22:	ae 01       	movw	r20, r28
    6b24:	4f 5f       	subi	r20, 0xFF	; 255
    6b26:	5f 4f       	sbci	r21, 0xFF	; 255
    6b28:	0b 2d       	mov	r16, r11
    6b2a:	0e 94 76 3d 	call	0x7aec	; 0x7aec <__ftoa_engine>
    6b2e:	6c 01       	movw	r12, r24
    6b30:	09 81       	ldd	r16, Y+1	; 0x01
    6b32:	20 2e       	mov	r2, r16
    6b34:	33 24       	eor	r3, r3
    6b36:	00 ff       	sbrs	r16, 0
    6b38:	04 c0       	rjmp	.+8      	; 0x6b42 <vfprintf+0x1c4>
    6b3a:	03 fd       	sbrc	r16, 3
    6b3c:	02 c0       	rjmp	.+4      	; 0x6b42 <vfprintf+0x1c4>
    6b3e:	1d e2       	ldi	r17, 0x2D	; 45
    6b40:	09 c0       	rjmp	.+18     	; 0x6b54 <vfprintf+0x1d6>
    6b42:	f1 fe       	sbrs	r15, 1
    6b44:	02 c0       	rjmp	.+4      	; 0x6b4a <vfprintf+0x1cc>
    6b46:	1b e2       	ldi	r17, 0x2B	; 43
    6b48:	05 c0       	rjmp	.+10     	; 0x6b54 <vfprintf+0x1d6>
    6b4a:	f2 fc       	sbrc	r15, 2
    6b4c:	02 c0       	rjmp	.+4      	; 0x6b52 <vfprintf+0x1d4>
    6b4e:	10 e0       	ldi	r17, 0x00	; 0
    6b50:	01 c0       	rjmp	.+2      	; 0x6b54 <vfprintf+0x1d6>
    6b52:	10 e2       	ldi	r17, 0x20	; 32
    6b54:	c1 01       	movw	r24, r2
    6b56:	8c 70       	andi	r24, 0x0C	; 12
    6b58:	90 70       	andi	r25, 0x00	; 0
    6b5a:	89 2b       	or	r24, r25
    6b5c:	b9 f1       	breq	.+110    	; 0x6bcc <vfprintf+0x24e>
    6b5e:	11 23       	and	r17, r17
    6b60:	11 f4       	brne	.+4      	; 0x6b66 <vfprintf+0x1e8>
    6b62:	83 e0       	ldi	r24, 0x03	; 3
    6b64:	01 c0       	rjmp	.+2      	; 0x6b68 <vfprintf+0x1ea>
    6b66:	84 e0       	ldi	r24, 0x04	; 4
    6b68:	88 15       	cp	r24, r8
    6b6a:	10 f0       	brcs	.+4      	; 0x6b70 <vfprintf+0x1f2>
    6b6c:	88 24       	eor	r8, r8
    6b6e:	0a c0       	rjmp	.+20     	; 0x6b84 <vfprintf+0x206>
    6b70:	88 1a       	sub	r8, r24
    6b72:	f3 fc       	sbrc	r15, 3
    6b74:	07 c0       	rjmp	.+14     	; 0x6b84 <vfprintf+0x206>
    6b76:	80 e2       	ldi	r24, 0x20	; 32
    6b78:	90 e0       	ldi	r25, 0x00	; 0
    6b7a:	b3 01       	movw	r22, r6
    6b7c:	0e 94 d0 3e 	call	0x7da0	; 0x7da0 <fputc>
    6b80:	8a 94       	dec	r8
    6b82:	c9 f7       	brne	.-14     	; 0x6b76 <vfprintf+0x1f8>
    6b84:	11 23       	and	r17, r17
    6b86:	29 f0       	breq	.+10     	; 0x6b92 <vfprintf+0x214>
    6b88:	81 2f       	mov	r24, r17
    6b8a:	90 e0       	ldi	r25, 0x00	; 0
    6b8c:	b3 01       	movw	r22, r6
    6b8e:	0e 94 d0 3e 	call	0x7da0	; 0x7da0 <fputc>
    6b92:	23 fe       	sbrs	r2, 3
    6b94:	03 c0       	rjmp	.+6      	; 0x6b9c <vfprintf+0x21e>
    6b96:	01 ec       	ldi	r16, 0xC1	; 193
    6b98:	11 e0       	ldi	r17, 0x01	; 1
    6b9a:	0e c0       	rjmp	.+28     	; 0x6bb8 <vfprintf+0x23a>
    6b9c:	05 ec       	ldi	r16, 0xC5	; 197
    6b9e:	11 e0       	ldi	r17, 0x01	; 1
    6ba0:	0b c0       	rjmp	.+22     	; 0x6bb8 <vfprintf+0x23a>
    6ba2:	e1 14       	cp	r14, r1
    6ba4:	f1 04       	cpc	r15, r1
    6ba6:	09 f0       	breq	.+2      	; 0x6baa <vfprintf+0x22c>
    6ba8:	80 52       	subi	r24, 0x20	; 32
    6baa:	90 e0       	ldi	r25, 0x00	; 0
    6bac:	b3 01       	movw	r22, r6
    6bae:	0e 94 d0 3e 	call	0x7da0	; 0x7da0 <fputc>
    6bb2:	0f 5f       	subi	r16, 0xFF	; 255
    6bb4:	1f 4f       	sbci	r17, 0xFF	; 255
    6bb6:	05 c0       	rjmp	.+10     	; 0x6bc2 <vfprintf+0x244>
    6bb8:	ef 2c       	mov	r14, r15
    6bba:	ff 24       	eor	r15, r15
    6bbc:	f0 e1       	ldi	r31, 0x10	; 16
    6bbe:	ef 22       	and	r14, r31
    6bc0:	ff 24       	eor	r15, r15
    6bc2:	f8 01       	movw	r30, r16
    6bc4:	84 91       	lpm	r24, Z+
    6bc6:	88 23       	and	r24, r24
    6bc8:	61 f7       	brne	.-40     	; 0x6ba2 <vfprintf+0x224>
    6bca:	14 c1       	rjmp	.+552    	; 0x6df4 <vfprintf+0x476>
    6bcc:	f7 fe       	sbrs	r15, 7
    6bce:	12 c0       	rjmp	.+36     	; 0x6bf4 <vfprintf+0x276>
    6bd0:	bc 0c       	add	r11, r12
    6bd2:	24 fe       	sbrs	r2, 4
    6bd4:	04 c0       	rjmp	.+8      	; 0x6bde <vfprintf+0x260>
    6bd6:	8a 81       	ldd	r24, Y+2	; 0x02
    6bd8:	81 33       	cpi	r24, 0x31	; 49
    6bda:	09 f4       	brne	.+2      	; 0x6bde <vfprintf+0x260>
    6bdc:	ba 94       	dec	r11
    6bde:	1b 14       	cp	r1, r11
    6be0:	1c f0       	brlt	.+6      	; 0x6be8 <vfprintf+0x26a>
    6be2:	bb 24       	eor	r11, r11
    6be4:	b3 94       	inc	r11
    6be6:	2d c0       	rjmp	.+90     	; 0x6c42 <vfprintf+0x2c4>
    6be8:	f8 e0       	ldi	r31, 0x08	; 8
    6bea:	fb 15       	cp	r31, r11
    6bec:	50 f5       	brcc	.+84     	; 0x6c42 <vfprintf+0x2c4>
    6bee:	38 e0       	ldi	r19, 0x08	; 8
    6bf0:	b3 2e       	mov	r11, r19
    6bf2:	27 c0       	rjmp	.+78     	; 0x6c42 <vfprintf+0x2c4>
    6bf4:	f6 fc       	sbrc	r15, 6
    6bf6:	25 c0       	rjmp	.+74     	; 0x6c42 <vfprintf+0x2c4>
    6bf8:	89 2d       	mov	r24, r9
    6bfa:	90 e0       	ldi	r25, 0x00	; 0
    6bfc:	8c 15       	cp	r24, r12
    6bfe:	9d 05       	cpc	r25, r13
    6c00:	4c f0       	brlt	.+18     	; 0x6c14 <vfprintf+0x296>
    6c02:	2c ef       	ldi	r18, 0xFC	; 252
    6c04:	c2 16       	cp	r12, r18
    6c06:	2f ef       	ldi	r18, 0xFF	; 255
    6c08:	d2 06       	cpc	r13, r18
    6c0a:	24 f0       	brlt	.+8      	; 0x6c14 <vfprintf+0x296>
    6c0c:	30 e8       	ldi	r19, 0x80	; 128
    6c0e:	f3 2a       	or	r15, r19
    6c10:	01 c0       	rjmp	.+2      	; 0x6c14 <vfprintf+0x296>
    6c12:	9a 94       	dec	r9
    6c14:	99 20       	and	r9, r9
    6c16:	49 f0       	breq	.+18     	; 0x6c2a <vfprintf+0x2ac>
    6c18:	e2 e0       	ldi	r30, 0x02	; 2
    6c1a:	f0 e0       	ldi	r31, 0x00	; 0
    6c1c:	ec 0f       	add	r30, r28
    6c1e:	fd 1f       	adc	r31, r29
    6c20:	e9 0d       	add	r30, r9
    6c22:	f1 1d       	adc	r31, r1
    6c24:	80 81       	ld	r24, Z
    6c26:	80 33       	cpi	r24, 0x30	; 48
    6c28:	a1 f3       	breq	.-24     	; 0x6c12 <vfprintf+0x294>
    6c2a:	f7 fe       	sbrs	r15, 7
    6c2c:	0a c0       	rjmp	.+20     	; 0x6c42 <vfprintf+0x2c4>
    6c2e:	b9 2c       	mov	r11, r9
    6c30:	b3 94       	inc	r11
    6c32:	89 2d       	mov	r24, r9
    6c34:	90 e0       	ldi	r25, 0x00	; 0
    6c36:	c8 16       	cp	r12, r24
    6c38:	d9 06       	cpc	r13, r25
    6c3a:	14 f0       	brlt	.+4      	; 0x6c40 <vfprintf+0x2c2>
    6c3c:	99 24       	eor	r9, r9
    6c3e:	01 c0       	rjmp	.+2      	; 0x6c42 <vfprintf+0x2c4>
    6c40:	9c 18       	sub	r9, r12
    6c42:	f7 fc       	sbrc	r15, 7
    6c44:	03 c0       	rjmp	.+6      	; 0x6c4c <vfprintf+0x2ce>
    6c46:	25 e0       	ldi	r18, 0x05	; 5
    6c48:	30 e0       	ldi	r19, 0x00	; 0
    6c4a:	09 c0       	rjmp	.+18     	; 0x6c5e <vfprintf+0x2e0>
    6c4c:	1c 14       	cp	r1, r12
    6c4e:	1d 04       	cpc	r1, r13
    6c50:	1c f0       	brlt	.+6      	; 0x6c58 <vfprintf+0x2da>
    6c52:	21 e0       	ldi	r18, 0x01	; 1
    6c54:	30 e0       	ldi	r19, 0x00	; 0
    6c56:	03 c0       	rjmp	.+6      	; 0x6c5e <vfprintf+0x2e0>
    6c58:	96 01       	movw	r18, r12
    6c5a:	2f 5f       	subi	r18, 0xFF	; 255
    6c5c:	3f 4f       	sbci	r19, 0xFF	; 255
    6c5e:	11 23       	and	r17, r17
    6c60:	11 f0       	breq	.+4      	; 0x6c66 <vfprintf+0x2e8>
    6c62:	2f 5f       	subi	r18, 0xFF	; 255
    6c64:	3f 4f       	sbci	r19, 0xFF	; 255
    6c66:	99 20       	and	r9, r9
    6c68:	29 f0       	breq	.+10     	; 0x6c74 <vfprintf+0x2f6>
    6c6a:	89 2d       	mov	r24, r9
    6c6c:	90 e0       	ldi	r25, 0x00	; 0
    6c6e:	01 96       	adiw	r24, 0x01	; 1
    6c70:	28 0f       	add	r18, r24
    6c72:	39 1f       	adc	r19, r25
    6c74:	88 2d       	mov	r24, r8
    6c76:	90 e0       	ldi	r25, 0x00	; 0
    6c78:	28 17       	cp	r18, r24
    6c7a:	39 07       	cpc	r19, r25
    6c7c:	14 f0       	brlt	.+4      	; 0x6c82 <vfprintf+0x304>
    6c7e:	88 24       	eor	r8, r8
    6c80:	01 c0       	rjmp	.+2      	; 0x6c84 <vfprintf+0x306>
    6c82:	82 1a       	sub	r8, r18
    6c84:	4f 2c       	mov	r4, r15
    6c86:	55 24       	eor	r5, r5
    6c88:	c2 01       	movw	r24, r4
    6c8a:	89 70       	andi	r24, 0x09	; 9
    6c8c:	90 70       	andi	r25, 0x00	; 0
    6c8e:	89 2b       	or	r24, r25
    6c90:	39 f0       	breq	.+14     	; 0x6ca0 <vfprintf+0x322>
    6c92:	08 c0       	rjmp	.+16     	; 0x6ca4 <vfprintf+0x326>
    6c94:	80 e2       	ldi	r24, 0x20	; 32
    6c96:	90 e0       	ldi	r25, 0x00	; 0
    6c98:	b3 01       	movw	r22, r6
    6c9a:	0e 94 d0 3e 	call	0x7da0	; 0x7da0 <fputc>
    6c9e:	8a 94       	dec	r8
    6ca0:	88 20       	and	r8, r8
    6ca2:	c1 f7       	brne	.-16     	; 0x6c94 <vfprintf+0x316>
    6ca4:	11 23       	and	r17, r17
    6ca6:	29 f0       	breq	.+10     	; 0x6cb2 <vfprintf+0x334>
    6ca8:	81 2f       	mov	r24, r17
    6caa:	90 e0       	ldi	r25, 0x00	; 0
    6cac:	b3 01       	movw	r22, r6
    6cae:	0e 94 d0 3e 	call	0x7da0	; 0x7da0 <fputc>
    6cb2:	43 fe       	sbrs	r4, 3
    6cb4:	07 c0       	rjmp	.+14     	; 0x6cc4 <vfprintf+0x346>
    6cb6:	08 c0       	rjmp	.+16     	; 0x6cc8 <vfprintf+0x34a>
    6cb8:	80 e3       	ldi	r24, 0x30	; 48
    6cba:	90 e0       	ldi	r25, 0x00	; 0
    6cbc:	b3 01       	movw	r22, r6
    6cbe:	0e 94 d0 3e 	call	0x7da0	; 0x7da0 <fputc>
    6cc2:	8a 94       	dec	r8
    6cc4:	88 20       	and	r8, r8
    6cc6:	c1 f7       	brne	.-16     	; 0x6cb8 <vfprintf+0x33a>
    6cc8:	f7 fe       	sbrs	r15, 7
    6cca:	46 c0       	rjmp	.+140    	; 0x6d58 <vfprintf+0x3da>
    6ccc:	86 01       	movw	r16, r12
    6cce:	d7 fe       	sbrs	r13, 7
    6cd0:	02 c0       	rjmp	.+4      	; 0x6cd6 <vfprintf+0x358>
    6cd2:	00 e0       	ldi	r16, 0x00	; 0
    6cd4:	10 e0       	ldi	r17, 0x00	; 0
    6cd6:	76 01       	movw	r14, r12
    6cd8:	08 94       	sec
    6cda:	e1 1c       	adc	r14, r1
    6cdc:	f1 1c       	adc	r15, r1
    6cde:	e0 1a       	sub	r14, r16
    6ce0:	f1 0a       	sbc	r15, r17
    6ce2:	41 e0       	ldi	r20, 0x01	; 1
    6ce4:	50 e0       	ldi	r21, 0x00	; 0
    6ce6:	4c 0f       	add	r20, r28
    6ce8:	5d 1f       	adc	r21, r29
    6cea:	e4 0e       	add	r14, r20
    6cec:	f5 1e       	adc	r15, r21
    6cee:	26 01       	movw	r4, r12
    6cf0:	4b 18       	sub	r4, r11
    6cf2:	51 08       	sbc	r5, r1
    6cf4:	89 2d       	mov	r24, r9
    6cf6:	90 e0       	ldi	r25, 0x00	; 0
    6cf8:	aa 24       	eor	r10, r10
    6cfa:	bb 24       	eor	r11, r11
    6cfc:	a8 1a       	sub	r10, r24
    6cfe:	b9 0a       	sbc	r11, r25
    6d00:	5f ef       	ldi	r21, 0xFF	; 255
    6d02:	0f 3f       	cpi	r16, 0xFF	; 255
    6d04:	15 07       	cpc	r17, r21
    6d06:	29 f4       	brne	.+10     	; 0x6d12 <vfprintf+0x394>
    6d08:	8e e2       	ldi	r24, 0x2E	; 46
    6d0a:	90 e0       	ldi	r25, 0x00	; 0
    6d0c:	b3 01       	movw	r22, r6
    6d0e:	0e 94 d0 3e 	call	0x7da0	; 0x7da0 <fputc>
    6d12:	c0 16       	cp	r12, r16
    6d14:	d1 06       	cpc	r13, r17
    6d16:	34 f0       	brlt	.+12     	; 0x6d24 <vfprintf+0x3a6>
    6d18:	40 16       	cp	r4, r16
    6d1a:	51 06       	cpc	r5, r17
    6d1c:	1c f4       	brge	.+6      	; 0x6d24 <vfprintf+0x3a6>
    6d1e:	f7 01       	movw	r30, r14
    6d20:	80 81       	ld	r24, Z
    6d22:	01 c0       	rjmp	.+2      	; 0x6d26 <vfprintf+0x3a8>
    6d24:	80 e3       	ldi	r24, 0x30	; 48
    6d26:	01 50       	subi	r16, 0x01	; 1
    6d28:	10 40       	sbci	r17, 0x00	; 0
    6d2a:	08 94       	sec
    6d2c:	e1 1c       	adc	r14, r1
    6d2e:	f1 1c       	adc	r15, r1
    6d30:	0a 15       	cp	r16, r10
    6d32:	1b 05       	cpc	r17, r11
    6d34:	2c f0       	brlt	.+10     	; 0x6d40 <vfprintf+0x3c2>
    6d36:	90 e0       	ldi	r25, 0x00	; 0
    6d38:	b3 01       	movw	r22, r6
    6d3a:	0e 94 d0 3e 	call	0x7da0	; 0x7da0 <fputc>
    6d3e:	e0 cf       	rjmp	.-64     	; 0x6d00 <vfprintf+0x382>
    6d40:	0c 15       	cp	r16, r12
    6d42:	1d 05       	cpc	r17, r13
    6d44:	39 f4       	brne	.+14     	; 0x6d54 <vfprintf+0x3d6>
    6d46:	9a 81       	ldd	r25, Y+2	; 0x02
    6d48:	96 33       	cpi	r25, 0x36	; 54
    6d4a:	18 f4       	brcc	.+6      	; 0x6d52 <vfprintf+0x3d4>
    6d4c:	95 33       	cpi	r25, 0x35	; 53
    6d4e:	11 f4       	brne	.+4      	; 0x6d54 <vfprintf+0x3d6>
    6d50:	24 fe       	sbrs	r2, 4
    6d52:	81 e3       	ldi	r24, 0x31	; 49
    6d54:	90 e0       	ldi	r25, 0x00	; 0
    6d56:	4b c0       	rjmp	.+150    	; 0x6dee <vfprintf+0x470>
    6d58:	8a 81       	ldd	r24, Y+2	; 0x02
    6d5a:	81 33       	cpi	r24, 0x31	; 49
    6d5c:	09 f0       	breq	.+2      	; 0x6d60 <vfprintf+0x3e2>
    6d5e:	0f 7e       	andi	r16, 0xEF	; 239
    6d60:	90 e0       	ldi	r25, 0x00	; 0
    6d62:	b3 01       	movw	r22, r6
    6d64:	0e 94 d0 3e 	call	0x7da0	; 0x7da0 <fputc>
    6d68:	99 20       	and	r9, r9
    6d6a:	a1 f0       	breq	.+40     	; 0x6d94 <vfprintf+0x416>
    6d6c:	8e e2       	ldi	r24, 0x2E	; 46
    6d6e:	90 e0       	ldi	r25, 0x00	; 0
    6d70:	b3 01       	movw	r22, r6
    6d72:	0e 94 d0 3e 	call	0x7da0	; 0x7da0 <fputc>
    6d76:	12 e0       	ldi	r17, 0x02	; 2
    6d78:	e1 e0       	ldi	r30, 0x01	; 1
    6d7a:	f0 e0       	ldi	r31, 0x00	; 0
    6d7c:	ec 0f       	add	r30, r28
    6d7e:	fd 1f       	adc	r31, r29
    6d80:	e1 0f       	add	r30, r17
    6d82:	f1 1d       	adc	r31, r1
    6d84:	1f 5f       	subi	r17, 0xFF	; 255
    6d86:	80 81       	ld	r24, Z
    6d88:	90 e0       	ldi	r25, 0x00	; 0
    6d8a:	b3 01       	movw	r22, r6
    6d8c:	0e 94 d0 3e 	call	0x7da0	; 0x7da0 <fputc>
    6d90:	9a 94       	dec	r9
    6d92:	91 f7       	brne	.-28     	; 0x6d78 <vfprintf+0x3fa>
    6d94:	44 fc       	sbrc	r4, 4
    6d96:	03 c0       	rjmp	.+6      	; 0x6d9e <vfprintf+0x420>
    6d98:	85 e6       	ldi	r24, 0x65	; 101
    6d9a:	90 e0       	ldi	r25, 0x00	; 0
    6d9c:	02 c0       	rjmp	.+4      	; 0x6da2 <vfprintf+0x424>
    6d9e:	85 e4       	ldi	r24, 0x45	; 69
    6da0:	90 e0       	ldi	r25, 0x00	; 0
    6da2:	b3 01       	movw	r22, r6
    6da4:	0e 94 d0 3e 	call	0x7da0	; 0x7da0 <fputc>
    6da8:	d7 fc       	sbrc	r13, 7
    6daa:	05 c0       	rjmp	.+10     	; 0x6db6 <vfprintf+0x438>
    6dac:	c1 14       	cp	r12, r1
    6dae:	d1 04       	cpc	r13, r1
    6db0:	41 f4       	brne	.+16     	; 0x6dc2 <vfprintf+0x444>
    6db2:	04 ff       	sbrs	r16, 4
    6db4:	06 c0       	rjmp	.+12     	; 0x6dc2 <vfprintf+0x444>
    6db6:	d0 94       	com	r13
    6db8:	c1 94       	neg	r12
    6dba:	d1 08       	sbc	r13, r1
    6dbc:	d3 94       	inc	r13
    6dbe:	8d e2       	ldi	r24, 0x2D	; 45
    6dc0:	01 c0       	rjmp	.+2      	; 0x6dc4 <vfprintf+0x446>
    6dc2:	8b e2       	ldi	r24, 0x2B	; 43
    6dc4:	90 e0       	ldi	r25, 0x00	; 0
    6dc6:	b3 01       	movw	r22, r6
    6dc8:	0e 94 d0 3e 	call	0x7da0	; 0x7da0 <fputc>
    6dcc:	80 e3       	ldi	r24, 0x30	; 48
    6dce:	05 c0       	rjmp	.+10     	; 0x6dda <vfprintf+0x45c>
    6dd0:	8f 5f       	subi	r24, 0xFF	; 255
    6dd2:	26 ef       	ldi	r18, 0xF6	; 246
    6dd4:	3f ef       	ldi	r19, 0xFF	; 255
    6dd6:	c2 0e       	add	r12, r18
    6dd8:	d3 1e       	adc	r13, r19
    6dda:	3a e0       	ldi	r19, 0x0A	; 10
    6ddc:	c3 16       	cp	r12, r19
    6dde:	d1 04       	cpc	r13, r1
    6de0:	bc f7       	brge	.-18     	; 0x6dd0 <vfprintf+0x452>
    6de2:	90 e0       	ldi	r25, 0x00	; 0
    6de4:	b3 01       	movw	r22, r6
    6de6:	0e 94 d0 3e 	call	0x7da0	; 0x7da0 <fputc>
    6dea:	c6 01       	movw	r24, r12
    6dec:	c0 96       	adiw	r24, 0x30	; 48
    6dee:	b3 01       	movw	r22, r6
    6df0:	0e 94 d0 3e 	call	0x7da0	; 0x7da0 <fputc>
    6df4:	cc 84       	ldd	r12, Y+12	; 0x0c
    6df6:	dd 84       	ldd	r13, Y+13	; 0x0d
    6df8:	52 c1       	rjmp	.+676    	; 0x709e <vfprintf+0x720>
    6dfa:	93 36       	cpi	r25, 0x63	; 99
    6dfc:	31 f0       	breq	.+12     	; 0x6e0a <vfprintf+0x48c>
    6dfe:	93 37       	cpi	r25, 0x73	; 115
    6e00:	99 f0       	breq	.+38     	; 0x6e28 <vfprintf+0x4aa>
    6e02:	93 35       	cpi	r25, 0x53	; 83
    6e04:	09 f0       	breq	.+2      	; 0x6e08 <vfprintf+0x48a>
    6e06:	59 c0       	rjmp	.+178    	; 0x6eba <vfprintf+0x53c>
    6e08:	23 c0       	rjmp	.+70     	; 0x6e50 <vfprintf+0x4d2>
    6e0a:	f6 01       	movw	r30, r12
    6e0c:	80 81       	ld	r24, Z
    6e0e:	89 83       	std	Y+1, r24	; 0x01
    6e10:	5e 01       	movw	r10, r28
    6e12:	08 94       	sec
    6e14:	a1 1c       	adc	r10, r1
    6e16:	b1 1c       	adc	r11, r1
    6e18:	22 e0       	ldi	r18, 0x02	; 2
    6e1a:	30 e0       	ldi	r19, 0x00	; 0
    6e1c:	c2 0e       	add	r12, r18
    6e1e:	d3 1e       	adc	r13, r19
    6e20:	21 e0       	ldi	r18, 0x01	; 1
    6e22:	e2 2e       	mov	r14, r18
    6e24:	f1 2c       	mov	r15, r1
    6e26:	12 c0       	rjmp	.+36     	; 0x6e4c <vfprintf+0x4ce>
    6e28:	f6 01       	movw	r30, r12
    6e2a:	a0 80       	ld	r10, Z
    6e2c:	b1 80       	ldd	r11, Z+1	; 0x01
    6e2e:	16 fd       	sbrc	r17, 6
    6e30:	03 c0       	rjmp	.+6      	; 0x6e38 <vfprintf+0x4ba>
    6e32:	6f ef       	ldi	r22, 0xFF	; 255
    6e34:	7f ef       	ldi	r23, 0xFF	; 255
    6e36:	02 c0       	rjmp	.+4      	; 0x6e3c <vfprintf+0x4be>
    6e38:	69 2d       	mov	r22, r9
    6e3a:	70 e0       	ldi	r23, 0x00	; 0
    6e3c:	22 e0       	ldi	r18, 0x02	; 2
    6e3e:	30 e0       	ldi	r19, 0x00	; 0
    6e40:	c2 0e       	add	r12, r18
    6e42:	d3 1e       	adc	r13, r19
    6e44:	c5 01       	movw	r24, r10
    6e46:	0e 94 79 3e 	call	0x7cf2	; 0x7cf2 <strnlen>
    6e4a:	7c 01       	movw	r14, r24
    6e4c:	1f 77       	andi	r17, 0x7F	; 127
    6e4e:	13 c0       	rjmp	.+38     	; 0x6e76 <vfprintf+0x4f8>
    6e50:	f6 01       	movw	r30, r12
    6e52:	a0 80       	ld	r10, Z
    6e54:	b1 80       	ldd	r11, Z+1	; 0x01
    6e56:	16 fd       	sbrc	r17, 6
    6e58:	03 c0       	rjmp	.+6      	; 0x6e60 <vfprintf+0x4e2>
    6e5a:	6f ef       	ldi	r22, 0xFF	; 255
    6e5c:	7f ef       	ldi	r23, 0xFF	; 255
    6e5e:	02 c0       	rjmp	.+4      	; 0x6e64 <vfprintf+0x4e6>
    6e60:	69 2d       	mov	r22, r9
    6e62:	70 e0       	ldi	r23, 0x00	; 0
    6e64:	22 e0       	ldi	r18, 0x02	; 2
    6e66:	30 e0       	ldi	r19, 0x00	; 0
    6e68:	c2 0e       	add	r12, r18
    6e6a:	d3 1e       	adc	r13, r19
    6e6c:	c5 01       	movw	r24, r10
    6e6e:	0e 94 6e 3e 	call	0x7cdc	; 0x7cdc <strnlen_P>
    6e72:	7c 01       	movw	r14, r24
    6e74:	10 68       	ori	r17, 0x80	; 128
    6e76:	13 ff       	sbrs	r17, 3
    6e78:	07 c0       	rjmp	.+14     	; 0x6e88 <vfprintf+0x50a>
    6e7a:	1b c0       	rjmp	.+54     	; 0x6eb2 <vfprintf+0x534>
    6e7c:	80 e2       	ldi	r24, 0x20	; 32
    6e7e:	90 e0       	ldi	r25, 0x00	; 0
    6e80:	b3 01       	movw	r22, r6
    6e82:	0e 94 d0 3e 	call	0x7da0	; 0x7da0 <fputc>
    6e86:	8a 94       	dec	r8
    6e88:	88 2d       	mov	r24, r8
    6e8a:	90 e0       	ldi	r25, 0x00	; 0
    6e8c:	e8 16       	cp	r14, r24
    6e8e:	f9 06       	cpc	r15, r25
    6e90:	a8 f3       	brcs	.-22     	; 0x6e7c <vfprintf+0x4fe>
    6e92:	0f c0       	rjmp	.+30     	; 0x6eb2 <vfprintf+0x534>
    6e94:	f5 01       	movw	r30, r10
    6e96:	17 fd       	sbrc	r17, 7
    6e98:	85 91       	lpm	r24, Z+
    6e9a:	17 ff       	sbrs	r17, 7
    6e9c:	81 91       	ld	r24, Z+
    6e9e:	5f 01       	movw	r10, r30
    6ea0:	90 e0       	ldi	r25, 0x00	; 0
    6ea2:	b3 01       	movw	r22, r6
    6ea4:	0e 94 d0 3e 	call	0x7da0	; 0x7da0 <fputc>
    6ea8:	81 10       	cpse	r8, r1
    6eaa:	8a 94       	dec	r8
    6eac:	08 94       	sec
    6eae:	e1 08       	sbc	r14, r1
    6eb0:	f1 08       	sbc	r15, r1
    6eb2:	e1 14       	cp	r14, r1
    6eb4:	f1 04       	cpc	r15, r1
    6eb6:	71 f7       	brne	.-36     	; 0x6e94 <vfprintf+0x516>
    6eb8:	f2 c0       	rjmp	.+484    	; 0x709e <vfprintf+0x720>
    6eba:	94 36       	cpi	r25, 0x64	; 100
    6ebc:	11 f0       	breq	.+4      	; 0x6ec2 <vfprintf+0x544>
    6ebe:	99 36       	cpi	r25, 0x69	; 105
    6ec0:	89 f5       	brne	.+98     	; 0x6f24 <vfprintf+0x5a6>
    6ec2:	17 ff       	sbrs	r17, 7
    6ec4:	08 c0       	rjmp	.+16     	; 0x6ed6 <vfprintf+0x558>
    6ec6:	f6 01       	movw	r30, r12
    6ec8:	20 81       	ld	r18, Z
    6eca:	31 81       	ldd	r19, Z+1	; 0x01
    6ecc:	42 81       	ldd	r20, Z+2	; 0x02
    6ece:	53 81       	ldd	r21, Z+3	; 0x03
    6ed0:	84 e0       	ldi	r24, 0x04	; 4
    6ed2:	90 e0       	ldi	r25, 0x00	; 0
    6ed4:	0a c0       	rjmp	.+20     	; 0x6eea <vfprintf+0x56c>
    6ed6:	f6 01       	movw	r30, r12
    6ed8:	80 81       	ld	r24, Z
    6eda:	91 81       	ldd	r25, Z+1	; 0x01
    6edc:	9c 01       	movw	r18, r24
    6ede:	44 27       	eor	r20, r20
    6ee0:	37 fd       	sbrc	r19, 7
    6ee2:	40 95       	com	r20
    6ee4:	54 2f       	mov	r21, r20
    6ee6:	82 e0       	ldi	r24, 0x02	; 2
    6ee8:	90 e0       	ldi	r25, 0x00	; 0
    6eea:	c8 0e       	add	r12, r24
    6eec:	d9 1e       	adc	r13, r25
    6eee:	9f e6       	ldi	r25, 0x6F	; 111
    6ef0:	f9 2e       	mov	r15, r25
    6ef2:	f1 22       	and	r15, r17
    6ef4:	57 ff       	sbrs	r21, 7
    6ef6:	09 c0       	rjmp	.+18     	; 0x6f0a <vfprintf+0x58c>
    6ef8:	50 95       	com	r21
    6efa:	40 95       	com	r20
    6efc:	30 95       	com	r19
    6efe:	21 95       	neg	r18
    6f00:	3f 4f       	sbci	r19, 0xFF	; 255
    6f02:	4f 4f       	sbci	r20, 0xFF	; 255
    6f04:	5f 4f       	sbci	r21, 0xFF	; 255
    6f06:	90 e8       	ldi	r25, 0x80	; 128
    6f08:	f9 2a       	or	r15, r25
    6f0a:	ca 01       	movw	r24, r20
    6f0c:	b9 01       	movw	r22, r18
    6f0e:	ae 01       	movw	r20, r28
    6f10:	4f 5f       	subi	r20, 0xFF	; 255
    6f12:	5f 4f       	sbci	r21, 0xFF	; 255
    6f14:	2a e0       	ldi	r18, 0x0A	; 10
    6f16:	30 e0       	ldi	r19, 0x00	; 0
    6f18:	0e 94 43 3f 	call	0x7e86	; 0x7e86 <__ultoa_invert>
    6f1c:	e8 2e       	mov	r14, r24
    6f1e:	e8 89       	ldd	r30, Y+16	; 0x10
    6f20:	ee 1a       	sub	r14, r30
    6f22:	41 c0       	rjmp	.+130    	; 0x6fa6 <vfprintf+0x628>
    6f24:	95 37       	cpi	r25, 0x75	; 117
    6f26:	21 f4       	brne	.+8      	; 0x6f30 <vfprintf+0x5b2>
    6f28:	1f 7e       	andi	r17, 0xEF	; 239
    6f2a:	2a e0       	ldi	r18, 0x0A	; 10
    6f2c:	30 e0       	ldi	r19, 0x00	; 0
    6f2e:	1c c0       	rjmp	.+56     	; 0x6f68 <vfprintf+0x5ea>
    6f30:	19 7f       	andi	r17, 0xF9	; 249
    6f32:	9f 36       	cpi	r25, 0x6F	; 111
    6f34:	61 f0       	breq	.+24     	; 0x6f4e <vfprintf+0x5d0>
    6f36:	90 37       	cpi	r25, 0x70	; 112
    6f38:	20 f4       	brcc	.+8      	; 0x6f42 <vfprintf+0x5c4>
    6f3a:	98 35       	cpi	r25, 0x58	; 88
    6f3c:	09 f0       	breq	.+2      	; 0x6f40 <vfprintf+0x5c2>
    6f3e:	b2 c0       	rjmp	.+356    	; 0x70a4 <vfprintf+0x726>
    6f40:	0f c0       	rjmp	.+30     	; 0x6f60 <vfprintf+0x5e2>
    6f42:	90 37       	cpi	r25, 0x70	; 112
    6f44:	39 f0       	breq	.+14     	; 0x6f54 <vfprintf+0x5d6>
    6f46:	98 37       	cpi	r25, 0x78	; 120
    6f48:	09 f0       	breq	.+2      	; 0x6f4c <vfprintf+0x5ce>
    6f4a:	ac c0       	rjmp	.+344    	; 0x70a4 <vfprintf+0x726>
    6f4c:	04 c0       	rjmp	.+8      	; 0x6f56 <vfprintf+0x5d8>
    6f4e:	28 e0       	ldi	r18, 0x08	; 8
    6f50:	30 e0       	ldi	r19, 0x00	; 0
    6f52:	0a c0       	rjmp	.+20     	; 0x6f68 <vfprintf+0x5ea>
    6f54:	10 61       	ori	r17, 0x10	; 16
    6f56:	14 fd       	sbrc	r17, 4
    6f58:	14 60       	ori	r17, 0x04	; 4
    6f5a:	20 e1       	ldi	r18, 0x10	; 16
    6f5c:	30 e0       	ldi	r19, 0x00	; 0
    6f5e:	04 c0       	rjmp	.+8      	; 0x6f68 <vfprintf+0x5ea>
    6f60:	14 fd       	sbrc	r17, 4
    6f62:	16 60       	ori	r17, 0x06	; 6
    6f64:	20 e1       	ldi	r18, 0x10	; 16
    6f66:	32 e0       	ldi	r19, 0x02	; 2
    6f68:	17 ff       	sbrs	r17, 7
    6f6a:	08 c0       	rjmp	.+16     	; 0x6f7c <vfprintf+0x5fe>
    6f6c:	f6 01       	movw	r30, r12
    6f6e:	60 81       	ld	r22, Z
    6f70:	71 81       	ldd	r23, Z+1	; 0x01
    6f72:	82 81       	ldd	r24, Z+2	; 0x02
    6f74:	93 81       	ldd	r25, Z+3	; 0x03
    6f76:	44 e0       	ldi	r20, 0x04	; 4
    6f78:	50 e0       	ldi	r21, 0x00	; 0
    6f7a:	08 c0       	rjmp	.+16     	; 0x6f8c <vfprintf+0x60e>
    6f7c:	f6 01       	movw	r30, r12
    6f7e:	80 81       	ld	r24, Z
    6f80:	91 81       	ldd	r25, Z+1	; 0x01
    6f82:	bc 01       	movw	r22, r24
    6f84:	80 e0       	ldi	r24, 0x00	; 0
    6f86:	90 e0       	ldi	r25, 0x00	; 0
    6f88:	42 e0       	ldi	r20, 0x02	; 2
    6f8a:	50 e0       	ldi	r21, 0x00	; 0
    6f8c:	c4 0e       	add	r12, r20
    6f8e:	d5 1e       	adc	r13, r21
    6f90:	ae 01       	movw	r20, r28
    6f92:	4f 5f       	subi	r20, 0xFF	; 255
    6f94:	5f 4f       	sbci	r21, 0xFF	; 255
    6f96:	0e 94 43 3f 	call	0x7e86	; 0x7e86 <__ultoa_invert>
    6f9a:	e8 2e       	mov	r14, r24
    6f9c:	58 89       	ldd	r21, Y+16	; 0x10
    6f9e:	e5 1a       	sub	r14, r21
    6fa0:	8f e7       	ldi	r24, 0x7F	; 127
    6fa2:	f8 2e       	mov	r15, r24
    6fa4:	f1 22       	and	r15, r17
    6fa6:	f6 fe       	sbrs	r15, 6
    6fa8:	0b c0       	rjmp	.+22     	; 0x6fc0 <vfprintf+0x642>
    6faa:	8e ef       	ldi	r24, 0xFE	; 254
    6fac:	f8 22       	and	r15, r24
    6fae:	e9 14       	cp	r14, r9
    6fb0:	38 f4       	brcc	.+14     	; 0x6fc0 <vfprintf+0x642>
    6fb2:	f4 fe       	sbrs	r15, 4
    6fb4:	07 c0       	rjmp	.+14     	; 0x6fc4 <vfprintf+0x646>
    6fb6:	f2 fc       	sbrc	r15, 2
    6fb8:	05 c0       	rjmp	.+10     	; 0x6fc4 <vfprintf+0x646>
    6fba:	9f ee       	ldi	r25, 0xEF	; 239
    6fbc:	f9 22       	and	r15, r25
    6fbe:	02 c0       	rjmp	.+4      	; 0x6fc4 <vfprintf+0x646>
    6fc0:	1e 2d       	mov	r17, r14
    6fc2:	01 c0       	rjmp	.+2      	; 0x6fc6 <vfprintf+0x648>
    6fc4:	19 2d       	mov	r17, r9
    6fc6:	f4 fe       	sbrs	r15, 4
    6fc8:	0d c0       	rjmp	.+26     	; 0x6fe4 <vfprintf+0x666>
    6fca:	fe 01       	movw	r30, r28
    6fcc:	ee 0d       	add	r30, r14
    6fce:	f1 1d       	adc	r31, r1
    6fd0:	80 81       	ld	r24, Z
    6fd2:	80 33       	cpi	r24, 0x30	; 48
    6fd4:	19 f4       	brne	.+6      	; 0x6fdc <vfprintf+0x65e>
    6fd6:	e9 ee       	ldi	r30, 0xE9	; 233
    6fd8:	fe 22       	and	r15, r30
    6fda:	08 c0       	rjmp	.+16     	; 0x6fec <vfprintf+0x66e>
    6fdc:	1f 5f       	subi	r17, 0xFF	; 255
    6fde:	f2 fe       	sbrs	r15, 2
    6fe0:	05 c0       	rjmp	.+10     	; 0x6fec <vfprintf+0x66e>
    6fe2:	03 c0       	rjmp	.+6      	; 0x6fea <vfprintf+0x66c>
    6fe4:	8f 2d       	mov	r24, r15
    6fe6:	86 78       	andi	r24, 0x86	; 134
    6fe8:	09 f0       	breq	.+2      	; 0x6fec <vfprintf+0x66e>
    6fea:	1f 5f       	subi	r17, 0xFF	; 255
    6fec:	0f 2d       	mov	r16, r15
    6fee:	f3 fc       	sbrc	r15, 3
    6ff0:	14 c0       	rjmp	.+40     	; 0x701a <vfprintf+0x69c>
    6ff2:	f0 fe       	sbrs	r15, 0
    6ff4:	0f c0       	rjmp	.+30     	; 0x7014 <vfprintf+0x696>
    6ff6:	18 15       	cp	r17, r8
    6ff8:	10 f0       	brcs	.+4      	; 0x6ffe <vfprintf+0x680>
    6ffa:	9e 2c       	mov	r9, r14
    6ffc:	0b c0       	rjmp	.+22     	; 0x7014 <vfprintf+0x696>
    6ffe:	9e 2c       	mov	r9, r14
    7000:	98 0c       	add	r9, r8
    7002:	91 1a       	sub	r9, r17
    7004:	18 2d       	mov	r17, r8
    7006:	06 c0       	rjmp	.+12     	; 0x7014 <vfprintf+0x696>
    7008:	80 e2       	ldi	r24, 0x20	; 32
    700a:	90 e0       	ldi	r25, 0x00	; 0
    700c:	b3 01       	movw	r22, r6
    700e:	0e 94 d0 3e 	call	0x7da0	; 0x7da0 <fputc>
    7012:	1f 5f       	subi	r17, 0xFF	; 255
    7014:	18 15       	cp	r17, r8
    7016:	c0 f3       	brcs	.-16     	; 0x7008 <vfprintf+0x68a>
    7018:	04 c0       	rjmp	.+8      	; 0x7022 <vfprintf+0x6a4>
    701a:	18 15       	cp	r17, r8
    701c:	10 f4       	brcc	.+4      	; 0x7022 <vfprintf+0x6a4>
    701e:	81 1a       	sub	r8, r17
    7020:	01 c0       	rjmp	.+2      	; 0x7024 <vfprintf+0x6a6>
    7022:	88 24       	eor	r8, r8
    7024:	04 ff       	sbrs	r16, 4
    7026:	0f c0       	rjmp	.+30     	; 0x7046 <vfprintf+0x6c8>
    7028:	80 e3       	ldi	r24, 0x30	; 48
    702a:	90 e0       	ldi	r25, 0x00	; 0
    702c:	b3 01       	movw	r22, r6
    702e:	0e 94 d0 3e 	call	0x7da0	; 0x7da0 <fputc>
    7032:	02 ff       	sbrs	r16, 2
    7034:	1d c0       	rjmp	.+58     	; 0x7070 <vfprintf+0x6f2>
    7036:	01 fd       	sbrc	r16, 1
    7038:	03 c0       	rjmp	.+6      	; 0x7040 <vfprintf+0x6c2>
    703a:	88 e7       	ldi	r24, 0x78	; 120
    703c:	90 e0       	ldi	r25, 0x00	; 0
    703e:	0e c0       	rjmp	.+28     	; 0x705c <vfprintf+0x6de>
    7040:	88 e5       	ldi	r24, 0x58	; 88
    7042:	90 e0       	ldi	r25, 0x00	; 0
    7044:	0b c0       	rjmp	.+22     	; 0x705c <vfprintf+0x6de>
    7046:	80 2f       	mov	r24, r16
    7048:	86 78       	andi	r24, 0x86	; 134
    704a:	91 f0       	breq	.+36     	; 0x7070 <vfprintf+0x6f2>
    704c:	01 ff       	sbrs	r16, 1
    704e:	02 c0       	rjmp	.+4      	; 0x7054 <vfprintf+0x6d6>
    7050:	8b e2       	ldi	r24, 0x2B	; 43
    7052:	01 c0       	rjmp	.+2      	; 0x7056 <vfprintf+0x6d8>
    7054:	80 e2       	ldi	r24, 0x20	; 32
    7056:	f7 fc       	sbrc	r15, 7
    7058:	8d e2       	ldi	r24, 0x2D	; 45
    705a:	90 e0       	ldi	r25, 0x00	; 0
    705c:	b3 01       	movw	r22, r6
    705e:	0e 94 d0 3e 	call	0x7da0	; 0x7da0 <fputc>
    7062:	06 c0       	rjmp	.+12     	; 0x7070 <vfprintf+0x6f2>
    7064:	80 e3       	ldi	r24, 0x30	; 48
    7066:	90 e0       	ldi	r25, 0x00	; 0
    7068:	b3 01       	movw	r22, r6
    706a:	0e 94 d0 3e 	call	0x7da0	; 0x7da0 <fputc>
    706e:	9a 94       	dec	r9
    7070:	e9 14       	cp	r14, r9
    7072:	c0 f3       	brcs	.-16     	; 0x7064 <vfprintf+0x6e6>
    7074:	ea 94       	dec	r14
    7076:	e1 e0       	ldi	r30, 0x01	; 1
    7078:	f0 e0       	ldi	r31, 0x00	; 0
    707a:	ec 0f       	add	r30, r28
    707c:	fd 1f       	adc	r31, r29
    707e:	ee 0d       	add	r30, r14
    7080:	f1 1d       	adc	r31, r1
    7082:	80 81       	ld	r24, Z
    7084:	90 e0       	ldi	r25, 0x00	; 0
    7086:	b3 01       	movw	r22, r6
    7088:	0e 94 d0 3e 	call	0x7da0	; 0x7da0 <fputc>
    708c:	ee 20       	and	r14, r14
    708e:	91 f7       	brne	.-28     	; 0x7074 <vfprintf+0x6f6>
    7090:	06 c0       	rjmp	.+12     	; 0x709e <vfprintf+0x720>
    7092:	80 e2       	ldi	r24, 0x20	; 32
    7094:	90 e0       	ldi	r25, 0x00	; 0
    7096:	b3 01       	movw	r22, r6
    7098:	0e 94 d0 3e 	call	0x7da0	; 0x7da0 <fputc>
    709c:	8a 94       	dec	r8
    709e:	88 20       	and	r8, r8
    70a0:	c1 f7       	brne	.-16     	; 0x7092 <vfprintf+0x714>
    70a2:	99 cc       	rjmp	.-1742   	; 0x69d6 <vfprintf+0x58>
    70a4:	f3 01       	movw	r30, r6
    70a6:	66 81       	ldd	r22, Z+6	; 0x06
    70a8:	77 81       	ldd	r23, Z+7	; 0x07
    70aa:	cb 01       	movw	r24, r22
    70ac:	61 96       	adiw	r28, 0x11	; 17
    70ae:	0f b6       	in	r0, 0x3f	; 63
    70b0:	f8 94       	cli
    70b2:	de bf       	out	0x3e, r29	; 62
    70b4:	0f be       	out	0x3f, r0	; 63
    70b6:	cd bf       	out	0x3d, r28	; 61
    70b8:	cf 91       	pop	r28
    70ba:	df 91       	pop	r29
    70bc:	1f 91       	pop	r17
    70be:	0f 91       	pop	r16
    70c0:	ff 90       	pop	r15
    70c2:	ef 90       	pop	r14
    70c4:	df 90       	pop	r13
    70c6:	cf 90       	pop	r12
    70c8:	bf 90       	pop	r11
    70ca:	af 90       	pop	r10
    70cc:	9f 90       	pop	r9
    70ce:	8f 90       	pop	r8
    70d0:	7f 90       	pop	r7
    70d2:	6f 90       	pop	r6
    70d4:	5f 90       	pop	r5
    70d6:	4f 90       	pop	r4
    70d8:	3f 90       	pop	r3
    70da:	2f 90       	pop	r2
    70dc:	08 95       	ret

000070de <acos>:
    70de:	9f 93       	push	r25
    70e0:	9f 77       	andi	r25, 0x7F	; 127
    70e2:	c6 d1       	rcall	.+908    	; 0x7470 <__fp_arccos>
    70e4:	0f 90       	pop	r0
    70e6:	00 20       	and	r0, r0
    70e8:	3a f4       	brpl	.+14     	; 0x70f8 <acos+0x1a>
    70ea:	90 58       	subi	r25, 0x80	; 128
    70ec:	a2 ea       	ldi	r26, 0xA2	; 162
    70ee:	2a ed       	ldi	r18, 0xDA	; 218
    70f0:	3f e0       	ldi	r19, 0x0F	; 15
    70f2:	49 e4       	ldi	r20, 0x49	; 73
    70f4:	50 e4       	ldi	r21, 0x40	; 64
    70f6:	13 d0       	rcall	.+38     	; 0x711e <__addsf3x>
    70f8:	6f c2       	rjmp	.+1246   	; 0x75d8 <__fp_round>

000070fa <__subsf3>:
    70fa:	50 58       	subi	r21, 0x80	; 128

000070fc <__addsf3>:
    70fc:	bb 27       	eor	r27, r27
    70fe:	aa 27       	eor	r26, r26
    7100:	0e d0       	rcall	.+28     	; 0x711e <__addsf3x>
    7102:	6a c2       	rjmp	.+1236   	; 0x75d8 <__fp_round>
    7104:	33 d2       	rcall	.+1126   	; 0x756c <__fp_pscA>
    7106:	30 f0       	brcs	.+12     	; 0x7114 <__addsf3+0x18>
    7108:	38 d2       	rcall	.+1136   	; 0x757a <__fp_pscB>
    710a:	20 f0       	brcs	.+8      	; 0x7114 <__addsf3+0x18>
    710c:	31 f4       	brne	.+12     	; 0x711a <__addsf3+0x1e>
    710e:	9f 3f       	cpi	r25, 0xFF	; 255
    7110:	11 f4       	brne	.+4      	; 0x7116 <__addsf3+0x1a>
    7112:	1e f4       	brtc	.+6      	; 0x711a <__addsf3+0x1e>
    7114:	f2 c1       	rjmp	.+996    	; 0x74fa <__fp_nan>
    7116:	0e f4       	brtc	.+2      	; 0x711a <__addsf3+0x1e>
    7118:	e0 95       	com	r30
    711a:	e7 fb       	bst	r30, 7
    711c:	e8 c1       	rjmp	.+976    	; 0x74ee <__fp_inf>

0000711e <__addsf3x>:
    711e:	e9 2f       	mov	r30, r25
    7120:	7d d2       	rcall	.+1274   	; 0x761c <__fp_split3>
    7122:	80 f3       	brcs	.-32     	; 0x7104 <__addsf3+0x8>
    7124:	ba 17       	cp	r27, r26
    7126:	62 07       	cpc	r22, r18
    7128:	73 07       	cpc	r23, r19
    712a:	84 07       	cpc	r24, r20
    712c:	95 07       	cpc	r25, r21
    712e:	18 f0       	brcs	.+6      	; 0x7136 <__addsf3x+0x18>
    7130:	71 f4       	brne	.+28     	; 0x714e <__addsf3x+0x30>
    7132:	9e f5       	brtc	.+102    	; 0x719a <__addsf3x+0x7c>
    7134:	95 c2       	rjmp	.+1322   	; 0x7660 <__fp_zero>
    7136:	0e f4       	brtc	.+2      	; 0x713a <__addsf3x+0x1c>
    7138:	e0 95       	com	r30
    713a:	0b 2e       	mov	r0, r27
    713c:	ba 2f       	mov	r27, r26
    713e:	a0 2d       	mov	r26, r0
    7140:	0b 01       	movw	r0, r22
    7142:	b9 01       	movw	r22, r18
    7144:	90 01       	movw	r18, r0
    7146:	0c 01       	movw	r0, r24
    7148:	ca 01       	movw	r24, r20
    714a:	a0 01       	movw	r20, r0
    714c:	11 24       	eor	r1, r1
    714e:	ff 27       	eor	r31, r31
    7150:	59 1b       	sub	r21, r25
    7152:	99 f0       	breq	.+38     	; 0x717a <__addsf3x+0x5c>
    7154:	59 3f       	cpi	r21, 0xF9	; 249
    7156:	50 f4       	brcc	.+20     	; 0x716c <__addsf3x+0x4e>
    7158:	50 3e       	cpi	r21, 0xE0	; 224
    715a:	68 f1       	brcs	.+90     	; 0x71b6 <__addsf3x+0x98>
    715c:	1a 16       	cp	r1, r26
    715e:	f0 40       	sbci	r31, 0x00	; 0
    7160:	a2 2f       	mov	r26, r18
    7162:	23 2f       	mov	r18, r19
    7164:	34 2f       	mov	r19, r20
    7166:	44 27       	eor	r20, r20
    7168:	58 5f       	subi	r21, 0xF8	; 248
    716a:	f3 cf       	rjmp	.-26     	; 0x7152 <__addsf3x+0x34>
    716c:	46 95       	lsr	r20
    716e:	37 95       	ror	r19
    7170:	27 95       	ror	r18
    7172:	a7 95       	ror	r26
    7174:	f0 40       	sbci	r31, 0x00	; 0
    7176:	53 95       	inc	r21
    7178:	c9 f7       	brne	.-14     	; 0x716c <__addsf3x+0x4e>
    717a:	7e f4       	brtc	.+30     	; 0x719a <__addsf3x+0x7c>
    717c:	1f 16       	cp	r1, r31
    717e:	ba 0b       	sbc	r27, r26
    7180:	62 0b       	sbc	r22, r18
    7182:	73 0b       	sbc	r23, r19
    7184:	84 0b       	sbc	r24, r20
    7186:	ba f0       	brmi	.+46     	; 0x71b6 <__addsf3x+0x98>
    7188:	91 50       	subi	r25, 0x01	; 1
    718a:	a1 f0       	breq	.+40     	; 0x71b4 <__addsf3x+0x96>
    718c:	ff 0f       	add	r31, r31
    718e:	bb 1f       	adc	r27, r27
    7190:	66 1f       	adc	r22, r22
    7192:	77 1f       	adc	r23, r23
    7194:	88 1f       	adc	r24, r24
    7196:	c2 f7       	brpl	.-16     	; 0x7188 <__addsf3x+0x6a>
    7198:	0e c0       	rjmp	.+28     	; 0x71b6 <__addsf3x+0x98>
    719a:	ba 0f       	add	r27, r26
    719c:	62 1f       	adc	r22, r18
    719e:	73 1f       	adc	r23, r19
    71a0:	84 1f       	adc	r24, r20
    71a2:	48 f4       	brcc	.+18     	; 0x71b6 <__addsf3x+0x98>
    71a4:	87 95       	ror	r24
    71a6:	77 95       	ror	r23
    71a8:	67 95       	ror	r22
    71aa:	b7 95       	ror	r27
    71ac:	f7 95       	ror	r31
    71ae:	9e 3f       	cpi	r25, 0xFE	; 254
    71b0:	08 f0       	brcs	.+2      	; 0x71b4 <__addsf3x+0x96>
    71b2:	b3 cf       	rjmp	.-154    	; 0x711a <__addsf3+0x1e>
    71b4:	93 95       	inc	r25
    71b6:	88 0f       	add	r24, r24
    71b8:	08 f0       	brcs	.+2      	; 0x71bc <__addsf3x+0x9e>
    71ba:	99 27       	eor	r25, r25
    71bc:	ee 0f       	add	r30, r30
    71be:	97 95       	ror	r25
    71c0:	87 95       	ror	r24
    71c2:	08 95       	ret

000071c4 <asin>:
    71c4:	9f 93       	push	r25
    71c6:	9f 77       	andi	r25, 0x7F	; 127
    71c8:	ee e3       	ldi	r30, 0x3E	; 62
    71ca:	89 37       	cpi	r24, 0x79	; 121
    71cc:	9e 07       	cpc	r25, r30
    71ce:	20 f4       	brcc	.+8      	; 0x71d8 <asin+0x14>
    71d0:	ea e3       	ldi	r30, 0x3A	; 58
    71d2:	f1 e0       	ldi	r31, 0x01	; 1
    71d4:	ba d1       	rcall	.+884    	; 0x754a <__fp_powsodd>
    71d6:	09 c0       	rjmp	.+18     	; 0x71ea <asin+0x26>
    71d8:	4b d1       	rcall	.+662    	; 0x7470 <__fp_arccos>
    71da:	90 58       	subi	r25, 0x80	; 128
    71dc:	a2 ea       	ldi	r26, 0xA2	; 162
    71de:	2a ed       	ldi	r18, 0xDA	; 218
    71e0:	3f e0       	ldi	r19, 0x0F	; 15
    71e2:	49 ec       	ldi	r20, 0xC9	; 201
    71e4:	5f e3       	ldi	r21, 0x3F	; 63
    71e6:	9b df       	rcall	.-202    	; 0x711e <__addsf3x>
    71e8:	f7 d1       	rcall	.+1006   	; 0x75d8 <__fp_round>
    71ea:	0f 90       	pop	r0
    71ec:	07 fc       	sbrc	r0, 7
    71ee:	90 58       	subi	r25, 0x80	; 128
    71f0:	08 95       	ret
    71f2:	bc d1       	rcall	.+888    	; 0x756c <__fp_pscA>
    71f4:	58 f0       	brcs	.+22     	; 0x720c <asin+0x48>
    71f6:	80 e8       	ldi	r24, 0x80	; 128
    71f8:	91 e0       	ldi	r25, 0x01	; 1
    71fa:	09 f4       	brne	.+2      	; 0x71fe <asin+0x3a>
    71fc:	9e ef       	ldi	r25, 0xFE	; 254
    71fe:	bd d1       	rcall	.+890    	; 0x757a <__fp_pscB>
    7200:	28 f0       	brcs	.+10     	; 0x720c <asin+0x48>
    7202:	40 e8       	ldi	r20, 0x80	; 128
    7204:	51 e0       	ldi	r21, 0x01	; 1
    7206:	59 f4       	brne	.+22     	; 0x721e <atan2+0xe>
    7208:	5e ef       	ldi	r21, 0xFE	; 254
    720a:	09 c0       	rjmp	.+18     	; 0x721e <atan2+0xe>
    720c:	76 c1       	rjmp	.+748    	; 0x74fa <__fp_nan>
    720e:	28 c2       	rjmp	.+1104   	; 0x7660 <__fp_zero>

00007210 <atan2>:
    7210:	e9 2f       	mov	r30, r25
    7212:	e0 78       	andi	r30, 0x80	; 128
    7214:	03 d2       	rcall	.+1030   	; 0x761c <__fp_split3>
    7216:	68 f3       	brcs	.-38     	; 0x71f2 <asin+0x2e>
    7218:	09 2e       	mov	r0, r25
    721a:	05 2a       	or	r0, r21
    721c:	c1 f3       	breq	.-16     	; 0x720e <asin+0x4a>
    721e:	26 17       	cp	r18, r22
    7220:	37 07       	cpc	r19, r23
    7222:	48 07       	cpc	r20, r24
    7224:	59 07       	cpc	r21, r25
    7226:	38 f0       	brcs	.+14     	; 0x7236 <atan2+0x26>
    7228:	0e 2e       	mov	r0, r30
    722a:	07 f8       	bld	r0, 7
    722c:	e0 25       	eor	r30, r0
    722e:	69 f0       	breq	.+26     	; 0x724a <atan2+0x3a>
    7230:	e0 25       	eor	r30, r0
    7232:	e0 64       	ori	r30, 0x40	; 64
    7234:	0a c0       	rjmp	.+20     	; 0x724a <atan2+0x3a>
    7236:	ef 63       	ori	r30, 0x3F	; 63
    7238:	07 f8       	bld	r0, 7
    723a:	00 94       	com	r0
    723c:	07 fa       	bst	r0, 7
    723e:	db 01       	movw	r26, r22
    7240:	b9 01       	movw	r22, r18
    7242:	9d 01       	movw	r18, r26
    7244:	dc 01       	movw	r26, r24
    7246:	ca 01       	movw	r24, r20
    7248:	ad 01       	movw	r20, r26
    724a:	ef 93       	push	r30
    724c:	4a d0       	rcall	.+148    	; 0x72e2 <__divsf3_pse>
    724e:	c4 d1       	rcall	.+904    	; 0x75d8 <__fp_round>
    7250:	0a d0       	rcall	.+20     	; 0x7266 <atan>
    7252:	5f 91       	pop	r21
    7254:	55 23       	and	r21, r21
    7256:	31 f0       	breq	.+12     	; 0x7264 <atan2+0x54>
    7258:	2b ed       	ldi	r18, 0xDB	; 219
    725a:	3f e0       	ldi	r19, 0x0F	; 15
    725c:	49 e4       	ldi	r20, 0x49	; 73
    725e:	50 fd       	sbrc	r21, 0
    7260:	49 ec       	ldi	r20, 0xC9	; 201
    7262:	4c cf       	rjmp	.-360    	; 0x70fc <__addsf3>
    7264:	08 95       	ret

00007266 <atan>:
    7266:	df 93       	push	r29
    7268:	dd 27       	eor	r29, r29
    726a:	b9 2f       	mov	r27, r25
    726c:	bf 77       	andi	r27, 0x7F	; 127
    726e:	40 e8       	ldi	r20, 0x80	; 128
    7270:	5f e3       	ldi	r21, 0x3F	; 63
    7272:	16 16       	cp	r1, r22
    7274:	17 06       	cpc	r1, r23
    7276:	48 07       	cpc	r20, r24
    7278:	5b 07       	cpc	r21, r27
    727a:	10 f4       	brcc	.+4      	; 0x7280 <atan+0x1a>
    727c:	d9 2f       	mov	r29, r25
    727e:	fb d1       	rcall	.+1014   	; 0x7676 <inverse>
    7280:	9f 93       	push	r25
    7282:	8f 93       	push	r24
    7284:	7f 93       	push	r23
    7286:	6f 93       	push	r22
    7288:	a8 d2       	rcall	.+1360   	; 0x77da <square>
    728a:	ee e4       	ldi	r30, 0x4E	; 78
    728c:	f1 e0       	ldi	r31, 0x01	; 1
    728e:	38 d1       	rcall	.+624    	; 0x7500 <__fp_powser>
    7290:	a3 d1       	rcall	.+838    	; 0x75d8 <__fp_round>
    7292:	2f 91       	pop	r18
    7294:	3f 91       	pop	r19
    7296:	4f 91       	pop	r20
    7298:	5f 91       	pop	r21
    729a:	00 d2       	rcall	.+1024   	; 0x769c <__mulsf3x>
    729c:	dd 23       	and	r29, r29
    729e:	49 f0       	breq	.+18     	; 0x72b2 <atan+0x4c>
    72a0:	90 58       	subi	r25, 0x80	; 128
    72a2:	a2 ea       	ldi	r26, 0xA2	; 162
    72a4:	2a ed       	ldi	r18, 0xDA	; 218
    72a6:	3f e0       	ldi	r19, 0x0F	; 15
    72a8:	49 ec       	ldi	r20, 0xC9	; 201
    72aa:	5f e3       	ldi	r21, 0x3F	; 63
    72ac:	d0 78       	andi	r29, 0x80	; 128
    72ae:	5d 27       	eor	r21, r29
    72b0:	36 df       	rcall	.-404    	; 0x711e <__addsf3x>
    72b2:	df 91       	pop	r29
    72b4:	91 c1       	rjmp	.+802    	; 0x75d8 <__fp_round>

000072b6 <__cmpsf2>:
    72b6:	f7 d0       	rcall	.+494    	; 0x74a6 <__fp_cmp>
    72b8:	08 f4       	brcc	.+2      	; 0x72bc <__cmpsf2+0x6>
    72ba:	81 e0       	ldi	r24, 0x01	; 1
    72bc:	08 95       	ret

000072be <cos>:
    72be:	65 d1       	rcall	.+714    	; 0x758a <__fp_rempio2>
    72c0:	e3 95       	inc	r30
    72c2:	9b c1       	rjmp	.+822    	; 0x75fa <__fp_sinus>

000072c4 <__divsf3>:
    72c4:	0c d0       	rcall	.+24     	; 0x72de <__divsf3x>
    72c6:	88 c1       	rjmp	.+784    	; 0x75d8 <__fp_round>
    72c8:	58 d1       	rcall	.+688    	; 0x757a <__fp_pscB>
    72ca:	40 f0       	brcs	.+16     	; 0x72dc <__divsf3+0x18>
    72cc:	4f d1       	rcall	.+670    	; 0x756c <__fp_pscA>
    72ce:	30 f0       	brcs	.+12     	; 0x72dc <__divsf3+0x18>
    72d0:	21 f4       	brne	.+8      	; 0x72da <__divsf3+0x16>
    72d2:	5f 3f       	cpi	r21, 0xFF	; 255
    72d4:	19 f0       	breq	.+6      	; 0x72dc <__divsf3+0x18>
    72d6:	0b c1       	rjmp	.+534    	; 0x74ee <__fp_inf>
    72d8:	51 11       	cpse	r21, r1
    72da:	c3 c1       	rjmp	.+902    	; 0x7662 <__fp_szero>
    72dc:	0e c1       	rjmp	.+540    	; 0x74fa <__fp_nan>

000072de <__divsf3x>:
    72de:	9e d1       	rcall	.+828    	; 0x761c <__fp_split3>
    72e0:	98 f3       	brcs	.-26     	; 0x72c8 <__divsf3+0x4>

000072e2 <__divsf3_pse>:
    72e2:	99 23       	and	r25, r25
    72e4:	c9 f3       	breq	.-14     	; 0x72d8 <__divsf3+0x14>
    72e6:	55 23       	and	r21, r21
    72e8:	b1 f3       	breq	.-20     	; 0x72d6 <__divsf3+0x12>
    72ea:	95 1b       	sub	r25, r21
    72ec:	55 0b       	sbc	r21, r21
    72ee:	bb 27       	eor	r27, r27
    72f0:	aa 27       	eor	r26, r26
    72f2:	62 17       	cp	r22, r18
    72f4:	73 07       	cpc	r23, r19
    72f6:	84 07       	cpc	r24, r20
    72f8:	38 f0       	brcs	.+14     	; 0x7308 <__divsf3_pse+0x26>
    72fa:	9f 5f       	subi	r25, 0xFF	; 255
    72fc:	5f 4f       	sbci	r21, 0xFF	; 255
    72fe:	22 0f       	add	r18, r18
    7300:	33 1f       	adc	r19, r19
    7302:	44 1f       	adc	r20, r20
    7304:	aa 1f       	adc	r26, r26
    7306:	a9 f3       	breq	.-22     	; 0x72f2 <__divsf3_pse+0x10>
    7308:	33 d0       	rcall	.+102    	; 0x7370 <__divsf3_pse+0x8e>
    730a:	0e 2e       	mov	r0, r30
    730c:	3a f0       	brmi	.+14     	; 0x731c <__divsf3_pse+0x3a>
    730e:	e0 e8       	ldi	r30, 0x80	; 128
    7310:	30 d0       	rcall	.+96     	; 0x7372 <__divsf3_pse+0x90>
    7312:	91 50       	subi	r25, 0x01	; 1
    7314:	50 40       	sbci	r21, 0x00	; 0
    7316:	e6 95       	lsr	r30
    7318:	00 1c       	adc	r0, r0
    731a:	ca f7       	brpl	.-14     	; 0x730e <__divsf3_pse+0x2c>
    731c:	29 d0       	rcall	.+82     	; 0x7370 <__divsf3_pse+0x8e>
    731e:	fe 2f       	mov	r31, r30
    7320:	27 d0       	rcall	.+78     	; 0x7370 <__divsf3_pse+0x8e>
    7322:	66 0f       	add	r22, r22
    7324:	77 1f       	adc	r23, r23
    7326:	88 1f       	adc	r24, r24
    7328:	bb 1f       	adc	r27, r27
    732a:	26 17       	cp	r18, r22
    732c:	37 07       	cpc	r19, r23
    732e:	48 07       	cpc	r20, r24
    7330:	ab 07       	cpc	r26, r27
    7332:	b0 e8       	ldi	r27, 0x80	; 128
    7334:	09 f0       	breq	.+2      	; 0x7338 <__divsf3_pse+0x56>
    7336:	bb 0b       	sbc	r27, r27
    7338:	80 2d       	mov	r24, r0
    733a:	bf 01       	movw	r22, r30
    733c:	ff 27       	eor	r31, r31
    733e:	93 58       	subi	r25, 0x83	; 131
    7340:	5f 4f       	sbci	r21, 0xFF	; 255
    7342:	2a f0       	brmi	.+10     	; 0x734e <__divsf3_pse+0x6c>
    7344:	9e 3f       	cpi	r25, 0xFE	; 254
    7346:	51 05       	cpc	r21, r1
    7348:	68 f0       	brcs	.+26     	; 0x7364 <__divsf3_pse+0x82>
    734a:	d1 c0       	rjmp	.+418    	; 0x74ee <__fp_inf>
    734c:	8a c1       	rjmp	.+788    	; 0x7662 <__fp_szero>
    734e:	5f 3f       	cpi	r21, 0xFF	; 255
    7350:	ec f3       	brlt	.-6      	; 0x734c <__divsf3_pse+0x6a>
    7352:	98 3e       	cpi	r25, 0xE8	; 232
    7354:	dc f3       	brlt	.-10     	; 0x734c <__divsf3_pse+0x6a>
    7356:	86 95       	lsr	r24
    7358:	77 95       	ror	r23
    735a:	67 95       	ror	r22
    735c:	b7 95       	ror	r27
    735e:	f7 95       	ror	r31
    7360:	9f 5f       	subi	r25, 0xFF	; 255
    7362:	c9 f7       	brne	.-14     	; 0x7356 <__divsf3_pse+0x74>
    7364:	88 0f       	add	r24, r24
    7366:	91 1d       	adc	r25, r1
    7368:	96 95       	lsr	r25
    736a:	87 95       	ror	r24
    736c:	97 f9       	bld	r25, 7
    736e:	08 95       	ret
    7370:	e1 e0       	ldi	r30, 0x01	; 1
    7372:	66 0f       	add	r22, r22
    7374:	77 1f       	adc	r23, r23
    7376:	88 1f       	adc	r24, r24
    7378:	bb 1f       	adc	r27, r27
    737a:	62 17       	cp	r22, r18
    737c:	73 07       	cpc	r23, r19
    737e:	84 07       	cpc	r24, r20
    7380:	ba 07       	cpc	r27, r26
    7382:	20 f0       	brcs	.+8      	; 0x738c <__divsf3_pse+0xaa>
    7384:	62 1b       	sub	r22, r18
    7386:	73 0b       	sbc	r23, r19
    7388:	84 0b       	sbc	r24, r20
    738a:	ba 0b       	sbc	r27, r26
    738c:	ee 1f       	adc	r30, r30
    738e:	88 f7       	brcc	.-30     	; 0x7372 <__divsf3_pse+0x90>
    7390:	e0 95       	com	r30
    7392:	08 95       	ret

00007394 <__fixsfsi>:
    7394:	04 d0       	rcall	.+8      	; 0x739e <__fixunssfsi>
    7396:	68 94       	set
    7398:	b1 11       	cpse	r27, r1
    739a:	63 c1       	rjmp	.+710    	; 0x7662 <__fp_szero>
    739c:	08 95       	ret

0000739e <__fixunssfsi>:
    739e:	46 d1       	rcall	.+652    	; 0x762c <__fp_splitA>
    73a0:	88 f0       	brcs	.+34     	; 0x73c4 <__fixunssfsi+0x26>
    73a2:	9f 57       	subi	r25, 0x7F	; 127
    73a4:	90 f0       	brcs	.+36     	; 0x73ca <__fixunssfsi+0x2c>
    73a6:	b9 2f       	mov	r27, r25
    73a8:	99 27       	eor	r25, r25
    73aa:	b7 51       	subi	r27, 0x17	; 23
    73ac:	a0 f0       	brcs	.+40     	; 0x73d6 <__fixunssfsi+0x38>
    73ae:	d1 f0       	breq	.+52     	; 0x73e4 <__fixunssfsi+0x46>
    73b0:	66 0f       	add	r22, r22
    73b2:	77 1f       	adc	r23, r23
    73b4:	88 1f       	adc	r24, r24
    73b6:	99 1f       	adc	r25, r25
    73b8:	1a f0       	brmi	.+6      	; 0x73c0 <__fixunssfsi+0x22>
    73ba:	ba 95       	dec	r27
    73bc:	c9 f7       	brne	.-14     	; 0x73b0 <__fixunssfsi+0x12>
    73be:	12 c0       	rjmp	.+36     	; 0x73e4 <__fixunssfsi+0x46>
    73c0:	b1 30       	cpi	r27, 0x01	; 1
    73c2:	81 f0       	breq	.+32     	; 0x73e4 <__fixunssfsi+0x46>
    73c4:	4d d1       	rcall	.+666    	; 0x7660 <__fp_zero>
    73c6:	b1 e0       	ldi	r27, 0x01	; 1
    73c8:	08 95       	ret
    73ca:	4a c1       	rjmp	.+660    	; 0x7660 <__fp_zero>
    73cc:	67 2f       	mov	r22, r23
    73ce:	78 2f       	mov	r23, r24
    73d0:	88 27       	eor	r24, r24
    73d2:	b8 5f       	subi	r27, 0xF8	; 248
    73d4:	39 f0       	breq	.+14     	; 0x73e4 <__fixunssfsi+0x46>
    73d6:	b9 3f       	cpi	r27, 0xF9	; 249
    73d8:	cc f3       	brlt	.-14     	; 0x73cc <__fixunssfsi+0x2e>
    73da:	86 95       	lsr	r24
    73dc:	77 95       	ror	r23
    73de:	67 95       	ror	r22
    73e0:	b3 95       	inc	r27
    73e2:	d9 f7       	brne	.-10     	; 0x73da <__fixunssfsi+0x3c>
    73e4:	3e f4       	brtc	.+14     	; 0x73f4 <__fixunssfsi+0x56>
    73e6:	90 95       	com	r25
    73e8:	80 95       	com	r24
    73ea:	70 95       	com	r23
    73ec:	61 95       	neg	r22
    73ee:	7f 4f       	sbci	r23, 0xFF	; 255
    73f0:	8f 4f       	sbci	r24, 0xFF	; 255
    73f2:	9f 4f       	sbci	r25, 0xFF	; 255
    73f4:	08 95       	ret

000073f6 <__floatunsisf>:
    73f6:	e8 94       	clt
    73f8:	09 c0       	rjmp	.+18     	; 0x740c <__floatsisf+0x12>

000073fa <__floatsisf>:
    73fa:	97 fb       	bst	r25, 7
    73fc:	3e f4       	brtc	.+14     	; 0x740c <__floatsisf+0x12>
    73fe:	90 95       	com	r25
    7400:	80 95       	com	r24
    7402:	70 95       	com	r23
    7404:	61 95       	neg	r22
    7406:	7f 4f       	sbci	r23, 0xFF	; 255
    7408:	8f 4f       	sbci	r24, 0xFF	; 255
    740a:	9f 4f       	sbci	r25, 0xFF	; 255
    740c:	99 23       	and	r25, r25
    740e:	a9 f0       	breq	.+42     	; 0x743a <__floatsisf+0x40>
    7410:	f9 2f       	mov	r31, r25
    7412:	96 e9       	ldi	r25, 0x96	; 150
    7414:	bb 27       	eor	r27, r27
    7416:	93 95       	inc	r25
    7418:	f6 95       	lsr	r31
    741a:	87 95       	ror	r24
    741c:	77 95       	ror	r23
    741e:	67 95       	ror	r22
    7420:	b7 95       	ror	r27
    7422:	f1 11       	cpse	r31, r1
    7424:	f8 cf       	rjmp	.-16     	; 0x7416 <__floatsisf+0x1c>
    7426:	fa f4       	brpl	.+62     	; 0x7466 <__floatsisf+0x6c>
    7428:	bb 0f       	add	r27, r27
    742a:	11 f4       	brne	.+4      	; 0x7430 <__floatsisf+0x36>
    742c:	60 ff       	sbrs	r22, 0
    742e:	1b c0       	rjmp	.+54     	; 0x7466 <__floatsisf+0x6c>
    7430:	6f 5f       	subi	r22, 0xFF	; 255
    7432:	7f 4f       	sbci	r23, 0xFF	; 255
    7434:	8f 4f       	sbci	r24, 0xFF	; 255
    7436:	9f 4f       	sbci	r25, 0xFF	; 255
    7438:	16 c0       	rjmp	.+44     	; 0x7466 <__floatsisf+0x6c>
    743a:	88 23       	and	r24, r24
    743c:	11 f0       	breq	.+4      	; 0x7442 <__floatsisf+0x48>
    743e:	96 e9       	ldi	r25, 0x96	; 150
    7440:	11 c0       	rjmp	.+34     	; 0x7464 <__floatsisf+0x6a>
    7442:	77 23       	and	r23, r23
    7444:	21 f0       	breq	.+8      	; 0x744e <__floatsisf+0x54>
    7446:	9e e8       	ldi	r25, 0x8E	; 142
    7448:	87 2f       	mov	r24, r23
    744a:	76 2f       	mov	r23, r22
    744c:	05 c0       	rjmp	.+10     	; 0x7458 <__floatsisf+0x5e>
    744e:	66 23       	and	r22, r22
    7450:	71 f0       	breq	.+28     	; 0x746e <__floatsisf+0x74>
    7452:	96 e8       	ldi	r25, 0x86	; 134
    7454:	86 2f       	mov	r24, r22
    7456:	70 e0       	ldi	r23, 0x00	; 0
    7458:	60 e0       	ldi	r22, 0x00	; 0
    745a:	2a f0       	brmi	.+10     	; 0x7466 <__floatsisf+0x6c>
    745c:	9a 95       	dec	r25
    745e:	66 0f       	add	r22, r22
    7460:	77 1f       	adc	r23, r23
    7462:	88 1f       	adc	r24, r24
    7464:	da f7       	brpl	.-10     	; 0x745c <__floatsisf+0x62>
    7466:	88 0f       	add	r24, r24
    7468:	96 95       	lsr	r25
    746a:	87 95       	ror	r24
    746c:	97 f9       	bld	r25, 7
    746e:	08 95       	ret

00007470 <__fp_arccos>:
    7470:	df 93       	push	r29
    7472:	cf 93       	push	r28
    7474:	1f 93       	push	r17
    7476:	0f 93       	push	r16
    7478:	8b 01       	movw	r16, r22
    747a:	ec 01       	movw	r28, r24
    747c:	eb e7       	ldi	r30, 0x7B	; 123
    747e:	f1 e0       	ldi	r31, 0x01	; 1
    7480:	3f d0       	rcall	.+126    	; 0x7500 <__fp_powser>
    7482:	aa d0       	rcall	.+340    	; 0x75d8 <__fp_round>
    7484:	98 01       	movw	r18, r16
    7486:	ae 01       	movw	r20, r28
    7488:	8b 01       	movw	r16, r22
    748a:	ec 01       	movw	r28, r24
    748c:	60 e0       	ldi	r22, 0x00	; 0
    748e:	70 e0       	ldi	r23, 0x00	; 0
    7490:	80 e8       	ldi	r24, 0x80	; 128
    7492:	9f e3       	ldi	r25, 0x3F	; 63
    7494:	32 de       	rcall	.-924    	; 0x70fa <__subsf3>
    7496:	63 d1       	rcall	.+710    	; 0x775e <sqrt>
    7498:	98 01       	movw	r18, r16
    749a:	ae 01       	movw	r20, r28
    749c:	0f 91       	pop	r16
    749e:	1f 91       	pop	r17
    74a0:	cf 91       	pop	r28
    74a2:	df 91       	pop	r29
    74a4:	fb c0       	rjmp	.+502    	; 0x769c <__mulsf3x>

000074a6 <__fp_cmp>:
    74a6:	99 0f       	add	r25, r25
    74a8:	00 08       	sbc	r0, r0
    74aa:	55 0f       	add	r21, r21
    74ac:	aa 0b       	sbc	r26, r26
    74ae:	e0 e8       	ldi	r30, 0x80	; 128
    74b0:	fe ef       	ldi	r31, 0xFE	; 254
    74b2:	16 16       	cp	r1, r22
    74b4:	17 06       	cpc	r1, r23
    74b6:	e8 07       	cpc	r30, r24
    74b8:	f9 07       	cpc	r31, r25
    74ba:	c0 f0       	brcs	.+48     	; 0x74ec <__fp_cmp+0x46>
    74bc:	12 16       	cp	r1, r18
    74be:	13 06       	cpc	r1, r19
    74c0:	e4 07       	cpc	r30, r20
    74c2:	f5 07       	cpc	r31, r21
    74c4:	98 f0       	brcs	.+38     	; 0x74ec <__fp_cmp+0x46>
    74c6:	62 1b       	sub	r22, r18
    74c8:	73 0b       	sbc	r23, r19
    74ca:	84 0b       	sbc	r24, r20
    74cc:	95 0b       	sbc	r25, r21
    74ce:	39 f4       	brne	.+14     	; 0x74de <__fp_cmp+0x38>
    74d0:	0a 26       	eor	r0, r26
    74d2:	61 f0       	breq	.+24     	; 0x74ec <__fp_cmp+0x46>
    74d4:	23 2b       	or	r18, r19
    74d6:	24 2b       	or	r18, r20
    74d8:	25 2b       	or	r18, r21
    74da:	21 f4       	brne	.+8      	; 0x74e4 <__fp_cmp+0x3e>
    74dc:	08 95       	ret
    74de:	0a 26       	eor	r0, r26
    74e0:	09 f4       	brne	.+2      	; 0x74e4 <__fp_cmp+0x3e>
    74e2:	a1 40       	sbci	r26, 0x01	; 1
    74e4:	a6 95       	lsr	r26
    74e6:	8f ef       	ldi	r24, 0xFF	; 255
    74e8:	81 1d       	adc	r24, r1
    74ea:	81 1d       	adc	r24, r1
    74ec:	08 95       	ret

000074ee <__fp_inf>:
    74ee:	97 f9       	bld	r25, 7
    74f0:	9f 67       	ori	r25, 0x7F	; 127
    74f2:	80 e8       	ldi	r24, 0x80	; 128
    74f4:	70 e0       	ldi	r23, 0x00	; 0
    74f6:	60 e0       	ldi	r22, 0x00	; 0
    74f8:	08 95       	ret

000074fa <__fp_nan>:
    74fa:	9f ef       	ldi	r25, 0xFF	; 255
    74fc:	80 ec       	ldi	r24, 0xC0	; 192
    74fe:	08 95       	ret

00007500 <__fp_powser>:
    7500:	df 93       	push	r29
    7502:	cf 93       	push	r28
    7504:	1f 93       	push	r17
    7506:	0f 93       	push	r16
    7508:	ff 92       	push	r15
    750a:	ef 92       	push	r14
    750c:	df 92       	push	r13
    750e:	7b 01       	movw	r14, r22
    7510:	8c 01       	movw	r16, r24
    7512:	68 94       	set
    7514:	05 c0       	rjmp	.+10     	; 0x7520 <__fp_powser+0x20>
    7516:	da 2e       	mov	r13, r26
    7518:	ef 01       	movw	r28, r30
    751a:	c0 d0       	rcall	.+384    	; 0x769c <__mulsf3x>
    751c:	fe 01       	movw	r30, r28
    751e:	e8 94       	clt
    7520:	a5 91       	lpm	r26, Z+
    7522:	25 91       	lpm	r18, Z+
    7524:	35 91       	lpm	r19, Z+
    7526:	45 91       	lpm	r20, Z+
    7528:	55 91       	lpm	r21, Z+
    752a:	ae f3       	brts	.-22     	; 0x7516 <__fp_powser+0x16>
    752c:	ef 01       	movw	r28, r30
    752e:	f7 dd       	rcall	.-1042   	; 0x711e <__addsf3x>
    7530:	fe 01       	movw	r30, r28
    7532:	97 01       	movw	r18, r14
    7534:	a8 01       	movw	r20, r16
    7536:	da 94       	dec	r13
    7538:	79 f7       	brne	.-34     	; 0x7518 <__fp_powser+0x18>
    753a:	df 90       	pop	r13
    753c:	ef 90       	pop	r14
    753e:	ff 90       	pop	r15
    7540:	0f 91       	pop	r16
    7542:	1f 91       	pop	r17
    7544:	cf 91       	pop	r28
    7546:	df 91       	pop	r29
    7548:	08 95       	ret

0000754a <__fp_powsodd>:
    754a:	9f 93       	push	r25
    754c:	8f 93       	push	r24
    754e:	7f 93       	push	r23
    7550:	6f 93       	push	r22
    7552:	ff 93       	push	r31
    7554:	ef 93       	push	r30
    7556:	9b 01       	movw	r18, r22
    7558:	ac 01       	movw	r20, r24
    755a:	94 d0       	rcall	.+296    	; 0x7684 <__mulsf3>
    755c:	ef 91       	pop	r30
    755e:	ff 91       	pop	r31
    7560:	cf df       	rcall	.-98     	; 0x7500 <__fp_powser>
    7562:	2f 91       	pop	r18
    7564:	3f 91       	pop	r19
    7566:	4f 91       	pop	r20
    7568:	5f 91       	pop	r21
    756a:	8c c0       	rjmp	.+280    	; 0x7684 <__mulsf3>

0000756c <__fp_pscA>:
    756c:	00 24       	eor	r0, r0
    756e:	0a 94       	dec	r0
    7570:	16 16       	cp	r1, r22
    7572:	17 06       	cpc	r1, r23
    7574:	18 06       	cpc	r1, r24
    7576:	09 06       	cpc	r0, r25
    7578:	08 95       	ret

0000757a <__fp_pscB>:
    757a:	00 24       	eor	r0, r0
    757c:	0a 94       	dec	r0
    757e:	12 16       	cp	r1, r18
    7580:	13 06       	cpc	r1, r19
    7582:	14 06       	cpc	r1, r20
    7584:	05 06       	cpc	r0, r21
    7586:	08 95       	ret
    7588:	b8 cf       	rjmp	.-144    	; 0x74fa <__fp_nan>

0000758a <__fp_rempio2>:
    758a:	50 d0       	rcall	.+160    	; 0x762c <__fp_splitA>
    758c:	e8 f3       	brcs	.-6      	; 0x7588 <__fp_pscB+0xe>
    758e:	e8 94       	clt
    7590:	e0 e0       	ldi	r30, 0x00	; 0
    7592:	bb 27       	eor	r27, r27
    7594:	9f 57       	subi	r25, 0x7F	; 127
    7596:	f0 f0       	brcs	.+60     	; 0x75d4 <__fp_rempio2+0x4a>
    7598:	2a ed       	ldi	r18, 0xDA	; 218
    759a:	3f e0       	ldi	r19, 0x0F	; 15
    759c:	49 ec       	ldi	r20, 0xC9	; 201
    759e:	06 c0       	rjmp	.+12     	; 0x75ac <__fp_rempio2+0x22>
    75a0:	ee 0f       	add	r30, r30
    75a2:	bb 0f       	add	r27, r27
    75a4:	66 1f       	adc	r22, r22
    75a6:	77 1f       	adc	r23, r23
    75a8:	88 1f       	adc	r24, r24
    75aa:	28 f0       	brcs	.+10     	; 0x75b6 <__fp_rempio2+0x2c>
    75ac:	b2 3a       	cpi	r27, 0xA2	; 162
    75ae:	62 07       	cpc	r22, r18
    75b0:	73 07       	cpc	r23, r19
    75b2:	84 07       	cpc	r24, r20
    75b4:	28 f0       	brcs	.+10     	; 0x75c0 <__fp_rempio2+0x36>
    75b6:	b2 5a       	subi	r27, 0xA2	; 162
    75b8:	62 0b       	sbc	r22, r18
    75ba:	73 0b       	sbc	r23, r19
    75bc:	84 0b       	sbc	r24, r20
    75be:	e3 95       	inc	r30
    75c0:	9a 95       	dec	r25
    75c2:	72 f7       	brpl	.-36     	; 0x75a0 <__fp_rempio2+0x16>
    75c4:	80 38       	cpi	r24, 0x80	; 128
    75c6:	30 f4       	brcc	.+12     	; 0x75d4 <__fp_rempio2+0x4a>
    75c8:	9a 95       	dec	r25
    75ca:	bb 0f       	add	r27, r27
    75cc:	66 1f       	adc	r22, r22
    75ce:	77 1f       	adc	r23, r23
    75d0:	88 1f       	adc	r24, r24
    75d2:	d2 f7       	brpl	.-12     	; 0x75c8 <__fp_rempio2+0x3e>
    75d4:	90 48       	sbci	r25, 0x80	; 128
    75d6:	06 c1       	rjmp	.+524    	; 0x77e4 <__fp_mpack_finite>

000075d8 <__fp_round>:
    75d8:	09 2e       	mov	r0, r25
    75da:	03 94       	inc	r0
    75dc:	00 0c       	add	r0, r0
    75de:	11 f4       	brne	.+4      	; 0x75e4 <__fp_round+0xc>
    75e0:	88 23       	and	r24, r24
    75e2:	52 f0       	brmi	.+20     	; 0x75f8 <__fp_round+0x20>
    75e4:	bb 0f       	add	r27, r27
    75e6:	40 f4       	brcc	.+16     	; 0x75f8 <__fp_round+0x20>
    75e8:	bf 2b       	or	r27, r31
    75ea:	11 f4       	brne	.+4      	; 0x75f0 <__fp_round+0x18>
    75ec:	60 ff       	sbrs	r22, 0
    75ee:	04 c0       	rjmp	.+8      	; 0x75f8 <__fp_round+0x20>
    75f0:	6f 5f       	subi	r22, 0xFF	; 255
    75f2:	7f 4f       	sbci	r23, 0xFF	; 255
    75f4:	8f 4f       	sbci	r24, 0xFF	; 255
    75f6:	9f 4f       	sbci	r25, 0xFF	; 255
    75f8:	08 95       	ret

000075fa <__fp_sinus>:
    75fa:	ef 93       	push	r30
    75fc:	e0 ff       	sbrs	r30, 0
    75fe:	06 c0       	rjmp	.+12     	; 0x760c <__fp_sinus+0x12>
    7600:	a2 ea       	ldi	r26, 0xA2	; 162
    7602:	2a ed       	ldi	r18, 0xDA	; 218
    7604:	3f e0       	ldi	r19, 0x0F	; 15
    7606:	49 ec       	ldi	r20, 0xC9	; 201
    7608:	5f eb       	ldi	r21, 0xBF	; 191
    760a:	89 dd       	rcall	.-1262   	; 0x711e <__addsf3x>
    760c:	e5 df       	rcall	.-54     	; 0x75d8 <__fp_round>
    760e:	0f 90       	pop	r0
    7610:	03 94       	inc	r0
    7612:	01 fc       	sbrc	r0, 1
    7614:	90 58       	subi	r25, 0x80	; 128
    7616:	e3 ea       	ldi	r30, 0xA3	; 163
    7618:	f1 e0       	ldi	r31, 0x01	; 1
    761a:	97 cf       	rjmp	.-210    	; 0x754a <__fp_powsodd>

0000761c <__fp_split3>:
    761c:	57 fd       	sbrc	r21, 7
    761e:	90 58       	subi	r25, 0x80	; 128
    7620:	44 0f       	add	r20, r20
    7622:	55 1f       	adc	r21, r21
    7624:	59 f0       	breq	.+22     	; 0x763c <__fp_splitA+0x10>
    7626:	5f 3f       	cpi	r21, 0xFF	; 255
    7628:	71 f0       	breq	.+28     	; 0x7646 <__fp_splitA+0x1a>
    762a:	47 95       	ror	r20

0000762c <__fp_splitA>:
    762c:	88 0f       	add	r24, r24
    762e:	97 fb       	bst	r25, 7
    7630:	99 1f       	adc	r25, r25
    7632:	61 f0       	breq	.+24     	; 0x764c <__fp_splitA+0x20>
    7634:	9f 3f       	cpi	r25, 0xFF	; 255
    7636:	79 f0       	breq	.+30     	; 0x7656 <__fp_splitA+0x2a>
    7638:	87 95       	ror	r24
    763a:	08 95       	ret
    763c:	12 16       	cp	r1, r18
    763e:	13 06       	cpc	r1, r19
    7640:	14 06       	cpc	r1, r20
    7642:	55 1f       	adc	r21, r21
    7644:	f2 cf       	rjmp	.-28     	; 0x762a <__fp_split3+0xe>
    7646:	46 95       	lsr	r20
    7648:	f1 df       	rcall	.-30     	; 0x762c <__fp_splitA>
    764a:	08 c0       	rjmp	.+16     	; 0x765c <__fp_splitA+0x30>
    764c:	16 16       	cp	r1, r22
    764e:	17 06       	cpc	r1, r23
    7650:	18 06       	cpc	r1, r24
    7652:	99 1f       	adc	r25, r25
    7654:	f1 cf       	rjmp	.-30     	; 0x7638 <__fp_splitA+0xc>
    7656:	86 95       	lsr	r24
    7658:	71 05       	cpc	r23, r1
    765a:	61 05       	cpc	r22, r1
    765c:	08 94       	sec
    765e:	08 95       	ret

00007660 <__fp_zero>:
    7660:	e8 94       	clt

00007662 <__fp_szero>:
    7662:	bb 27       	eor	r27, r27
    7664:	66 27       	eor	r22, r22
    7666:	77 27       	eor	r23, r23
    7668:	cb 01       	movw	r24, r22
    766a:	97 f9       	bld	r25, 7
    766c:	08 95       	ret

0000766e <__gesf2>:
    766e:	1b df       	rcall	.-458    	; 0x74a6 <__fp_cmp>
    7670:	08 f4       	brcc	.+2      	; 0x7674 <__gesf2+0x6>
    7672:	8f ef       	ldi	r24, 0xFF	; 255
    7674:	08 95       	ret

00007676 <inverse>:
    7676:	9b 01       	movw	r18, r22
    7678:	ac 01       	movw	r20, r24
    767a:	60 e0       	ldi	r22, 0x00	; 0
    767c:	70 e0       	ldi	r23, 0x00	; 0
    767e:	80 e8       	ldi	r24, 0x80	; 128
    7680:	9f e3       	ldi	r25, 0x3F	; 63
    7682:	20 ce       	rjmp	.-960    	; 0x72c4 <__divsf3>

00007684 <__mulsf3>:
    7684:	0b d0       	rcall	.+22     	; 0x769c <__mulsf3x>
    7686:	a8 cf       	rjmp	.-176    	; 0x75d8 <__fp_round>
    7688:	71 df       	rcall	.-286    	; 0x756c <__fp_pscA>
    768a:	28 f0       	brcs	.+10     	; 0x7696 <__mulsf3+0x12>
    768c:	76 df       	rcall	.-276    	; 0x757a <__fp_pscB>
    768e:	18 f0       	brcs	.+6      	; 0x7696 <__mulsf3+0x12>
    7690:	95 23       	and	r25, r21
    7692:	09 f0       	breq	.+2      	; 0x7696 <__mulsf3+0x12>
    7694:	2c cf       	rjmp	.-424    	; 0x74ee <__fp_inf>
    7696:	31 cf       	rjmp	.-414    	; 0x74fa <__fp_nan>
    7698:	11 24       	eor	r1, r1
    769a:	e3 cf       	rjmp	.-58     	; 0x7662 <__fp_szero>

0000769c <__mulsf3x>:
    769c:	bf df       	rcall	.-130    	; 0x761c <__fp_split3>
    769e:	a0 f3       	brcs	.-24     	; 0x7688 <__mulsf3+0x4>

000076a0 <__mulsf3_pse>:
    76a0:	95 9f       	mul	r25, r21
    76a2:	d1 f3       	breq	.-12     	; 0x7698 <__mulsf3+0x14>
    76a4:	95 0f       	add	r25, r21
    76a6:	50 e0       	ldi	r21, 0x00	; 0
    76a8:	55 1f       	adc	r21, r21
    76aa:	62 9f       	mul	r22, r18
    76ac:	f0 01       	movw	r30, r0
    76ae:	72 9f       	mul	r23, r18
    76b0:	bb 27       	eor	r27, r27
    76b2:	f0 0d       	add	r31, r0
    76b4:	b1 1d       	adc	r27, r1
    76b6:	63 9f       	mul	r22, r19
    76b8:	aa 27       	eor	r26, r26
    76ba:	f0 0d       	add	r31, r0
    76bc:	b1 1d       	adc	r27, r1
    76be:	aa 1f       	adc	r26, r26
    76c0:	64 9f       	mul	r22, r20
    76c2:	66 27       	eor	r22, r22
    76c4:	b0 0d       	add	r27, r0
    76c6:	a1 1d       	adc	r26, r1
    76c8:	66 1f       	adc	r22, r22
    76ca:	82 9f       	mul	r24, r18
    76cc:	22 27       	eor	r18, r18
    76ce:	b0 0d       	add	r27, r0
    76d0:	a1 1d       	adc	r26, r1
    76d2:	62 1f       	adc	r22, r18
    76d4:	73 9f       	mul	r23, r19
    76d6:	b0 0d       	add	r27, r0
    76d8:	a1 1d       	adc	r26, r1
    76da:	62 1f       	adc	r22, r18
    76dc:	83 9f       	mul	r24, r19
    76de:	a0 0d       	add	r26, r0
    76e0:	61 1d       	adc	r22, r1
    76e2:	22 1f       	adc	r18, r18
    76e4:	74 9f       	mul	r23, r20
    76e6:	33 27       	eor	r19, r19
    76e8:	a0 0d       	add	r26, r0
    76ea:	61 1d       	adc	r22, r1
    76ec:	23 1f       	adc	r18, r19
    76ee:	84 9f       	mul	r24, r20
    76f0:	60 0d       	add	r22, r0
    76f2:	21 1d       	adc	r18, r1
    76f4:	82 2f       	mov	r24, r18
    76f6:	76 2f       	mov	r23, r22
    76f8:	6a 2f       	mov	r22, r26
    76fa:	11 24       	eor	r1, r1
    76fc:	9f 57       	subi	r25, 0x7F	; 127
    76fe:	50 40       	sbci	r21, 0x00	; 0
    7700:	8a f0       	brmi	.+34     	; 0x7724 <__mulsf3_pse+0x84>
    7702:	e1 f0       	breq	.+56     	; 0x773c <__mulsf3_pse+0x9c>
    7704:	88 23       	and	r24, r24
    7706:	4a f0       	brmi	.+18     	; 0x771a <__mulsf3_pse+0x7a>
    7708:	ee 0f       	add	r30, r30
    770a:	ff 1f       	adc	r31, r31
    770c:	bb 1f       	adc	r27, r27
    770e:	66 1f       	adc	r22, r22
    7710:	77 1f       	adc	r23, r23
    7712:	88 1f       	adc	r24, r24
    7714:	91 50       	subi	r25, 0x01	; 1
    7716:	50 40       	sbci	r21, 0x00	; 0
    7718:	a9 f7       	brne	.-22     	; 0x7704 <__mulsf3_pse+0x64>
    771a:	9e 3f       	cpi	r25, 0xFE	; 254
    771c:	51 05       	cpc	r21, r1
    771e:	70 f0       	brcs	.+28     	; 0x773c <__mulsf3_pse+0x9c>
    7720:	e6 ce       	rjmp	.-564    	; 0x74ee <__fp_inf>
    7722:	9f cf       	rjmp	.-194    	; 0x7662 <__fp_szero>
    7724:	5f 3f       	cpi	r21, 0xFF	; 255
    7726:	ec f3       	brlt	.-6      	; 0x7722 <__mulsf3_pse+0x82>
    7728:	98 3e       	cpi	r25, 0xE8	; 232
    772a:	dc f3       	brlt	.-10     	; 0x7722 <__mulsf3_pse+0x82>
    772c:	86 95       	lsr	r24
    772e:	77 95       	ror	r23
    7730:	67 95       	ror	r22
    7732:	b7 95       	ror	r27
    7734:	f7 95       	ror	r31
    7736:	e7 95       	ror	r30
    7738:	9f 5f       	subi	r25, 0xFF	; 255
    773a:	c1 f7       	brne	.-16     	; 0x772c <__mulsf3_pse+0x8c>
    773c:	fe 2b       	or	r31, r30
    773e:	88 0f       	add	r24, r24
    7740:	91 1d       	adc	r25, r1
    7742:	96 95       	lsr	r25
    7744:	87 95       	ror	r24
    7746:	97 f9       	bld	r25, 7
    7748:	08 95       	ret

0000774a <sin>:
    774a:	9f 93       	push	r25
    774c:	1e df       	rcall	.-452    	; 0x758a <__fp_rempio2>
    774e:	0f 90       	pop	r0
    7750:	07 fc       	sbrc	r0, 7
    7752:	ee 5f       	subi	r30, 0xFE	; 254
    7754:	52 cf       	rjmp	.-348    	; 0x75fa <__fp_sinus>
    7756:	11 f4       	brne	.+4      	; 0x775c <sin+0x12>
    7758:	0e f4       	brtc	.+2      	; 0x775c <sin+0x12>
    775a:	cf ce       	rjmp	.-610    	; 0x74fa <__fp_nan>
    775c:	41 c0       	rjmp	.+130    	; 0x77e0 <__fp_mpack>

0000775e <sqrt>:
    775e:	66 df       	rcall	.-308    	; 0x762c <__fp_splitA>
    7760:	d0 f3       	brcs	.-12     	; 0x7756 <sin+0xc>
    7762:	99 23       	and	r25, r25
    7764:	d9 f3       	breq	.-10     	; 0x775c <sin+0x12>
    7766:	ce f3       	brts	.-14     	; 0x775a <sin+0x10>
    7768:	9f 57       	subi	r25, 0x7F	; 127
    776a:	55 0b       	sbc	r21, r21
    776c:	87 ff       	sbrs	r24, 7
    776e:	46 d0       	rcall	.+140    	; 0x77fc <__fp_norm2>
    7770:	00 24       	eor	r0, r0
    7772:	a0 e6       	ldi	r26, 0x60	; 96
    7774:	40 ea       	ldi	r20, 0xA0	; 160
    7776:	90 01       	movw	r18, r0
    7778:	80 58       	subi	r24, 0x80	; 128
    777a:	56 95       	lsr	r21
    777c:	97 95       	ror	r25
    777e:	28 f4       	brcc	.+10     	; 0x778a <sqrt+0x2c>
    7780:	80 5c       	subi	r24, 0xC0	; 192
    7782:	66 0f       	add	r22, r22
    7784:	77 1f       	adc	r23, r23
    7786:	88 1f       	adc	r24, r24
    7788:	20 f0       	brcs	.+8      	; 0x7792 <sqrt+0x34>
    778a:	26 17       	cp	r18, r22
    778c:	37 07       	cpc	r19, r23
    778e:	48 07       	cpc	r20, r24
    7790:	30 f4       	brcc	.+12     	; 0x779e <sqrt+0x40>
    7792:	62 1b       	sub	r22, r18
    7794:	73 0b       	sbc	r23, r19
    7796:	84 0b       	sbc	r24, r20
    7798:	20 29       	or	r18, r0
    779a:	31 29       	or	r19, r1
    779c:	4a 2b       	or	r20, r26
    779e:	a6 95       	lsr	r26
    77a0:	17 94       	ror	r1
    77a2:	07 94       	ror	r0
    77a4:	20 25       	eor	r18, r0
    77a6:	31 25       	eor	r19, r1
    77a8:	4a 27       	eor	r20, r26
    77aa:	58 f7       	brcc	.-42     	; 0x7782 <sqrt+0x24>
    77ac:	66 0f       	add	r22, r22
    77ae:	77 1f       	adc	r23, r23
    77b0:	88 1f       	adc	r24, r24
    77b2:	20 f0       	brcs	.+8      	; 0x77bc <sqrt+0x5e>
    77b4:	26 17       	cp	r18, r22
    77b6:	37 07       	cpc	r19, r23
    77b8:	48 07       	cpc	r20, r24
    77ba:	30 f4       	brcc	.+12     	; 0x77c8 <sqrt+0x6a>
    77bc:	62 0b       	sbc	r22, r18
    77be:	73 0b       	sbc	r23, r19
    77c0:	84 0b       	sbc	r24, r20
    77c2:	20 0d       	add	r18, r0
    77c4:	31 1d       	adc	r19, r1
    77c6:	41 1d       	adc	r20, r1
    77c8:	a0 95       	com	r26
    77ca:	81 f7       	brne	.-32     	; 0x77ac <sqrt+0x4e>
    77cc:	b9 01       	movw	r22, r18
    77ce:	84 2f       	mov	r24, r20
    77d0:	91 58       	subi	r25, 0x81	; 129
    77d2:	88 0f       	add	r24, r24
    77d4:	96 95       	lsr	r25
    77d6:	87 95       	ror	r24
    77d8:	08 95       	ret

000077da <square>:
    77da:	9b 01       	movw	r18, r22
    77dc:	ac 01       	movw	r20, r24
    77de:	52 cf       	rjmp	.-348    	; 0x7684 <__mulsf3>

000077e0 <__fp_mpack>:
    77e0:	9f 3f       	cpi	r25, 0xFF	; 255
    77e2:	31 f0       	breq	.+12     	; 0x77f0 <__fp_mpack_finite+0xc>

000077e4 <__fp_mpack_finite>:
    77e4:	91 50       	subi	r25, 0x01	; 1
    77e6:	20 f4       	brcc	.+8      	; 0x77f0 <__fp_mpack_finite+0xc>
    77e8:	87 95       	ror	r24
    77ea:	77 95       	ror	r23
    77ec:	67 95       	ror	r22
    77ee:	b7 95       	ror	r27
    77f0:	88 0f       	add	r24, r24
    77f2:	91 1d       	adc	r25, r1
    77f4:	96 95       	lsr	r25
    77f6:	87 95       	ror	r24
    77f8:	97 f9       	bld	r25, 7
    77fa:	08 95       	ret

000077fc <__fp_norm2>:
    77fc:	91 50       	subi	r25, 0x01	; 1
    77fe:	50 40       	sbci	r21, 0x00	; 0
    7800:	66 0f       	add	r22, r22
    7802:	77 1f       	adc	r23, r23
    7804:	88 1f       	adc	r24, r24
    7806:	d2 f7       	brpl	.-12     	; 0x77fc <__fp_norm2>
    7808:	08 95       	ret

0000780a <strtod>:
    780a:	8f 92       	push	r8
    780c:	9f 92       	push	r9
    780e:	af 92       	push	r10
    7810:	bf 92       	push	r11
    7812:	cf 92       	push	r12
    7814:	df 92       	push	r13
    7816:	ef 92       	push	r14
    7818:	ff 92       	push	r15
    781a:	0f 93       	push	r16
    781c:	1f 93       	push	r17
    781e:	cf 93       	push	r28
    7820:	df 93       	push	r29
    7822:	ec 01       	movw	r28, r24
    7824:	5b 01       	movw	r10, r22
    7826:	61 15       	cp	r22, r1
    7828:	71 05       	cpc	r23, r1
    782a:	19 f0       	breq	.+6      	; 0x7832 <strtod+0x28>
    782c:	fb 01       	movw	r30, r22
    782e:	91 83       	std	Z+1, r25	; 0x01
    7830:	80 83       	st	Z, r24
    7832:	f9 90       	ld	r15, Y+
    7834:	8f 2d       	mov	r24, r15
    7836:	90 e0       	ldi	r25, 0x00	; 0
    7838:	0e 94 4e 3e 	call	0x7c9c	; 0x7c9c <isspace>
    783c:	89 2b       	or	r24, r25
    783e:	c9 f7       	brne	.-14     	; 0x7832 <strtod+0x28>
    7840:	fd e2       	ldi	r31, 0x2D	; 45
    7842:	ff 16       	cp	r15, r31
    7844:	21 f4       	brne	.+8      	; 0x784e <strtod+0x44>
    7846:	f9 90       	ld	r15, Y+
    7848:	ee 24       	eor	r14, r14
    784a:	e3 94       	inc	r14
    784c:	05 c0       	rjmp	.+10     	; 0x7858 <strtod+0x4e>
    784e:	2b e2       	ldi	r18, 0x2B	; 43
    7850:	f2 16       	cp	r15, r18
    7852:	09 f4       	brne	.+2      	; 0x7856 <strtod+0x4c>
    7854:	f9 90       	ld	r15, Y+
    7856:	ee 24       	eor	r14, r14
    7858:	8e 01       	movw	r16, r28
    785a:	01 50       	subi	r16, 0x01	; 1
    785c:	10 40       	sbci	r17, 0x00	; 0
    785e:	c8 01       	movw	r24, r16
    7860:	69 ec       	ldi	r22, 0xC9	; 201
    7862:	71 e0       	ldi	r23, 0x01	; 1
    7864:	43 e0       	ldi	r20, 0x03	; 3
    7866:	50 e0       	ldi	r21, 0x00	; 0
    7868:	0e 94 56 3e 	call	0x7cac	; 0x7cac <strncasecmp_P>
    786c:	89 2b       	or	r24, r25
    786e:	01 f5       	brne	.+64     	; 0x78b0 <strtod+0xa6>
    7870:	8e 01       	movw	r16, r28
    7872:	0e 5f       	subi	r16, 0xFE	; 254
    7874:	1f 4f       	sbci	r17, 0xFF	; 255
    7876:	c8 01       	movw	r24, r16
    7878:	6c ec       	ldi	r22, 0xCC	; 204
    787a:	71 e0       	ldi	r23, 0x01	; 1
    787c:	45 e0       	ldi	r20, 0x05	; 5
    787e:	50 e0       	ldi	r21, 0x00	; 0
    7880:	0e 94 56 3e 	call	0x7cac	; 0x7cac <strncasecmp_P>
    7884:	89 2b       	or	r24, r25
    7886:	19 f4       	brne	.+6      	; 0x788e <strtod+0x84>
    7888:	8e 01       	movw	r16, r28
    788a:	09 5f       	subi	r16, 0xF9	; 249
    788c:	1f 4f       	sbci	r17, 0xFF	; 255
    788e:	a1 14       	cp	r10, r1
    7890:	b1 04       	cpc	r11, r1
    7892:	19 f0       	breq	.+6      	; 0x789a <strtod+0x90>
    7894:	f5 01       	movw	r30, r10
    7896:	11 83       	std	Z+1, r17	; 0x01
    7898:	00 83       	st	Z, r16
    789a:	e0 fc       	sbrc	r14, 0
    789c:	04 c0       	rjmp	.+8      	; 0x78a6 <strtod+0x9c>
    789e:	70 e0       	ldi	r23, 0x00	; 0
    78a0:	90 e0       	ldi	r25, 0x00	; 0
    78a2:	80 e8       	ldi	r24, 0x80	; 128
    78a4:	14 c0       	rjmp	.+40     	; 0x78ce <strtod+0xc4>
    78a6:	70 e0       	ldi	r23, 0x00	; 0
    78a8:	90 e0       	ldi	r25, 0x00	; 0
    78aa:	80 e8       	ldi	r24, 0x80	; 128
    78ac:	6f ef       	ldi	r22, 0xFF	; 255
    78ae:	08 c1       	rjmp	.+528    	; 0x7ac0 <strtod+0x2b6>
    78b0:	c8 01       	movw	r24, r16
    78b2:	61 ed       	ldi	r22, 0xD1	; 209
    78b4:	71 e0       	ldi	r23, 0x01	; 1
    78b6:	43 e0       	ldi	r20, 0x03	; 3
    78b8:	50 e0       	ldi	r21, 0x00	; 0
    78ba:	0e 94 56 3e 	call	0x7cac	; 0x7cac <strncasecmp_P>
    78be:	89 2b       	or	r24, r25
    78c0:	69 f4       	brne	.+26     	; 0x78dc <strtod+0xd2>
    78c2:	a1 14       	cp	r10, r1
    78c4:	b1 04       	cpc	r11, r1
    78c6:	29 f4       	brne	.+10     	; 0x78d2 <strtod+0xc8>
    78c8:	70 e0       	ldi	r23, 0x00	; 0
    78ca:	90 e0       	ldi	r25, 0x00	; 0
    78cc:	80 ec       	ldi	r24, 0xC0	; 192
    78ce:	6f e7       	ldi	r22, 0x7F	; 127
    78d0:	f7 c0       	rjmp	.+494    	; 0x7ac0 <strtod+0x2b6>
    78d2:	22 96       	adiw	r28, 0x02	; 2
    78d4:	f5 01       	movw	r30, r10
    78d6:	d1 83       	std	Z+1, r29	; 0x01
    78d8:	c0 83       	st	Z, r28
    78da:	f6 cf       	rjmp	.-20     	; 0x78c8 <strtod+0xbe>
    78dc:	88 24       	eor	r8, r8
    78de:	99 24       	eor	r9, r9
    78e0:	40 e0       	ldi	r20, 0x00	; 0
    78e2:	50 e0       	ldi	r21, 0x00	; 0
    78e4:	60 e0       	ldi	r22, 0x00	; 0
    78e6:	70 e0       	ldi	r23, 0x00	; 0
    78e8:	ef 2d       	mov	r30, r15
    78ea:	e0 53       	subi	r30, 0x30	; 48
    78ec:	ea 30       	cpi	r30, 0x0A	; 10
    78ee:	a0 f5       	brcc	.+104    	; 0x7958 <strtod+0x14e>
    78f0:	f2 e0       	ldi	r31, 0x02	; 2
    78f2:	ef 2a       	or	r14, r31
    78f4:	8e 2d       	mov	r24, r14
    78f6:	90 e0       	ldi	r25, 0x00	; 0
    78f8:	9c 01       	movw	r18, r24
    78fa:	28 70       	andi	r18, 0x08	; 8
    78fc:	30 70       	andi	r19, 0x00	; 0
    78fe:	e2 fe       	sbrs	r14, 2
    7900:	06 c0       	rjmp	.+12     	; 0x790e <strtod+0x104>
    7902:	23 2b       	or	r18, r19
    7904:	79 f5       	brne	.+94     	; 0x7964 <strtod+0x15a>
    7906:	08 94       	sec
    7908:	81 1c       	adc	r8, r1
    790a:	91 1c       	adc	r9, r1
    790c:	2b c0       	rjmp	.+86     	; 0x7964 <strtod+0x15a>
    790e:	23 2b       	or	r18, r19
    7910:	19 f0       	breq	.+6      	; 0x7918 <strtod+0x10e>
    7912:	08 94       	sec
    7914:	81 08       	sbc	r8, r1
    7916:	91 08       	sbc	r9, r1
    7918:	db 01       	movw	r26, r22
    791a:	ca 01       	movw	r24, r20
    791c:	12 e0       	ldi	r17, 0x02	; 2
    791e:	88 0f       	add	r24, r24
    7920:	99 1f       	adc	r25, r25
    7922:	aa 1f       	adc	r26, r26
    7924:	bb 1f       	adc	r27, r27
    7926:	1a 95       	dec	r17
    7928:	d1 f7       	brne	.-12     	; 0x791e <strtod+0x114>
    792a:	48 0f       	add	r20, r24
    792c:	59 1f       	adc	r21, r25
    792e:	6a 1f       	adc	r22, r26
    7930:	7b 1f       	adc	r23, r27
    7932:	44 0f       	add	r20, r20
    7934:	55 1f       	adc	r21, r21
    7936:	66 1f       	adc	r22, r22
    7938:	77 1f       	adc	r23, r23
    793a:	4e 0f       	add	r20, r30
    793c:	51 1d       	adc	r21, r1
    793e:	61 1d       	adc	r22, r1
    7940:	71 1d       	adc	r23, r1
    7942:	48 39       	cpi	r20, 0x98	; 152
    7944:	29 e9       	ldi	r18, 0x99	; 153
    7946:	52 07       	cpc	r21, r18
    7948:	29 e9       	ldi	r18, 0x99	; 153
    794a:	62 07       	cpc	r22, r18
    794c:	29 e1       	ldi	r18, 0x19	; 25
    794e:	72 07       	cpc	r23, r18
    7950:	48 f0       	brcs	.+18     	; 0x7964 <strtod+0x15a>
    7952:	84 e0       	ldi	r24, 0x04	; 4
    7954:	e8 2a       	or	r14, r24
    7956:	06 c0       	rjmp	.+12     	; 0x7964 <strtod+0x15a>
    7958:	ee 3f       	cpi	r30, 0xFE	; 254
    795a:	31 f4       	brne	.+12     	; 0x7968 <strtod+0x15e>
    795c:	e3 fc       	sbrc	r14, 3
    795e:	39 c0       	rjmp	.+114    	; 0x79d2 <strtod+0x1c8>
    7960:	98 e0       	ldi	r25, 0x08	; 8
    7962:	e9 2a       	or	r14, r25
    7964:	f9 90       	ld	r15, Y+
    7966:	c0 cf       	rjmp	.-128    	; 0x78e8 <strtod+0xde>
    7968:	e5 33       	cpi	r30, 0x35	; 53
    796a:	11 f0       	breq	.+4      	; 0x7970 <strtod+0x166>
    796c:	e5 31       	cpi	r30, 0x15	; 21
    796e:	89 f5       	brne	.+98     	; 0x79d2 <strtod+0x1c8>
    7970:	29 91       	ld	r18, Y+
    7972:	2d 32       	cpi	r18, 0x2D	; 45
    7974:	19 f4       	brne	.+6      	; 0x797c <strtod+0x172>
    7976:	e0 e1       	ldi	r30, 0x10	; 16
    7978:	ee 2a       	or	r14, r30
    797a:	05 c0       	rjmp	.+10     	; 0x7986 <strtod+0x17c>
    797c:	2b 32       	cpi	r18, 0x2B	; 43
    797e:	19 f0       	breq	.+6      	; 0x7986 <strtod+0x17c>
    7980:	81 e0       	ldi	r24, 0x01	; 1
    7982:	90 e0       	ldi	r25, 0x00	; 0
    7984:	03 c0       	rjmp	.+6      	; 0x798c <strtod+0x182>
    7986:	29 91       	ld	r18, Y+
    7988:	82 e0       	ldi	r24, 0x02	; 2
    798a:	90 e0       	ldi	r25, 0x00	; 0
    798c:	e2 2f       	mov	r30, r18
    798e:	e0 53       	subi	r30, 0x30	; 48
    7990:	ea 30       	cpi	r30, 0x0A	; 10
    7992:	18 f0       	brcs	.+6      	; 0x799a <strtod+0x190>
    7994:	c8 1b       	sub	r28, r24
    7996:	d9 0b       	sbc	r29, r25
    7998:	1c c0       	rjmp	.+56     	; 0x79d2 <strtod+0x1c8>
    799a:	20 e0       	ldi	r18, 0x00	; 0
    799c:	30 e0       	ldi	r19, 0x00	; 0
    799e:	fc e0       	ldi	r31, 0x0C	; 12
    79a0:	20 38       	cpi	r18, 0x80	; 128
    79a2:	3f 07       	cpc	r19, r31
    79a4:	5c f4       	brge	.+22     	; 0x79bc <strtod+0x1b2>
    79a6:	c9 01       	movw	r24, r18
    79a8:	88 0f       	add	r24, r24
    79aa:	99 1f       	adc	r25, r25
    79ac:	88 0f       	add	r24, r24
    79ae:	99 1f       	adc	r25, r25
    79b0:	28 0f       	add	r18, r24
    79b2:	39 1f       	adc	r19, r25
    79b4:	22 0f       	add	r18, r18
    79b6:	33 1f       	adc	r19, r19
    79b8:	2e 0f       	add	r18, r30
    79ba:	31 1d       	adc	r19, r1
    79bc:	e9 91       	ld	r30, Y+
    79be:	e0 53       	subi	r30, 0x30	; 48
    79c0:	ea 30       	cpi	r30, 0x0A	; 10
    79c2:	68 f3       	brcs	.-38     	; 0x799e <strtod+0x194>
    79c4:	e4 fe       	sbrs	r14, 4
    79c6:	03 c0       	rjmp	.+6      	; 0x79ce <strtod+0x1c4>
    79c8:	30 95       	com	r19
    79ca:	21 95       	neg	r18
    79cc:	3f 4f       	sbci	r19, 0xFF	; 255
    79ce:	82 0e       	add	r8, r18
    79d0:	93 1e       	adc	r9, r19
    79d2:	ce 2c       	mov	r12, r14
    79d4:	dd 24       	eor	r13, r13
    79d6:	e1 fe       	sbrs	r14, 1
    79d8:	07 c0       	rjmp	.+14     	; 0x79e8 <strtod+0x1de>
    79da:	a1 14       	cp	r10, r1
    79dc:	b1 04       	cpc	r11, r1
    79de:	21 f0       	breq	.+8      	; 0x79e8 <strtod+0x1de>
    79e0:	21 97       	sbiw	r28, 0x01	; 1
    79e2:	f5 01       	movw	r30, r10
    79e4:	d1 83       	std	Z+1, r29	; 0x01
    79e6:	c0 83       	st	Z, r28
    79e8:	cb 01       	movw	r24, r22
    79ea:	ba 01       	movw	r22, r20
    79ec:	0e 94 fb 39 	call	0x73f6	; 0x73f6 <__floatunsisf>
    79f0:	7b 01       	movw	r14, r22
    79f2:	8c 01       	movw	r16, r24
    79f4:	f3 e0       	ldi	r31, 0x03	; 3
    79f6:	cf 22       	and	r12, r31
    79f8:	dd 24       	eor	r13, r13
    79fa:	23 e0       	ldi	r18, 0x03	; 3
    79fc:	c2 16       	cp	r12, r18
    79fe:	d1 04       	cpc	r13, r1
    7a00:	21 f4       	brne	.+8      	; 0x7a0a <strtod+0x200>
    7a02:	17 fb       	bst	r17, 7
    7a04:	10 95       	com	r17
    7a06:	17 f9       	bld	r17, 7
    7a08:	10 95       	com	r17
    7a0a:	57 01       	movw	r10, r14
    7a0c:	68 01       	movw	r12, r16
    7a0e:	c8 01       	movw	r24, r16
    7a10:	b7 01       	movw	r22, r14
    7a12:	20 e0       	ldi	r18, 0x00	; 0
    7a14:	30 e0       	ldi	r19, 0x00	; 0
    7a16:	40 e0       	ldi	r20, 0x00	; 0
    7a18:	50 e0       	ldi	r21, 0x00	; 0
    7a1a:	0e 94 5b 39 	call	0x72b6	; 0x72b6 <__cmpsf2>
    7a1e:	88 23       	and	r24, r24
    7a20:	09 f4       	brne	.+2      	; 0x7a24 <strtod+0x21a>
    7a22:	4a c0       	rjmp	.+148    	; 0x7ab8 <strtod+0x2ae>
    7a24:	97 fe       	sbrs	r9, 7
    7a26:	0d c0       	rjmp	.+26     	; 0x7a42 <strtod+0x238>
    7a28:	28 ee       	ldi	r18, 0xE8	; 232
    7a2a:	e2 2e       	mov	r14, r18
    7a2c:	21 e0       	ldi	r18, 0x01	; 1
    7a2e:	f2 2e       	mov	r15, r18
    7a30:	90 94       	com	r9
    7a32:	81 94       	neg	r8
    7a34:	91 08       	sbc	r9, r1
    7a36:	93 94       	inc	r9
    7a38:	c0 e2       	ldi	r28, 0x20	; 32
    7a3a:	d0 e0       	ldi	r29, 0x00	; 0
    7a3c:	00 e0       	ldi	r16, 0x00	; 0
    7a3e:	10 e0       	ldi	r17, 0x00	; 0
    7a40:	12 c0       	rjmp	.+36     	; 0x7a66 <strtod+0x25c>
    7a42:	90 e0       	ldi	r25, 0x00	; 0
    7a44:	e9 2e       	mov	r14, r25
    7a46:	92 e0       	ldi	r25, 0x02	; 2
    7a48:	f9 2e       	mov	r15, r25
    7a4a:	f6 cf       	rjmp	.-20     	; 0x7a38 <strtod+0x22e>
    7a4c:	f7 01       	movw	r30, r14
    7a4e:	25 91       	lpm	r18, Z+
    7a50:	35 91       	lpm	r19, Z+
    7a52:	45 91       	lpm	r20, Z+
    7a54:	54 91       	lpm	r21, Z+
    7a56:	c6 01       	movw	r24, r12
    7a58:	b5 01       	movw	r22, r10
    7a5a:	0e 94 42 3b 	call	0x7684	; 0x7684 <__mulsf3>
    7a5e:	5b 01       	movw	r10, r22
    7a60:	6c 01       	movw	r12, r24
    7a62:	8c 1a       	sub	r8, r28
    7a64:	9d 0a       	sbc	r9, r29
    7a66:	8c 16       	cp	r8, r28
    7a68:	9d 06       	cpc	r9, r29
    7a6a:	84 f7       	brge	.-32     	; 0x7a4c <strtod+0x242>
    7a6c:	d5 95       	asr	r29
    7a6e:	c7 95       	ror	r28
    7a70:	0f 5f       	subi	r16, 0xFF	; 255
    7a72:	1f 4f       	sbci	r17, 0xFF	; 255
    7a74:	06 30       	cpi	r16, 0x06	; 6
    7a76:	11 05       	cpc	r17, r1
    7a78:	29 f0       	breq	.+10     	; 0x7a84 <strtod+0x27a>
    7a7a:	8c ef       	ldi	r24, 0xFC	; 252
    7a7c:	9f ef       	ldi	r25, 0xFF	; 255
    7a7e:	e8 0e       	add	r14, r24
    7a80:	f9 1e       	adc	r15, r25
    7a82:	f1 cf       	rjmp	.-30     	; 0x7a66 <strtod+0x25c>
    7a84:	c5 01       	movw	r24, r10
    7a86:	d6 01       	movw	r26, r12
    7a88:	7c 01       	movw	r14, r24
    7a8a:	8d 01       	movw	r16, r26
    7a8c:	8c 2d       	mov	r24, r12
    7a8e:	88 0f       	add	r24, r24
    7a90:	8d 2d       	mov	r24, r13
    7a92:	88 1f       	adc	r24, r24
    7a94:	8f 3f       	cpi	r24, 0xFF	; 255
    7a96:	51 f0       	breq	.+20     	; 0x7aac <strtod+0x2a2>
    7a98:	c6 01       	movw	r24, r12
    7a9a:	b5 01       	movw	r22, r10
    7a9c:	20 e0       	ldi	r18, 0x00	; 0
    7a9e:	30 e0       	ldi	r19, 0x00	; 0
    7aa0:	40 e0       	ldi	r20, 0x00	; 0
    7aa2:	50 e0       	ldi	r21, 0x00	; 0
    7aa4:	0e 94 5b 39 	call	0x72b6	; 0x72b6 <__cmpsf2>
    7aa8:	88 23       	and	r24, r24
    7aaa:	31 f4       	brne	.+12     	; 0x7ab8 <strtod+0x2ae>
    7aac:	82 e2       	ldi	r24, 0x22	; 34
    7aae:	90 e0       	ldi	r25, 0x00	; 0
    7ab0:	90 93 c7 11 	sts	0x11C7, r25
    7ab4:	80 93 c6 11 	sts	0x11C6, r24
    7ab8:	7e 2d       	mov	r23, r14
    7aba:	9f 2d       	mov	r25, r15
    7abc:	80 2f       	mov	r24, r16
    7abe:	61 2f       	mov	r22, r17
    7ac0:	27 2f       	mov	r18, r23
    7ac2:	39 2f       	mov	r19, r25
    7ac4:	48 2f       	mov	r20, r24
    7ac6:	56 2f       	mov	r21, r22
    7ac8:	b9 01       	movw	r22, r18
    7aca:	ca 01       	movw	r24, r20
    7acc:	df 91       	pop	r29
    7ace:	cf 91       	pop	r28
    7ad0:	1f 91       	pop	r17
    7ad2:	0f 91       	pop	r16
    7ad4:	ff 90       	pop	r15
    7ad6:	ef 90       	pop	r14
    7ad8:	df 90       	pop	r13
    7ada:	cf 90       	pop	r12
    7adc:	bf 90       	pop	r11
    7ade:	af 90       	pop	r10
    7ae0:	9f 90       	pop	r9
    7ae2:	8f 90       	pop	r8
    7ae4:	08 95       	ret

00007ae6 <exit>:
    7ae6:	f8 94       	cli
    7ae8:	0c 94 cc 40 	jmp	0x8198	; 0x8198 <_exit>

00007aec <__ftoa_engine>:
    7aec:	28 30       	cpi	r18, 0x08	; 8
    7aee:	08 f0       	brcs	.+2      	; 0x7af2 <__ftoa_engine+0x6>
    7af0:	27 e0       	ldi	r18, 0x07	; 7
    7af2:	33 27       	eor	r19, r19
    7af4:	da 01       	movw	r26, r20
    7af6:	99 0f       	add	r25, r25
    7af8:	31 1d       	adc	r19, r1
    7afa:	87 fd       	sbrc	r24, 7
    7afc:	91 60       	ori	r25, 0x01	; 1
    7afe:	00 96       	adiw	r24, 0x00	; 0
    7b00:	61 05       	cpc	r22, r1
    7b02:	71 05       	cpc	r23, r1
    7b04:	39 f4       	brne	.+14     	; 0x7b14 <__ftoa_engine+0x28>
    7b06:	32 60       	ori	r19, 0x02	; 2
    7b08:	2e 5f       	subi	r18, 0xFE	; 254
    7b0a:	3d 93       	st	X+, r19
    7b0c:	30 e3       	ldi	r19, 0x30	; 48
    7b0e:	2a 95       	dec	r18
    7b10:	e1 f7       	brne	.-8      	; 0x7b0a <__ftoa_engine+0x1e>
    7b12:	08 95       	ret
    7b14:	9f 3f       	cpi	r25, 0xFF	; 255
    7b16:	30 f0       	brcs	.+12     	; 0x7b24 <__ftoa_engine+0x38>
    7b18:	80 38       	cpi	r24, 0x80	; 128
    7b1a:	71 05       	cpc	r23, r1
    7b1c:	61 05       	cpc	r22, r1
    7b1e:	09 f0       	breq	.+2      	; 0x7b22 <__ftoa_engine+0x36>
    7b20:	3c 5f       	subi	r19, 0xFC	; 252
    7b22:	3c 5f       	subi	r19, 0xFC	; 252
    7b24:	3d 93       	st	X+, r19
    7b26:	91 30       	cpi	r25, 0x01	; 1
    7b28:	08 f0       	brcs	.+2      	; 0x7b2c <__ftoa_engine+0x40>
    7b2a:	80 68       	ori	r24, 0x80	; 128
    7b2c:	91 1d       	adc	r25, r1
    7b2e:	df 93       	push	r29
    7b30:	cf 93       	push	r28
    7b32:	1f 93       	push	r17
    7b34:	0f 93       	push	r16
    7b36:	ff 92       	push	r15
    7b38:	ef 92       	push	r14
    7b3a:	19 2f       	mov	r17, r25
    7b3c:	98 7f       	andi	r25, 0xF8	; 248
    7b3e:	96 95       	lsr	r25
    7b40:	e9 2f       	mov	r30, r25
    7b42:	96 95       	lsr	r25
    7b44:	96 95       	lsr	r25
    7b46:	e9 0f       	add	r30, r25
    7b48:	ff 27       	eor	r31, r31
    7b4a:	e2 5a       	subi	r30, 0xA2	; 162
    7b4c:	fd 4f       	sbci	r31, 0xFD	; 253
    7b4e:	99 27       	eor	r25, r25
    7b50:	33 27       	eor	r19, r19
    7b52:	ee 24       	eor	r14, r14
    7b54:	ff 24       	eor	r15, r15
    7b56:	a7 01       	movw	r20, r14
    7b58:	e7 01       	movw	r28, r14
    7b5a:	05 90       	lpm	r0, Z+
    7b5c:	08 94       	sec
    7b5e:	07 94       	ror	r0
    7b60:	28 f4       	brcc	.+10     	; 0x7b6c <__ftoa_engine+0x80>
    7b62:	36 0f       	add	r19, r22
    7b64:	e7 1e       	adc	r14, r23
    7b66:	f8 1e       	adc	r15, r24
    7b68:	49 1f       	adc	r20, r25
    7b6a:	51 1d       	adc	r21, r1
    7b6c:	66 0f       	add	r22, r22
    7b6e:	77 1f       	adc	r23, r23
    7b70:	88 1f       	adc	r24, r24
    7b72:	99 1f       	adc	r25, r25
    7b74:	06 94       	lsr	r0
    7b76:	a1 f7       	brne	.-24     	; 0x7b60 <__ftoa_engine+0x74>
    7b78:	05 90       	lpm	r0, Z+
    7b7a:	07 94       	ror	r0
    7b7c:	28 f4       	brcc	.+10     	; 0x7b88 <__ftoa_engine+0x9c>
    7b7e:	e7 0e       	add	r14, r23
    7b80:	f8 1e       	adc	r15, r24
    7b82:	49 1f       	adc	r20, r25
    7b84:	56 1f       	adc	r21, r22
    7b86:	c1 1d       	adc	r28, r1
    7b88:	77 0f       	add	r23, r23
    7b8a:	88 1f       	adc	r24, r24
    7b8c:	99 1f       	adc	r25, r25
    7b8e:	66 1f       	adc	r22, r22
    7b90:	06 94       	lsr	r0
    7b92:	a1 f7       	brne	.-24     	; 0x7b7c <__ftoa_engine+0x90>
    7b94:	05 90       	lpm	r0, Z+
    7b96:	07 94       	ror	r0
    7b98:	28 f4       	brcc	.+10     	; 0x7ba4 <__ftoa_engine+0xb8>
    7b9a:	f8 0e       	add	r15, r24
    7b9c:	49 1f       	adc	r20, r25
    7b9e:	56 1f       	adc	r21, r22
    7ba0:	c7 1f       	adc	r28, r23
    7ba2:	d1 1d       	adc	r29, r1
    7ba4:	88 0f       	add	r24, r24
    7ba6:	99 1f       	adc	r25, r25
    7ba8:	66 1f       	adc	r22, r22
    7baa:	77 1f       	adc	r23, r23
    7bac:	06 94       	lsr	r0
    7bae:	a1 f7       	brne	.-24     	; 0x7b98 <__ftoa_engine+0xac>
    7bb0:	05 90       	lpm	r0, Z+
    7bb2:	07 94       	ror	r0
    7bb4:	20 f4       	brcc	.+8      	; 0x7bbe <__ftoa_engine+0xd2>
    7bb6:	49 0f       	add	r20, r25
    7bb8:	56 1f       	adc	r21, r22
    7bba:	c7 1f       	adc	r28, r23
    7bbc:	d8 1f       	adc	r29, r24
    7bbe:	99 0f       	add	r25, r25
    7bc0:	66 1f       	adc	r22, r22
    7bc2:	77 1f       	adc	r23, r23
    7bc4:	88 1f       	adc	r24, r24
    7bc6:	06 94       	lsr	r0
    7bc8:	a9 f7       	brne	.-22     	; 0x7bb4 <__ftoa_engine+0xc8>
    7bca:	84 91       	lpm	r24, Z+
    7bcc:	10 95       	com	r17
    7bce:	17 70       	andi	r17, 0x07	; 7
    7bd0:	41 f0       	breq	.+16     	; 0x7be2 <__ftoa_engine+0xf6>
    7bd2:	d6 95       	lsr	r29
    7bd4:	c7 95       	ror	r28
    7bd6:	57 95       	ror	r21
    7bd8:	47 95       	ror	r20
    7bda:	f7 94       	ror	r15
    7bdc:	e7 94       	ror	r14
    7bde:	1a 95       	dec	r17
    7be0:	c1 f7       	brne	.-16     	; 0x7bd2 <__ftoa_engine+0xe6>
    7be2:	e4 e0       	ldi	r30, 0x04	; 4
    7be4:	f2 e0       	ldi	r31, 0x02	; 2
    7be6:	68 94       	set
    7be8:	15 90       	lpm	r1, Z+
    7bea:	15 91       	lpm	r17, Z+
    7bec:	35 91       	lpm	r19, Z+
    7bee:	65 91       	lpm	r22, Z+
    7bf0:	95 91       	lpm	r25, Z+
    7bf2:	05 90       	lpm	r0, Z+
    7bf4:	7f e2       	ldi	r23, 0x2F	; 47
    7bf6:	73 95       	inc	r23
    7bf8:	e1 18       	sub	r14, r1
    7bfa:	f1 0a       	sbc	r15, r17
    7bfc:	43 0b       	sbc	r20, r19
    7bfe:	56 0b       	sbc	r21, r22
    7c00:	c9 0b       	sbc	r28, r25
    7c02:	d0 09       	sbc	r29, r0
    7c04:	c0 f7       	brcc	.-16     	; 0x7bf6 <__ftoa_engine+0x10a>
    7c06:	e1 0c       	add	r14, r1
    7c08:	f1 1e       	adc	r15, r17
    7c0a:	43 1f       	adc	r20, r19
    7c0c:	56 1f       	adc	r21, r22
    7c0e:	c9 1f       	adc	r28, r25
    7c10:	d0 1d       	adc	r29, r0
    7c12:	7e f4       	brtc	.+30     	; 0x7c32 <__ftoa_engine+0x146>
    7c14:	70 33       	cpi	r23, 0x30	; 48
    7c16:	11 f4       	brne	.+4      	; 0x7c1c <__ftoa_engine+0x130>
    7c18:	8a 95       	dec	r24
    7c1a:	e6 cf       	rjmp	.-52     	; 0x7be8 <__ftoa_engine+0xfc>
    7c1c:	e8 94       	clt
    7c1e:	01 50       	subi	r16, 0x01	; 1
    7c20:	30 f0       	brcs	.+12     	; 0x7c2e <__ftoa_engine+0x142>
    7c22:	08 0f       	add	r16, r24
    7c24:	0a f4       	brpl	.+2      	; 0x7c28 <__ftoa_engine+0x13c>
    7c26:	00 27       	eor	r16, r16
    7c28:	02 17       	cp	r16, r18
    7c2a:	08 f4       	brcc	.+2      	; 0x7c2e <__ftoa_engine+0x142>
    7c2c:	20 2f       	mov	r18, r16
    7c2e:	23 95       	inc	r18
    7c30:	02 2f       	mov	r16, r18
    7c32:	7a 33       	cpi	r23, 0x3A	; 58
    7c34:	28 f0       	brcs	.+10     	; 0x7c40 <__ftoa_engine+0x154>
    7c36:	79 e3       	ldi	r23, 0x39	; 57
    7c38:	7d 93       	st	X+, r23
    7c3a:	2a 95       	dec	r18
    7c3c:	e9 f7       	brne	.-6      	; 0x7c38 <__ftoa_engine+0x14c>
    7c3e:	10 c0       	rjmp	.+32     	; 0x7c60 <__ftoa_engine+0x174>
    7c40:	7d 93       	st	X+, r23
    7c42:	2a 95       	dec	r18
    7c44:	89 f6       	brne	.-94     	; 0x7be8 <__ftoa_engine+0xfc>
    7c46:	06 94       	lsr	r0
    7c48:	97 95       	ror	r25
    7c4a:	67 95       	ror	r22
    7c4c:	37 95       	ror	r19
    7c4e:	17 95       	ror	r17
    7c50:	17 94       	ror	r1
    7c52:	e1 18       	sub	r14, r1
    7c54:	f1 0a       	sbc	r15, r17
    7c56:	43 0b       	sbc	r20, r19
    7c58:	56 0b       	sbc	r21, r22
    7c5a:	c9 0b       	sbc	r28, r25
    7c5c:	d0 09       	sbc	r29, r0
    7c5e:	98 f0       	brcs	.+38     	; 0x7c86 <__ftoa_engine+0x19a>
    7c60:	23 95       	inc	r18
    7c62:	7e 91       	ld	r23, -X
    7c64:	73 95       	inc	r23
    7c66:	7a 33       	cpi	r23, 0x3A	; 58
    7c68:	08 f0       	brcs	.+2      	; 0x7c6c <__ftoa_engine+0x180>
    7c6a:	70 e3       	ldi	r23, 0x30	; 48
    7c6c:	7c 93       	st	X, r23
    7c6e:	20 13       	cpse	r18, r16
    7c70:	b8 f7       	brcc	.-18     	; 0x7c60 <__ftoa_engine+0x174>
    7c72:	7e 91       	ld	r23, -X
    7c74:	70 61       	ori	r23, 0x10	; 16
    7c76:	7d 93       	st	X+, r23
    7c78:	30 f0       	brcs	.+12     	; 0x7c86 <__ftoa_engine+0x19a>
    7c7a:	83 95       	inc	r24
    7c7c:	71 e3       	ldi	r23, 0x31	; 49
    7c7e:	7d 93       	st	X+, r23
    7c80:	70 e3       	ldi	r23, 0x30	; 48
    7c82:	2a 95       	dec	r18
    7c84:	e1 f7       	brne	.-8      	; 0x7c7e <__ftoa_engine+0x192>
    7c86:	11 24       	eor	r1, r1
    7c88:	ef 90       	pop	r14
    7c8a:	ff 90       	pop	r15
    7c8c:	0f 91       	pop	r16
    7c8e:	1f 91       	pop	r17
    7c90:	cf 91       	pop	r28
    7c92:	df 91       	pop	r29
    7c94:	99 27       	eor	r25, r25
    7c96:	87 fd       	sbrc	r24, 7
    7c98:	90 95       	com	r25
    7c9a:	08 95       	ret

00007c9c <isspace>:
    7c9c:	91 11       	cpse	r25, r1
    7c9e:	72 c2       	rjmp	.+1252   	; 0x8184 <__ctype_isfalse>
    7ca0:	80 32       	cpi	r24, 0x20	; 32
    7ca2:	19 f0       	breq	.+6      	; 0x7caa <isspace+0xe>
    7ca4:	89 50       	subi	r24, 0x09	; 9
    7ca6:	85 50       	subi	r24, 0x05	; 5
    7ca8:	d0 f7       	brcc	.-12     	; 0x7c9e <isspace+0x2>
    7caa:	08 95       	ret

00007cac <strncasecmp_P>:
    7cac:	fb 01       	movw	r30, r22
    7cae:	dc 01       	movw	r26, r24
    7cb0:	41 50       	subi	r20, 0x01	; 1
    7cb2:	50 40       	sbci	r21, 0x00	; 0
    7cb4:	88 f0       	brcs	.+34     	; 0x7cd8 <strncasecmp_P+0x2c>
    7cb6:	8d 91       	ld	r24, X+
    7cb8:	81 34       	cpi	r24, 0x41	; 65
    7cba:	1c f0       	brlt	.+6      	; 0x7cc2 <strncasecmp_P+0x16>
    7cbc:	8b 35       	cpi	r24, 0x5B	; 91
    7cbe:	0c f4       	brge	.+2      	; 0x7cc2 <strncasecmp_P+0x16>
    7cc0:	80 5e       	subi	r24, 0xE0	; 224
    7cc2:	65 91       	lpm	r22, Z+
    7cc4:	61 34       	cpi	r22, 0x41	; 65
    7cc6:	1c f0       	brlt	.+6      	; 0x7cce <strncasecmp_P+0x22>
    7cc8:	6b 35       	cpi	r22, 0x5B	; 91
    7cca:	0c f4       	brge	.+2      	; 0x7cce <strncasecmp_P+0x22>
    7ccc:	60 5e       	subi	r22, 0xE0	; 224
    7cce:	86 1b       	sub	r24, r22
    7cd0:	61 11       	cpse	r22, r1
    7cd2:	71 f3       	breq	.-36     	; 0x7cb0 <strncasecmp_P+0x4>
    7cd4:	99 0b       	sbc	r25, r25
    7cd6:	08 95       	ret
    7cd8:	88 1b       	sub	r24, r24
    7cda:	fc cf       	rjmp	.-8      	; 0x7cd4 <strncasecmp_P+0x28>

00007cdc <strnlen_P>:
    7cdc:	fc 01       	movw	r30, r24
    7cde:	05 90       	lpm	r0, Z+
    7ce0:	61 50       	subi	r22, 0x01	; 1
    7ce2:	70 40       	sbci	r23, 0x00	; 0
    7ce4:	01 10       	cpse	r0, r1
    7ce6:	d8 f7       	brcc	.-10     	; 0x7cde <strnlen_P+0x2>
    7ce8:	80 95       	com	r24
    7cea:	90 95       	com	r25
    7cec:	8e 0f       	add	r24, r30
    7cee:	9f 1f       	adc	r25, r31
    7cf0:	08 95       	ret

00007cf2 <strnlen>:
    7cf2:	fc 01       	movw	r30, r24
    7cf4:	61 50       	subi	r22, 0x01	; 1
    7cf6:	70 40       	sbci	r23, 0x00	; 0
    7cf8:	01 90       	ld	r0, Z+
    7cfa:	01 10       	cpse	r0, r1
    7cfc:	d8 f7       	brcc	.-10     	; 0x7cf4 <strnlen+0x2>
    7cfe:	80 95       	com	r24
    7d00:	90 95       	com	r25
    7d02:	8e 0f       	add	r24, r30
    7d04:	9f 1f       	adc	r25, r31
    7d06:	08 95       	ret

00007d08 <fdevopen>:
    7d08:	0f 93       	push	r16
    7d0a:	1f 93       	push	r17
    7d0c:	cf 93       	push	r28
    7d0e:	df 93       	push	r29
    7d10:	8c 01       	movw	r16, r24
    7d12:	eb 01       	movw	r28, r22
    7d14:	00 97       	sbiw	r24, 0x00	; 0
    7d16:	31 f4       	brne	.+12     	; 0x7d24 <fdevopen+0x1c>
    7d18:	61 15       	cp	r22, r1
    7d1a:	71 05       	cpc	r23, r1
    7d1c:	19 f4       	brne	.+6      	; 0x7d24 <fdevopen+0x1c>
    7d1e:	20 e0       	ldi	r18, 0x00	; 0
    7d20:	30 e0       	ldi	r19, 0x00	; 0
    7d22:	38 c0       	rjmp	.+112    	; 0x7d94 <fdevopen+0x8c>
    7d24:	81 e0       	ldi	r24, 0x01	; 1
    7d26:	90 e0       	ldi	r25, 0x00	; 0
    7d28:	6e e0       	ldi	r22, 0x0E	; 14
    7d2a:	70 e0       	ldi	r23, 0x00	; 0
    7d2c:	0e 94 a1 3f 	call	0x7f42	; 0x7f42 <calloc>
    7d30:	fc 01       	movw	r30, r24
    7d32:	9c 01       	movw	r18, r24
    7d34:	00 97       	sbiw	r24, 0x00	; 0
    7d36:	71 f1       	breq	.+92     	; 0x7d94 <fdevopen+0x8c>
    7d38:	80 e8       	ldi	r24, 0x80	; 128
    7d3a:	83 83       	std	Z+3, r24	; 0x03
    7d3c:	20 97       	sbiw	r28, 0x00	; 0
    7d3e:	71 f0       	breq	.+28     	; 0x7d5c <fdevopen+0x54>
    7d40:	d3 87       	std	Z+11, r29	; 0x0b
    7d42:	c2 87       	std	Z+10, r28	; 0x0a
    7d44:	81 e8       	ldi	r24, 0x81	; 129
    7d46:	83 83       	std	Z+3, r24	; 0x03
    7d48:	80 91 c0 11 	lds	r24, 0x11C0
    7d4c:	90 91 c1 11 	lds	r25, 0x11C1
    7d50:	89 2b       	or	r24, r25
    7d52:	21 f4       	brne	.+8      	; 0x7d5c <fdevopen+0x54>
    7d54:	f0 93 c1 11 	sts	0x11C1, r31
    7d58:	e0 93 c0 11 	sts	0x11C0, r30
    7d5c:	01 15       	cp	r16, r1
    7d5e:	11 05       	cpc	r17, r1
    7d60:	c9 f0       	breq	.+50     	; 0x7d94 <fdevopen+0x8c>
    7d62:	11 87       	std	Z+9, r17	; 0x09
    7d64:	00 87       	std	Z+8, r16	; 0x08
    7d66:	83 81       	ldd	r24, Z+3	; 0x03
    7d68:	82 60       	ori	r24, 0x02	; 2
    7d6a:	83 83       	std	Z+3, r24	; 0x03
    7d6c:	80 91 c2 11 	lds	r24, 0x11C2
    7d70:	90 91 c3 11 	lds	r25, 0x11C3
    7d74:	89 2b       	or	r24, r25
    7d76:	71 f4       	brne	.+28     	; 0x7d94 <fdevopen+0x8c>
    7d78:	f0 93 c3 11 	sts	0x11C3, r31
    7d7c:	e0 93 c2 11 	sts	0x11C2, r30
    7d80:	80 91 c4 11 	lds	r24, 0x11C4
    7d84:	90 91 c5 11 	lds	r25, 0x11C5
    7d88:	89 2b       	or	r24, r25
    7d8a:	21 f4       	brne	.+8      	; 0x7d94 <fdevopen+0x8c>
    7d8c:	f0 93 c5 11 	sts	0x11C5, r31
    7d90:	e0 93 c4 11 	sts	0x11C4, r30
    7d94:	c9 01       	movw	r24, r18
    7d96:	df 91       	pop	r29
    7d98:	cf 91       	pop	r28
    7d9a:	1f 91       	pop	r17
    7d9c:	0f 91       	pop	r16
    7d9e:	08 95       	ret

00007da0 <fputc>:
    7da0:	0f 93       	push	r16
    7da2:	1f 93       	push	r17
    7da4:	cf 93       	push	r28
    7da6:	df 93       	push	r29
    7da8:	8c 01       	movw	r16, r24
    7daa:	eb 01       	movw	r28, r22
    7dac:	8b 81       	ldd	r24, Y+3	; 0x03
    7dae:	81 ff       	sbrs	r24, 1
    7db0:	1b c0       	rjmp	.+54     	; 0x7de8 <fputc+0x48>
    7db2:	82 ff       	sbrs	r24, 2
    7db4:	0d c0       	rjmp	.+26     	; 0x7dd0 <fputc+0x30>
    7db6:	2e 81       	ldd	r18, Y+6	; 0x06
    7db8:	3f 81       	ldd	r19, Y+7	; 0x07
    7dba:	8c 81       	ldd	r24, Y+4	; 0x04
    7dbc:	9d 81       	ldd	r25, Y+5	; 0x05
    7dbe:	28 17       	cp	r18, r24
    7dc0:	39 07       	cpc	r19, r25
    7dc2:	64 f4       	brge	.+24     	; 0x7ddc <fputc+0x3c>
    7dc4:	e8 81       	ld	r30, Y
    7dc6:	f9 81       	ldd	r31, Y+1	; 0x01
    7dc8:	01 93       	st	Z+, r16
    7dca:	f9 83       	std	Y+1, r31	; 0x01
    7dcc:	e8 83       	st	Y, r30
    7dce:	06 c0       	rjmp	.+12     	; 0x7ddc <fputc+0x3c>
    7dd0:	e8 85       	ldd	r30, Y+8	; 0x08
    7dd2:	f9 85       	ldd	r31, Y+9	; 0x09
    7dd4:	80 2f       	mov	r24, r16
    7dd6:	19 95       	eicall
    7dd8:	89 2b       	or	r24, r25
    7dda:	31 f4       	brne	.+12     	; 0x7de8 <fputc+0x48>
    7ddc:	8e 81       	ldd	r24, Y+6	; 0x06
    7dde:	9f 81       	ldd	r25, Y+7	; 0x07
    7de0:	01 96       	adiw	r24, 0x01	; 1
    7de2:	9f 83       	std	Y+7, r25	; 0x07
    7de4:	8e 83       	std	Y+6, r24	; 0x06
    7de6:	02 c0       	rjmp	.+4      	; 0x7dec <fputc+0x4c>
    7de8:	0f ef       	ldi	r16, 0xFF	; 255
    7dea:	1f ef       	ldi	r17, 0xFF	; 255
    7dec:	c8 01       	movw	r24, r16
    7dee:	df 91       	pop	r29
    7df0:	cf 91       	pop	r28
    7df2:	1f 91       	pop	r17
    7df4:	0f 91       	pop	r16
    7df6:	08 95       	ret

00007df8 <printf>:
    7df8:	df 93       	push	r29
    7dfa:	cf 93       	push	r28
    7dfc:	cd b7       	in	r28, 0x3d	; 61
    7dfe:	de b7       	in	r29, 0x3e	; 62
    7e00:	fe 01       	movw	r30, r28
    7e02:	36 96       	adiw	r30, 0x06	; 6
    7e04:	61 91       	ld	r22, Z+
    7e06:	71 91       	ld	r23, Z+
    7e08:	80 91 c2 11 	lds	r24, 0x11C2
    7e0c:	90 91 c3 11 	lds	r25, 0x11C3
    7e10:	af 01       	movw	r20, r30
    7e12:	0e 94 bf 34 	call	0x697e	; 0x697e <vfprintf>
    7e16:	cf 91       	pop	r28
    7e18:	df 91       	pop	r29
    7e1a:	08 95       	ret

00007e1c <puts>:
    7e1c:	0f 93       	push	r16
    7e1e:	1f 93       	push	r17
    7e20:	cf 93       	push	r28
    7e22:	df 93       	push	r29
    7e24:	8c 01       	movw	r16, r24
    7e26:	e0 91 c2 11 	lds	r30, 0x11C2
    7e2a:	f0 91 c3 11 	lds	r31, 0x11C3
    7e2e:	83 81       	ldd	r24, Z+3	; 0x03
    7e30:	81 ff       	sbrs	r24, 1
    7e32:	21 c0       	rjmp	.+66     	; 0x7e76 <puts+0x5a>
    7e34:	c0 e0       	ldi	r28, 0x00	; 0
    7e36:	d0 e0       	ldi	r29, 0x00	; 0
    7e38:	0d c0       	rjmp	.+26     	; 0x7e54 <puts+0x38>
    7e3a:	e0 91 c2 11 	lds	r30, 0x11C2
    7e3e:	f0 91 c3 11 	lds	r31, 0x11C3
    7e42:	20 85       	ldd	r18, Z+8	; 0x08
    7e44:	31 85       	ldd	r19, Z+9	; 0x09
    7e46:	bf 01       	movw	r22, r30
    7e48:	f9 01       	movw	r30, r18
    7e4a:	19 95       	eicall
    7e4c:	89 2b       	or	r24, r25
    7e4e:	11 f0       	breq	.+4      	; 0x7e54 <puts+0x38>
    7e50:	cf ef       	ldi	r28, 0xFF	; 255
    7e52:	df ef       	ldi	r29, 0xFF	; 255
    7e54:	f8 01       	movw	r30, r16
    7e56:	81 91       	ld	r24, Z+
    7e58:	8f 01       	movw	r16, r30
    7e5a:	88 23       	and	r24, r24
    7e5c:	71 f7       	brne	.-36     	; 0x7e3a <puts+0x1e>
    7e5e:	e0 91 c2 11 	lds	r30, 0x11C2
    7e62:	f0 91 c3 11 	lds	r31, 0x11C3
    7e66:	20 85       	ldd	r18, Z+8	; 0x08
    7e68:	31 85       	ldd	r19, Z+9	; 0x09
    7e6a:	8a e0       	ldi	r24, 0x0A	; 10
    7e6c:	bf 01       	movw	r22, r30
    7e6e:	f9 01       	movw	r30, r18
    7e70:	19 95       	eicall
    7e72:	89 2b       	or	r24, r25
    7e74:	11 f0       	breq	.+4      	; 0x7e7a <puts+0x5e>
    7e76:	cf ef       	ldi	r28, 0xFF	; 255
    7e78:	df ef       	ldi	r29, 0xFF	; 255
    7e7a:	ce 01       	movw	r24, r28
    7e7c:	df 91       	pop	r29
    7e7e:	cf 91       	pop	r28
    7e80:	1f 91       	pop	r17
    7e82:	0f 91       	pop	r16
    7e84:	08 95       	ret

00007e86 <__ultoa_invert>:
    7e86:	fa 01       	movw	r30, r20
    7e88:	aa 27       	eor	r26, r26
    7e8a:	28 30       	cpi	r18, 0x08	; 8
    7e8c:	51 f1       	breq	.+84     	; 0x7ee2 <__ultoa_invert+0x5c>
    7e8e:	20 31       	cpi	r18, 0x10	; 16
    7e90:	81 f1       	breq	.+96     	; 0x7ef2 <__ultoa_invert+0x6c>
    7e92:	e8 94       	clt
    7e94:	6f 93       	push	r22
    7e96:	6e 7f       	andi	r22, 0xFE	; 254
    7e98:	6e 5f       	subi	r22, 0xFE	; 254
    7e9a:	7f 4f       	sbci	r23, 0xFF	; 255
    7e9c:	8f 4f       	sbci	r24, 0xFF	; 255
    7e9e:	9f 4f       	sbci	r25, 0xFF	; 255
    7ea0:	af 4f       	sbci	r26, 0xFF	; 255
    7ea2:	b1 e0       	ldi	r27, 0x01	; 1
    7ea4:	3e d0       	rcall	.+124    	; 0x7f22 <__ultoa_invert+0x9c>
    7ea6:	b4 e0       	ldi	r27, 0x04	; 4
    7ea8:	3c d0       	rcall	.+120    	; 0x7f22 <__ultoa_invert+0x9c>
    7eaa:	67 0f       	add	r22, r23
    7eac:	78 1f       	adc	r23, r24
    7eae:	89 1f       	adc	r24, r25
    7eb0:	9a 1f       	adc	r25, r26
    7eb2:	a1 1d       	adc	r26, r1
    7eb4:	68 0f       	add	r22, r24
    7eb6:	79 1f       	adc	r23, r25
    7eb8:	8a 1f       	adc	r24, r26
    7eba:	91 1d       	adc	r25, r1
    7ebc:	a1 1d       	adc	r26, r1
    7ebe:	6a 0f       	add	r22, r26
    7ec0:	71 1d       	adc	r23, r1
    7ec2:	81 1d       	adc	r24, r1
    7ec4:	91 1d       	adc	r25, r1
    7ec6:	a1 1d       	adc	r26, r1
    7ec8:	20 d0       	rcall	.+64     	; 0x7f0a <__ultoa_invert+0x84>
    7eca:	09 f4       	brne	.+2      	; 0x7ece <__ultoa_invert+0x48>
    7ecc:	68 94       	set
    7ece:	3f 91       	pop	r19
    7ed0:	2a e0       	ldi	r18, 0x0A	; 10
    7ed2:	26 9f       	mul	r18, r22
    7ed4:	11 24       	eor	r1, r1
    7ed6:	30 19       	sub	r19, r0
    7ed8:	30 5d       	subi	r19, 0xD0	; 208
    7eda:	31 93       	st	Z+, r19
    7edc:	de f6       	brtc	.-74     	; 0x7e94 <__ultoa_invert+0xe>
    7ede:	cf 01       	movw	r24, r30
    7ee0:	08 95       	ret
    7ee2:	46 2f       	mov	r20, r22
    7ee4:	47 70       	andi	r20, 0x07	; 7
    7ee6:	40 5d       	subi	r20, 0xD0	; 208
    7ee8:	41 93       	st	Z+, r20
    7eea:	b3 e0       	ldi	r27, 0x03	; 3
    7eec:	0f d0       	rcall	.+30     	; 0x7f0c <__ultoa_invert+0x86>
    7eee:	c9 f7       	brne	.-14     	; 0x7ee2 <__ultoa_invert+0x5c>
    7ef0:	f6 cf       	rjmp	.-20     	; 0x7ede <__ultoa_invert+0x58>
    7ef2:	46 2f       	mov	r20, r22
    7ef4:	4f 70       	andi	r20, 0x0F	; 15
    7ef6:	40 5d       	subi	r20, 0xD0	; 208
    7ef8:	4a 33       	cpi	r20, 0x3A	; 58
    7efa:	18 f0       	brcs	.+6      	; 0x7f02 <__ultoa_invert+0x7c>
    7efc:	49 5d       	subi	r20, 0xD9	; 217
    7efe:	31 fd       	sbrc	r19, 1
    7f00:	40 52       	subi	r20, 0x20	; 32
    7f02:	41 93       	st	Z+, r20
    7f04:	02 d0       	rcall	.+4      	; 0x7f0a <__ultoa_invert+0x84>
    7f06:	a9 f7       	brne	.-22     	; 0x7ef2 <__ultoa_invert+0x6c>
    7f08:	ea cf       	rjmp	.-44     	; 0x7ede <__ultoa_invert+0x58>
    7f0a:	b4 e0       	ldi	r27, 0x04	; 4
    7f0c:	a6 95       	lsr	r26
    7f0e:	97 95       	ror	r25
    7f10:	87 95       	ror	r24
    7f12:	77 95       	ror	r23
    7f14:	67 95       	ror	r22
    7f16:	ba 95       	dec	r27
    7f18:	c9 f7       	brne	.-14     	; 0x7f0c <__ultoa_invert+0x86>
    7f1a:	00 97       	sbiw	r24, 0x00	; 0
    7f1c:	61 05       	cpc	r22, r1
    7f1e:	71 05       	cpc	r23, r1
    7f20:	08 95       	ret
    7f22:	9b 01       	movw	r18, r22
    7f24:	ac 01       	movw	r20, r24
    7f26:	0a 2e       	mov	r0, r26
    7f28:	06 94       	lsr	r0
    7f2a:	57 95       	ror	r21
    7f2c:	47 95       	ror	r20
    7f2e:	37 95       	ror	r19
    7f30:	27 95       	ror	r18
    7f32:	ba 95       	dec	r27
    7f34:	c9 f7       	brne	.-14     	; 0x7f28 <__ultoa_invert+0xa2>
    7f36:	62 0f       	add	r22, r18
    7f38:	73 1f       	adc	r23, r19
    7f3a:	84 1f       	adc	r24, r20
    7f3c:	95 1f       	adc	r25, r21
    7f3e:	a0 1d       	adc	r26, r0
    7f40:	08 95       	ret

00007f42 <calloc>:
    7f42:	0f 93       	push	r16
    7f44:	1f 93       	push	r17
    7f46:	cf 93       	push	r28
    7f48:	df 93       	push	r29
    7f4a:	68 9f       	mul	r22, r24
    7f4c:	80 01       	movw	r16, r0
    7f4e:	69 9f       	mul	r22, r25
    7f50:	10 0d       	add	r17, r0
    7f52:	78 9f       	mul	r23, r24
    7f54:	10 0d       	add	r17, r0
    7f56:	11 24       	eor	r1, r1
    7f58:	c8 01       	movw	r24, r16
    7f5a:	0e 94 bd 3f 	call	0x7f7a	; 0x7f7a <malloc>
    7f5e:	ec 01       	movw	r28, r24
    7f60:	00 97       	sbiw	r24, 0x00	; 0
    7f62:	29 f0       	breq	.+10     	; 0x7f6e <calloc+0x2c>
    7f64:	60 e0       	ldi	r22, 0x00	; 0
    7f66:	70 e0       	ldi	r23, 0x00	; 0
    7f68:	a8 01       	movw	r20, r16
    7f6a:	0e 94 c5 40 	call	0x818a	; 0x818a <memset>
    7f6e:	ce 01       	movw	r24, r28
    7f70:	df 91       	pop	r29
    7f72:	cf 91       	pop	r28
    7f74:	1f 91       	pop	r17
    7f76:	0f 91       	pop	r16
    7f78:	08 95       	ret

00007f7a <malloc>:
    7f7a:	cf 93       	push	r28
    7f7c:	df 93       	push	r29
    7f7e:	bc 01       	movw	r22, r24
    7f80:	82 30       	cpi	r24, 0x02	; 2
    7f82:	91 05       	cpc	r25, r1
    7f84:	10 f4       	brcc	.+4      	; 0x7f8a <malloc+0x10>
    7f86:	62 e0       	ldi	r22, 0x02	; 2
    7f88:	70 e0       	ldi	r23, 0x00	; 0
    7f8a:	a0 91 ca 11 	lds	r26, 0x11CA
    7f8e:	b0 91 cb 11 	lds	r27, 0x11CB
    7f92:	ed 01       	movw	r28, r26
    7f94:	e0 e0       	ldi	r30, 0x00	; 0
    7f96:	f0 e0       	ldi	r31, 0x00	; 0
    7f98:	40 e0       	ldi	r20, 0x00	; 0
    7f9a:	50 e0       	ldi	r21, 0x00	; 0
    7f9c:	21 c0       	rjmp	.+66     	; 0x7fe0 <malloc+0x66>
    7f9e:	88 81       	ld	r24, Y
    7fa0:	99 81       	ldd	r25, Y+1	; 0x01
    7fa2:	86 17       	cp	r24, r22
    7fa4:	97 07       	cpc	r25, r23
    7fa6:	69 f4       	brne	.+26     	; 0x7fc2 <malloc+0x48>
    7fa8:	8a 81       	ldd	r24, Y+2	; 0x02
    7faa:	9b 81       	ldd	r25, Y+3	; 0x03
    7fac:	30 97       	sbiw	r30, 0x00	; 0
    7fae:	19 f0       	breq	.+6      	; 0x7fb6 <malloc+0x3c>
    7fb0:	93 83       	std	Z+3, r25	; 0x03
    7fb2:	82 83       	std	Z+2, r24	; 0x02
    7fb4:	04 c0       	rjmp	.+8      	; 0x7fbe <malloc+0x44>
    7fb6:	90 93 cb 11 	sts	0x11CB, r25
    7fba:	80 93 ca 11 	sts	0x11CA, r24
    7fbe:	fe 01       	movw	r30, r28
    7fc0:	34 c0       	rjmp	.+104    	; 0x802a <malloc+0xb0>
    7fc2:	68 17       	cp	r22, r24
    7fc4:	79 07       	cpc	r23, r25
    7fc6:	38 f4       	brcc	.+14     	; 0x7fd6 <malloc+0x5c>
    7fc8:	41 15       	cp	r20, r1
    7fca:	51 05       	cpc	r21, r1
    7fcc:	19 f0       	breq	.+6      	; 0x7fd4 <malloc+0x5a>
    7fce:	84 17       	cp	r24, r20
    7fd0:	95 07       	cpc	r25, r21
    7fd2:	08 f4       	brcc	.+2      	; 0x7fd6 <malloc+0x5c>
    7fd4:	ac 01       	movw	r20, r24
    7fd6:	fe 01       	movw	r30, r28
    7fd8:	8a 81       	ldd	r24, Y+2	; 0x02
    7fda:	9b 81       	ldd	r25, Y+3	; 0x03
    7fdc:	9c 01       	movw	r18, r24
    7fde:	e9 01       	movw	r28, r18
    7fe0:	20 97       	sbiw	r28, 0x00	; 0
    7fe2:	e9 f6       	brne	.-70     	; 0x7f9e <malloc+0x24>
    7fe4:	41 15       	cp	r20, r1
    7fe6:	51 05       	cpc	r21, r1
    7fe8:	a9 f1       	breq	.+106    	; 0x8054 <malloc+0xda>
    7fea:	ca 01       	movw	r24, r20
    7fec:	86 1b       	sub	r24, r22
    7fee:	97 0b       	sbc	r25, r23
    7ff0:	04 97       	sbiw	r24, 0x04	; 4
    7ff2:	08 f4       	brcc	.+2      	; 0x7ff6 <malloc+0x7c>
    7ff4:	ba 01       	movw	r22, r20
    7ff6:	e0 e0       	ldi	r30, 0x00	; 0
    7ff8:	f0 e0       	ldi	r31, 0x00	; 0
    7ffa:	2a c0       	rjmp	.+84     	; 0x8050 <malloc+0xd6>
    7ffc:	8d 91       	ld	r24, X+
    7ffe:	9c 91       	ld	r25, X
    8000:	11 97       	sbiw	r26, 0x01	; 1
    8002:	84 17       	cp	r24, r20
    8004:	95 07       	cpc	r25, r21
    8006:	f9 f4       	brne	.+62     	; 0x8046 <malloc+0xcc>
    8008:	64 17       	cp	r22, r20
    800a:	75 07       	cpc	r23, r21
    800c:	81 f4       	brne	.+32     	; 0x802e <malloc+0xb4>
    800e:	12 96       	adiw	r26, 0x02	; 2
    8010:	8d 91       	ld	r24, X+
    8012:	9c 91       	ld	r25, X
    8014:	13 97       	sbiw	r26, 0x03	; 3
    8016:	30 97       	sbiw	r30, 0x00	; 0
    8018:	19 f0       	breq	.+6      	; 0x8020 <malloc+0xa6>
    801a:	93 83       	std	Z+3, r25	; 0x03
    801c:	82 83       	std	Z+2, r24	; 0x02
    801e:	04 c0       	rjmp	.+8      	; 0x8028 <malloc+0xae>
    8020:	90 93 cb 11 	sts	0x11CB, r25
    8024:	80 93 ca 11 	sts	0x11CA, r24
    8028:	fd 01       	movw	r30, r26
    802a:	32 96       	adiw	r30, 0x02	; 2
    802c:	4f c0       	rjmp	.+158    	; 0x80cc <malloc+0x152>
    802e:	ca 01       	movw	r24, r20
    8030:	86 1b       	sub	r24, r22
    8032:	97 0b       	sbc	r25, r23
    8034:	fd 01       	movw	r30, r26
    8036:	e8 0f       	add	r30, r24
    8038:	f9 1f       	adc	r31, r25
    803a:	61 93       	st	Z+, r22
    803c:	71 93       	st	Z+, r23
    803e:	02 97       	sbiw	r24, 0x02	; 2
    8040:	8d 93       	st	X+, r24
    8042:	9c 93       	st	X, r25
    8044:	43 c0       	rjmp	.+134    	; 0x80cc <malloc+0x152>
    8046:	fd 01       	movw	r30, r26
    8048:	82 81       	ldd	r24, Z+2	; 0x02
    804a:	93 81       	ldd	r25, Z+3	; 0x03
    804c:	9c 01       	movw	r18, r24
    804e:	d9 01       	movw	r26, r18
    8050:	10 97       	sbiw	r26, 0x00	; 0
    8052:	a1 f6       	brne	.-88     	; 0x7ffc <malloc+0x82>
    8054:	80 91 c8 11 	lds	r24, 0x11C8
    8058:	90 91 c9 11 	lds	r25, 0x11C9
    805c:	89 2b       	or	r24, r25
    805e:	41 f4       	brne	.+16     	; 0x8070 <malloc+0xf6>
    8060:	80 91 51 08 	lds	r24, 0x0851
    8064:	90 91 52 08 	lds	r25, 0x0852
    8068:	90 93 c9 11 	sts	0x11C9, r25
    806c:	80 93 c8 11 	sts	0x11C8, r24
    8070:	40 91 53 08 	lds	r20, 0x0853
    8074:	50 91 54 08 	lds	r21, 0x0854
    8078:	41 15       	cp	r20, r1
    807a:	51 05       	cpc	r21, r1
    807c:	41 f4       	brne	.+16     	; 0x808e <malloc+0x114>
    807e:	4d b7       	in	r20, 0x3d	; 61
    8080:	5e b7       	in	r21, 0x3e	; 62
    8082:	80 91 4f 08 	lds	r24, 0x084F
    8086:	90 91 50 08 	lds	r25, 0x0850
    808a:	48 1b       	sub	r20, r24
    808c:	59 0b       	sbc	r21, r25
    808e:	20 91 c8 11 	lds	r18, 0x11C8
    8092:	30 91 c9 11 	lds	r19, 0x11C9
    8096:	24 17       	cp	r18, r20
    8098:	35 07       	cpc	r19, r21
    809a:	b0 f4       	brcc	.+44     	; 0x80c8 <malloc+0x14e>
    809c:	ca 01       	movw	r24, r20
    809e:	82 1b       	sub	r24, r18
    80a0:	93 0b       	sbc	r25, r19
    80a2:	86 17       	cp	r24, r22
    80a4:	97 07       	cpc	r25, r23
    80a6:	80 f0       	brcs	.+32     	; 0x80c8 <malloc+0x14e>
    80a8:	ab 01       	movw	r20, r22
    80aa:	4e 5f       	subi	r20, 0xFE	; 254
    80ac:	5f 4f       	sbci	r21, 0xFF	; 255
    80ae:	84 17       	cp	r24, r20
    80b0:	95 07       	cpc	r25, r21
    80b2:	50 f0       	brcs	.+20     	; 0x80c8 <malloc+0x14e>
    80b4:	42 0f       	add	r20, r18
    80b6:	53 1f       	adc	r21, r19
    80b8:	50 93 c9 11 	sts	0x11C9, r21
    80bc:	40 93 c8 11 	sts	0x11C8, r20
    80c0:	f9 01       	movw	r30, r18
    80c2:	61 93       	st	Z+, r22
    80c4:	71 93       	st	Z+, r23
    80c6:	02 c0       	rjmp	.+4      	; 0x80cc <malloc+0x152>
    80c8:	e0 e0       	ldi	r30, 0x00	; 0
    80ca:	f0 e0       	ldi	r31, 0x00	; 0
    80cc:	cf 01       	movw	r24, r30
    80ce:	df 91       	pop	r29
    80d0:	cf 91       	pop	r28
    80d2:	08 95       	ret

000080d4 <free>:
    80d4:	cf 93       	push	r28
    80d6:	df 93       	push	r29
    80d8:	00 97       	sbiw	r24, 0x00	; 0
    80da:	09 f4       	brne	.+2      	; 0x80de <free+0xa>
    80dc:	50 c0       	rjmp	.+160    	; 0x817e <free+0xaa>
    80de:	ec 01       	movw	r28, r24
    80e0:	22 97       	sbiw	r28, 0x02	; 2
    80e2:	1b 82       	std	Y+3, r1	; 0x03
    80e4:	1a 82       	std	Y+2, r1	; 0x02
    80e6:	a0 91 ca 11 	lds	r26, 0x11CA
    80ea:	b0 91 cb 11 	lds	r27, 0x11CB
    80ee:	10 97       	sbiw	r26, 0x00	; 0
    80f0:	09 f1       	breq	.+66     	; 0x8134 <free+0x60>
    80f2:	40 e0       	ldi	r20, 0x00	; 0
    80f4:	50 e0       	ldi	r21, 0x00	; 0
    80f6:	ac 17       	cp	r26, r28
    80f8:	bd 07       	cpc	r27, r29
    80fa:	08 f1       	brcs	.+66     	; 0x813e <free+0x6a>
    80fc:	bb 83       	std	Y+3, r27	; 0x03
    80fe:	aa 83       	std	Y+2, r26	; 0x02
    8100:	fe 01       	movw	r30, r28
    8102:	21 91       	ld	r18, Z+
    8104:	31 91       	ld	r19, Z+
    8106:	e2 0f       	add	r30, r18
    8108:	f3 1f       	adc	r31, r19
    810a:	ae 17       	cp	r26, r30
    810c:	bf 07       	cpc	r27, r31
    810e:	79 f4       	brne	.+30     	; 0x812e <free+0x5a>
    8110:	8d 91       	ld	r24, X+
    8112:	9c 91       	ld	r25, X
    8114:	11 97       	sbiw	r26, 0x01	; 1
    8116:	28 0f       	add	r18, r24
    8118:	39 1f       	adc	r19, r25
    811a:	2e 5f       	subi	r18, 0xFE	; 254
    811c:	3f 4f       	sbci	r19, 0xFF	; 255
    811e:	39 83       	std	Y+1, r19	; 0x01
    8120:	28 83       	st	Y, r18
    8122:	12 96       	adiw	r26, 0x02	; 2
    8124:	8d 91       	ld	r24, X+
    8126:	9c 91       	ld	r25, X
    8128:	13 97       	sbiw	r26, 0x03	; 3
    812a:	9b 83       	std	Y+3, r25	; 0x03
    812c:	8a 83       	std	Y+2, r24	; 0x02
    812e:	41 15       	cp	r20, r1
    8130:	51 05       	cpc	r21, r1
    8132:	71 f4       	brne	.+28     	; 0x8150 <free+0x7c>
    8134:	d0 93 cb 11 	sts	0x11CB, r29
    8138:	c0 93 ca 11 	sts	0x11CA, r28
    813c:	20 c0       	rjmp	.+64     	; 0x817e <free+0xaa>
    813e:	12 96       	adiw	r26, 0x02	; 2
    8140:	8d 91       	ld	r24, X+
    8142:	9c 91       	ld	r25, X
    8144:	13 97       	sbiw	r26, 0x03	; 3
    8146:	ad 01       	movw	r20, r26
    8148:	00 97       	sbiw	r24, 0x00	; 0
    814a:	11 f0       	breq	.+4      	; 0x8150 <free+0x7c>
    814c:	dc 01       	movw	r26, r24
    814e:	d3 cf       	rjmp	.-90     	; 0x80f6 <free+0x22>
    8150:	fa 01       	movw	r30, r20
    8152:	d3 83       	std	Z+3, r29	; 0x03
    8154:	c2 83       	std	Z+2, r28	; 0x02
    8156:	21 91       	ld	r18, Z+
    8158:	31 91       	ld	r19, Z+
    815a:	e2 0f       	add	r30, r18
    815c:	f3 1f       	adc	r31, r19
    815e:	ce 17       	cp	r28, r30
    8160:	df 07       	cpc	r29, r31
    8162:	69 f4       	brne	.+26     	; 0x817e <free+0xaa>
    8164:	88 81       	ld	r24, Y
    8166:	99 81       	ldd	r25, Y+1	; 0x01
    8168:	28 0f       	add	r18, r24
    816a:	39 1f       	adc	r19, r25
    816c:	2e 5f       	subi	r18, 0xFE	; 254
    816e:	3f 4f       	sbci	r19, 0xFF	; 255
    8170:	fa 01       	movw	r30, r20
    8172:	31 83       	std	Z+1, r19	; 0x01
    8174:	20 83       	st	Z, r18
    8176:	8a 81       	ldd	r24, Y+2	; 0x02
    8178:	9b 81       	ldd	r25, Y+3	; 0x03
    817a:	93 83       	std	Z+3, r25	; 0x03
    817c:	82 83       	std	Z+2, r24	; 0x02
    817e:	df 91       	pop	r29
    8180:	cf 91       	pop	r28
    8182:	08 95       	ret

00008184 <__ctype_isfalse>:
    8184:	99 27       	eor	r25, r25
    8186:	88 27       	eor	r24, r24

00008188 <__ctype_istrue>:
    8188:	08 95       	ret

0000818a <memset>:
    818a:	dc 01       	movw	r26, r24
    818c:	01 c0       	rjmp	.+2      	; 0x8190 <memset+0x6>
    818e:	6d 93       	st	X+, r22
    8190:	41 50       	subi	r20, 0x01	; 1
    8192:	50 40       	sbci	r21, 0x00	; 0
    8194:	e0 f7       	brcc	.-8      	; 0x818e <memset+0x4>
    8196:	08 95       	ret

00008198 <_exit>:
    8198:	f8 94       	cli

0000819a <__stop_program>:
    819a:	ff cf       	rjmp	.-2      	; 0x819a <__stop_program>
