
ArmsPic.elf:     file format elf32-avr

Sections:
Idx Name          Size      VMA       LMA       File off  Algn
  0 .data         000006e4  00800200  00008cda  00008d6e  2**0
                  CONTENTS, ALLOC, LOAD, DATA
  1 .text         00008cda  00000000  00000000  00000094  2**1
                  CONTENTS, ALLOC, LOAD, READONLY, CODE
  2 .bss          00000a06  008008e4  008008e4  00009452  2**0
                  ALLOC
  3 .stab         00005b38  00000000  00000000  00009454  2**2
                  CONTENTS, READONLY, DEBUGGING
  4 .stabstr      0000130d  00000000  00000000  0000ef8c  2**0
                  CONTENTS, READONLY, DEBUGGING
  5 .debug_aranges 00000168  00000000  00000000  00010299  2**0
                  CONTENTS, READONLY, DEBUGGING
  6 .debug_pubnames 00000c19  00000000  00000000  00010401  2**0
                  CONTENTS, READONLY, DEBUGGING
  7 .debug_info   0000453a  00000000  00000000  0001101a  2**0
                  CONTENTS, READONLY, DEBUGGING
  8 .debug_abbrev 000010fe  00000000  00000000  00015554  2**0
                  CONTENTS, READONLY, DEBUGGING
  9 .debug_line   00004867  00000000  00000000  00016652  2**0
                  CONTENTS, READONLY, DEBUGGING
 10 .debug_frame  00000770  00000000  00000000  0001aebc  2**2
                  CONTENTS, READONLY, DEBUGGING
 11 .debug_str    000010ed  00000000  00000000  0001b62c  2**0
                  CONTENTS, READONLY, DEBUGGING
 12 .debug_loc    000045ea  00000000  00000000  0001c719  2**0
                  CONTENTS, READONLY, DEBUGGING
 13 .debug_pubtypes 0000024e  00000000  00000000  00020d03  2**0
                  CONTENTS, READONLY, DEBUGGING
 14 .debug_ranges 000001f8  00000000  00000000  00020f51  2**0
                  CONTENTS, READONLY, DEBUGGING

Disassembly of section .text:

00000000 <__vectors>:
       0:	0c 94 c1 01 	jmp	0x382	; 0x382 <__ctors_end>
       4:	0c 94 e0 01 	jmp	0x3c0	; 0x3c0 <__bad_interrupt>
       8:	0c 94 e0 01 	jmp	0x3c0	; 0x3c0 <__bad_interrupt>
       c:	0c 94 e0 01 	jmp	0x3c0	; 0x3c0 <__bad_interrupt>
      10:	0c 94 e0 01 	jmp	0x3c0	; 0x3c0 <__bad_interrupt>
      14:	0c 94 e0 01 	jmp	0x3c0	; 0x3c0 <__bad_interrupt>
      18:	0c 94 e0 01 	jmp	0x3c0	; 0x3c0 <__bad_interrupt>
      1c:	0c 94 e0 01 	jmp	0x3c0	; 0x3c0 <__bad_interrupt>
      20:	0c 94 e0 01 	jmp	0x3c0	; 0x3c0 <__bad_interrupt>
      24:	0c 94 e0 01 	jmp	0x3c0	; 0x3c0 <__bad_interrupt>
      28:	0c 94 e0 01 	jmp	0x3c0	; 0x3c0 <__bad_interrupt>
      2c:	0c 94 e0 01 	jmp	0x3c0	; 0x3c0 <__bad_interrupt>
      30:	0c 94 e0 01 	jmp	0x3c0	; 0x3c0 <__bad_interrupt>
      34:	0c 94 e0 01 	jmp	0x3c0	; 0x3c0 <__bad_interrupt>
      38:	0c 94 e0 01 	jmp	0x3c0	; 0x3c0 <__bad_interrupt>
      3c:	0c 94 e0 01 	jmp	0x3c0	; 0x3c0 <__bad_interrupt>
      40:	0c 94 e0 01 	jmp	0x3c0	; 0x3c0 <__bad_interrupt>
      44:	0c 94 e0 01 	jmp	0x3c0	; 0x3c0 <__bad_interrupt>
      48:	0c 94 e0 01 	jmp	0x3c0	; 0x3c0 <__bad_interrupt>
      4c:	0c 94 e0 01 	jmp	0x3c0	; 0x3c0 <__bad_interrupt>
      50:	0c 94 e0 01 	jmp	0x3c0	; 0x3c0 <__bad_interrupt>
      54:	0c 94 e0 01 	jmp	0x3c0	; 0x3c0 <__bad_interrupt>
      58:	0c 94 e0 01 	jmp	0x3c0	; 0x3c0 <__bad_interrupt>
      5c:	0c 94 e0 01 	jmp	0x3c0	; 0x3c0 <__bad_interrupt>
      60:	0c 94 e0 01 	jmp	0x3c0	; 0x3c0 <__bad_interrupt>
      64:	0c 94 b3 38 	jmp	0x7166	; 0x7166 <__vector_25>
      68:	0c 94 e0 01 	jmp	0x3c0	; 0x3c0 <__bad_interrupt>
      6c:	0c 94 e0 01 	jmp	0x3c0	; 0x3c0 <__bad_interrupt>
      70:	0c 94 e0 01 	jmp	0x3c0	; 0x3c0 <__bad_interrupt>
      74:	0c 94 e0 01 	jmp	0x3c0	; 0x3c0 <__bad_interrupt>
      78:	0c 94 e0 01 	jmp	0x3c0	; 0x3c0 <__bad_interrupt>
      7c:	0c 94 e0 01 	jmp	0x3c0	; 0x3c0 <__bad_interrupt>
      80:	0c 94 e0 01 	jmp	0x3c0	; 0x3c0 <__bad_interrupt>
      84:	0c 94 e0 01 	jmp	0x3c0	; 0x3c0 <__bad_interrupt>
      88:	0c 94 e0 01 	jmp	0x3c0	; 0x3c0 <__bad_interrupt>
      8c:	0c 94 e0 01 	jmp	0x3c0	; 0x3c0 <__bad_interrupt>
      90:	0c 94 7e 29 	jmp	0x52fc	; 0x52fc <__vector_36>
      94:	0c 94 e0 01 	jmp	0x3c0	; 0x3c0 <__bad_interrupt>
      98:	0c 94 e0 01 	jmp	0x3c0	; 0x3c0 <__bad_interrupt>
      9c:	0c 94 e0 01 	jmp	0x3c0	; 0x3c0 <__bad_interrupt>
      a0:	0c 94 e0 01 	jmp	0x3c0	; 0x3c0 <__bad_interrupt>
      a4:	0c 94 e0 01 	jmp	0x3c0	; 0x3c0 <__bad_interrupt>
      a8:	0c 94 e0 01 	jmp	0x3c0	; 0x3c0 <__bad_interrupt>
      ac:	0c 94 e0 01 	jmp	0x3c0	; 0x3c0 <__bad_interrupt>
      b0:	0c 94 e0 01 	jmp	0x3c0	; 0x3c0 <__bad_interrupt>
      b4:	0c 94 e0 01 	jmp	0x3c0	; 0x3c0 <__bad_interrupt>
      b8:	0c 94 e0 01 	jmp	0x3c0	; 0x3c0 <__bad_interrupt>
      bc:	0c 94 e0 01 	jmp	0x3c0	; 0x3c0 <__bad_interrupt>
      c0:	0c 94 e0 01 	jmp	0x3c0	; 0x3c0 <__bad_interrupt>
      c4:	0c 94 e0 01 	jmp	0x3c0	; 0x3c0 <__bad_interrupt>
      c8:	0c 94 e0 01 	jmp	0x3c0	; 0x3c0 <__bad_interrupt>
      cc:	7d 2f       	mov	r23, r29
      ce:	48 33       	cpi	r20, 0x38	; 56
      d0:	48 33       	cpi	r20, 0x38	; 56
      d2:	48 33       	cpi	r20, 0x38	; 56
      d4:	93 30       	cpi	r25, 0x03	; 3
      d6:	48 33       	cpi	r20, 0x38	; 56
      d8:	cd 30       	cpi	r28, 0x0D	; 13
      da:	48 33       	cpi	r20, 0x38	; 56
      dc:	48 33       	cpi	r20, 0x38	; 56
      de:	3e 31       	cpi	r19, 0x1E	; 30
      e0:	48 33       	cpi	r20, 0x38	; 56
      e2:	48 33       	cpi	r20, 0x38	; 56
      e4:	48 33       	cpi	r20, 0x38	; 56
      e6:	48 33       	cpi	r20, 0x38	; 56
      e8:	48 33       	cpi	r20, 0x38	; 56
      ea:	fd 31       	cpi	r31, 0x1D	; 29
      ec:	3f 32       	cpi	r19, 0x2F	; 47
      ee:	48 33       	cpi	r20, 0x38	; 56
      f0:	48 33       	cpi	r20, 0x38	; 56
      f2:	48 33       	cpi	r20, 0x38	; 56
      f4:	48 33       	cpi	r20, 0x38	; 56
      f6:	48 33       	cpi	r20, 0x38	; 56
      f8:	48 33       	cpi	r20, 0x38	; 56
      fa:	48 33       	cpi	r20, 0x38	; 56
      fc:	48 33       	cpi	r20, 0x38	; 56
      fe:	48 33       	cpi	r20, 0x38	; 56
     100:	48 33       	cpi	r20, 0x38	; 56
     102:	48 33       	cpi	r20, 0x38	; 56
     104:	48 33       	cpi	r20, 0x38	; 56
     106:	48 33       	cpi	r20, 0x38	; 56
     108:	48 33       	cpi	r20, 0x38	; 56
     10a:	48 33       	cpi	r20, 0x38	; 56
     10c:	92 2f       	mov	r25, r18
     10e:	a1 2f       	mov	r26, r17
     110:	48 33       	cpi	r20, 0x38	; 56
     112:	f7 2f       	mov	r31, r23
     114:	0e 30       	cpi	r16, 0x0E	; 14
     116:	ca 30       	cpi	r28, 0x0A	; 10
     118:	f1 30       	cpi	r31, 0x01	; 1
     11a:	48 33       	cpi	r20, 0x38	; 56
     11c:	f4 30       	cpi	r31, 0x04	; 4
     11e:	48 33       	cpi	r20, 0x38	; 56
     120:	48 33       	cpi	r20, 0x38	; 56
     122:	48 33       	cpi	r20, 0x38	; 56
     124:	62 31       	cpi	r22, 0x12	; 18
     126:	71 31       	cpi	r23, 0x11	; 17
     128:	76 31       	cpi	r23, 0x16	; 22
     12a:	48 33       	cpi	r20, 0x38	; 56
     12c:	28 32       	cpi	r18, 0x28	; 40
     12e:	42 32       	cpi	r20, 0x22	; 34
     130:	48 33       	cpi	r20, 0x38	; 56
     132:	6c 32       	cpi	r22, 0x2C	; 44
     134:	48 33       	cpi	r20, 0x38	; 56
     136:	07 33       	cpi	r16, 0x37	; 55
     138:	94 32       	cpi	r25, 0x24	; 36
     13a:	39 33       	cpi	r19, 0x39	; 57
     13c:	03 6e       	ori	r16, 0xE3	; 227
     13e:	db 36       	cpi	r29, 0x6B	; 107
     140:	3d 9a       	sbi	0x07, 5	; 7
     142:	99 99       	sbic	0x13, 1	; 19
     144:	99 3d       	cpi	r25, 0xD9	; 217
     146:	ab aa       	std	Y+51, r10	; 0x33
     148:	aa 2a       	or	r10, r26
     14a:	3e 00       	.word	0x003e	; ????
     14c:	00 00       	nop
     14e:	80 3f       	cpi	r24, 0xF0	; 240
     150:	08 4a       	sbci	r16, 0xA8	; 168
     152:	d7 3b       	cpi	r29, 0xB7	; 183
     154:	3b ce       	rjmp	.-906    	; 0xfffffdcc <__eeprom_end+0xff7efdcc>
     156:	01 6e       	ori	r16, 0xE1	; 225
     158:	84 bc       	out	0x24, r8	; 36
     15a:	bf fd       	.word	0xfdbf	; ????
     15c:	c1 2f       	mov	r28, r17
     15e:	3d 6c       	ori	r19, 0xCD	; 205
     160:	74 31       	cpi	r23, 0x14	; 20
     162:	9a bd       	out	0x2a, r25	; 42
     164:	56 83       	std	Z+6, r21	; 0x06
     166:	3d da       	rcall	.-2950   	; 0xfffff5e2 <__eeprom_end+0xff7ef5e2>
     168:	3d 00       	.word	0x003d	; ????
     16a:	c7 7f       	andi	r28, 0xF7	; 247
     16c:	11 be       	out	0x31, r1	; 49
     16e:	d9 e4       	ldi	r29, 0x49	; 73
     170:	bb 4c       	sbci	r27, 0xCB	; 203
     172:	3e 91       	ld	r19, -X
     174:	6b aa       	std	Y+51, r6	; 0x33
     176:	aa be       	out	0x3a, r10	; 58
     178:	00 00       	nop
     17a:	00 80       	ld	r0, Z
     17c:	3f 07       	cpc	r19, r31
     17e:	2c 7a       	andi	r18, 0xAC	; 172
     180:	a5 ba       	out	0x15, r10	; 21
     182:	6c c5       	rjmp	.+2776   	; 0xc5c <ServoTorqueEnabled+0x12>
     184:	90 da       	rcall	.-2784   	; 0xfffff6a6 <__eeprom_end+0xff7ef6a6>
     186:	3b 93       	.word	0x933b	; ????
     188:	65 fc       	sbrc	r6, 5
     18a:	8b bc       	out	0x2b, r8	; 43
     18c:	53 f8       	bld	r5, 3
     18e:	10 fd       	sbrc	r17, 0
     190:	3c 56       	subi	r19, 0x6C	; 108
     192:	92 83       	std	Z+2, r25	; 0x02
     194:	4d bd       	out	0x2d, r20	; 45
     196:	87 9d       	mul	r24, r7
     198:	3a b6       	in	r3, 0x3a	; 58
     19a:	3d cb       	rjmp	.-2438   	; 0xfffff816 <__eeprom_end+0xff7ef816>
     19c:	c9 bf       	out	0x39, r28	; 57
     19e:	5b be       	out	0x3b, r5	; 59
     1a0:	73 da       	rcall	.-2842   	; 0xfffff688 <__eeprom_end+0xff7ef688>
     1a2:	0f c9       	rjmp	.-3554   	; 0xfffff3c2 <__eeprom_end+0xff7ef3c2>
     1a4:	3f 05       	cpc	r19, r15
     1a6:	a8 4c       	sbci	r26, 0xC8	; 200
     1a8:	cd b2       	in	r12, 0x1d	; 29
     1aa:	d4 4e       	sbci	r29, 0xE4	; 228
     1ac:	b9 38       	cpi	r27, 0x89	; 137
     1ae:	36 a9       	ldd	r19, Z+54	; 0x36
     1b0:	02 0c       	add	r0, r2
     1b2:	50 b9       	out	0x00, r21	; 0
     1b4:	91 86       	std	Z+9, r9	; 0x09
     1b6:	88 08       	sbc	r8, r8
     1b8:	3c a6       	std	Y+44, r3	; 0x2c
     1ba:	aa aa       	std	Y+50, r10	; 0x32
     1bc:	2a be       	out	0x3a, r2	; 58
     1be:	00 00       	nop
     1c0:	00 80       	ld	r0, Z
     1c2:	3f 07       	cpc	r19, r31
     1c4:	63 42       	sbci	r22, 0x23	; 35
     1c6:	36 b7       	in	r19, 0x36	; 54
     1c8:	9b d8       	rcall	.-3786   	; 0xfffff300 <__eeprom_end+0xff7ef300>
     1ca:	a7 1a       	sub	r10, r23
     1cc:	39 68       	ori	r19, 0x89	; 137
     1ce:	56 18       	sub	r5, r6
     1d0:	ae ba       	out	0x1e, r10	; 30
     1d2:	ab 55       	subi	r26, 0x5B	; 91
     1d4:	8c 1d       	adc	r24, r12
     1d6:	3c b7       	in	r19, 0x3c	; 60
     1d8:	cc 57       	subi	r28, 0x7C	; 124
     1da:	63 bd       	out	0x23, r22	; 35
     1dc:	6d ed       	ldi	r22, 0xDD	; 221
     1de:	fd 75       	andi	r31, 0x5D	; 93
     1e0:	3e f6       	brtc	.-114    	; 0x170 <__SREG__+0x131>
     1e2:	17 72       	andi	r17, 0x27	; 39
     1e4:	31 bf       	out	0x31, r19	; 49
     1e6:	00 00       	nop
     1e8:	00 80       	ld	r0, Z
     1ea:	3f 08       	sbc	r3, r15
     1ec:	00 00       	nop
     1ee:	00 be       	out	0x30, r0	; 48
     1f0:	92 24       	eor	r9, r2
     1f2:	49 12       	cpse	r4, r25
     1f4:	3e ab       	std	Y+54, r19	; 0x36
     1f6:	aa aa       	std	Y+50, r10	; 0x32
     1f8:	2a be       	out	0x3a, r2	; 58
     1fa:	cd cc       	rjmp	.-1638   	; 0xfffffb96 <__eeprom_end+0xff7efb96>
     1fc:	cc 4c       	sbci	r28, 0xCC	; 204
     1fe:	3e 00       	.word	0x003e	; ????
     200:	00 00       	nop
     202:	80 be       	out	0x30, r8	; 48
     204:	ab aa       	std	Y+51, r10	; 0x33
     206:	aa aa       	std	Y+50, r10	; 0x32
     208:	3e 00       	.word	0x003e	; ????
     20a:	00 00       	nop
     20c:	00 bf       	out	0x30, r16	; 48
     20e:	00 00       	nop
     210:	00 80       	ld	r0, Z
     212:	3f 00       	.word	0x003f	; ????
     214:	00 00       	nop
     216:	00 00       	nop
     218:	08 41       	sbci	r16, 0x18	; 24
     21a:	78 d3       	rcall	.+1776   	; 0x90c <MovePerc+0x38>
     21c:	bb 43       	sbci	r27, 0x3B	; 59
     21e:	87 d1       	rcall	.+782    	; 0x52e <SetPosition+0x16a>
     220:	13 3d       	cpi	r17, 0xD3	; 211
     222:	19 0e       	add	r1, r25
     224:	3c c3       	rjmp	.+1656   	; 0x89e <SetMaxSpeeds+0xa>
     226:	bd 42       	sbci	r27, 0x2D	; 45
     228:	82 ad       	ldd	r24, Z+58	; 0x3a
     22a:	2b 3e       	cpi	r18, 0xEB	; 235
     22c:	68 ec       	ldi	r22, 0xC8	; 200
     22e:	82 76       	andi	r24, 0x62	; 98
     230:	be d9       	rcall	.-3204   	; 0xfffff5ae <__eeprom_end+0xff7ef5ae>
     232:	8f e1       	ldi	r24, 0x1F	; 31
     234:	a9 3e       	cpi	r26, 0xE9	; 233
     236:	4c 80       	ldd	r4, Y+4	; 0x04
     238:	ef ff       	.word	0xffef	; ????
     23a:	be 01       	movw	r22, r28
     23c:	c4 ff       	sbrs	r28, 4
     23e:	7f 3f       	cpi	r23, 0xFF	; 255
     240:	00 00       	nop
     242:	00 00       	nop
	...

00000245 <__c.1917>:
     245:	6e 61 6e 00                                         nan.

00000249 <__c.1915>:
     249:	69 6e 66 00                                         inf.

0000024d <pstr_inf>:
     24d:	49 4e 46                                            INF

00000250 <pstr_inity>:
     250:	49 4e 49 54 59                                      INITY

00000255 <pstr_nan>:
     255:	4e 41 4e                                            NAN

00000258 <pwr_m10>:
     258:	cd cc cc 3d 0a d7 23 3c 17 b7 d1 38 77 cc 2b 32     ...=..#<...8w.+2
     268:	95 95 e6 24 1f b1 4f 0a                             ...$..O.

00000270 <pwr_p10>:
     270:	00 00 20 41 00 00 c8 42 00 40 1c 46 20 bc be 4c     .. A...B.@.F ..L
     280:	ca 1b 0e 5a ae c5 9d 74 00 40 7a 10 f3 5a 00 a0     ...Z...t.@z..Z..
     290:	72 4e 18 09 00 10 a5 d4 e8 00 00 e8 76 48 17 00     rN..........vH..
     2a0:	00 e4 0b 54 02 00 00 ca 9a 3b 00 00 00 e1 f5 05     ...T.....;......
     2b0:	00 00 80 96 98 00 00 00 40 42 0f 00 00 00 a0 86     ........@B......
     2c0:	01 00 00 00 10 27 00 00 00 00 e8 03 00 00 00 00     .....'..........
     2d0:	64 00 00 00 00 00 0a 00 00 00 00 00 01 00 00 00     d...............
     2e0:	00 00 2c 76 d8 88 dc 67 4f 08 23 df c1 df ae 59     ..,v...gO.#....Y
     2f0:	e1 b1 b7 96 e5 e3 e4 53 c6 3a e6 51 99 76 96 e8     .......S.:.Q.v..
     300:	e6 c2 84 26 eb 89 8c 9b 62 ed 40 7c 6f fc ef bc     ...&....b.@|o...
     310:	9c 9f 40 f2 ba a5 6f a5 f4 90 05 5a 2a f7 5c 93     ..@...o....Z*.\.
     320:	6b 6c f9 67 6d c1 1b fc e0 e4 0d 47 fe f5 20 e6     kl.gm......G.. .
     330:	b5 00 d0 ed 90 2e 03 00 94 35 77 05 00 80 84 1e     .........5w.....
     340:	08 00 00 20 4e 0a 00 00 00 c8 0c 33 33 33 33 0f     ... N......3333.
     350:	98 6e 12 83 11 41 ef 8d 21 14 89 3b e6 55 16 cf     .n...A..!..;.U..
     360:	fe e6 db 18 d1 84 4b 38 1b f7 7c 1d 90 1d a4 bb     ......K8..|.....
     370:	e4 24 20 32 84 72 5e 22 81 00 c9 f1 24 ec a1 e5     .$ 2.r^"....$...
     380:	3d 27                                               ='

00000382 <__ctors_end>:
     382:	11 24       	eor	r1, r1
     384:	1f be       	out	0x3f, r1	; 63
     386:	cf ef       	ldi	r28, 0xFF	; 255
     388:	d1 e2       	ldi	r29, 0x21	; 33
     38a:	de bf       	out	0x3e, r29	; 62
     38c:	cd bf       	out	0x3d, r28	; 61
     38e:	00 e0       	ldi	r16, 0x00	; 0
     390:	0c bf       	out	0x3c, r16	; 60

00000392 <__do_copy_data>:
     392:	18 e0       	ldi	r17, 0x08	; 8
     394:	a0 e0       	ldi	r26, 0x00	; 0
     396:	b2 e0       	ldi	r27, 0x02	; 2
     398:	ea ed       	ldi	r30, 0xDA	; 218
     39a:	fc e8       	ldi	r31, 0x8C	; 140
     39c:	02 c0       	rjmp	.+4      	; 0x3a2 <.do_copy_data_start>

0000039e <.do_copy_data_loop>:
     39e:	05 90       	lpm	r0, Z+
     3a0:	0d 92       	st	X+, r0

000003a2 <.do_copy_data_start>:
     3a2:	a4 3e       	cpi	r26, 0xE4	; 228
     3a4:	b1 07       	cpc	r27, r17
     3a6:	d9 f7       	brne	.-10     	; 0x39e <.do_copy_data_loop>

000003a8 <__do_clear_bss>:
     3a8:	12 e1       	ldi	r17, 0x12	; 18
     3aa:	a4 ee       	ldi	r26, 0xE4	; 228
     3ac:	b8 e0       	ldi	r27, 0x08	; 8
     3ae:	01 c0       	rjmp	.+2      	; 0x3b2 <.do_clear_bss_start>

000003b0 <.do_clear_bss_loop>:
     3b0:	1d 92       	st	X+, r1

000003b2 <.do_clear_bss_start>:
     3b2:	aa 3e       	cpi	r26, 0xEA	; 234
     3b4:	b1 07       	cpc	r27, r17
     3b6:	e1 f7       	brne	.-8      	; 0x3b0 <.do_clear_bss_loop>
     3b8:	0e 94 74 34 	call	0x68e8	; 0x68e8 <main>
     3bc:	0c 94 db 42 	jmp	0x85b6	; 0x85b6 <exit>

000003c0 <__bad_interrupt>:
     3c0:	0c 94 00 00 	jmp	0	; 0x0 <__vectors>

000003c4 <SetPosition>:



///// METHODS
int SetPosition(int id, float position)
{
     3c4:	2f 92       	push	r2
     3c6:	3f 92       	push	r3
     3c8:	4f 92       	push	r4
     3ca:	5f 92       	push	r5
     3cc:	6f 92       	push	r6
     3ce:	7f 92       	push	r7
     3d0:	8f 92       	push	r8
     3d2:	9f 92       	push	r9
     3d4:	af 92       	push	r10
     3d6:	bf 92       	push	r11
     3d8:	cf 92       	push	r12
     3da:	df 92       	push	r13
     3dc:	ef 92       	push	r14
     3de:	ff 92       	push	r15
     3e0:	0f 93       	push	r16
     3e2:	1f 93       	push	r17
     3e4:	cf 93       	push	r28
     3e6:	df 93       	push	r29
     3e8:	ec 01       	movw	r28, r24
     3ea:	5a 01       	movw	r10, r20
     3ec:	6b 01       	movw	r12, r22
	int bits;
	if(cw[id]==1)
     3ee:	fc 01       	movw	r30, r24
     3f0:	ee 0f       	add	r30, r30
     3f2:	ff 1f       	adc	r31, r31
     3f4:	e3 5f       	subi	r30, 0xF3	; 243
     3f6:	fd 4e       	sbci	r31, 0xED	; 237
     3f8:	20 81       	ld	r18, Z
     3fa:	31 81       	ldd	r19, Z+1	; 0x01
     3fc:	21 30       	cpi	r18, 0x01	; 1
     3fe:	31 05       	cpc	r19, r1
     400:	09 f0       	breq	.+2      	; 0x404 <SetPosition+0x40>
     402:	5f c0       	rjmp	.+190    	; 0x4c2 <SetPosition+0xfe>
	{
	bits = ((maxDegrees[id] -  ceroPosition[id] - ((maxDegrees[id] - 180.0) / 2.0) + (position * 57.2957)) * (maxBits[id] / maxDegrees[id]));
     404:	cc 0f       	add	r28, r28
     406:	dd 1f       	adc	r29, r29
     408:	cc 0f       	add	r28, r28
     40a:	dd 1f       	adc	r29, r29
     40c:	fe 01       	movw	r30, r28
     40e:	e1 5c       	subi	r30, 0xC1	; 193
     410:	f3 4f       	sbci	r31, 0xF3	; 243
     412:	e0 80       	ld	r14, Z
     414:	f1 80       	ldd	r15, Z+1	; 0x01
     416:	02 81       	ldd	r16, Z+2	; 0x02
     418:	13 81       	ldd	r17, Z+3	; 0x03
     41a:	fe 01       	movw	r30, r28
     41c:	e1 54       	subi	r30, 0x41	; 65
     41e:	f3 4f       	sbci	r31, 0xF3	; 243
     420:	20 80       	ld	r2, Z
     422:	31 80       	ldd	r3, Z+1	; 0x01
     424:	42 80       	ldd	r4, Z+2	; 0x02
     426:	53 80       	ldd	r5, Z+3	; 0x03
     428:	c5 5e       	subi	r28, 0xE5	; 229
     42a:	d3 4f       	sbci	r29, 0xF3	; 243
     42c:	c8 01       	movw	r24, r16
     42e:	b7 01       	movw	r22, r14
     430:	28 81       	ld	r18, Y
     432:	39 81       	ldd	r19, Y+1	; 0x01
     434:	4a 81       	ldd	r20, Y+2	; 0x02
     436:	5b 81       	ldd	r21, Y+3	; 0x03
     438:	0e 94 9a 3c 	call	0x7934	; 0x7934 <__subsf3>
     43c:	3b 01       	movw	r6, r22
     43e:	4c 01       	movw	r8, r24
     440:	c8 01       	movw	r24, r16
     442:	b7 01       	movw	r22, r14
     444:	20 e0       	ldi	r18, 0x00	; 0
     446:	30 e0       	ldi	r19, 0x00	; 0
     448:	44 e3       	ldi	r20, 0x34	; 52
     44a:	53 e4       	ldi	r21, 0x43	; 67
     44c:	0e 94 9a 3c 	call	0x7934	; 0x7934 <__subsf3>
     450:	20 e0       	ldi	r18, 0x00	; 0
     452:	30 e0       	ldi	r19, 0x00	; 0
     454:	40 e0       	ldi	r20, 0x00	; 0
     456:	5f e3       	ldi	r21, 0x3F	; 63
     458:	0e 94 5f 3f 	call	0x7ebe	; 0x7ebe <__mulsf3>
     45c:	9b 01       	movw	r18, r22
     45e:	ac 01       	movw	r20, r24
     460:	c4 01       	movw	r24, r8
     462:	b3 01       	movw	r22, r6
     464:	0e 94 9a 3c 	call	0x7934	; 0x7934 <__subsf3>
     468:	3b 01       	movw	r6, r22
     46a:	4c 01       	movw	r8, r24
     46c:	c6 01       	movw	r24, r12
     46e:	b5 01       	movw	r22, r10
     470:	2c ec       	ldi	r18, 0xCC	; 204
     472:	3e e2       	ldi	r19, 0x2E	; 46
     474:	45 e6       	ldi	r20, 0x65	; 101
     476:	52 e4       	ldi	r21, 0x42	; 66
     478:	0e 94 5f 3f 	call	0x7ebe	; 0x7ebe <__mulsf3>
     47c:	9b 01       	movw	r18, r22
     47e:	ac 01       	movw	r20, r24
     480:	c4 01       	movw	r24, r8
     482:	b3 01       	movw	r22, r6
     484:	0e 94 9b 3c 	call	0x7936	; 0x7936 <__addsf3>
     488:	5b 01       	movw	r10, r22
     48a:	6c 01       	movw	r12, r24
     48c:	c2 01       	movw	r24, r4
     48e:	b1 01       	movw	r22, r2
     490:	a8 01       	movw	r20, r16
     492:	97 01       	movw	r18, r14
     494:	0e 94 7f 3d 	call	0x7afe	; 0x7afe <__divsf3>
     498:	9b 01       	movw	r18, r22
     49a:	ac 01       	movw	r20, r24
     49c:	c6 01       	movw	r24, r12
     49e:	b5 01       	movw	r22, r10
     4a0:	0e 94 5f 3f 	call	0x7ebe	; 0x7ebe <__mulsf3>
     4a4:	0e 94 e7 3d 	call	0x7bce	; 0x7bce <__fixsfsi>
	bits = maxBits[id] - bits;
     4a8:	88 27       	eor	r24, r24
     4aa:	77 fd       	sbrc	r23, 7
     4ac:	80 95       	com	r24
     4ae:	98 2f       	mov	r25, r24
     4b0:	0e 94 1a 3e 	call	0x7c34	; 0x7c34 <__floatsisf>
     4b4:	9b 01       	movw	r18, r22
     4b6:	ac 01       	movw	r20, r24
     4b8:	c2 01       	movw	r24, r4
     4ba:	b1 01       	movw	r22, r2
     4bc:	0e 94 9a 3c 	call	0x7934	; 0x7934 <__subsf3>
     4c0:	48 c0       	rjmp	.+144    	; 0x552 <SetPosition+0x18e>
	//printf("CW ");
	}
	else if(cw[id] == 0){
     4c2:	21 15       	cp	r18, r1
     4c4:	31 05       	cpc	r19, r1
     4c6:	09 f0       	breq	.+2      	; 0x4ca <SetPosition+0x106>
     4c8:	48 c0       	rjmp	.+144    	; 0x55a <SetPosition+0x196>
	bits = ((position * 57.2957) + ceroPosition[id] + ((maxDegrees[id] - 180.0) / 2.0)) * (maxBits[id] / maxDegrees[id]);
     4ca:	cc 0f       	add	r28, r28
     4cc:	dd 1f       	adc	r29, r29
     4ce:	cc 0f       	add	r28, r28
     4d0:	dd 1f       	adc	r29, r29
     4d2:	fe 01       	movw	r30, r28
     4d4:	e1 5c       	subi	r30, 0xC1	; 193
     4d6:	f3 4f       	sbci	r31, 0xF3	; 243
     4d8:	e0 80       	ld	r14, Z
     4da:	f1 80       	ldd	r15, Z+1	; 0x01
     4dc:	02 81       	ldd	r16, Z+2	; 0x02
     4de:	13 81       	ldd	r17, Z+3	; 0x03
     4e0:	cb 01       	movw	r24, r22
     4e2:	ba 01       	movw	r22, r20
     4e4:	2c ec       	ldi	r18, 0xCC	; 204
     4e6:	3e e2       	ldi	r19, 0x2E	; 46
     4e8:	45 e6       	ldi	r20, 0x65	; 101
     4ea:	52 e4       	ldi	r21, 0x42	; 66
     4ec:	0e 94 5f 3f 	call	0x7ebe	; 0x7ebe <__mulsf3>
     4f0:	fe 01       	movw	r30, r28
     4f2:	e5 5e       	subi	r30, 0xE5	; 229
     4f4:	f3 4f       	sbci	r31, 0xF3	; 243
     4f6:	20 81       	ld	r18, Z
     4f8:	31 81       	ldd	r19, Z+1	; 0x01
     4fa:	42 81       	ldd	r20, Z+2	; 0x02
     4fc:	53 81       	ldd	r21, Z+3	; 0x03
     4fe:	0e 94 9b 3c 	call	0x7936	; 0x7936 <__addsf3>
     502:	5b 01       	movw	r10, r22
     504:	6c 01       	movw	r12, r24
     506:	c8 01       	movw	r24, r16
     508:	b7 01       	movw	r22, r14
     50a:	20 e0       	ldi	r18, 0x00	; 0
     50c:	30 e0       	ldi	r19, 0x00	; 0
     50e:	44 e3       	ldi	r20, 0x34	; 52
     510:	53 e4       	ldi	r21, 0x43	; 67
     512:	0e 94 9a 3c 	call	0x7934	; 0x7934 <__subsf3>
     516:	20 e0       	ldi	r18, 0x00	; 0
     518:	30 e0       	ldi	r19, 0x00	; 0
     51a:	40 e0       	ldi	r20, 0x00	; 0
     51c:	5f e3       	ldi	r21, 0x3F	; 63
     51e:	0e 94 5f 3f 	call	0x7ebe	; 0x7ebe <__mulsf3>
     522:	9b 01       	movw	r18, r22
     524:	ac 01       	movw	r20, r24
     526:	c6 01       	movw	r24, r12
     528:	b5 01       	movw	r22, r10
     52a:	0e 94 9b 3c 	call	0x7936	; 0x7936 <__addsf3>
     52e:	5b 01       	movw	r10, r22
     530:	6c 01       	movw	r12, r24
     532:	c1 54       	subi	r28, 0x41	; 65
     534:	d3 4f       	sbci	r29, 0xF3	; 243
     536:	68 81       	ld	r22, Y
     538:	79 81       	ldd	r23, Y+1	; 0x01
     53a:	8a 81       	ldd	r24, Y+2	; 0x02
     53c:	9b 81       	ldd	r25, Y+3	; 0x03
     53e:	a8 01       	movw	r20, r16
     540:	97 01       	movw	r18, r14
     542:	0e 94 7f 3d 	call	0x7afe	; 0x7afe <__divsf3>
     546:	9b 01       	movw	r18, r22
     548:	ac 01       	movw	r20, r24
     54a:	c6 01       	movw	r24, r12
     54c:	b5 01       	movw	r22, r10
     54e:	0e 94 5f 3f 	call	0x7ebe	; 0x7ebe <__mulsf3>
     552:	0e 94 e7 3d 	call	0x7bce	; 0x7bce <__fixsfsi>
     556:	b6 2f       	mov	r27, r22
     558:	a7 2f       	mov	r26, r23
	//else if(bits<0) bits = 0;
	//printf("BITS: %i", bits);
	//dxl_write_word( id, SERVO_GOAL_POSITION_L, bits );
	//printf("Id %d, Position: %f, PosBits = %d \n\f",id,position,bits);
	return bits;
}
     55a:	8b 2f       	mov	r24, r27
     55c:	9a 2f       	mov	r25, r26
     55e:	df 91       	pop	r29
     560:	cf 91       	pop	r28
     562:	1f 91       	pop	r17
     564:	0f 91       	pop	r16
     566:	ff 90       	pop	r15
     568:	ef 90       	pop	r14
     56a:	df 90       	pop	r13
     56c:	cf 90       	pop	r12
     56e:	bf 90       	pop	r11
     570:	af 90       	pop	r10
     572:	9f 90       	pop	r9
     574:	8f 90       	pop	r8
     576:	7f 90       	pop	r7
     578:	6f 90       	pop	r6
     57a:	5f 90       	pop	r5
     57c:	4f 90       	pop	r4
     57e:	3f 90       	pop	r3
     580:	2f 90       	pop	r2
     582:	08 95       	ret

00000584 <GetPosition>:
}



float GetPosition(int id)
{
     584:	6f 92       	push	r6
     586:	7f 92       	push	r7
     588:	8f 92       	push	r8
     58a:	9f 92       	push	r9
     58c:	af 92       	push	r10
     58e:	bf 92       	push	r11
     590:	cf 92       	push	r12
     592:	df 92       	push	r13
     594:	ef 92       	push	r14
     596:	ff 92       	push	r15
     598:	0f 93       	push	r16
     59a:	1f 93       	push	r17
     59c:	cf 93       	push	r28
     59e:	df 93       	push	r29
     5a0:	8c 01       	movw	r16, r24
	int bits;
	float position;
	
	bits = dxl_read_word( ids[id], SERVO_PRESENT_POSITION_L );
     5a2:	ec 01       	movw	r28, r24
     5a4:	cc 0f       	add	r28, r28
     5a6:	dd 1f       	adc	r29, r29
     5a8:	fe 01       	movw	r30, r28
     5aa:	eb 58       	subi	r30, 0x8B	; 139
     5ac:	f4 4f       	sbci	r31, 0xF4	; 244
     5ae:	80 81       	ld	r24, Z
     5b0:	91 81       	ldd	r25, Z+1	; 0x01
     5b2:	64 e2       	ldi	r22, 0x24	; 36
     5b4:	70 e0       	ldi	r23, 0x00	; 0
     5b6:	0e 94 68 36 	call	0x6cd0	; 0x6cd0 <dxl_read_word>
	
		//printf("S %i : %i \n", id,bits);

	//if(cw==1) {bits = maxBits64 - bits;}
	
	if(cw[id]==1)
     5ba:	c3 5f       	subi	r28, 0xF3	; 243
     5bc:	dd 4e       	sbci	r29, 0xED	; 237
     5be:	28 81       	ld	r18, Y
     5c0:	39 81       	ldd	r19, Y+1	; 0x01
     5c2:	e8 01       	movw	r28, r16
     5c4:	cc 0f       	add	r28, r28
     5c6:	dd 1f       	adc	r29, r29
     5c8:	cc 0f       	add	r28, r28
     5ca:	dd 1f       	adc	r29, r29
     5cc:	5c 01       	movw	r10, r24
     5ce:	cc 24       	eor	r12, r12
     5d0:	b7 fc       	sbrc	r11, 7
     5d2:	c0 94       	com	r12
     5d4:	dc 2c       	mov	r13, r12
     5d6:	21 30       	cpi	r18, 0x01	; 1
     5d8:	31 05       	cpc	r19, r1
     5da:	c9 f5       	brne	.+114    	; 0x64e <GetPosition+0xca>
	{
	    position = ( ( ceroPosition[id] +  ((maxDegrees[id] - 180.0) / 2.0)) - ((bits * maxDegrees[id])/maxBits[id]) );
     5dc:	fe 01       	movw	r30, r28
     5de:	e1 5c       	subi	r30, 0xC1	; 193
     5e0:	f3 4f       	sbci	r31, 0xF3	; 243
     5e2:	e0 80       	ld	r14, Z
     5e4:	f1 80       	ldd	r15, Z+1	; 0x01
     5e6:	02 81       	ldd	r16, Z+2	; 0x02
     5e8:	13 81       	ldd	r17, Z+3	; 0x03
     5ea:	3b e1       	ldi	r19, 0x1B	; 27
     5ec:	63 2e       	mov	r6, r19
     5ee:	3c e0       	ldi	r19, 0x0C	; 12
     5f0:	73 2e       	mov	r7, r19
     5f2:	6c 0e       	add	r6, r28
     5f4:	7d 1e       	adc	r7, r29
     5f6:	c8 01       	movw	r24, r16
     5f8:	b7 01       	movw	r22, r14
     5fa:	20 e0       	ldi	r18, 0x00	; 0
     5fc:	30 e0       	ldi	r19, 0x00	; 0
     5fe:	44 e3       	ldi	r20, 0x34	; 52
     600:	53 e4       	ldi	r21, 0x43	; 67
     602:	0e 94 9a 3c 	call	0x7934	; 0x7934 <__subsf3>
     606:	20 e0       	ldi	r18, 0x00	; 0
     608:	30 e0       	ldi	r19, 0x00	; 0
     60a:	40 e0       	ldi	r20, 0x00	; 0
     60c:	5f e3       	ldi	r21, 0x3F	; 63
     60e:	0e 94 5f 3f 	call	0x7ebe	; 0x7ebe <__mulsf3>
     612:	f3 01       	movw	r30, r6
     614:	20 81       	ld	r18, Z
     616:	31 81       	ldd	r19, Z+1	; 0x01
     618:	42 81       	ldd	r20, Z+2	; 0x02
     61a:	53 81       	ldd	r21, Z+3	; 0x03
     61c:	0e 94 9b 3c 	call	0x7936	; 0x7936 <__addsf3>
     620:	3b 01       	movw	r6, r22
     622:	4c 01       	movw	r8, r24
     624:	c6 01       	movw	r24, r12
     626:	b5 01       	movw	r22, r10
     628:	0e 94 1a 3e 	call	0x7c34	; 0x7c34 <__floatsisf>
     62c:	a8 01       	movw	r20, r16
     62e:	97 01       	movw	r18, r14
     630:	0e 94 5f 3f 	call	0x7ebe	; 0x7ebe <__mulsf3>
     634:	c1 54       	subi	r28, 0x41	; 65
     636:	d3 4f       	sbci	r29, 0xF3	; 243
     638:	28 81       	ld	r18, Y
     63a:	39 81       	ldd	r19, Y+1	; 0x01
     63c:	4a 81       	ldd	r20, Y+2	; 0x02
     63e:	5b 81       	ldd	r21, Y+3	; 0x03
     640:	0e 94 7f 3d 	call	0x7afe	; 0x7afe <__divsf3>
     644:	9b 01       	movw	r18, r22
     646:	ac 01       	movw	r20, r24
     648:	c4 01       	movw	r24, r8
     64a:	b3 01       	movw	r22, r6
     64c:	34 c0       	rjmp	.+104    	; 0x6b6 <GetPosition+0x132>
	}
	else
	{
		position = ( ( (bits * maxDegrees[id])/maxBits[id])-( ceroPosition[id]+((maxDegrees[id] - 180.0) / 2.0) ) );
     64e:	fe 01       	movw	r30, r28
     650:	e1 5c       	subi	r30, 0xC1	; 193
     652:	f3 4f       	sbci	r31, 0xF3	; 243
     654:	e0 80       	ld	r14, Z
     656:	f1 80       	ldd	r15, Z+1	; 0x01
     658:	02 81       	ldd	r16, Z+2	; 0x02
     65a:	13 81       	ldd	r17, Z+3	; 0x03
     65c:	c6 01       	movw	r24, r12
     65e:	b5 01       	movw	r22, r10
     660:	0e 94 1a 3e 	call	0x7c34	; 0x7c34 <__floatsisf>
     664:	a8 01       	movw	r20, r16
     666:	97 01       	movw	r18, r14
     668:	0e 94 5f 3f 	call	0x7ebe	; 0x7ebe <__mulsf3>
     66c:	fe 01       	movw	r30, r28
     66e:	e1 54       	subi	r30, 0x41	; 65
     670:	f3 4f       	sbci	r31, 0xF3	; 243
     672:	20 81       	ld	r18, Z
     674:	31 81       	ldd	r19, Z+1	; 0x01
     676:	42 81       	ldd	r20, Z+2	; 0x02
     678:	53 81       	ldd	r21, Z+3	; 0x03
     67a:	0e 94 7f 3d 	call	0x7afe	; 0x7afe <__divsf3>
     67e:	5b 01       	movw	r10, r22
     680:	6c 01       	movw	r12, r24
     682:	c5 5e       	subi	r28, 0xE5	; 229
     684:	d3 4f       	sbci	r29, 0xF3	; 243
     686:	c8 01       	movw	r24, r16
     688:	b7 01       	movw	r22, r14
     68a:	20 e0       	ldi	r18, 0x00	; 0
     68c:	30 e0       	ldi	r19, 0x00	; 0
     68e:	44 e3       	ldi	r20, 0x34	; 52
     690:	53 e4       	ldi	r21, 0x43	; 67
     692:	0e 94 9a 3c 	call	0x7934	; 0x7934 <__subsf3>
     696:	20 e0       	ldi	r18, 0x00	; 0
     698:	30 e0       	ldi	r19, 0x00	; 0
     69a:	40 e0       	ldi	r20, 0x00	; 0
     69c:	5f e3       	ldi	r21, 0x3F	; 63
     69e:	0e 94 5f 3f 	call	0x7ebe	; 0x7ebe <__mulsf3>
     6a2:	28 81       	ld	r18, Y
     6a4:	39 81       	ldd	r19, Y+1	; 0x01
     6a6:	4a 81       	ldd	r20, Y+2	; 0x02
     6a8:	5b 81       	ldd	r21, Y+3	; 0x03
     6aa:	0e 94 9b 3c 	call	0x7936	; 0x7936 <__addsf3>
     6ae:	9b 01       	movw	r18, r22
     6b0:	ac 01       	movw	r20, r24
     6b2:	c6 01       	movw	r24, r12
     6b4:	b5 01       	movw	r22, r10
     6b6:	0e 94 9a 3c 	call	0x7934	; 0x7934 <__subsf3>
	}
	


	return position * 0.0174532925199;
     6ba:	25 e3       	ldi	r18, 0x35	; 53
     6bc:	3a ef       	ldi	r19, 0xFA	; 250
     6be:	4e e8       	ldi	r20, 0x8E	; 142
     6c0:	5c e3       	ldi	r21, 0x3C	; 60
     6c2:	0e 94 5f 3f 	call	0x7ebe	; 0x7ebe <__mulsf3>
	
}
     6c6:	df 91       	pop	r29
     6c8:	cf 91       	pop	r28
     6ca:	1f 91       	pop	r17
     6cc:	0f 91       	pop	r16
     6ce:	ff 90       	pop	r15
     6d0:	ef 90       	pop	r14
     6d2:	df 90       	pop	r13
     6d4:	cf 90       	pop	r12
     6d6:	bf 90       	pop	r11
     6d8:	af 90       	pop	r10
     6da:	9f 90       	pop	r9
     6dc:	8f 90       	pop	r8
     6de:	7f 90       	pop	r7
     6e0:	6f 90       	pop	r6
     6e2:	08 95       	ret

000006e4 <GetLoad>:

float GetLoad(int id)
{
     6e4:	cf 92       	push	r12
     6e6:	df 92       	push	r13
     6e8:	ef 92       	push	r14
     6ea:	ff 92       	push	r15
     6ec:	0f 93       	push	r16
     6ee:	1f 93       	push	r17
     6f0:	cf 93       	push	r28
     6f2:	df 93       	push	r29
     6f4:	ec 01       	movw	r28, r24
	int bits;
	float load;
	int sign = 0;

 	bits = dxl_read_word( id, SERVO_PRESENT_LOAD_L );
     6f6:	68 e2       	ldi	r22, 0x28	; 40
     6f8:	70 e0       	ldi	r23, 0x00	; 0
     6fa:	0e 94 68 36 	call	0x6cd0	; 0x6cd0 <dxl_read_word>
     6fe:	8c 01       	movw	r16, r24
	//printf("LoadBits: %d \n\r",bits);

	if( (bits & 1024) == 1024){sign = -1;}
     700:	92 ff       	sbrs	r25, 2
     702:	03 c0       	rjmp	.+6      	; 0x70a <GetLoad+0x26>
     704:	6f ef       	ldi	r22, 0xFF	; 255
     706:	7f ef       	ldi	r23, 0xFF	; 255
     708:	02 c0       	rjmp	.+4      	; 0x70e <GetLoad+0x2a>
	if( (bits & 1024) == 0   ){sign =  1;}
     70a:	61 e0       	ldi	r22, 0x01	; 1
     70c:	70 e0       	ldi	r23, 0x00	; 0

	if(cw[id] ==1) {sign = sign * -1;}
     70e:	cc 0f       	add	r28, r28
     710:	dd 1f       	adc	r29, r29
     712:	c3 5f       	subi	r28, 0xF3	; 243
     714:	dd 4e       	sbci	r29, 0xED	; 237
     716:	88 81       	ld	r24, Y
     718:	99 81       	ldd	r25, Y+1	; 0x01
     71a:	81 30       	cpi	r24, 0x01	; 1
     71c:	91 05       	cpc	r25, r1
     71e:	19 f4       	brne	.+6      	; 0x726 <GetLoad+0x42>
     720:	70 95       	com	r23
     722:	61 95       	neg	r22
     724:	7f 4f       	sbci	r23, 0xFF	; 255

	bits = bits & 1023;
	
	load = sign * (bits * 100.0 / 1023.0);
     726:	88 27       	eor	r24, r24
     728:	77 fd       	sbrc	r23, 7
     72a:	80 95       	com	r24
     72c:	98 2f       	mov	r25, r24
     72e:	0e 94 1a 3e 	call	0x7c34	; 0x7c34 <__floatsisf>
     732:	6b 01       	movw	r12, r22
     734:	7c 01       	movw	r14, r24
	if( (bits & 1024) == 1024){sign = -1;}
	if( (bits & 1024) == 0   ){sign =  1;}

	if(cw[id] ==1) {sign = sign * -1;}

	bits = bits & 1023;
     736:	13 70       	andi	r17, 0x03	; 3
	
	load = sign * (bits * 100.0 / 1023.0);
     738:	b8 01       	movw	r22, r16
     73a:	88 27       	eor	r24, r24
     73c:	77 fd       	sbrc	r23, 7
     73e:	80 95       	com	r24
     740:	98 2f       	mov	r25, r24
     742:	0e 94 1a 3e 	call	0x7c34	; 0x7c34 <__floatsisf>
     746:	20 e0       	ldi	r18, 0x00	; 0
     748:	30 e0       	ldi	r19, 0x00	; 0
     74a:	48 ec       	ldi	r20, 0xC8	; 200
     74c:	52 e4       	ldi	r21, 0x42	; 66
     74e:	0e 94 5f 3f 	call	0x7ebe	; 0x7ebe <__mulsf3>
     752:	20 e0       	ldi	r18, 0x00	; 0
     754:	30 ec       	ldi	r19, 0xC0	; 192
     756:	4f e7       	ldi	r20, 0x7F	; 127
     758:	54 e4       	ldi	r21, 0x44	; 68
     75a:	0e 94 7f 3d 	call	0x7afe	; 0x7afe <__divsf3>
     75e:	9b 01       	movw	r18, r22
     760:	ac 01       	movw	r20, r24
     762:	c7 01       	movw	r24, r14
     764:	b6 01       	movw	r22, r12
     766:	0e 94 5f 3f 	call	0x7ebe	; 0x7ebe <__mulsf3>


	return  load;

}
     76a:	df 91       	pop	r29
     76c:	cf 91       	pop	r28
     76e:	1f 91       	pop	r17
     770:	0f 91       	pop	r16
     772:	ff 90       	pop	r15
     774:	ef 90       	pop	r14
     776:	df 90       	pop	r13
     778:	cf 90       	pop	r12
     77a:	08 95       	ret

0000077c <ArmGetPosition>:


float* ArmGetPosition()
{
     77c:	ef 92       	push	r14
     77e:	ff 92       	push	r15
     780:	0f 93       	push	r16
     782:	1f 93       	push	r17
     784:	df 93       	push	r29
     786:	cf 93       	push	r28
     788:	cd b7       	in	r28, 0x3d	; 61
     78a:	de b7       	in	r29, 0x3e	; 62
     78c:	6c 97       	sbiw	r28, 0x1c	; 28
     78e:	0f b6       	in	r0, 0x3f	; 63
     790:	f8 94       	cli
     792:	de bf       	out	0x3e, r29	; 62
     794:	0f be       	out	0x3f, r0	; 63
     796:	cd bf       	out	0x3d, r28	; 61
	float positions[DOF];

	for(int i = 0; i<DOF;i++)
     798:	7e 01       	movw	r14, r28
     79a:	08 94       	sec
     79c:	e1 1c       	adc	r14, r1
     79e:	f1 1c       	adc	r15, r1
     7a0:	00 e0       	ldi	r16, 0x00	; 0
     7a2:	10 e0       	ldi	r17, 0x00	; 0
	{
		positions[i] = GetPosition(i);
     7a4:	c8 01       	movw	r24, r16
     7a6:	0e 94 c2 02 	call	0x584	; 0x584 <GetPosition>
     7aa:	f7 01       	movw	r30, r14
     7ac:	61 93       	st	Z+, r22
     7ae:	71 93       	st	Z+, r23
     7b0:	81 93       	st	Z+, r24
     7b2:	91 93       	st	Z+, r25
     7b4:	7f 01       	movw	r14, r30

float* ArmGetPosition()
{
	float positions[DOF];

	for(int i = 0; i<DOF;i++)
     7b6:	0f 5f       	subi	r16, 0xFF	; 255
     7b8:	1f 4f       	sbci	r17, 0xFF	; 255
     7ba:	07 30       	cpi	r16, 0x07	; 7
     7bc:	11 05       	cpc	r17, r1
     7be:	91 f7       	brne	.-28     	; 0x7a4 <ArmGetPosition+0x28>
	{
		positions[i] = GetPosition(i);
		
	}
	return positions;
}
     7c0:	ce 01       	movw	r24, r28
     7c2:	01 96       	adiw	r24, 0x01	; 1
     7c4:	6c 96       	adiw	r28, 0x1c	; 28
     7c6:	0f b6       	in	r0, 0x3f	; 63
     7c8:	f8 94       	cli
     7ca:	de bf       	out	0x3e, r29	; 62
     7cc:	0f be       	out	0x3f, r0	; 63
     7ce:	cd bf       	out	0x3d, r28	; 61
     7d0:	cf 91       	pop	r28
     7d2:	df 91       	pop	r29
     7d4:	1f 91       	pop	r17
     7d6:	0f 91       	pop	r16
     7d8:	ff 90       	pop	r15
     7da:	ef 90       	pop	r14
     7dc:	08 95       	ret

000007de <SetSpeedPerc>:

void SetSpeedPerc(int id, float speed)
{
     7de:	cf 93       	push	r28
     7e0:	df 93       	push	r29
     7e2:	ec 01       	movw	r28, r24
     7e4:	cb 01       	movw	r24, r22
     7e6:	ba 01       	movw	r22, r20
	int bits;
	bits = speed * (1023.0 / 100.0);
     7e8:	24 e1       	ldi	r18, 0x14	; 20
     7ea:	3e ea       	ldi	r19, 0xAE	; 174
     7ec:	43 e2       	ldi	r20, 0x23	; 35
     7ee:	51 e4       	ldi	r21, 0x41	; 65
     7f0:	0e 94 5f 3f 	call	0x7ebe	; 0x7ebe <__mulsf3>
     7f4:	0e 94 e7 3d 	call	0x7bce	; 0x7bce <__fixsfsi>
     7f8:	46 2f       	mov	r20, r22
     7fa:	57 2f       	mov	r21, r23
     7fc:	14 16       	cp	r1, r20
     7fe:	15 06       	cpc	r1, r21
     800:	14 f0       	brlt	.+4      	; 0x806 <SetSpeedPerc+0x28>
     802:	41 e0       	ldi	r20, 0x01	; 1
     804:	50 e0       	ldi	r21, 0x00	; 0
	//printf("Speed %i",bits);
	if(bits>1023) bits = 1023;
	else if(bits<=1) bits = 1;
	//printf("Speed %i",bits);
	dxl_write_word( id, SERVO_PROG_SPEED , bits );
     806:	84 e0       	ldi	r24, 0x04	; 4
     808:	40 30       	cpi	r20, 0x00	; 0
     80a:	58 07       	cpc	r21, r24
     80c:	14 f0       	brlt	.+4      	; 0x812 <SetSpeedPerc+0x34>
     80e:	4f ef       	ldi	r20, 0xFF	; 255
     810:	53 e0       	ldi	r21, 0x03	; 3
     812:	ce 01       	movw	r24, r28
     814:	60 e2       	ldi	r22, 0x20	; 32
     816:	70 e0       	ldi	r23, 0x00	; 0
     818:	0e 94 4d 36 	call	0x6c9a	; 0x6c9a <dxl_write_word>
}
     81c:	df 91       	pop	r29
     81e:	cf 91       	pop	r28
     820:	08 95       	ret

00000822 <ChangeBaud>:

void ChangeBaud()
{
    dxl_write_byte(20,SERVO_BAUD,7);
     822:	84 e1       	ldi	r24, 0x14	; 20
     824:	90 e0       	ldi	r25, 0x00	; 0
     826:	64 e0       	ldi	r22, 0x04	; 4
     828:	70 e0       	ldi	r23, 0x00	; 0
     82a:	47 e0       	ldi	r20, 0x07	; 7
     82c:	50 e0       	ldi	r21, 0x00	; 0
     82e:	0e 94 87 36 	call	0x6d0e	; 0x6d0e <dxl_write_byte>
	#else
		//round up by default
		__ticks_dc = (uint32_t)(ceil(fabs(__tmp)));
	#endif

	__builtin_avr_delay_cycles(__ticks_dc);
     832:	8f e3       	ldi	r24, 0x3F	; 63
     834:	9c e9       	ldi	r25, 0x9C	; 156
     836:	01 97       	sbiw	r24, 0x01	; 1
     838:	f1 f7       	brne	.-4      	; 0x836 <ChangeBaud+0x14>
     83a:	00 c0       	rjmp	.+0      	; 0x83c <ChangeBaud+0x1a>
     83c:	00 00       	nop
    _delay_ms(10);
	dxl_write_byte(21,SERVO_BAUD,7);
     83e:	85 e1       	ldi	r24, 0x15	; 21
     840:	90 e0       	ldi	r25, 0x00	; 0
     842:	64 e0       	ldi	r22, 0x04	; 4
     844:	70 e0       	ldi	r23, 0x00	; 0
     846:	47 e0       	ldi	r20, 0x07	; 7
     848:	50 e0       	ldi	r21, 0x00	; 0
     84a:	0e 94 87 36 	call	0x6d0e	; 0x6d0e <dxl_write_byte>
     84e:	8f e3       	ldi	r24, 0x3F	; 63
     850:	9c e9       	ldi	r25, 0x9C	; 156
     852:	01 97       	sbiw	r24, 0x01	; 1
     854:	f1 f7       	brne	.-4      	; 0x852 <ChangeBaud+0x30>
     856:	00 c0       	rjmp	.+0      	; 0x858 <ChangeBaud+0x36>
     858:	00 00       	nop
	_delay_ms(10);
	dxl_write_byte(22,SERVO_BAUD,7);
     85a:	86 e1       	ldi	r24, 0x16	; 22
     85c:	90 e0       	ldi	r25, 0x00	; 0
     85e:	64 e0       	ldi	r22, 0x04	; 4
     860:	70 e0       	ldi	r23, 0x00	; 0
     862:	47 e0       	ldi	r20, 0x07	; 7
     864:	50 e0       	ldi	r21, 0x00	; 0
     866:	0e 94 87 36 	call	0x6d0e	; 0x6d0e <dxl_write_byte>
     86a:	8f e3       	ldi	r24, 0x3F	; 63
     86c:	9c e9       	ldi	r25, 0x9C	; 156
     86e:	01 97       	sbiw	r24, 0x01	; 1
     870:	f1 f7       	brne	.-4      	; 0x86e <ChangeBaud+0x4c>
     872:	00 c0       	rjmp	.+0      	; 0x874 <ChangeBaud+0x52>
     874:	00 00       	nop
	_delay_ms(10);
	dxl_write_byte(23,SERVO_BAUD,7);
     876:	87 e1       	ldi	r24, 0x17	; 23
     878:	90 e0       	ldi	r25, 0x00	; 0
     87a:	64 e0       	ldi	r22, 0x04	; 4
     87c:	70 e0       	ldi	r23, 0x00	; 0
     87e:	47 e0       	ldi	r20, 0x07	; 7
     880:	50 e0       	ldi	r21, 0x00	; 0
     882:	0e 94 87 36 	call	0x6d0e	; 0x6d0e <dxl_write_byte>
     886:	8f e3       	ldi	r24, 0x3F	; 63
     888:	9c e9       	ldi	r25, 0x9C	; 156
     88a:	01 97       	sbiw	r24, 0x01	; 1
     88c:	f1 f7       	brne	.-4      	; 0x88a <ChangeBaud+0x68>
     88e:	00 c0       	rjmp	.+0      	; 0x890 <ChangeBaud+0x6e>
     890:	00 00       	nop
	_delay_ms(10);
}
     892:	08 95       	ret

00000894 <SetMaxSpeeds>:

void SetMaxSpeeds(float speed)
{
     894:	ef 92       	push	r14
     896:	ff 92       	push	r15
     898:	0f 93       	push	r16
     89a:	1f 93       	push	r17
     89c:	cf 93       	push	r28
     89e:	df 93       	push	r29
     8a0:	7b 01       	movw	r14, r22
     8a2:	8c 01       	movw	r16, r24
	for(int i = 0; i<7; i++)
     8a4:	c0 e0       	ldi	r28, 0x00	; 0
     8a6:	d0 e0       	ldi	r29, 0x00	; 0
	{
		SetSpeedPerc(i,speed);
     8a8:	ce 01       	movw	r24, r28
     8aa:	b8 01       	movw	r22, r16
     8ac:	a7 01       	movw	r20, r14
     8ae:	0e 94 ef 03 	call	0x7de	; 0x7de <SetSpeedPerc>
     8b2:	8f e3       	ldi	r24, 0x3F	; 63
     8b4:	9c e9       	ldi	r25, 0x9C	; 156
     8b6:	01 97       	sbiw	r24, 0x01	; 1
     8b8:	f1 f7       	brne	.-4      	; 0x8b6 <SetMaxSpeeds+0x22>
     8ba:	00 c0       	rjmp	.+0      	; 0x8bc <SetMaxSpeeds+0x28>
     8bc:	00 00       	nop
	_delay_ms(10);
}

void SetMaxSpeeds(float speed)
{
	for(int i = 0; i<7; i++)
     8be:	21 96       	adiw	r28, 0x01	; 1
     8c0:	c7 30       	cpi	r28, 0x07	; 7
     8c2:	d1 05       	cpc	r29, r1
     8c4:	89 f7       	brne	.-30     	; 0x8a8 <SetMaxSpeeds+0x14>
		_delay_ms(10);
	}
	
	

}
     8c6:	df 91       	pop	r29
     8c8:	cf 91       	pop	r28
     8ca:	1f 91       	pop	r17
     8cc:	0f 91       	pop	r16
     8ce:	ff 90       	pop	r15
     8d0:	ef 90       	pop	r14
     8d2:	08 95       	ret

000008d4 <MovePerc>:

void MovePerc(int servoNum, float perc)
{
     8d4:	8f 92       	push	r8
     8d6:	9f 92       	push	r9
     8d8:	af 92       	push	r10
     8da:	bf 92       	push	r11
     8dc:	cf 92       	push	r12
     8de:	df 92       	push	r13
     8e0:	ef 92       	push	r14
     8e2:	ff 92       	push	r15
     8e4:	0f 93       	push	r16
     8e6:	1f 93       	push	r17
     8e8:	cf 93       	push	r28
     8ea:	df 93       	push	r29
     8ec:	7a 01       	movw	r14, r20
     8ee:	8b 01       	movw	r16, r22
	int bits = MinHand[servoNum] + (int)((MaxHand[servoNum]-MinHand[servoNum])*(perc/100));
     8f0:	88 0f       	add	r24, r24
     8f2:	99 1f       	adc	r25, r25
     8f4:	fc 01       	movw	r30, r24
     8f6:	ed 5e       	subi	r30, 0xED	; 237
     8f8:	f3 4f       	sbci	r31, 0xF3	; 243
     8fa:	c0 81       	ld	r28, Z
     8fc:	d1 81       	ldd	r29, Z+1	; 0x01
	dxl_write_word(id_hand[servoNum],30,bits);
     8fe:	fc 01       	movw	r30, r24
     900:	eb 5f       	subi	r30, 0xFB	; 251
     902:	fd 4e       	sbci	r31, 0xED	; 237
     904:	80 80       	ld	r8, Z
     906:	91 80       	ldd	r9, Z+1	; 0x01

}

void MovePerc(int servoNum, float perc)
{
	int bits = MinHand[servoNum] + (int)((MaxHand[servoNum]-MinHand[servoNum])*(perc/100));
     908:	81 5e       	subi	r24, 0xE1	; 225
     90a:	9d 4e       	sbci	r25, 0xED	; 237
     90c:	fc 01       	movw	r30, r24
     90e:	60 81       	ld	r22, Z
     910:	71 81       	ldd	r23, Z+1	; 0x01
     912:	6c 1b       	sub	r22, r28
     914:	7d 0b       	sbc	r23, r29
     916:	88 27       	eor	r24, r24
     918:	77 fd       	sbrc	r23, 7
     91a:	80 95       	com	r24
     91c:	98 2f       	mov	r25, r24
     91e:	0e 94 1a 3e 	call	0x7c34	; 0x7c34 <__floatsisf>
     922:	5b 01       	movw	r10, r22
     924:	6c 01       	movw	r12, r24
     926:	c8 01       	movw	r24, r16
     928:	b7 01       	movw	r22, r14
     92a:	20 e0       	ldi	r18, 0x00	; 0
     92c:	30 e0       	ldi	r19, 0x00	; 0
     92e:	48 ec       	ldi	r20, 0xC8	; 200
     930:	52 e4       	ldi	r21, 0x42	; 66
     932:	0e 94 7f 3d 	call	0x7afe	; 0x7afe <__divsf3>
     936:	9b 01       	movw	r18, r22
     938:	ac 01       	movw	r20, r24
     93a:	c6 01       	movw	r24, r12
     93c:	b5 01       	movw	r22, r10
     93e:	0e 94 5f 3f 	call	0x7ebe	; 0x7ebe <__mulsf3>
     942:	0e 94 e7 3d 	call	0x7bce	; 0x7bce <__fixsfsi>
     946:	ab 01       	movw	r20, r22
     948:	bc 01       	movw	r22, r24
     94a:	4c 0f       	add	r20, r28
     94c:	5d 1f       	adc	r21, r29
	dxl_write_word(id_hand[servoNum],30,bits);
     94e:	c4 01       	movw	r24, r8
     950:	6e e1       	ldi	r22, 0x1E	; 30
     952:	70 e0       	ldi	r23, 0x00	; 0
     954:	0e 94 4d 36 	call	0x6c9a	; 0x6c9a <dxl_write_word>
}
     958:	df 91       	pop	r29
     95a:	cf 91       	pop	r28
     95c:	1f 91       	pop	r17
     95e:	0f 91       	pop	r16
     960:	ff 90       	pop	r15
     962:	ef 90       	pop	r14
     964:	df 90       	pop	r13
     966:	cf 90       	pop	r12
     968:	bf 90       	pop	r11
     96a:	af 90       	pop	r10
     96c:	9f 90       	pop	r9
     96e:	8f 90       	pop	r8
     970:	08 95       	ret

00000972 <SetTorqueControl>:
		SetTorqueControl(i,enable);
	}
}

void SetTorqueControl(int id, int enable)
{
     972:	ef 92       	push	r14
     974:	ff 92       	push	r15
     976:	0f 93       	push	r16
     978:	1f 93       	push	r17
     97a:	cf 93       	push	r28
     97c:	df 93       	push	r29
     97e:	7c 01       	movw	r14, r24
     980:	8b 01       	movw	r16, r22
	
	//dxl_write_byte(2, 16, 1);
		
	SetSpeedPerc(ids[id],0);
     982:	ec 01       	movw	r28, r24
     984:	cc 0f       	add	r28, r28
     986:	dd 1f       	adc	r29, r29
     988:	cb 58       	subi	r28, 0x8B	; 139
     98a:	d4 4f       	sbci	r29, 0xF4	; 244
     98c:	88 81       	ld	r24, Y
     98e:	99 81       	ldd	r25, Y+1	; 0x01
     990:	40 e0       	ldi	r20, 0x00	; 0
     992:	50 e0       	ldi	r21, 0x00	; 0
     994:	ba 01       	movw	r22, r20
     996:	0e 94 ef 03 	call	0x7de	; 0x7de <SetSpeedPerc>

	if(enable==1)
     99a:	01 30       	cpi	r16, 0x01	; 1
     99c:	11 05       	cpc	r17, r1
     99e:	79 f4       	brne	.+30     	; 0x9be <SetTorqueControl+0x4c>
	{
		
		dxl_write_word( ids[id], SERVO_MAX_CW , 0 );
     9a0:	88 81       	ld	r24, Y
     9a2:	99 81       	ldd	r25, Y+1	; 0x01
     9a4:	66 e0       	ldi	r22, 0x06	; 6
     9a6:	70 e0       	ldi	r23, 0x00	; 0
     9a8:	40 e0       	ldi	r20, 0x00	; 0
     9aa:	50 e0       	ldi	r21, 0x00	; 0
     9ac:	0e 94 4d 36 	call	0x6c9a	; 0x6c9a <dxl_write_word>
		dxl_write_word( ids[id], SERVO_MAX_CCW , 0 );
     9b0:	88 81       	ld	r24, Y
     9b2:	99 81       	ldd	r25, Y+1	; 0x01
     9b4:	68 e0       	ldi	r22, 0x08	; 8
     9b6:	70 e0       	ldi	r23, 0x00	; 0
     9b8:	40 e0       	ldi	r20, 0x00	; 0
     9ba:	50 e0       	ldi	r21, 0x00	; 0
     9bc:	21 c0       	rjmp	.+66     	; 0xa00 <SetTorqueControl+0x8e>
	}else if(enable==0){
     9be:	01 15       	cp	r16, r1
     9c0:	11 05       	cpc	r17, r1
     9c2:	01 f5       	brne	.+64     	; 0xa04 <SetTorqueControl+0x92>
		
		dxl_write_word( ids[id], SERVO_MAX_CW , 1 );
     9c4:	88 81       	ld	r24, Y
     9c6:	99 81       	ldd	r25, Y+1	; 0x01
     9c8:	66 e0       	ldi	r22, 0x06	; 6
     9ca:	70 e0       	ldi	r23, 0x00	; 0
     9cc:	41 e0       	ldi	r20, 0x01	; 1
     9ce:	50 e0       	ldi	r21, 0x00	; 0
     9d0:	0e 94 4d 36 	call	0x6c9a	; 0x6c9a <dxl_write_word>
		dxl_write_word( ids[id], SERVO_MAX_CCW , maxBits[id] );
     9d4:	09 90       	ld	r0, Y+
     9d6:	d8 81       	ld	r29, Y
     9d8:	c0 2d       	mov	r28, r0
     9da:	f7 01       	movw	r30, r14
     9dc:	ee 0f       	add	r30, r30
     9de:	ff 1f       	adc	r31, r31
     9e0:	ee 0f       	add	r30, r30
     9e2:	ff 1f       	adc	r31, r31
     9e4:	e1 54       	subi	r30, 0x41	; 65
     9e6:	f3 4f       	sbci	r31, 0xF3	; 243
     9e8:	60 81       	ld	r22, Z
     9ea:	71 81       	ldd	r23, Z+1	; 0x01
     9ec:	82 81       	ldd	r24, Z+2	; 0x02
     9ee:	93 81       	ldd	r25, Z+3	; 0x03
     9f0:	0e 94 e7 3d 	call	0x7bce	; 0x7bce <__fixsfsi>
     9f4:	9b 01       	movw	r18, r22
     9f6:	ac 01       	movw	r20, r24
     9f8:	ce 01       	movw	r24, r28
     9fa:	68 e0       	ldi	r22, 0x08	; 8
     9fc:	70 e0       	ldi	r23, 0x00	; 0
     9fe:	a9 01       	movw	r20, r18
     a00:	0e 94 4d 36 	call	0x6c9a	; 0x6c9a <dxl_write_word>
	}
}
     a04:	df 91       	pop	r29
     a06:	cf 91       	pop	r28
     a08:	1f 91       	pop	r17
     a0a:	0f 91       	pop	r16
     a0c:	ff 90       	pop	r15
     a0e:	ef 90       	pop	r14
     a10:	08 95       	ret

00000a12 <ArmTorqueControl>:
	int bits = MinHand[servoNum] + (int)((MaxHand[servoNum]-MinHand[servoNum])*(perc/100));
	dxl_write_word(id_hand[servoNum],30,bits);
}

void ArmTorqueControl(int enable)
{
     a12:	0f 93       	push	r16
     a14:	1f 93       	push	r17
     a16:	cf 93       	push	r28
     a18:	df 93       	push	r29
     a1a:	8c 01       	movw	r16, r24

	for(int i = 0;i<DOF;i++)
     a1c:	c0 e0       	ldi	r28, 0x00	; 0
     a1e:	d0 e0       	ldi	r29, 0x00	; 0
	{
		SetTorqueControl(i,enable);
     a20:	ce 01       	movw	r24, r28
     a22:	b8 01       	movw	r22, r16
     a24:	0e 94 b9 04 	call	0x972	; 0x972 <SetTorqueControl>
}

void ArmTorqueControl(int enable)
{

	for(int i = 0;i<DOF;i++)
     a28:	21 96       	adiw	r28, 0x01	; 1
     a2a:	c7 30       	cpi	r28, 0x07	; 7
     a2c:	d1 05       	cpc	r29, r1
     a2e:	c1 f7       	brne	.-16     	; 0xa20 <ArmTorqueControl+0xe>
	{
		SetTorqueControl(i,enable);
	}
}
     a30:	df 91       	pop	r29
     a32:	cf 91       	pop	r28
     a34:	1f 91       	pop	r17
     a36:	0f 91       	pop	r16
     a38:	08 95       	ret

00000a3a <SetTorque>:
}



int SetTorque(int id, float torque)
{
     a3a:	df 92       	push	r13
     a3c:	ef 92       	push	r14
     a3e:	ff 92       	push	r15
     a40:	0f 93       	push	r16
     a42:	1f 93       	push	r17
     a44:	cf 93       	push	r28
     a46:	df 93       	push	r29
     a48:	7a 01       	movw	r14, r20
     a4a:	8b 01       	movw	r16, r22
	int direction,bits,bitsF2;
	float bitsF;
	

	if(cw[id]==1)
     a4c:	fc 01       	movw	r30, r24
     a4e:	ee 0f       	add	r30, r30
     a50:	ff 1f       	adc	r31, r31
     a52:	e3 5f       	subi	r30, 0xF3	; 243
     a54:	fd 4e       	sbci	r31, 0xED	; 237
     a56:	80 81       	ld	r24, Z
     a58:	91 81       	ldd	r25, Z+1	; 0x01
     a5a:	81 30       	cpi	r24, 0x01	; 1
     a5c:	91 05       	cpc	r25, r1
     a5e:	71 f4       	brne	.+28     	; 0xa7c <SetTorque+0x42>
	{
		if(torque<=0) {direction = 1;}
		else{direction = 0;}
     a60:	c1 e0       	ldi	r28, 0x01	; 1
     a62:	d0 e0       	ldi	r29, 0x00	; 0
     a64:	cb 01       	movw	r24, r22
     a66:	ba 01       	movw	r22, r20
     a68:	20 e0       	ldi	r18, 0x00	; 0
     a6a:	30 e0       	ldi	r19, 0x00	; 0
     a6c:	a9 01       	movw	r20, r18
     a6e:	0e 94 78 3d 	call	0x7af0	; 0x7af0 <__cmpsf2>
     a72:	18 16       	cp	r1, r24
     a74:	9c f4       	brge	.+38     	; 0xa9c <SetTorque+0x62>
     a76:	c0 e0       	ldi	r28, 0x00	; 0
     a78:	d0 e0       	ldi	r29, 0x00	; 0
     a7a:	10 c0       	rjmp	.+32     	; 0xa9c <SetTorque+0x62>
		
	}
	else
	{	
		if(torque<=0) {direction = 0;}
     a7c:	dd 24       	eor	r13, r13
     a7e:	d3 94       	inc	r13
     a80:	cb 01       	movw	r24, r22
     a82:	ba 01       	movw	r22, r20
     a84:	20 e0       	ldi	r18, 0x00	; 0
     a86:	30 e0       	ldi	r19, 0x00	; 0
     a88:	a9 01       	movw	r20, r18
     a8a:	0e 94 78 3d 	call	0x7af0	; 0x7af0 <__cmpsf2>
     a8e:	18 16       	cp	r1, r24
     a90:	0c f4       	brge	.+2      	; 0xa94 <SetTorque+0x5a>
     a92:	dd 24       	eor	r13, r13
	}
}



int SetTorque(int id, float torque)
     a94:	81 e0       	ldi	r24, 0x01	; 1
     a96:	8d 25       	eor	r24, r13
	

	if(cw[id]==1)
	{
		if(torque<=0) {direction = 1;}
		else{direction = 0;}
     a98:	c8 2f       	mov	r28, r24
     a9a:	d0 e0       	ldi	r29, 0x00	; 0
	{	
		if(torque<=0) {direction = 0;}
		else{direction = 1;}
	}
	
	torque = abs(torque);
     a9c:	c8 01       	movw	r24, r16
     a9e:	b7 01       	movw	r22, r14
     aa0:	0e 94 e7 3d 	call	0x7bce	; 0x7bce <__fixsfsi>
     aa4:	77 ff       	sbrs	r23, 7
     aa6:	03 c0       	rjmp	.+6      	; 0xaae <SetTorque+0x74>
     aa8:	70 95       	com	r23
     aaa:	61 95       	neg	r22
     aac:	7f 4f       	sbci	r23, 0xFF	; 255
     aae:	88 27       	eor	r24, r24
     ab0:	77 fd       	sbrc	r23, 7
     ab2:	80 95       	com	r24
     ab4:	98 2f       	mov	r25, r24
     ab6:	0e 94 1a 3e 	call	0x7c34	; 0x7c34 <__floatsisf>
	
	bits = (int)(torque*(1023.0 / 100.0));
     aba:	24 e1       	ldi	r18, 0x14	; 20
     abc:	3e ea       	ldi	r19, 0xAE	; 174
     abe:	43 e2       	ldi	r20, 0x23	; 35
     ac0:	51 e4       	ldi	r21, 0x41	; 65
     ac2:	0e 94 5f 3f 	call	0x7ebe	; 0x7ebe <__mulsf3>
     ac6:	0e 94 e7 3d 	call	0x7bce	; 0x7bce <__fixsfsi>
     aca:	26 2f       	mov	r18, r22
     acc:	37 2f       	mov	r19, r23
     ace:	37 ff       	sbrs	r19, 7
     ad0:	02 c0       	rjmp	.+4      	; 0xad6 <SetTorque+0x9c>
     ad2:	20 e0       	ldi	r18, 0x00	; 0
     ad4:	30 e0       	ldi	r19, 0x00	; 0
     ad6:	84 e0       	ldi	r24, 0x04	; 4
     ad8:	20 30       	cpi	r18, 0x00	; 0
     ada:	38 07       	cpc	r19, r24
     adc:	14 f0       	brlt	.+4      	; 0xae2 <SetTorque+0xa8>
     ade:	2f ef       	ldi	r18, 0xFF	; 255
     ae0:	33 e0       	ldi	r19, 0x03	; 3
		
	
	if(bits>1023) bits = 1023;
	else if(bits<0) bits = 0;

	if(direction ==1){ bits = bits + 1024;}
     ae2:	c1 30       	cpi	r28, 0x01	; 1
     ae4:	d1 05       	cpc	r29, r1
     ae6:	11 f4       	brne	.+4      	; 0xaec <SetTorque+0xb2>
     ae8:	20 50       	subi	r18, 0x00	; 0
     aea:	3c 4f       	sbci	r19, 0xFC	; 252

	//dxl_write_word( id, SERVO_PROG_SPEED , bits );
	return bits;
}
     aec:	c9 01       	movw	r24, r18
     aee:	df 91       	pop	r29
     af0:	cf 91       	pop	r28
     af2:	1f 91       	pop	r17
     af4:	0f 91       	pop	r16
     af6:	ff 90       	pop	r15
     af8:	ef 90       	pop	r14
     afa:	df 90       	pop	r13
     afc:	08 95       	ret

00000afe <SetTorque2>:


void SetTorque2(int id, float torque)
{
     afe:	bf 92       	push	r11
     b00:	cf 92       	push	r12
     b02:	df 92       	push	r13
     b04:	ef 92       	push	r14
     b06:	ff 92       	push	r15
     b08:	0f 93       	push	r16
     b0a:	1f 93       	push	r17
     b0c:	cf 93       	push	r28
     b0e:	df 93       	push	r29
     b10:	6c 01       	movw	r12, r24
     b12:	7a 01       	movw	r14, r20
     b14:	8b 01       	movw	r16, r22
	int direction,bits;

	if(cw[id]==1)
     b16:	fc 01       	movw	r30, r24
     b18:	ee 0f       	add	r30, r30
     b1a:	ff 1f       	adc	r31, r31
     b1c:	e3 5f       	subi	r30, 0xF3	; 243
     b1e:	fd 4e       	sbci	r31, 0xED	; 237
     b20:	80 81       	ld	r24, Z
     b22:	91 81       	ldd	r25, Z+1	; 0x01
     b24:	81 30       	cpi	r24, 0x01	; 1
     b26:	91 05       	cpc	r25, r1
     b28:	71 f4       	brne	.+28     	; 0xb46 <SetTorque2+0x48>
	{
		if(torque<=0) {direction = 1;}
		else{direction = 0;}
     b2a:	c1 e0       	ldi	r28, 0x01	; 1
     b2c:	d0 e0       	ldi	r29, 0x00	; 0
     b2e:	cb 01       	movw	r24, r22
     b30:	ba 01       	movw	r22, r20
     b32:	20 e0       	ldi	r18, 0x00	; 0
     b34:	30 e0       	ldi	r19, 0x00	; 0
     b36:	a9 01       	movw	r20, r18
     b38:	0e 94 78 3d 	call	0x7af0	; 0x7af0 <__cmpsf2>
     b3c:	18 16       	cp	r1, r24
     b3e:	9c f4       	brge	.+38     	; 0xb66 <SetTorque2+0x68>
     b40:	c0 e0       	ldi	r28, 0x00	; 0
     b42:	d0 e0       	ldi	r29, 0x00	; 0
     b44:	10 c0       	rjmp	.+32     	; 0xb66 <SetTorque2+0x68>
		
	}
	else
	{	
		if(torque<=0) {direction = 0;}
     b46:	bb 24       	eor	r11, r11
     b48:	b3 94       	inc	r11
     b4a:	cb 01       	movw	r24, r22
     b4c:	ba 01       	movw	r22, r20
     b4e:	20 e0       	ldi	r18, 0x00	; 0
     b50:	30 e0       	ldi	r19, 0x00	; 0
     b52:	a9 01       	movw	r20, r18
     b54:	0e 94 78 3d 	call	0x7af0	; 0x7af0 <__cmpsf2>
     b58:	18 16       	cp	r1, r24
     b5a:	0c f4       	brge	.+2      	; 0xb5e <SetTorque2+0x60>
     b5c:	bb 24       	eor	r11, r11
	//dxl_write_word( id, SERVO_PROG_SPEED , bits );
	return bits;
}


void SetTorque2(int id, float torque)
     b5e:	81 e0       	ldi	r24, 0x01	; 1
     b60:	8b 25       	eor	r24, r11
	int direction,bits;

	if(cw[id]==1)
	{
		if(torque<=0) {direction = 1;}
		else{direction = 0;}
     b62:	c8 2f       	mov	r28, r24
     b64:	d0 e0       	ldi	r29, 0x00	; 0
	else
	{	
		if(torque<=0) {direction = 0;}
		else{direction = 1;}
	}
	torque = abs(torque);
     b66:	c8 01       	movw	r24, r16
     b68:	b7 01       	movw	r22, r14
     b6a:	0e 94 e7 3d 	call	0x7bce	; 0x7bce <__fixsfsi>
     b6e:	77 ff       	sbrs	r23, 7
     b70:	03 c0       	rjmp	.+6      	; 0xb78 <SetTorque2+0x7a>
     b72:	70 95       	com	r23
     b74:	61 95       	neg	r22
     b76:	7f 4f       	sbci	r23, 0xFF	; 255
     b78:	88 27       	eor	r24, r24
     b7a:	77 fd       	sbrc	r23, 7
     b7c:	80 95       	com	r24
     b7e:	98 2f       	mov	r25, r24
     b80:	0e 94 1a 3e 	call	0x7c34	; 0x7c34 <__floatsisf>
     b84:	7b 01       	movw	r14, r22
     b86:	8c 01       	movw	r16, r24

	bits = torque * (1023.0 / maxTorque[id]);
     b88:	f6 01       	movw	r30, r12
     b8a:	ee 0f       	add	r30, r30
     b8c:	ff 1f       	adc	r31, r31
     b8e:	ee 0f       	add	r30, r30
     b90:	ff 1f       	adc	r31, r31
     b92:	e5 56       	subi	r30, 0x65	; 101
     b94:	f3 4f       	sbci	r31, 0xF3	; 243
     b96:	60 e0       	ldi	r22, 0x00	; 0
     b98:	70 ec       	ldi	r23, 0xC0	; 192
     b9a:	8f e7       	ldi	r24, 0x7F	; 127
     b9c:	94 e4       	ldi	r25, 0x44	; 68
     b9e:	20 81       	ld	r18, Z
     ba0:	31 81       	ldd	r19, Z+1	; 0x01
     ba2:	42 81       	ldd	r20, Z+2	; 0x02
     ba4:	53 81       	ldd	r21, Z+3	; 0x03
     ba6:	0e 94 7f 3d 	call	0x7afe	; 0x7afe <__divsf3>
     baa:	9b 01       	movw	r18, r22
     bac:	ac 01       	movw	r20, r24
     bae:	c8 01       	movw	r24, r16
     bb0:	b7 01       	movw	r22, r14
     bb2:	0e 94 5f 3f 	call	0x7ebe	; 0x7ebe <__mulsf3>
     bb6:	0e 94 e7 3d 	call	0x7bce	; 0x7bce <__fixsfsi>
     bba:	46 2f       	mov	r20, r22
     bbc:	57 2f       	mov	r21, r23
     bbe:	57 ff       	sbrs	r21, 7
     bc0:	02 c0       	rjmp	.+4      	; 0xbc6 <SetTorque2+0xc8>
     bc2:	40 e0       	ldi	r20, 0x00	; 0
     bc4:	50 e0       	ldi	r21, 0x00	; 0
     bc6:	84 e0       	ldi	r24, 0x04	; 4
     bc8:	40 30       	cpi	r20, 0x00	; 0
     bca:	58 07       	cpc	r21, r24
     bcc:	14 f0       	brlt	.+4      	; 0xbd2 <SetTorque2+0xd4>
     bce:	4f ef       	ldi	r20, 0xFF	; 255
     bd0:	53 e0       	ldi	r21, 0x03	; 3
	

	if(bits>1023) bits = 1023;
	else if(bits<0) bits = 0;

	if(direction ==1){ bits = bits + 1024;}
     bd2:	c1 30       	cpi	r28, 0x01	; 1
     bd4:	d1 05       	cpc	r29, r1
     bd6:	11 f4       	brne	.+4      	; 0xbdc <SetTorque2+0xde>
     bd8:	40 50       	subi	r20, 0x00	; 0
     bda:	5c 4f       	sbci	r21, 0xFC	; 252

	dxl_write_word( id, SERVO_PROG_SPEED , bits );
     bdc:	c6 01       	movw	r24, r12
     bde:	60 e2       	ldi	r22, 0x20	; 32
     be0:	70 e0       	ldi	r23, 0x00	; 0
     be2:	0e 94 4d 36 	call	0x6c9a	; 0x6c9a <dxl_write_word>
	//return bits;
}
     be6:	df 91       	pop	r29
     be8:	cf 91       	pop	r28
     bea:	1f 91       	pop	r17
     bec:	0f 91       	pop	r16
     bee:	ff 90       	pop	r15
     bf0:	ef 90       	pop	r14
     bf2:	df 90       	pop	r13
     bf4:	cf 90       	pop	r12
     bf6:	bf 90       	pop	r11
     bf8:	08 95       	ret

00000bfa <TorqueEnabled>:

void TorqueEnabled(int id, int enable)
{
     bfa:	ab 01       	movw	r20, r22
	dxl_write_byte( id, 24 , enable );
     bfc:	68 e1       	ldi	r22, 0x18	; 24
     bfe:	70 e0       	ldi	r23, 0x00	; 0
     c00:	0e 94 87 36 	call	0x6d0e	; 0x6d0e <dxl_write_byte>
}
     c04:	08 95       	ret

00000c06 <ArmTorqueEnabled>:

void ArmTorqueEnabled(int enable)
{
     c06:	0f 93       	push	r16
     c08:	1f 93       	push	r17
     c0a:	cf 93       	push	r28
     c0c:	df 93       	push	r29
     c0e:	8c 01       	movw	r16, r24
	for(int i = 0;i<DOF;i++)
     c10:	c0 e0       	ldi	r28, 0x00	; 0
     c12:	d0 e0       	ldi	r29, 0x00	; 0
	{
		dxl_write_byte( i, 24 , enable );
     c14:	ce 01       	movw	r24, r28
     c16:	68 e1       	ldi	r22, 0x18	; 24
     c18:	70 e0       	ldi	r23, 0x00	; 0
     c1a:	a8 01       	movw	r20, r16
     c1c:	0e 94 87 36 	call	0x6d0e	; 0x6d0e <dxl_write_byte>
	dxl_write_byte( id, 24 , enable );
}

void ArmTorqueEnabled(int enable)
{
	for(int i = 0;i<DOF;i++)
     c20:	21 96       	adiw	r28, 0x01	; 1
     c22:	c7 30       	cpi	r28, 0x07	; 7
     c24:	d1 05       	cpc	r29, r1
     c26:	b1 f7       	brne	.-20     	; 0xc14 <ArmTorqueEnabled+0xe>
     c28:	c4 e1       	ldi	r28, 0x14	; 20
     c2a:	d0 e0       	ldi	r29, 0x00	; 0
	{
		dxl_write_byte( i, 24 , enable );
	}
	for(int i = 20;i<24;i++)
	    dxl_write_byte( i, 24 , enable );
     c2c:	ce 01       	movw	r24, r28
     c2e:	68 e1       	ldi	r22, 0x18	; 24
     c30:	70 e0       	ldi	r23, 0x00	; 0
     c32:	a8 01       	movw	r20, r16
     c34:	0e 94 87 36 	call	0x6d0e	; 0x6d0e <dxl_write_byte>
{
	for(int i = 0;i<DOF;i++)
	{
		dxl_write_byte( i, 24 , enable );
	}
	for(int i = 20;i<24;i++)
     c38:	21 96       	adiw	r28, 0x01	; 1
     c3a:	c8 31       	cpi	r28, 0x18	; 24
     c3c:	d1 05       	cpc	r29, r1
     c3e:	b1 f7       	brne	.-20     	; 0xc2c <ArmTorqueEnabled+0x26>
	    dxl_write_byte( i, 24 , enable );
}
     c40:	df 91       	pop	r29
     c42:	cf 91       	pop	r28
     c44:	1f 91       	pop	r17
     c46:	0f 91       	pop	r16
     c48:	08 95       	ret

00000c4a <ServoTorqueEnabled>:

int ServoTorqueEnabled(int e1,int e2,int e3,int e4,int e5,int e6,int e7)
{
     c4a:	8f 92       	push	r8
     c4c:	9f 92       	push	r9
     c4e:	af 92       	push	r10
     c50:	bf 92       	push	r11
     c52:	cf 92       	push	r12
     c54:	df 92       	push	r13
     c56:	ef 92       	push	r14
     c58:	ff 92       	push	r15
     c5a:	0f 93       	push	r16
     c5c:	1f 93       	push	r17
     c5e:	cf 93       	push	r28
     c60:	df 93       	push	r29
     c62:	fc 01       	movw	r30, r24
     c64:	5b 01       	movw	r10, r22
     c66:	4a 01       	movw	r8, r20
     c68:	e9 01       	movw	r28, r18
	
	dxl_write_byte( 0, 24 , e1);
     c6a:	80 e0       	ldi	r24, 0x00	; 0
     c6c:	90 e0       	ldi	r25, 0x00	; 0
     c6e:	68 e1       	ldi	r22, 0x18	; 24
     c70:	70 e0       	ldi	r23, 0x00	; 0
     c72:	af 01       	movw	r20, r30
     c74:	0e 94 87 36 	call	0x6d0e	; 0x6d0e <dxl_write_byte>
	dxl_write_byte( 1, 24 , e2);
     c78:	81 e0       	ldi	r24, 0x01	; 1
     c7a:	90 e0       	ldi	r25, 0x00	; 0
     c7c:	68 e1       	ldi	r22, 0x18	; 24
     c7e:	70 e0       	ldi	r23, 0x00	; 0
     c80:	a5 01       	movw	r20, r10
     c82:	0e 94 87 36 	call	0x6d0e	; 0x6d0e <dxl_write_byte>
	dxl_write_byte( 2, 24 , e3);
     c86:	82 e0       	ldi	r24, 0x02	; 2
     c88:	90 e0       	ldi	r25, 0x00	; 0
     c8a:	68 e1       	ldi	r22, 0x18	; 24
     c8c:	70 e0       	ldi	r23, 0x00	; 0
     c8e:	a4 01       	movw	r20, r8
     c90:	0e 94 87 36 	call	0x6d0e	; 0x6d0e <dxl_write_byte>
	dxl_write_byte( 3, 24 , e4);
     c94:	83 e0       	ldi	r24, 0x03	; 3
     c96:	90 e0       	ldi	r25, 0x00	; 0
     c98:	68 e1       	ldi	r22, 0x18	; 24
     c9a:	70 e0       	ldi	r23, 0x00	; 0
     c9c:	ae 01       	movw	r20, r28
     c9e:	0e 94 87 36 	call	0x6d0e	; 0x6d0e <dxl_write_byte>
	dxl_write_byte( 4, 24 , e5);
     ca2:	84 e0       	ldi	r24, 0x04	; 4
     ca4:	90 e0       	ldi	r25, 0x00	; 0
     ca6:	68 e1       	ldi	r22, 0x18	; 24
     ca8:	70 e0       	ldi	r23, 0x00	; 0
     caa:	a8 01       	movw	r20, r16
     cac:	0e 94 87 36 	call	0x6d0e	; 0x6d0e <dxl_write_byte>
	dxl_write_byte( 5, 24 , e6);
     cb0:	85 e0       	ldi	r24, 0x05	; 5
     cb2:	90 e0       	ldi	r25, 0x00	; 0
     cb4:	68 e1       	ldi	r22, 0x18	; 24
     cb6:	70 e0       	ldi	r23, 0x00	; 0
     cb8:	a7 01       	movw	r20, r14
     cba:	0e 94 87 36 	call	0x6d0e	; 0x6d0e <dxl_write_byte>
	dxl_write_byte( 6, 24 , e7);
     cbe:	86 e0       	ldi	r24, 0x06	; 6
     cc0:	90 e0       	ldi	r25, 0x00	; 0
     cc2:	68 e1       	ldi	r22, 0x18	; 24
     cc4:	70 e0       	ldi	r23, 0x00	; 0
     cc6:	a6 01       	movw	r20, r12
     cc8:	0e 94 87 36 	call	0x6d0e	; 0x6d0e <dxl_write_byte>
	return 1;
}
     ccc:	81 e0       	ldi	r24, 0x01	; 1
     cce:	90 e0       	ldi	r25, 0x00	; 0
     cd0:	df 91       	pop	r29
     cd2:	cf 91       	pop	r28
     cd4:	1f 91       	pop	r17
     cd6:	0f 91       	pop	r16
     cd8:	ff 90       	pop	r15
     cda:	ef 90       	pop	r14
     cdc:	df 90       	pop	r13
     cde:	cf 90       	pop	r12
     ce0:	bf 90       	pop	r11
     ce2:	af 90       	pop	r10
     ce4:	9f 90       	pop	r9
     ce6:	8f 90       	pop	r8
     ce8:	08 95       	ret

00000cea <GetVoltage>:
}

float GetVoltage(int id)
{
	float voltageBits = 0;
	 voltageBits = dxl_read_byte( id, SERVO_VOLTAGE  );
     cea:	6a e2       	ldi	r22, 0x2A	; 42
     cec:	70 e0       	ldi	r23, 0x00	; 0
     cee:	0e 94 9e 36 	call	0x6d3c	; 0x6d3c <dxl_read_byte>
     cf2:	9c 01       	movw	r18, r24
     cf4:	b9 01       	movw	r22, r18
     cf6:	88 27       	eor	r24, r24
     cf8:	77 fd       	sbrc	r23, 7
     cfa:	80 95       	com	r24
     cfc:	98 2f       	mov	r25, r24
     cfe:	0e 94 1a 3e 	call	0x7c34	; 0x7c34 <__floatsisf>
	float voltage = 0;
	 voltage = voltageBits / 10.0;
     d02:	20 e0       	ldi	r18, 0x00	; 0
     d04:	30 e0       	ldi	r19, 0x00	; 0
     d06:	40 e2       	ldi	r20, 0x20	; 32
     d08:	51 e4       	ldi	r21, 0x41	; 65
     d0a:	0e 94 7f 3d 	call	0x7afe	; 0x7afe <__divsf3>
	return voltage;
}
     d0e:	08 95       	ret

00000d10 <SetUpServos>:
int PrintErrorCode();
void PrintCommStatus(int CommStatus);

///////
void SetUpServos()
{	
     d10:	4f 92       	push	r4
     d12:	5f 92       	push	r5
     d14:	6f 92       	push	r6
     d16:	7f 92       	push	r7
     d18:	8f 92       	push	r8
     d1a:	9f 92       	push	r9
     d1c:	af 92       	push	r10
     d1e:	bf 92       	push	r11
     d20:	cf 92       	push	r12
     d22:	df 92       	push	r13
     d24:	ef 92       	push	r14
     d26:	ff 92       	push	r15
     d28:	0f 93       	push	r16
     d2a:	1f 93       	push	r17
     d2c:	df 93       	push	r29
     d2e:	cf 93       	push	r28
     d30:	00 d0       	rcall	.+0      	; 0xd32 <SetUpServos+0x22>
     d32:	00 d0       	rcall	.+0      	; 0xd34 <SetUpServos+0x24>
     d34:	cd b7       	in	r28, 0x3d	; 61
     d36:	de b7       	in	r29, 0x3e	; 62
	float voltage12 = 0;
	voltage12 = GetVoltage(7);
     d38:	87 e0       	ldi	r24, 0x07	; 7
     d3a:	90 e0       	ldi	r25, 0x00	; 0
     d3c:	0e 94 75 06 	call	0xcea	; 0xcea <GetVoltage>
     d40:	69 83       	std	Y+1, r22	; 0x01
     d42:	7a 83       	std	Y+2, r23	; 0x02
     d44:	8b 83       	std	Y+3, r24	; 0x03
     d46:	9c 83       	std	Y+4, r25	; 0x04
	printf("Voltage12: %f \r",voltage12);
     d48:	00 d0       	rcall	.+0      	; 0xd4a <SetUpServos+0x3a>
     d4a:	00 d0       	rcall	.+0      	; 0xd4c <SetUpServos+0x3c>
     d4c:	80 e0       	ldi	r24, 0x00	; 0
     d4e:	92 e0       	ldi	r25, 0x02	; 2
     d50:	ad b7       	in	r26, 0x3d	; 61
     d52:	be b7       	in	r27, 0x3e	; 62
     d54:	12 96       	adiw	r26, 0x02	; 2
     d56:	9c 93       	st	X, r25
     d58:	8e 93       	st	-X, r24
     d5a:	11 97       	sbiw	r26, 0x01	; 1
     d5c:	89 81       	ldd	r24, Y+1	; 0x01
     d5e:	9a 81       	ldd	r25, Y+2	; 0x02
     d60:	ab 81       	ldd	r26, Y+3	; 0x03
     d62:	bc 81       	ldd	r27, Y+4	; 0x04
     d64:	ed b7       	in	r30, 0x3d	; 61
     d66:	fe b7       	in	r31, 0x3e	; 62
     d68:	83 83       	std	Z+3, r24	; 0x03
     d6a:	94 83       	std	Z+4, r25	; 0x04
     d6c:	a5 83       	std	Z+5, r26	; 0x05
     d6e:	b6 83       	std	Z+6, r27	; 0x06
     d70:	0e 94 63 44 	call	0x88c6	; 0x88c6 <printf>
     d74:	8f ef       	ldi	r24, 0xFF	; 255
     d76:	90 e7       	ldi	r25, 0x70	; 112
     d78:	a2 e0       	ldi	r26, 0x02	; 2
     d7a:	81 50       	subi	r24, 0x01	; 1
     d7c:	90 40       	sbci	r25, 0x00	; 0
     d7e:	a0 40       	sbci	r26, 0x00	; 0
     d80:	e1 f7       	brne	.-8      	; 0xd7a <SetUpServos+0x6a>
     d82:	00 c0       	rjmp	.+0      	; 0xd84 <SetUpServos+0x74>
     d84:	00 00       	nop
	_delay_ms(50);
	float voltage18 = 0;
	voltage18 = GetVoltage(0);
     d86:	ad b7       	in	r26, 0x3d	; 61
     d88:	be b7       	in	r27, 0x3e	; 62
     d8a:	16 96       	adiw	r26, 0x06	; 6
     d8c:	0f b6       	in	r0, 0x3f	; 63
     d8e:	f8 94       	cli
     d90:	be bf       	out	0x3e, r27	; 62
     d92:	0f be       	out	0x3f, r0	; 63
     d94:	ad bf       	out	0x3d, r26	; 61
     d96:	80 e0       	ldi	r24, 0x00	; 0
     d98:	90 e0       	ldi	r25, 0x00	; 0
     d9a:	0e 94 75 06 	call	0xcea	; 0xcea <GetVoltage>
     d9e:	5b 01       	movw	r10, r22
     da0:	6c 01       	movw	r12, r24
	printf("Voltage18: %f \r",voltage18);
     da2:	00 d0       	rcall	.+0      	; 0xda4 <SetUpServos+0x94>
     da4:	00 d0       	rcall	.+0      	; 0xda6 <SetUpServos+0x96>
     da6:	80 e1       	ldi	r24, 0x10	; 16
     da8:	92 e0       	ldi	r25, 0x02	; 2
     daa:	ed b7       	in	r30, 0x3d	; 61
     dac:	fe b7       	in	r31, 0x3e	; 62
     dae:	92 83       	std	Z+2, r25	; 0x02
     db0:	81 83       	std	Z+1, r24	; 0x01
     db2:	ad b7       	in	r26, 0x3d	; 61
     db4:	be b7       	in	r27, 0x3e	; 62
     db6:	13 96       	adiw	r26, 0x03	; 3
     db8:	ad 92       	st	X+, r10
     dba:	bd 92       	st	X+, r11
     dbc:	cd 92       	st	X+, r12
     dbe:	dc 92       	st	X, r13
     dc0:	16 97       	sbiw	r26, 0x06	; 6
     dc2:	0e 94 63 44 	call	0x88c6	; 0x88c6 <printf>
				
	
	ids[0] = 0;
     dc6:	10 92 76 0b 	sts	0x0B76, r1
     dca:	10 92 75 0b 	sts	0x0B75, r1
	ids[1] = 1;
     dce:	61 e0       	ldi	r22, 0x01	; 1
     dd0:	70 e0       	ldi	r23, 0x00	; 0
     dd2:	70 93 78 0b 	sts	0x0B78, r23
     dd6:	60 93 77 0b 	sts	0x0B77, r22
	ids[2] = 2;
     dda:	82 e0       	ldi	r24, 0x02	; 2
     ddc:	90 e0       	ldi	r25, 0x00	; 0
     dde:	90 93 7a 0b 	sts	0x0B7A, r25
     de2:	80 93 79 0b 	sts	0x0B79, r24
	ids[3] = 3;
     de6:	83 e0       	ldi	r24, 0x03	; 3
     de8:	90 e0       	ldi	r25, 0x00	; 0
     dea:	90 93 7c 0b 	sts	0x0B7C, r25
     dee:	80 93 7b 0b 	sts	0x0B7B, r24
	ids[4] = 4;
     df2:	84 e0       	ldi	r24, 0x04	; 4
     df4:	90 e0       	ldi	r25, 0x00	; 0
     df6:	90 93 7e 0b 	sts	0x0B7E, r25
     dfa:	80 93 7d 0b 	sts	0x0B7D, r24
	ids[5] = 5;
     dfe:	85 e0       	ldi	r24, 0x05	; 5
     e00:	90 e0       	ldi	r25, 0x00	; 0
     e02:	90 93 80 0b 	sts	0x0B80, r25
     e06:	80 93 7f 0b 	sts	0x0B7F, r24
	ids[6] = 6;
     e0a:	86 e0       	ldi	r24, 0x06	; 6
     e0c:	90 e0       	ldi	r25, 0x00	; 0
     e0e:	90 93 82 0b 	sts	0x0B82, r25
     e12:	80 93 81 0b 	sts	0x0B81, r24

	ids[7] = 7;
     e16:	87 e0       	ldi	r24, 0x07	; 7
     e18:	90 e0       	ldi	r25, 0x00	; 0
     e1a:	90 93 84 0b 	sts	0x0B84, r25
     e1e:	80 93 83 0b 	sts	0x0B83, r24
	ids[8] = 17;
     e22:	81 e1       	ldi	r24, 0x11	; 17
     e24:	90 e0       	ldi	r25, 0x00	; 0
     e26:	90 93 86 0b 	sts	0x0B86, r25
     e2a:	80 93 85 0b 	sts	0x0B85, r24

	

	// Arm
	ceroPosition[0] = 62; // 33
     e2e:	80 e0       	ldi	r24, 0x00	; 0
     e30:	90 e0       	ldi	r25, 0x00	; 0
     e32:	a8 e7       	ldi	r26, 0x78	; 120
     e34:	b2 e4       	ldi	r27, 0x42	; 66
     e36:	80 93 1b 0c 	sts	0x0C1B, r24
     e3a:	90 93 1c 0c 	sts	0x0C1C, r25
     e3e:	a0 93 1d 0c 	sts	0x0C1D, r26
     e42:	b0 93 1e 0c 	sts	0x0C1E, r27
	ceroPosition[1] = 0;	//180
     e46:	80 e0       	ldi	r24, 0x00	; 0
     e48:	90 e0       	ldi	r25, 0x00	; 0
     e4a:	dc 01       	movw	r26, r24
     e4c:	80 93 1f 0c 	sts	0x0C1F, r24
     e50:	90 93 20 0c 	sts	0x0C20, r25
     e54:	a0 93 21 0c 	sts	0x0C21, r26
     e58:	b0 93 22 0c 	sts	0x0C22, r27
	ceroPosition[2] = 90;
     e5c:	80 e0       	ldi	r24, 0x00	; 0
     e5e:	90 e0       	ldi	r25, 0x00	; 0
     e60:	a4 eb       	ldi	r26, 0xB4	; 180
     e62:	b2 e4       	ldi	r27, 0x42	; 66
     e64:	80 93 23 0c 	sts	0x0C23, r24
     e68:	90 93 24 0c 	sts	0x0C24, r25
     e6c:	a0 93 25 0c 	sts	0x0C25, r26
     e70:	b0 93 26 0c 	sts	0x0C26, r27
	ceroPosition[3] = 110;
     e74:	20 e0       	ldi	r18, 0x00	; 0
     e76:	30 e0       	ldi	r19, 0x00	; 0
     e78:	4c ed       	ldi	r20, 0xDC	; 220
     e7a:	52 e4       	ldi	r21, 0x42	; 66
     e7c:	20 93 27 0c 	sts	0x0C27, r18
     e80:	30 93 28 0c 	sts	0x0C28, r19
     e84:	40 93 29 0c 	sts	0x0C29, r20
     e88:	50 93 2a 0c 	sts	0x0C2A, r21
	ceroPosition[4] = 113;
     e8c:	20 e0       	ldi	r18, 0x00	; 0
     e8e:	30 e0       	ldi	r19, 0x00	; 0
     e90:	42 ee       	ldi	r20, 0xE2	; 226
     e92:	52 e4       	ldi	r21, 0x42	; 66
     e94:	20 93 2b 0c 	sts	0x0C2B, r18
     e98:	30 93 2c 0c 	sts	0x0C2C, r19
     e9c:	40 93 2d 0c 	sts	0x0C2D, r20
     ea0:	50 93 2e 0c 	sts	0x0C2E, r21
	ceroPosition[5] = 90;
     ea4:	80 93 2f 0c 	sts	0x0C2F, r24
     ea8:	90 93 30 0c 	sts	0x0C30, r25
     eac:	a0 93 31 0c 	sts	0x0C31, r26
     eb0:	b0 93 32 0c 	sts	0x0C32, r27
	ceroPosition[6] = 90;
     eb4:	80 93 33 0c 	sts	0x0C33, r24
     eb8:	90 93 34 0c 	sts	0x0C34, r25
     ebc:	a0 93 35 0c 	sts	0x0C35, r26
     ec0:	b0 93 36 0c 	sts	0x0C36, r27

	ceroPosition[7] = 27;
     ec4:	80 e0       	ldi	r24, 0x00	; 0
     ec6:	90 e0       	ldi	r25, 0x00	; 0
     ec8:	a8 ed       	ldi	r26, 0xD8	; 216
     eca:	b1 e4       	ldi	r27, 0x41	; 65
     ecc:	80 93 37 0c 	sts	0x0C37, r24
     ed0:	90 93 38 0c 	sts	0x0C38, r25
     ed4:	a0 93 39 0c 	sts	0x0C39, r26
     ed8:	b0 93 3a 0c 	sts	0x0C3A, r27
	ceroPosition[8] = 153;
     edc:	80 e0       	ldi	r24, 0x00	; 0
     ede:	90 e0       	ldi	r25, 0x00	; 0
     ee0:	a9 e1       	ldi	r26, 0x19	; 25
     ee2:	b3 e4       	ldi	r27, 0x43	; 67
     ee4:	80 93 3b 0c 	sts	0x0C3B, r24
     ee8:	90 93 3c 0c 	sts	0x0C3C, r25
     eec:	a0 93 3d 0c 	sts	0x0C3D, r26
     ef0:	b0 93 3e 0c 	sts	0x0C3E, r27
	
	
	cw[0] = 0;
     ef4:	10 92 0e 12 	sts	0x120E, r1
     ef8:	10 92 0d 12 	sts	0x120D, r1
	cw[1] = 0;
     efc:	10 92 10 12 	sts	0x1210, r1
     f00:	10 92 0f 12 	sts	0x120F, r1
	cw[2] = 0;
     f04:	10 92 12 12 	sts	0x1212, r1
     f08:	10 92 11 12 	sts	0x1211, r1
	cw[3] = 1;
     f0c:	70 93 14 12 	sts	0x1214, r23
     f10:	60 93 13 12 	sts	0x1213, r22
	cw[4] = 0;
     f14:	10 92 16 12 	sts	0x1216, r1
     f18:	10 92 15 12 	sts	0x1215, r1
	cw[5] = 1;
     f1c:	70 93 18 12 	sts	0x1218, r23
     f20:	60 93 17 12 	sts	0x1217, r22
	cw[6] = 0;
     f24:	10 92 1a 12 	sts	0x121A, r1
     f28:	10 92 19 12 	sts	0x1219, r1

	cw[7] = 0;
     f2c:	10 92 1c 12 	sts	0x121C, r1
     f30:	10 92 1b 12 	sts	0x121B, r1
	cw[8] = 1;
     f34:	70 93 1e 12 	sts	0x121E, r23
     f38:	60 93 1d 12 	sts	0x121D, r22

	maxBits[0] = 4095.0;
     f3c:	80 e0       	ldi	r24, 0x00	; 0
     f3e:	90 ef       	ldi	r25, 0xF0	; 240
     f40:	af e7       	ldi	r26, 0x7F	; 127
     f42:	b5 e4       	ldi	r27, 0x45	; 69
     f44:	80 93 bf 0c 	sts	0x0CBF, r24
     f48:	90 93 c0 0c 	sts	0x0CC0, r25
     f4c:	a0 93 c1 0c 	sts	0x0CC1, r26
     f50:	b0 93 c2 0c 	sts	0x0CC2, r27
	maxBits[1] = 4095.0;   ////// CAMBIAR a 64
     f54:	80 93 c3 0c 	sts	0x0CC3, r24
     f58:	90 93 c4 0c 	sts	0x0CC4, r25
     f5c:	a0 93 c5 0c 	sts	0x0CC5, r26
     f60:	b0 93 c6 0c 	sts	0x0CC6, r27
	maxBits[2] = 1023.0;
     f64:	20 e0       	ldi	r18, 0x00	; 0
     f66:	30 ec       	ldi	r19, 0xC0	; 192
     f68:	4f e7       	ldi	r20, 0x7F	; 127
     f6a:	54 e4       	ldi	r21, 0x44	; 68
     f6c:	20 93 c7 0c 	sts	0x0CC7, r18
     f70:	30 93 c8 0c 	sts	0x0CC8, r19
     f74:	40 93 c9 0c 	sts	0x0CC9, r20
     f78:	50 93 ca 0c 	sts	0x0CCA, r21
	maxBits[3] = 4095.0;
     f7c:	80 93 cb 0c 	sts	0x0CCB, r24
     f80:	90 93 cc 0c 	sts	0x0CCC, r25
     f84:	a0 93 cd 0c 	sts	0x0CCD, r26
     f88:	b0 93 ce 0c 	sts	0x0CCE, r27
	maxBits[4] = 4095.0;
     f8c:	80 93 cf 0c 	sts	0x0CCF, r24
     f90:	90 93 d0 0c 	sts	0x0CD0, r25
     f94:	a0 93 d1 0c 	sts	0x0CD1, r26
     f98:	b0 93 d2 0c 	sts	0x0CD2, r27
	maxBits[5] = 4095.0;
     f9c:	80 93 d3 0c 	sts	0x0CD3, r24
     fa0:	90 93 d4 0c 	sts	0x0CD4, r25
     fa4:	a0 93 d5 0c 	sts	0x0CD5, r26
     fa8:	b0 93 d6 0c 	sts	0x0CD6, r27
	maxBits[6] = 1023.0;
     fac:	20 93 d7 0c 	sts	0x0CD7, r18
     fb0:	30 93 d8 0c 	sts	0x0CD8, r19
     fb4:	40 93 d9 0c 	sts	0x0CD9, r20
     fb8:	50 93 da 0c 	sts	0x0CDA, r21

	maxBits[7] = 1023.0;
     fbc:	20 93 db 0c 	sts	0x0CDB, r18
     fc0:	30 93 dc 0c 	sts	0x0CDC, r19
     fc4:	40 93 dd 0c 	sts	0x0CDD, r20
     fc8:	50 93 de 0c 	sts	0x0CDE, r21
	maxBits[8] = 1023.0;
     fcc:	20 93 df 0c 	sts	0x0CDF, r18
     fd0:	30 93 e0 0c 	sts	0x0CE0, r19
     fd4:	40 93 e1 0c 	sts	0x0CE1, r20
     fd8:	50 93 e2 0c 	sts	0x0CE2, r21

	maxDegrees[0] = 250.92;
     fdc:	85 e8       	ldi	r24, 0x85	; 133
     fde:	9b ee       	ldi	r25, 0xEB	; 235
     fe0:	aa e7       	ldi	r26, 0x7A	; 122
     fe2:	b3 e4       	ldi	r27, 0x43	; 67
     fe4:	80 93 3f 0c 	sts	0x0C3F, r24
     fe8:	90 93 40 0c 	sts	0x0C40, r25
     fec:	a0 93 41 0c 	sts	0x0C41, r26
     ff0:	b0 93 42 0c 	sts	0x0C42, r27
	maxDegrees[1] = 250.92; ////// CAMBIAR a 64
     ff4:	80 93 43 0c 	sts	0x0C43, r24
     ff8:	90 93 44 0c 	sts	0x0C44, r25
     ffc:	a0 93 45 0c 	sts	0x0C45, r26
    1000:	b0 93 46 0c 	sts	0x0C46, r27
	maxDegrees[2] = 300.0;
    1004:	80 e0       	ldi	r24, 0x00	; 0
    1006:	90 e0       	ldi	r25, 0x00	; 0
    1008:	a6 e9       	ldi	r26, 0x96	; 150
    100a:	b3 e4       	ldi	r27, 0x43	; 67
    100c:	80 93 47 0c 	sts	0x0C47, r24
    1010:	90 93 48 0c 	sts	0x0C48, r25
    1014:	a0 93 49 0c 	sts	0x0C49, r26
    1018:	b0 93 4a 0c 	sts	0x0C4A, r27
	maxDegrees[3] = 359.9;
    101c:	23 e3       	ldi	r18, 0x33	; 51
    101e:	33 ef       	ldi	r19, 0xF3	; 243
    1020:	43 eb       	ldi	r20, 0xB3	; 179
    1022:	53 e4       	ldi	r21, 0x43	; 67
    1024:	20 93 4b 0c 	sts	0x0C4B, r18
    1028:	30 93 4c 0c 	sts	0x0C4C, r19
    102c:	40 93 4d 0c 	sts	0x0C4D, r20
    1030:	50 93 4e 0c 	sts	0x0C4E, r21
	maxDegrees[4] = 359.9;
    1034:	20 93 4f 0c 	sts	0x0C4F, r18
    1038:	30 93 50 0c 	sts	0x0C50, r19
    103c:	40 93 51 0c 	sts	0x0C51, r20
    1040:	50 93 52 0c 	sts	0x0C52, r21
	maxDegrees[5] = 359.9;
    1044:	20 93 53 0c 	sts	0x0C53, r18
    1048:	30 93 54 0c 	sts	0x0C54, r19
    104c:	40 93 55 0c 	sts	0x0C55, r20
    1050:	50 93 56 0c 	sts	0x0C56, r21
	maxDegrees[6] = 300.0;
    1054:	80 93 57 0c 	sts	0x0C57, r24
    1058:	90 93 58 0c 	sts	0x0C58, r25
    105c:	a0 93 59 0c 	sts	0x0C59, r26
    1060:	b0 93 5a 0c 	sts	0x0C5A, r27

	maxDegrees[7] = 300.0;
    1064:	80 93 5b 0c 	sts	0x0C5B, r24
    1068:	90 93 5c 0c 	sts	0x0C5C, r25
    106c:	a0 93 5d 0c 	sts	0x0C5D, r26
    1070:	b0 93 5e 0c 	sts	0x0C5E, r27
	maxDegrees[8] = 300.0;
    1074:	80 93 5f 0c 	sts	0x0C5F, r24
    1078:	90 93 60 0c 	sts	0x0C60, r25
    107c:	a0 93 61 0c 	sts	0x0C61, r26
    1080:	b0 93 62 0c 	sts	0x0C62, r27

	float maxTorque106 = (voltage18 * 5.945945946) - 4.0;		// EX-106
    1084:	c6 01       	movw	r24, r12
    1086:	b5 01       	movw	r22, r10
    1088:	20 e3       	ldi	r18, 0x30	; 48
    108a:	35 e4       	ldi	r19, 0x45	; 69
    108c:	4e eb       	ldi	r20, 0xBE	; 190
    108e:	50 e4       	ldi	r21, 0x40	; 64
    1090:	0e 94 5f 3f 	call	0x7ebe	; 0x7ebe <__mulsf3>
    1094:	20 e0       	ldi	r18, 0x00	; 0
    1096:	30 e0       	ldi	r19, 0x00	; 0
    1098:	40 e8       	ldi	r20, 0x80	; 128
    109a:	50 e4       	ldi	r21, 0x40	; 64
    109c:	0e 94 9a 3c 	call	0x7934	; 0x7934 <__subsf3>
    10a0:	7b 01       	movw	r14, r22
    10a2:	8c 01       	movw	r16, r24
	float maxTorque64 = (voltage18 * 4.266666667) + 0.4;		// RX-64
    10a4:	c6 01       	movw	r24, r12
    10a6:	b5 01       	movw	r22, r10
    10a8:	29 e8       	ldi	r18, 0x89	; 137
    10aa:	38 e8       	ldi	r19, 0x88	; 136
    10ac:	48 e8       	ldi	r20, 0x88	; 136
    10ae:	50 e4       	ldi	r21, 0x40	; 64
    10b0:	0e 94 5f 3f 	call	0x7ebe	; 0x7ebe <__mulsf3>
    10b4:	2d ec       	ldi	r18, 0xCD	; 205
    10b6:	3c ec       	ldi	r19, 0xCC	; 204
    10b8:	4c ec       	ldi	r20, 0xCC	; 204
    10ba:	5e e3       	ldi	r21, 0x3E	; 62
    10bc:	0e 94 9b 3c 	call	0x7936	; 0x7936 <__addsf3>
    10c0:	76 2e       	mov	r7, r22
    10c2:	67 2e       	mov	r6, r23
    10c4:	58 2e       	mov	r5, r24
    10c6:	49 2e       	mov	r4, r25
	float maxTorque28 = (voltage18 * 1.446153846) + 10.9461;
    10c8:	c6 01       	movw	r24, r12
    10ca:	b5 01       	movw	r22, r10
    10cc:	22 e9       	ldi	r18, 0x92	; 146
    10ce:	3b e1       	ldi	r19, 0x1B	; 27
    10d0:	49 eb       	ldi	r20, 0xB9	; 185
    10d2:	5f e3       	ldi	r21, 0x3F	; 63
    10d4:	0e 94 5f 3f 	call	0x7ebe	; 0x7ebe <__mulsf3>
    10d8:	2a e3       	ldi	r18, 0x3A	; 58
    10da:	33 e2       	ldi	r19, 0x23	; 35
    10dc:	4f e2       	ldi	r20, 0x2F	; 47
    10de:	51 e4       	ldi	r21, 0x41	; 65
    10e0:	0e 94 9b 3c 	call	0x7936	; 0x7936 <__addsf3>
    10e4:	d6 2e       	mov	r13, r22
    10e6:	b7 2e       	mov	r11, r23
    10e8:	98 2e       	mov	r9, r24
    10ea:	89 2e       	mov	r8, r25
	float maxTorque12 = (voltage12 * 1.5) + 1.5;
    10ec:	69 81       	ldd	r22, Y+1	; 0x01
    10ee:	7a 81       	ldd	r23, Y+2	; 0x02
    10f0:	8b 81       	ldd	r24, Y+3	; 0x03
    10f2:	9c 81       	ldd	r25, Y+4	; 0x04
    10f4:	20 e0       	ldi	r18, 0x00	; 0
    10f6:	30 e0       	ldi	r19, 0x00	; 0
    10f8:	40 ec       	ldi	r20, 0xC0	; 192
    10fa:	5f e3       	ldi	r21, 0x3F	; 63
    10fc:	0e 94 5f 3f 	call	0x7ebe	; 0x7ebe <__mulsf3>
    1100:	20 e0       	ldi	r18, 0x00	; 0
    1102:	30 e0       	ldi	r19, 0x00	; 0
    1104:	40 ec       	ldi	r20, 0xC0	; 192
    1106:	5f e3       	ldi	r21, 0x3F	; 63
    1108:	0e 94 9b 3c 	call	0x7936	; 0x7936 <__addsf3>
    110c:	c8 2e       	mov	r12, r24
    110e:	a9 2e       	mov	r10, r25


	maxTorque[0] = maxTorque106;
    1110:	8e 2d       	mov	r24, r14
    1112:	9f 2d       	mov	r25, r15
    1114:	a0 2f       	mov	r26, r16
    1116:	b1 2f       	mov	r27, r17
    1118:	80 93 9b 0c 	sts	0x0C9B, r24
    111c:	90 93 9c 0c 	sts	0x0C9C, r25
    1120:	a0 93 9d 0c 	sts	0x0C9D, r26
    1124:	b0 93 9e 0c 	sts	0x0C9E, r27
	maxTorque[1] = maxTorque106;			///// CAMBIAR A 64
    1128:	80 93 9f 0c 	sts	0x0C9F, r24
    112c:	90 93 a0 0c 	sts	0x0CA0, r25
    1130:	a0 93 a1 0c 	sts	0x0CA1, r26
    1134:	b0 93 a2 0c 	sts	0x0CA2, r27
	maxTorque[2] = maxTorque28;
    1138:	94 01       	movw	r18, r8
    113a:	8d 2d       	mov	r24, r13
    113c:	9b 2d       	mov	r25, r11
    113e:	a3 2f       	mov	r26, r19
    1140:	b2 2f       	mov	r27, r18
    1142:	80 93 a3 0c 	sts	0x0CA3, r24
    1146:	90 93 a4 0c 	sts	0x0CA4, r25
    114a:	a0 93 a5 0c 	sts	0x0CA5, r26
    114e:	b0 93 a6 0c 	sts	0x0CA6, r27
	maxTorque[3] = maxTorque106;
    1152:	8e 2d       	mov	r24, r14
    1154:	9f 2d       	mov	r25, r15
    1156:	a0 2f       	mov	r26, r16
    1158:	b1 2f       	mov	r27, r17
    115a:	80 93 a7 0c 	sts	0x0CA7, r24
    115e:	90 93 a8 0c 	sts	0x0CA8, r25
    1162:	a0 93 a9 0c 	sts	0x0CA9, r26
    1166:	b0 93 aa 0c 	sts	0x0CAA, r27
	maxTorque[4] = maxTorque64;
    116a:	a3 01       	movw	r20, r6
    116c:	92 01       	movw	r18, r4
    116e:	85 2f       	mov	r24, r21
    1170:	94 2f       	mov	r25, r20
    1172:	a3 2f       	mov	r26, r19
    1174:	b2 2f       	mov	r27, r18
    1176:	80 93 ab 0c 	sts	0x0CAB, r24
    117a:	90 93 ac 0c 	sts	0x0CAC, r25
    117e:	a0 93 ad 0c 	sts	0x0CAD, r26
    1182:	b0 93 ae 0c 	sts	0x0CAE, r27
	maxTorque[5] = maxTorque64;
    1186:	80 93 af 0c 	sts	0x0CAF, r24
    118a:	90 93 b0 0c 	sts	0x0CB0, r25
    118e:	a0 93 b1 0c 	sts	0x0CB1, r26
    1192:	b0 93 b2 0c 	sts	0x0CB2, r27
	maxTorque[6] = maxTorque28;
    1196:	94 01       	movw	r18, r8
    1198:	8d 2d       	mov	r24, r13
    119a:	9b 2d       	mov	r25, r11
    119c:	a3 2f       	mov	r26, r19
    119e:	b2 2f       	mov	r27, r18
    11a0:	80 93 b3 0c 	sts	0x0CB3, r24
    11a4:	90 93 b4 0c 	sts	0x0CB4, r25
    11a8:	a0 93 b5 0c 	sts	0x0CB5, r26
    11ac:	b0 93 b6 0c 	sts	0x0CB6, r27

	maxTorque[7] = maxTorque12;
    11b0:	86 2f       	mov	r24, r22
    11b2:	97 2f       	mov	r25, r23
    11b4:	ac 2d       	mov	r26, r12
    11b6:	ba 2d       	mov	r27, r10
    11b8:	80 93 b7 0c 	sts	0x0CB7, r24
    11bc:	90 93 b8 0c 	sts	0x0CB8, r25
    11c0:	a0 93 b9 0c 	sts	0x0CB9, r26
    11c4:	b0 93 ba 0c 	sts	0x0CBA, r27
	maxTorque[8] = maxTorque12;
    11c8:	26 2f       	mov	r18, r22
    11ca:	37 2f       	mov	r19, r23
    11cc:	4c 2d       	mov	r20, r12
    11ce:	5a 2d       	mov	r21, r10
    11d0:	20 93 bb 0c 	sts	0x0CBB, r18
    11d4:	30 93 bc 0c 	sts	0x0CBC, r19
    11d8:	40 93 bd 0c 	sts	0x0CBD, r20
    11dc:	50 93 be 0c 	sts	0x0CBE, r21
	
	printf("MAXTORQUE106: %f \r",maxTorque106);
    11e0:	80 e2       	ldi	r24, 0x20	; 32
    11e2:	92 e0       	ldi	r25, 0x02	; 2
    11e4:	ed b7       	in	r30, 0x3d	; 61
    11e6:	fe b7       	in	r31, 0x3e	; 62
    11e8:	92 83       	std	Z+2, r25	; 0x02
    11ea:	81 83       	std	Z+1, r24	; 0x01
    11ec:	8e 2d       	mov	r24, r14
    11ee:	9f 2d       	mov	r25, r15
    11f0:	a0 2f       	mov	r26, r16
    11f2:	b1 2f       	mov	r27, r17
    11f4:	83 83       	std	Z+3, r24	; 0x03
    11f6:	94 83       	std	Z+4, r25	; 0x04
    11f8:	a5 83       	std	Z+5, r26	; 0x05
    11fa:	b6 83       	std	Z+6, r27	; 0x06
    11fc:	6d 83       	std	Y+5, r22	; 0x05
    11fe:	7e 83       	std	Y+6, r23	; 0x06
    1200:	0e 94 63 44 	call	0x88c6	; 0x88c6 <printf>
	printf("MAXTORQUE64: %f \r",maxTorque64);
    1204:	83 e3       	ldi	r24, 0x33	; 51
    1206:	92 e0       	ldi	r25, 0x02	; 2
    1208:	ad b7       	in	r26, 0x3d	; 61
    120a:	be b7       	in	r27, 0x3e	; 62
    120c:	12 96       	adiw	r26, 0x02	; 2
    120e:	9c 93       	st	X, r25
    1210:	8e 93       	st	-X, r24
    1212:	11 97       	sbiw	r26, 0x01	; 1
    1214:	a3 01       	movw	r20, r6
    1216:	92 01       	movw	r18, r4
    1218:	85 2f       	mov	r24, r21
    121a:	94 2f       	mov	r25, r20
    121c:	a3 2f       	mov	r26, r19
    121e:	b2 2f       	mov	r27, r18
    1220:	ed b7       	in	r30, 0x3d	; 61
    1222:	fe b7       	in	r31, 0x3e	; 62
    1224:	83 83       	std	Z+3, r24	; 0x03
    1226:	94 83       	std	Z+4, r25	; 0x04
    1228:	a5 83       	std	Z+5, r26	; 0x05
    122a:	b6 83       	std	Z+6, r27	; 0x06
    122c:	0e 94 63 44 	call	0x88c6	; 0x88c6 <printf>
	printf("MAXTORQUE28: %f \r",maxTorque28);
    1230:	85 e4       	ldi	r24, 0x45	; 69
    1232:	92 e0       	ldi	r25, 0x02	; 2
    1234:	ad b7       	in	r26, 0x3d	; 61
    1236:	be b7       	in	r27, 0x3e	; 62
    1238:	12 96       	adiw	r26, 0x02	; 2
    123a:	9c 93       	st	X, r25
    123c:	8e 93       	st	-X, r24
    123e:	11 97       	sbiw	r26, 0x01	; 1
    1240:	94 01       	movw	r18, r8
    1242:	8d 2d       	mov	r24, r13
    1244:	9b 2d       	mov	r25, r11
    1246:	a3 2f       	mov	r26, r19
    1248:	b2 2f       	mov	r27, r18
    124a:	ed b7       	in	r30, 0x3d	; 61
    124c:	fe b7       	in	r31, 0x3e	; 62
    124e:	83 83       	std	Z+3, r24	; 0x03
    1250:	94 83       	std	Z+4, r25	; 0x04
    1252:	a5 83       	std	Z+5, r26	; 0x05
    1254:	b6 83       	std	Z+6, r27	; 0x06
    1256:	0e 94 63 44 	call	0x88c6	; 0x88c6 <printf>
	printf("MAXTORQUE12: %f \r",maxTorque12);
    125a:	87 e5       	ldi	r24, 0x57	; 87
    125c:	92 e0       	ldi	r25, 0x02	; 2
    125e:	ad b7       	in	r26, 0x3d	; 61
    1260:	be b7       	in	r27, 0x3e	; 62
    1262:	12 96       	adiw	r26, 0x02	; 2
    1264:	9c 93       	st	X, r25
    1266:	8e 93       	st	-X, r24
    1268:	11 97       	sbiw	r26, 0x01	; 1
    126a:	6d 81       	ldd	r22, Y+5	; 0x05
    126c:	7e 81       	ldd	r23, Y+6	; 0x06
    126e:	86 2f       	mov	r24, r22
    1270:	97 2f       	mov	r25, r23
    1272:	ac 2d       	mov	r26, r12
    1274:	ba 2d       	mov	r27, r10
    1276:	ed b7       	in	r30, 0x3d	; 61
    1278:	fe b7       	in	r31, 0x3e	; 62
    127a:	83 83       	std	Z+3, r24	; 0x03
    127c:	94 83       	std	Z+4, r25	; 0x04
    127e:	a5 83       	std	Z+5, r26	; 0x05
    1280:	b6 83       	std	Z+6, r27	; 0x06
    1282:	0e 94 63 44 	call	0x88c6	; 0x88c6 <printf>

	//Hand
	id_hand[0]= 20;
    1286:	84 e1       	ldi	r24, 0x14	; 20
    1288:	90 e0       	ldi	r25, 0x00	; 0
    128a:	90 93 06 12 	sts	0x1206, r25
    128e:	80 93 05 12 	sts	0x1205, r24
	id_hand[1]= 21;
    1292:	85 e1       	ldi	r24, 0x15	; 21
    1294:	90 e0       	ldi	r25, 0x00	; 0
    1296:	90 93 08 12 	sts	0x1208, r25
    129a:	80 93 07 12 	sts	0x1207, r24
	id_hand[2]= 22;
    129e:	86 e1       	ldi	r24, 0x16	; 22
    12a0:	90 e0       	ldi	r25, 0x00	; 0
    12a2:	90 93 0a 12 	sts	0x120A, r25
    12a6:	80 93 09 12 	sts	0x1209, r24
	id_hand[3]= 23;
    12aa:	87 e1       	ldi	r24, 0x17	; 23
    12ac:	90 e0       	ldi	r25, 0x00	; 0
    12ae:	90 93 0c 12 	sts	0x120C, r25
    12b2:	80 93 0b 12 	sts	0x120B, r24
	
	MaxHand[0]=500;
    12b6:	84 ef       	ldi	r24, 0xF4	; 244
    12b8:	91 e0       	ldi	r25, 0x01	; 1
    12ba:	90 93 20 12 	sts	0x1220, r25
    12be:	80 93 1f 12 	sts	0x121F, r24
	MaxHand[1]=500;
    12c2:	90 93 22 12 	sts	0x1222, r25
    12c6:	80 93 21 12 	sts	0x1221, r24
	MaxHand[2]=500;
    12ca:	90 93 24 12 	sts	0x1224, r25
    12ce:	80 93 23 12 	sts	0x1223, r24
	MaxHand[3]=500;
    12d2:	90 93 26 12 	sts	0x1226, r25
    12d6:	80 93 25 12 	sts	0x1225, r24

	
	MinHand[0]=300;
    12da:	8c e2       	ldi	r24, 0x2C	; 44
    12dc:	91 e0       	ldi	r25, 0x01	; 1
    12de:	90 93 14 0c 	sts	0x0C14, r25
    12e2:	80 93 13 0c 	sts	0x0C13, r24
	MinHand[1]=800;
    12e6:	80 e2       	ldi	r24, 0x20	; 32
    12e8:	93 e0       	ldi	r25, 0x03	; 3
    12ea:	90 93 16 0c 	sts	0x0C16, r25
    12ee:	80 93 15 0c 	sts	0x0C15, r24
	MinHand[2]=630;
    12f2:	86 e7       	ldi	r24, 0x76	; 118
    12f4:	92 e0       	ldi	r25, 0x02	; 2
    12f6:	90 93 18 0c 	sts	0x0C18, r25
    12fa:	80 93 17 0c 	sts	0x0C17, r24
	MinHand[3]=630;
    12fe:	90 93 1a 0c 	sts	0x0C1A, r25
    1302:	80 93 19 0c 	sts	0x0C19, r24
    1306:	8d b7       	in	r24, 0x3d	; 61
    1308:	9e b7       	in	r25, 0x3e	; 62
    130a:	06 96       	adiw	r24, 0x06	; 6
    130c:	0f b6       	in	r0, 0x3f	; 63
    130e:	f8 94       	cli
    1310:	9e bf       	out	0x3e, r25	; 62
    1312:	0f be       	out	0x3f, r0	; 63
    1314:	8d bf       	out	0x3d, r24	; 61

    for(int i = 20; i<24; i++)
    1316:	04 e1       	ldi	r16, 0x14	; 20
    1318:	10 e0       	ldi	r17, 0x00	; 0
	{
		SetSpeedPerc(i,10.0);
    131a:	c8 01       	movw	r24, r16
    131c:	40 e0       	ldi	r20, 0x00	; 0
    131e:	50 e0       	ldi	r21, 0x00	; 0
    1320:	60 e2       	ldi	r22, 0x20	; 32
    1322:	71 e4       	ldi	r23, 0x41	; 65
    1324:	0e 94 ef 03 	call	0x7de	; 0x7de <SetSpeedPerc>
    1328:	af e3       	ldi	r26, 0x3F	; 63
    132a:	bc e9       	ldi	r27, 0x9C	; 156
    132c:	11 97       	sbiw	r26, 0x01	; 1
    132e:	f1 f7       	brne	.-4      	; 0x132c <SetUpServos+0x61c>
    1330:	00 c0       	rjmp	.+0      	; 0x1332 <SetUpServos+0x622>
    1332:	00 00       	nop
	MinHand[0]=300;
	MinHand[1]=800;
	MinHand[2]=630;
	MinHand[3]=630;

    for(int i = 20; i<24; i++)
    1334:	0f 5f       	subi	r16, 0xFF	; 255
    1336:	1f 4f       	sbci	r17, 0xFF	; 255
    1338:	08 31       	cpi	r16, 0x18	; 24
    133a:	11 05       	cpc	r17, r1
    133c:	71 f7       	brne	.-36     	; 0x131a <SetUpServos+0x60a>
	{
		SetSpeedPerc(i,10.0);
		_delay_ms(10);
	}
}
    133e:	26 96       	adiw	r28, 0x06	; 6
    1340:	0f b6       	in	r0, 0x3f	; 63
    1342:	f8 94       	cli
    1344:	de bf       	out	0x3e, r29	; 62
    1346:	0f be       	out	0x3f, r0	; 63
    1348:	cd bf       	out	0x3d, r28	; 61
    134a:	cf 91       	pop	r28
    134c:	df 91       	pop	r29
    134e:	1f 91       	pop	r17
    1350:	0f 91       	pop	r16
    1352:	ff 90       	pop	r15
    1354:	ef 90       	pop	r14
    1356:	df 90       	pop	r13
    1358:	cf 90       	pop	r12
    135a:	bf 90       	pop	r11
    135c:	af 90       	pop	r10
    135e:	9f 90       	pop	r9
    1360:	8f 90       	pop	r8
    1362:	7f 90       	pop	r7
    1364:	6f 90       	pop	r6
    1366:	5f 90       	pop	r5
    1368:	4f 90       	pop	r4
    136a:	08 95       	ret

0000136c <Ping2>:
		}
}

//Returns de exact error code
int Ping2(int id)
{
    136c:	ef 92       	push	r14
    136e:	ff 92       	push	r15
    1370:	cf 93       	push	r28
    1372:	df 93       	push	r29
	int errT = 1;

	dxl_ping(id);
    1374:	0e 94 b9 36 	call	0x6d72	; 0x6d72 <dxl_ping>
	
	if(dxl_get_rxpacket_error(1)==1) // Error de Voltaje
    1378:	81 e0       	ldi	r24, 0x01	; 1
    137a:	90 e0       	ldi	r25, 0x00	; 0
    137c:	0e 94 e5 34 	call	0x69ca	; 0x69ca <dxl_get_rxpacket_error>
    1380:	81 30       	cpi	r24, 0x01	; 1
    1382:	91 05       	cpc	r25, r1
    1384:	19 f0       	breq	.+6      	; 0x138c <Ping2+0x20>
}

//Returns de exact error code
int Ping2(int id)
{
	int errT = 1;
    1386:	c1 e0       	ldi	r28, 0x01	; 1
    1388:	d0 e0       	ldi	r29, 0x00	; 0
    138a:	02 c0       	rjmp	.+4      	; 0x1390 <Ping2+0x24>

	dxl_ping(id);
	
	if(dxl_get_rxpacket_error(1)==1) // Error de Voltaje
	errT = errT*2;
    138c:	c2 e0       	ldi	r28, 0x02	; 2
    138e:	d0 e0       	ldi	r29, 0x00	; 0
	if(dxl_get_rxpacket_error(4)==1) // Error de SobreCalentamiento
    1390:	84 e0       	ldi	r24, 0x04	; 4
    1392:	90 e0       	ldi	r25, 0x00	; 0
    1394:	0e 94 e5 34 	call	0x69ca	; 0x69ca <dxl_get_rxpacket_error>
    1398:	81 30       	cpi	r24, 0x01	; 1
    139a:	91 05       	cpc	r25, r1
    139c:	29 f4       	brne	.+10     	; 0x13a8 <Ping2+0x3c>
	errT = errT*3;
    139e:	ce 01       	movw	r24, r28
    13a0:	88 0f       	add	r24, r24
    13a2:	99 1f       	adc	r25, r25
    13a4:	c8 0f       	add	r28, r24
    13a6:	d9 1f       	adc	r29, r25
	if(dxl_get_rxpacket_error(32)==1) // Error de SobreCarga
    13a8:	80 e2       	ldi	r24, 0x20	; 32
    13aa:	90 e0       	ldi	r25, 0x00	; 0
    13ac:	0e 94 e5 34 	call	0x69ca	; 0x69ca <dxl_get_rxpacket_error>
    13b0:	81 30       	cpi	r24, 0x01	; 1
    13b2:	91 05       	cpc	r25, r1
    13b4:	39 f4       	brne	.+14     	; 0x13c4 <Ping2+0x58>
	errT = errT*5;
    13b6:	ce 01       	movw	r24, r28
    13b8:	88 0f       	add	r24, r24
    13ba:	99 1f       	adc	r25, r25
    13bc:	88 0f       	add	r24, r24
    13be:	99 1f       	adc	r25, r25
    13c0:	c8 0f       	add	r28, r24
    13c2:	d9 1f       	adc	r29, r25

	return errT;
}
    13c4:	ce 01       	movw	r24, r28
    13c6:	df 91       	pop	r29
    13c8:	cf 91       	pop	r28
    13ca:	ff 90       	pop	r15
    13cc:	ef 90       	pop	r14
    13ce:	08 95       	ret

000013d0 <StatusReport>:


//Returns the error code of every servo
void StatusReport()
{
    13d0:	4f 92       	push	r4
    13d2:	5f 92       	push	r5
    13d4:	6f 92       	push	r6
    13d6:	7f 92       	push	r7
    13d8:	8f 92       	push	r8
    13da:	9f 92       	push	r9
    13dc:	af 92       	push	r10
    13de:	bf 92       	push	r11
    13e0:	cf 92       	push	r12
    13e2:	df 92       	push	r13
    13e4:	ef 92       	push	r14
    13e6:	ff 92       	push	r15
    13e8:	0f 93       	push	r16
    13ea:	1f 93       	push	r17
    13ec:	cf 93       	push	r28
    13ee:	df 93       	push	r29
	int p0,p10,p1,p2,p3,p4,p5,p6,p7;
	p0 = Ping2(0);
    13f0:	80 e0       	ldi	r24, 0x00	; 0
    13f2:	90 e0       	ldi	r25, 0x00	; 0
    13f4:	0e 94 b6 09 	call	0x136c	; 0x136c <Ping2>
    13f8:	7c 01       	movw	r14, r24
	p10 = Ping2(10);
    13fa:	8a e0       	ldi	r24, 0x0A	; 10
    13fc:	90 e0       	ldi	r25, 0x00	; 0
    13fe:	0e 94 b6 09 	call	0x136c	; 0x136c <Ping2>
    1402:	2c 01       	movw	r4, r24
	p1 = Ping2(1);
    1404:	81 e0       	ldi	r24, 0x01	; 1
    1406:	90 e0       	ldi	r25, 0x00	; 0
    1408:	0e 94 b6 09 	call	0x136c	; 0x136c <Ping2>
    140c:	8c 01       	movw	r16, r24
	p2 = Ping2(2);
    140e:	82 e0       	ldi	r24, 0x02	; 2
    1410:	90 e0       	ldi	r25, 0x00	; 0
    1412:	0e 94 b6 09 	call	0x136c	; 0x136c <Ping2>
    1416:	ec 01       	movw	r28, r24
	p3 = Ping2(3);
    1418:	83 e0       	ldi	r24, 0x03	; 3
    141a:	90 e0       	ldi	r25, 0x00	; 0
    141c:	0e 94 b6 09 	call	0x136c	; 0x136c <Ping2>
    1420:	6c 01       	movw	r12, r24
	p4 = Ping2(4);
    1422:	84 e0       	ldi	r24, 0x04	; 4
    1424:	90 e0       	ldi	r25, 0x00	; 0
    1426:	0e 94 b6 09 	call	0x136c	; 0x136c <Ping2>
    142a:	5c 01       	movw	r10, r24
	p5 = Ping2(5);
    142c:	85 e0       	ldi	r24, 0x05	; 5
    142e:	90 e0       	ldi	r25, 0x00	; 0
    1430:	0e 94 b6 09 	call	0x136c	; 0x136c <Ping2>
    1434:	4c 01       	movw	r8, r24
	p6 = Ping2(6);
    1436:	86 e0       	ldi	r24, 0x06	; 6
    1438:	90 e0       	ldi	r25, 0x00	; 0
    143a:	0e 94 b6 09 	call	0x136c	; 0x136c <Ping2>
    143e:	3c 01       	movw	r6, r24
	p7 = Ping2(7);
    1440:	87 e0       	ldi	r24, 0x07	; 7
    1442:	90 e0       	ldi	r25, 0x00	; 0
    1444:	0e 94 b6 09 	call	0x136c	; 0x136c <Ping2>

	printf("S 1 %d %d %d %d %d %d %d %d %d\r",p0,p1,p2,p3,p4,p5,p6,p7,p10);
    1448:	2d b7       	in	r18, 0x3d	; 61
    144a:	3e b7       	in	r19, 0x3e	; 62
    144c:	24 51       	subi	r18, 0x14	; 20
    144e:	30 40       	sbci	r19, 0x00	; 0
    1450:	0f b6       	in	r0, 0x3f	; 63
    1452:	f8 94       	cli
    1454:	3e bf       	out	0x3e, r19	; 62
    1456:	0f be       	out	0x3f, r0	; 63
    1458:	2d bf       	out	0x3d, r18	; 61
    145a:	ed b7       	in	r30, 0x3d	; 61
    145c:	fe b7       	in	r31, 0x3e	; 62
    145e:	31 96       	adiw	r30, 0x01	; 1
    1460:	29 e6       	ldi	r18, 0x69	; 105
    1462:	32 e0       	ldi	r19, 0x02	; 2
    1464:	ad b7       	in	r26, 0x3d	; 61
    1466:	be b7       	in	r27, 0x3e	; 62
    1468:	12 96       	adiw	r26, 0x02	; 2
    146a:	3c 93       	st	X, r19
    146c:	2e 93       	st	-X, r18
    146e:	11 97       	sbiw	r26, 0x01	; 1
    1470:	f3 82       	std	Z+3, r15	; 0x03
    1472:	e2 82       	std	Z+2, r14	; 0x02
    1474:	15 83       	std	Z+5, r17	; 0x05
    1476:	04 83       	std	Z+4, r16	; 0x04
    1478:	d7 83       	std	Z+7, r29	; 0x07
    147a:	c6 83       	std	Z+6, r28	; 0x06
    147c:	d1 86       	std	Z+9, r13	; 0x09
    147e:	c0 86       	std	Z+8, r12	; 0x08
    1480:	b3 86       	std	Z+11, r11	; 0x0b
    1482:	a2 86       	std	Z+10, r10	; 0x0a
    1484:	95 86       	std	Z+13, r9	; 0x0d
    1486:	84 86       	std	Z+12, r8	; 0x0c
    1488:	77 86       	std	Z+15, r7	; 0x0f
    148a:	66 86       	std	Z+14, r6	; 0x0e
    148c:	91 8b       	std	Z+17, r25	; 0x11
    148e:	80 8b       	std	Z+16, r24	; 0x10
    1490:	53 8a       	std	Z+19, r5	; 0x13
    1492:	42 8a       	std	Z+18, r4	; 0x12
    1494:	0e 94 63 44 	call	0x88c6	; 0x88c6 <printf>
    1498:	2d b7       	in	r18, 0x3d	; 61
    149a:	3e b7       	in	r19, 0x3e	; 62
    149c:	2c 5e       	subi	r18, 0xEC	; 236
    149e:	3f 4f       	sbci	r19, 0xFF	; 255
    14a0:	0f b6       	in	r0, 0x3f	; 63
    14a2:	f8 94       	cli
    14a4:	3e bf       	out	0x3e, r19	; 62
    14a6:	0f be       	out	0x3f, r0	; 63
    14a8:	2d bf       	out	0x3d, r18	; 61
}
    14aa:	df 91       	pop	r29
    14ac:	cf 91       	pop	r28
    14ae:	1f 91       	pop	r17
    14b0:	0f 91       	pop	r16
    14b2:	ff 90       	pop	r15
    14b4:	ef 90       	pop	r14
    14b6:	df 90       	pop	r13
    14b8:	cf 90       	pop	r12
    14ba:	bf 90       	pop	r11
    14bc:	af 90       	pop	r10
    14be:	9f 90       	pop	r9
    14c0:	8f 90       	pop	r8
    14c2:	7f 90       	pop	r7
    14c4:	6f 90       	pop	r6
    14c6:	5f 90       	pop	r5
    14c8:	4f 90       	pop	r4
    14ca:	08 95       	ret

000014cc <PrintCommStatus>:
	printf("i 1 %d %d %d %d %d %d %d\r",p0,p1,p2,p3,p4,p5,p6);
}
// Print communication result
void PrintCommStatus(int CommStatus)
{
	switch(CommStatus)
    14cc:	84 30       	cpi	r24, 0x04	; 4
    14ce:	91 05       	cpc	r25, r1
    14d0:	c9 f0       	breq	.+50     	; 0x1504 <PrintCommStatus+0x38>
    14d2:	85 30       	cpi	r24, 0x05	; 5
    14d4:	91 05       	cpc	r25, r1
    14d6:	3c f4       	brge	.+14     	; 0x14e6 <PrintCommStatus+0x1a>
    14d8:	82 30       	cpi	r24, 0x02	; 2
    14da:	91 05       	cpc	r25, r1
    14dc:	71 f0       	breq	.+28     	; 0x14fa <PrintCommStatus+0x2e>
    14de:	83 30       	cpi	r24, 0x03	; 3
    14e0:	91 05       	cpc	r25, r1
    14e2:	49 f5       	brne	.+82     	; 0x1536 <PrintCommStatus+0x6a>
    14e4:	14 c0       	rjmp	.+40     	; 0x150e <PrintCommStatus+0x42>
    14e6:	86 30       	cpi	r24, 0x06	; 6
    14e8:	91 05       	cpc	r25, r1
    14ea:	d9 f0       	breq	.+54     	; 0x1522 <PrintCommStatus+0x56>
    14ec:	86 30       	cpi	r24, 0x06	; 6
    14ee:	91 05       	cpc	r25, r1
    14f0:	9c f0       	brlt	.+38     	; 0x1518 <PrintCommStatus+0x4c>
    14f2:	87 30       	cpi	r24, 0x07	; 7
    14f4:	91 05       	cpc	r25, r1
    14f6:	f9 f4       	brne	.+62     	; 0x1536 <PrintCommStatus+0x6a>
    14f8:	19 c0       	rjmp	.+50     	; 0x152c <PrintCommStatus+0x60>
	{
	case COMM_TXFAIL:
		//printf("COMM_TXFAIL: Failed transmit instruction packet!\n");
		printf("txf\r");
    14fa:	0f 92       	push	r0
    14fc:	0f 92       	push	r0
    14fe:	89 e8       	ldi	r24, 0x89	; 137
    1500:	92 e0       	ldi	r25, 0x02	; 2
    1502:	1d c0       	rjmp	.+58     	; 0x153e <PrintCommStatus+0x72>
		break;

	case COMM_TXERROR:
		//printf("COMM_TXERROR: Incorrect instruction packet!\n");
		printf("txe\r");
    1504:	0f 92       	push	r0
    1506:	0f 92       	push	r0
    1508:	8e e8       	ldi	r24, 0x8E	; 142
    150a:	92 e0       	ldi	r25, 0x02	; 2
    150c:	18 c0       	rjmp	.+48     	; 0x153e <PrintCommStatus+0x72>
		break;

	case COMM_RXFAIL:
		//printf("COMM_RXFAIL: Failed get status packet from device!\n");
		printf("rxf\r");
    150e:	0f 92       	push	r0
    1510:	0f 92       	push	r0
    1512:	83 e9       	ldi	r24, 0x93	; 147
    1514:	92 e0       	ldi	r25, 0x02	; 2
    1516:	13 c0       	rjmp	.+38     	; 0x153e <PrintCommStatus+0x72>
		break;

	case COMM_RXWAITING:
		//printf("COMM_RXWAITING: Now recieving status packet!\n");
		printf("rxz\r");
    1518:	0f 92       	push	r0
    151a:	0f 92       	push	r0
    151c:	88 e9       	ldi	r24, 0x98	; 152
    151e:	92 e0       	ldi	r25, 0x02	; 2
    1520:	0e c0       	rjmp	.+28     	; 0x153e <PrintCommStatus+0x72>
		break;

	case COMM_RXTIMEOUT:
		//printf("COMM_RXTIMEOUT: There is no status packet!\n");
		printf("rxo\r");
    1522:	0f 92       	push	r0
    1524:	0f 92       	push	r0
    1526:	8d e9       	ldi	r24, 0x9D	; 157
    1528:	92 e0       	ldi	r25, 0x02	; 2
    152a:	09 c0       	rjmp	.+18     	; 0x153e <PrintCommStatus+0x72>
		break;

	case COMM_RXCORRUPT:
		//printf("COMM_RXCORRUPT: Incorrect status packet!\n");
		printf("rxs\r");
    152c:	0f 92       	push	r0
    152e:	0f 92       	push	r0
    1530:	82 ea       	ldi	r24, 0xA2	; 162
    1532:	92 e0       	ldi	r25, 0x02	; 2
    1534:	04 c0       	rjmp	.+8      	; 0x153e <PrintCommStatus+0x72>
		break;

	default:
		//printf("This is unknown error code!\n");
		printf("rxx\r");
    1536:	0f 92       	push	r0
    1538:	0f 92       	push	r0
    153a:	87 ea       	ldi	r24, 0xA7	; 167
    153c:	92 e0       	ldi	r25, 0x02	; 2
    153e:	ed b7       	in	r30, 0x3d	; 61
    1540:	fe b7       	in	r31, 0x3e	; 62
    1542:	92 83       	std	Z+2, r25	; 0x02
    1544:	81 83       	std	Z+1, r24	; 0x01
    1546:	0e 94 63 44 	call	0x88c6	; 0x88c6 <printf>
		break;
    154a:	0f 90       	pop	r0
    154c:	0f 90       	pop	r0
    154e:	08 95       	ret

00001550 <PrintErrorCode>:
}

// Print error bit of status packet
int PrintErrorCode()
{
	if(dxl_get_rxpacket_error(ERRBIT_VOLTAGE) == 1)
    1550:	81 e0       	ldi	r24, 0x01	; 1
    1552:	90 e0       	ldi	r25, 0x00	; 0
    1554:	0e 94 e5 34 	call	0x69ca	; 0x69ca <dxl_get_rxpacket_error>
    1558:	81 30       	cpi	r24, 0x01	; 1
    155a:	91 05       	cpc	r25, r1
    155c:	51 f1       	breq	.+84     	; 0x15b2 <PrintErrorCode+0x62>
		PORTC ^= 0b0010000;
		// Voltage Error
		//printf("vo\r");
		return 0;
	}
	if(dxl_get_rxpacket_error(ERRBIT_ANGLE) == 1)
    155e:	82 e0       	ldi	r24, 0x02	; 2
    1560:	90 e0       	ldi	r25, 0x00	; 0
    1562:	0e 94 e5 34 	call	0x69ca	; 0x69ca <dxl_get_rxpacket_error>
    1566:	81 30       	cpi	r24, 0x01	; 1
    1568:	91 05       	cpc	r25, r1
    156a:	19 f1       	breq	.+70     	; 0x15b2 <PrintErrorCode+0x62>
		PORTC ^= 0b0010000;
		// Angle Limit error
		//printf("al\r");
		return 0;
	}
	if(dxl_get_rxpacket_error(ERRBIT_OVERHEAT) == 1)
    156c:	84 e0       	ldi	r24, 0x04	; 4
    156e:	90 e0       	ldi	r25, 0x00	; 0
    1570:	0e 94 e5 34 	call	0x69ca	; 0x69ca <dxl_get_rxpacket_error>
    1574:	81 30       	cpi	r24, 0x01	; 1
    1576:	91 05       	cpc	r25, r1
    1578:	e1 f0       	breq	.+56     	; 0x15b2 <PrintErrorCode+0x62>
		PORTC ^= 0b0010000;
		// Overheat error
		//printf("oh\r");
		return 0;
	}
	if(dxl_get_rxpacket_error(ERRBIT_RANGE) == 1)
    157a:	88 e0       	ldi	r24, 0x08	; 8
    157c:	90 e0       	ldi	r25, 0x00	; 0
    157e:	0e 94 e5 34 	call	0x69ca	; 0x69ca <dxl_get_rxpacket_error>
    1582:	81 30       	cpi	r24, 0x01	; 1
    1584:	91 05       	cpc	r25, r1
    1586:	a9 f0       	breq	.+42     	; 0x15b2 <PrintErrorCode+0x62>
		PORTC ^= 0b0010000;
		// Range error
		//printf("or\r");
		return 0;
	}
	if(dxl_get_rxpacket_error(ERRBIT_CHECKSUM) == 1)
    1588:	80 e1       	ldi	r24, 0x10	; 16
    158a:	90 e0       	ldi	r25, 0x00	; 0
    158c:	0e 94 e5 34 	call	0x69ca	; 0x69ca <dxl_get_rxpacket_error>
    1590:	81 30       	cpi	r24, 0x01	; 1
    1592:	91 05       	cpc	r25, r1
    1594:	71 f0       	breq	.+28     	; 0x15b2 <PrintErrorCode+0x62>
		PORTC ^= 0b0010000;
		//Checksum error
		//printf("ch\r");
		return 0;
	}
	if(dxl_get_rxpacket_error(ERRBIT_OVERLOAD) == 1)
    1596:	80 e2       	ldi	r24, 0x20	; 32
    1598:	90 e0       	ldi	r25, 0x00	; 0
    159a:	0e 94 e5 34 	call	0x69ca	; 0x69ca <dxl_get_rxpacket_error>
    159e:	81 30       	cpi	r24, 0x01	; 1
    15a0:	91 05       	cpc	r25, r1
    15a2:	39 f0       	breq	.+14     	; 0x15b2 <PrintErrorCode+0x62>
		PORTC ^= 0b0010000;
		//OverLoad error
		//printf("ol\r");
		return 0;
	}
	if(dxl_get_rxpacket_error(ERRBIT_INSTRUCTION) == 1)
    15a4:	80 e4       	ldi	r24, 0x40	; 64
    15a6:	90 e0       	ldi	r25, 0x00	; 0
    15a8:	0e 94 e5 34 	call	0x69ca	; 0x69ca <dxl_get_rxpacket_error>
    15ac:	81 30       	cpi	r24, 0x01	; 1
    15ae:	91 05       	cpc	r25, r1
    15b0:	39 f4       	brne	.+14     	; 0x15c0 <PrintErrorCode+0x70>
	{
		PORTC ^= 0b0010000;
    15b2:	88 b1       	in	r24, 0x08	; 8
    15b4:	90 e1       	ldi	r25, 0x10	; 16
    15b6:	89 27       	eor	r24, r25
    15b8:	88 b9       	out	0x08, r24	; 8
		// Instruction error
		//printf("in\r");
		return 0;
    15ba:	20 e0       	ldi	r18, 0x00	; 0
    15bc:	30 e0       	ldi	r19, 0x00	; 0
    15be:	02 c0       	rjmp	.+4      	; 0x15c4 <PrintErrorCode+0x74>
	}
	return 1;
    15c0:	21 e0       	ldi	r18, 0x01	; 1
    15c2:	30 e0       	ldi	r19, 0x00	; 0
}
    15c4:	c9 01       	movw	r24, r18
    15c6:	08 95       	ret

000015c8 <Ping>:
}

int Ping(int id)
{

	dxl_ping(id);
    15c8:	0e 94 b9 36 	call	0x6d72	; 0x6d72 <dxl_ping>

	CommStatus = dxl_get_result();
    15cc:	0e 94 d2 34 	call	0x69a4	; 0x69a4 <dxl_get_result>
    15d0:	90 93 b0 0f 	sts	0x0FB0, r25
    15d4:	80 93 af 0f 	sts	0x0FAF, r24
		if( CommStatus == COMM_RXSUCCESS )
    15d8:	81 30       	cpi	r24, 0x01	; 1
    15da:	91 05       	cpc	r25, r1
    15dc:	21 f4       	brne	.+8      	; 0x15e6 <Ping+0x1e>
		{
		return 	PrintErrorCode();
    15de:	0e 94 a8 0a 	call	0x1550	; 0x1550 <PrintErrorCode>
    15e2:	9c 01       	movw	r18, r24
    15e4:	02 c0       	rjmp	.+4      	; 0x15ea <Ping+0x22>
		}
		
		else
		{
			//PrintCommStatus(CommStatus);
			return 0;
    15e6:	20 e0       	ldi	r18, 0x00	; 0
    15e8:	30 e0       	ldi	r19, 0x00	; 0
		}
}
    15ea:	c9 01       	movw	r24, r18
    15ec:	08 95       	ret

000015ee <ArmPing>:
	printf("S 1 %d %d %d %d %d %d %d %d %d\r",p0,p1,p2,p3,p4,p5,p6,p7,p10);
}


void ArmPing()
{
    15ee:	8f 92       	push	r8
    15f0:	9f 92       	push	r9
    15f2:	af 92       	push	r10
    15f4:	bf 92       	push	r11
    15f6:	cf 92       	push	r12
    15f8:	df 92       	push	r13
    15fa:	ef 92       	push	r14
    15fc:	ff 92       	push	r15
    15fe:	0f 93       	push	r16
    1600:	1f 93       	push	r17
    1602:	cf 93       	push	r28
    1604:	df 93       	push	r29
	int p0,p1,p2,p3,p4,p5,p6;
	p0 = Ping(0);
    1606:	80 e0       	ldi	r24, 0x00	; 0
    1608:	90 e0       	ldi	r25, 0x00	; 0
    160a:	0e 94 e4 0a 	call	0x15c8	; 0x15c8 <Ping>
    160e:	7c 01       	movw	r14, r24
	p1 = Ping(1);
    1610:	81 e0       	ldi	r24, 0x01	; 1
    1612:	90 e0       	ldi	r25, 0x00	; 0
    1614:	0e 94 e4 0a 	call	0x15c8	; 0x15c8 <Ping>
    1618:	8c 01       	movw	r16, r24
	p2 = Ping(2);
    161a:	82 e0       	ldi	r24, 0x02	; 2
    161c:	90 e0       	ldi	r25, 0x00	; 0
    161e:	0e 94 e4 0a 	call	0x15c8	; 0x15c8 <Ping>
    1622:	ec 01       	movw	r28, r24
	p3 = Ping(3);
    1624:	83 e0       	ldi	r24, 0x03	; 3
    1626:	90 e0       	ldi	r25, 0x00	; 0
    1628:	0e 94 e4 0a 	call	0x15c8	; 0x15c8 <Ping>
    162c:	6c 01       	movw	r12, r24
	p4 = Ping(4);
    162e:	84 e0       	ldi	r24, 0x04	; 4
    1630:	90 e0       	ldi	r25, 0x00	; 0
    1632:	0e 94 e4 0a 	call	0x15c8	; 0x15c8 <Ping>
    1636:	5c 01       	movw	r10, r24
	p5 = Ping(5);
    1638:	85 e0       	ldi	r24, 0x05	; 5
    163a:	90 e0       	ldi	r25, 0x00	; 0
    163c:	0e 94 e4 0a 	call	0x15c8	; 0x15c8 <Ping>
    1640:	4c 01       	movw	r8, r24
	p6 = Ping(6);
    1642:	86 e0       	ldi	r24, 0x06	; 6
    1644:	90 e0       	ldi	r25, 0x00	; 0
    1646:	0e 94 e4 0a 	call	0x15c8	; 0x15c8 <Ping>


	printf("i 1 %d %d %d %d %d %d %d\r",p0,p1,p2,p3,p4,p5,p6);
    164a:	2d b7       	in	r18, 0x3d	; 61
    164c:	3e b7       	in	r19, 0x3e	; 62
    164e:	20 51       	subi	r18, 0x10	; 16
    1650:	30 40       	sbci	r19, 0x00	; 0
    1652:	0f b6       	in	r0, 0x3f	; 63
    1654:	f8 94       	cli
    1656:	3e bf       	out	0x3e, r19	; 62
    1658:	0f be       	out	0x3f, r0	; 63
    165a:	2d bf       	out	0x3d, r18	; 61
    165c:	ed b7       	in	r30, 0x3d	; 61
    165e:	fe b7       	in	r31, 0x3e	; 62
    1660:	31 96       	adiw	r30, 0x01	; 1
    1662:	2c ea       	ldi	r18, 0xAC	; 172
    1664:	32 e0       	ldi	r19, 0x02	; 2
    1666:	ad b7       	in	r26, 0x3d	; 61
    1668:	be b7       	in	r27, 0x3e	; 62
    166a:	12 96       	adiw	r26, 0x02	; 2
    166c:	3c 93       	st	X, r19
    166e:	2e 93       	st	-X, r18
    1670:	11 97       	sbiw	r26, 0x01	; 1
    1672:	f3 82       	std	Z+3, r15	; 0x03
    1674:	e2 82       	std	Z+2, r14	; 0x02
    1676:	15 83       	std	Z+5, r17	; 0x05
    1678:	04 83       	std	Z+4, r16	; 0x04
    167a:	d7 83       	std	Z+7, r29	; 0x07
    167c:	c6 83       	std	Z+6, r28	; 0x06
    167e:	d1 86       	std	Z+9, r13	; 0x09
    1680:	c0 86       	std	Z+8, r12	; 0x08
    1682:	b3 86       	std	Z+11, r11	; 0x0b
    1684:	a2 86       	std	Z+10, r10	; 0x0a
    1686:	95 86       	std	Z+13, r9	; 0x0d
    1688:	84 86       	std	Z+12, r8	; 0x0c
    168a:	97 87       	std	Z+15, r25	; 0x0f
    168c:	86 87       	std	Z+14, r24	; 0x0e
    168e:	0e 94 63 44 	call	0x88c6	; 0x88c6 <printf>
    1692:	2d b7       	in	r18, 0x3d	; 61
    1694:	3e b7       	in	r19, 0x3e	; 62
    1696:	20 5f       	subi	r18, 0xF0	; 240
    1698:	3f 4f       	sbci	r19, 0xFF	; 255
    169a:	0f b6       	in	r0, 0x3f	; 63
    169c:	f8 94       	cli
    169e:	3e bf       	out	0x3e, r19	; 62
    16a0:	0f be       	out	0x3f, r0	; 63
    16a2:	2d bf       	out	0x3d, r18	; 61
}
    16a4:	df 91       	pop	r29
    16a6:	cf 91       	pop	r28
    16a8:	1f 91       	pop	r17
    16aa:	0f 91       	pop	r16
    16ac:	ff 90       	pop	r15
    16ae:	ef 90       	pop	r14
    16b0:	df 90       	pop	r13
    16b2:	cf 90       	pop	r12
    16b4:	bf 90       	pop	r11
    16b6:	af 90       	pop	r10
    16b8:	9f 90       	pop	r9
    16ba:	8f 90       	pop	r8
    16bc:	08 95       	ret

000016be <ArmTorque>:
	dxl_write_byte( 6, 24 , e7);
	return 1;
}

void ArmTorque(float* servoTorque)
{
    16be:	cf 92       	push	r12
    16c0:	df 92       	push	r13
    16c2:	ef 92       	push	r14
    16c4:	ff 92       	push	r15
    16c6:	0f 93       	push	r16
    16c8:	1f 93       	push	r17
    16ca:	cf 93       	push	r28
    16cc:	df 93       	push	r29
    16ce:	e8 2e       	mov	r14, r24
    16d0:	09 2f       	mov	r16, r25
		int i;
		int GoalTorque;
		// Make syncwrite packet
		dxl_set_txpacket_id(BROADCAST_ID);
    16d2:	8e ef       	ldi	r24, 0xFE	; 254
    16d4:	90 e0       	ldi	r25, 0x00	; 0
    16d6:	0e 94 d7 34 	call	0x69ae	; 0x69ae <dxl_set_txpacket_id>
		dxl_set_txpacket_instruction(INST_SYNC_WRITE);
    16da:	83 e8       	ldi	r24, 0x83	; 131
    16dc:	90 e0       	ldi	r25, 0x00	; 0
    16de:	0e 94 da 34 	call	0x69b4	; 0x69b4 <dxl_set_txpacket_instruction>
		dxl_set_txpacket_parameter(0, SERVO_PROG_SPEED);
    16e2:	80 e0       	ldi	r24, 0x00	; 0
    16e4:	90 e0       	ldi	r25, 0x00	; 0
    16e6:	60 e2       	ldi	r22, 0x20	; 32
    16e8:	70 e0       	ldi	r23, 0x00	; 0
    16ea:	0e 94 dd 34 	call	0x69ba	; 0x69ba <dxl_set_txpacket_parameter>
		dxl_set_txpacket_parameter(1, 2);
    16ee:	81 e0       	ldi	r24, 0x01	; 1
    16f0:	90 e0       	ldi	r25, 0x00	; 0
    16f2:	62 e0       	ldi	r22, 0x02	; 2
    16f4:	70 e0       	ldi	r23, 0x00	; 0
    16f6:	0e 94 dd 34 	call	0x69ba	; 0x69ba <dxl_set_txpacket_parameter>
    16fa:	ce 2c       	mov	r12, r14
    16fc:	d0 2e       	mov	r13, r16
    16fe:	c2 e0       	ldi	r28, 0x02	; 2
    1700:	d0 e0       	ldi	r29, 0x00	; 0
		for( i=0; i<DOF; i++ )
    1702:	00 e0       	ldi	r16, 0x00	; 0
    1704:	10 e0       	ldi	r17, 0x00	; 0
		{
			dxl_set_txpacket_parameter(2+3*i, i);
    1706:	ce 01       	movw	r24, r28
    1708:	b8 01       	movw	r22, r16
    170a:	0e 94 dd 34 	call	0x69ba	; 0x69ba <dxl_set_txpacket_parameter>
			GoalTorque = (int)(SetTorque(i,servoTorque[i]));
    170e:	f6 01       	movw	r30, r12
    1710:	41 91       	ld	r20, Z+
    1712:	51 91       	ld	r21, Z+
    1714:	61 91       	ld	r22, Z+
    1716:	71 91       	ld	r23, Z+
    1718:	6f 01       	movw	r12, r30
    171a:	c8 01       	movw	r24, r16
    171c:	0e 94 1d 05 	call	0xa3a	; 0xa3a <SetTorque>
    1720:	7c 01       	movw	r14, r24
			//printf( "%i  ", GoalTorque );
			dxl_set_txpacket_parameter(2+3*i+1, dxl_get_lowbyte(GoalTorque));
    1722:	0f 5f       	subi	r16, 0xFF	; 255
    1724:	1f 4f       	sbci	r17, 0xFF	; 255
    1726:	0e 94 ff 34 	call	0x69fe	; 0x69fe <dxl_get_lowbyte>
    172a:	bc 01       	movw	r22, r24
    172c:	ce 01       	movw	r24, r28
    172e:	01 96       	adiw	r24, 0x01	; 1
    1730:	0e 94 dd 34 	call	0x69ba	; 0x69ba <dxl_set_txpacket_parameter>
			dxl_set_txpacket_parameter(2+3*i+2, dxl_get_highbyte(GoalTorque));
    1734:	c7 01       	movw	r24, r14
    1736:	0e 94 03 35 	call	0x6a06	; 0x6a06 <dxl_get_highbyte>
    173a:	bc 01       	movw	r22, r24
    173c:	ce 01       	movw	r24, r28
    173e:	02 96       	adiw	r24, 0x02	; 2
    1740:	0e 94 dd 34 	call	0x69ba	; 0x69ba <dxl_set_txpacket_parameter>
    1744:	23 96       	adiw	r28, 0x03	; 3
		// Make syncwrite packet
		dxl_set_txpacket_id(BROADCAST_ID);
		dxl_set_txpacket_instruction(INST_SYNC_WRITE);
		dxl_set_txpacket_parameter(0, SERVO_PROG_SPEED);
		dxl_set_txpacket_parameter(1, 2);
		for( i=0; i<DOF; i++ )
    1746:	07 30       	cpi	r16, 0x07	; 7
    1748:	11 05       	cpc	r17, r1
    174a:	e9 f6       	brne	.-70     	; 0x1706 <ArmTorque+0x48>
			GoalTorque = (int)(SetTorque(i,servoTorque[i]));
			//printf( "%i  ", GoalTorque );
			dxl_set_txpacket_parameter(2+3*i+1, dxl_get_lowbyte(GoalTorque));
			dxl_set_txpacket_parameter(2+3*i+2, dxl_get_highbyte(GoalTorque));
		}
		dxl_set_txpacket_length((2+1)*DOF+4);
    174c:	89 e1       	ldi	r24, 0x19	; 25
    174e:	90 e0       	ldi	r25, 0x00	; 0
    1750:	0e 94 e2 34 	call	0x69c4	; 0x69c4 <dxl_set_txpacket_length>

		//printf("\n");
		dxl_txrx_packet();
    1754:	0e 94 3c 36 	call	0x6c78	; 0x6c78 <dxl_txrx_packet>


		
		if(printStatus==1)
    1758:	80 91 e4 08 	lds	r24, 0x08E4
    175c:	90 91 e5 08 	lds	r25, 0x08E5
    1760:	81 30       	cpi	r24, 0x01	; 1
    1762:	91 05       	cpc	r25, r1
    1764:	71 f4       	brne	.+28     	; 0x1782 <ArmTorque+0xc4>
		{
			CommStatus = dxl_get_result();
    1766:	0e 94 d2 34 	call	0x69a4	; 0x69a4 <dxl_get_result>
    176a:	90 93 b0 0f 	sts	0x0FB0, r25
    176e:	80 93 af 0f 	sts	0x0FAF, r24
			if( CommStatus == COMM_RXSUCCESS )
    1772:	81 30       	cpi	r24, 0x01	; 1
    1774:	91 05       	cpc	r25, r1
    1776:	19 f4       	brne	.+6      	; 0x177e <ArmTorque+0xc0>
			{
				PrintErrorCode();
    1778:	0e 94 a8 0a 	call	0x1550	; 0x1550 <PrintErrorCode>
    177c:	02 c0       	rjmp	.+4      	; 0x1782 <ArmTorque+0xc4>
			}
		
			else
			{
				PrintCommStatus(CommStatus);
    177e:	0e 94 66 0a 	call	0x14cc	; 0x14cc <PrintCommStatus>
			
			//PORTC ^= 0b0010000;
			}
		}
}
    1782:	df 91       	pop	r29
    1784:	cf 91       	pop	r28
    1786:	1f 91       	pop	r17
    1788:	0f 91       	pop	r16
    178a:	ff 90       	pop	r15
    178c:	ef 90       	pop	r14
    178e:	df 90       	pop	r13
    1790:	cf 90       	pop	r12
    1792:	08 95       	ret

00001794 <ArmPosition>:
	//printf("Id %d, Position: %f, PosBits = %d \n\f",id,position,bits);
	return bits;
}

void ArmPosition(float* servoPos)
{
    1794:	cf 92       	push	r12
    1796:	df 92       	push	r13
    1798:	ef 92       	push	r14
    179a:	ff 92       	push	r15
    179c:	0f 93       	push	r16
    179e:	1f 93       	push	r17
    17a0:	cf 93       	push	r28
    17a2:	df 93       	push	r29
    17a4:	e8 2e       	mov	r14, r24
    17a6:	09 2f       	mov	r16, r25
		int i;
		int GoalPos;
		// Make syncwrite packet
		dxl_set_txpacket_id(BROADCAST_ID);
    17a8:	8e ef       	ldi	r24, 0xFE	; 254
    17aa:	90 e0       	ldi	r25, 0x00	; 0
    17ac:	0e 94 d7 34 	call	0x69ae	; 0x69ae <dxl_set_txpacket_id>
		dxl_set_txpacket_instruction(INST_SYNC_WRITE);
    17b0:	83 e8       	ldi	r24, 0x83	; 131
    17b2:	90 e0       	ldi	r25, 0x00	; 0
    17b4:	0e 94 da 34 	call	0x69b4	; 0x69b4 <dxl_set_txpacket_instruction>
		dxl_set_txpacket_parameter(0, SERVO_GOAL_POSITION_L);
    17b8:	80 e0       	ldi	r24, 0x00	; 0
    17ba:	90 e0       	ldi	r25, 0x00	; 0
    17bc:	6e e1       	ldi	r22, 0x1E	; 30
    17be:	70 e0       	ldi	r23, 0x00	; 0
    17c0:	0e 94 dd 34 	call	0x69ba	; 0x69ba <dxl_set_txpacket_parameter>
		dxl_set_txpacket_parameter(1, 2);
    17c4:	81 e0       	ldi	r24, 0x01	; 1
    17c6:	90 e0       	ldi	r25, 0x00	; 0
    17c8:	62 e0       	ldi	r22, 0x02	; 2
    17ca:	70 e0       	ldi	r23, 0x00	; 0
    17cc:	0e 94 dd 34 	call	0x69ba	; 0x69ba <dxl_set_txpacket_parameter>
    17d0:	ce 2c       	mov	r12, r14
    17d2:	d0 2e       	mov	r13, r16
    17d4:	c2 e0       	ldi	r28, 0x02	; 2
    17d6:	d0 e0       	ldi	r29, 0x00	; 0
		for( i=0; i<DOF; i++ )
    17d8:	00 e0       	ldi	r16, 0x00	; 0
    17da:	10 e0       	ldi	r17, 0x00	; 0
		{
			dxl_set_txpacket_parameter(2+3*i, i);
    17dc:	ce 01       	movw	r24, r28
    17de:	b8 01       	movw	r22, r16
    17e0:	0e 94 dd 34 	call	0x69ba	; 0x69ba <dxl_set_txpacket_parameter>
			GoalPos = (int)(SetPosition(i,servoPos[i]));
    17e4:	f6 01       	movw	r30, r12
    17e6:	41 91       	ld	r20, Z+
    17e8:	51 91       	ld	r21, Z+
    17ea:	61 91       	ld	r22, Z+
    17ec:	71 91       	ld	r23, Z+
    17ee:	6f 01       	movw	r12, r30
    17f0:	c8 01       	movw	r24, r16
    17f2:	0e 94 e2 01 	call	0x3c4	; 0x3c4 <SetPosition>
    17f6:	7c 01       	movw	r14, r24
			//printf( "%i  ", GoalPos );
			dxl_set_txpacket_parameter(2+3*i+1, dxl_get_lowbyte(GoalPos));
    17f8:	0f 5f       	subi	r16, 0xFF	; 255
    17fa:	1f 4f       	sbci	r17, 0xFF	; 255
    17fc:	0e 94 ff 34 	call	0x69fe	; 0x69fe <dxl_get_lowbyte>
    1800:	bc 01       	movw	r22, r24
    1802:	ce 01       	movw	r24, r28
    1804:	01 96       	adiw	r24, 0x01	; 1
    1806:	0e 94 dd 34 	call	0x69ba	; 0x69ba <dxl_set_txpacket_parameter>
			dxl_set_txpacket_parameter(2+3*i+2, dxl_get_highbyte(GoalPos));
    180a:	c7 01       	movw	r24, r14
    180c:	0e 94 03 35 	call	0x6a06	; 0x6a06 <dxl_get_highbyte>
    1810:	bc 01       	movw	r22, r24
    1812:	ce 01       	movw	r24, r28
    1814:	02 96       	adiw	r24, 0x02	; 2
    1816:	0e 94 dd 34 	call	0x69ba	; 0x69ba <dxl_set_txpacket_parameter>
    181a:	23 96       	adiw	r28, 0x03	; 3
		// Make syncwrite packet
		dxl_set_txpacket_id(BROADCAST_ID);
		dxl_set_txpacket_instruction(INST_SYNC_WRITE);
		dxl_set_txpacket_parameter(0, SERVO_GOAL_POSITION_L);
		dxl_set_txpacket_parameter(1, 2);
		for( i=0; i<DOF; i++ )
    181c:	07 30       	cpi	r16, 0x07	; 7
    181e:	11 05       	cpc	r17, r1
    1820:	e9 f6       	brne	.-70     	; 0x17dc <ArmPosition+0x48>
			GoalPos = (int)(SetPosition(i,servoPos[i]));
			//printf( "%i  ", GoalPos );
			dxl_set_txpacket_parameter(2+3*i+1, dxl_get_lowbyte(GoalPos));
			dxl_set_txpacket_parameter(2+3*i+2, dxl_get_highbyte(GoalPos));
		}
		dxl_set_txpacket_length((2+1)*DOF+4);
    1822:	89 e1       	ldi	r24, 0x19	; 25
    1824:	90 e0       	ldi	r25, 0x00	; 0
    1826:	0e 94 e2 34 	call	0x69c4	; 0x69c4 <dxl_set_txpacket_length>

		//printf("\n");
		dxl_txrx_packet();
    182a:	0e 94 3c 36 	call	0x6c78	; 0x6c78 <dxl_txrx_packet>


		CommStatus = dxl_get_result();
    182e:	0e 94 d2 34 	call	0x69a4	; 0x69a4 <dxl_get_result>
    1832:	90 93 b0 0f 	sts	0x0FB0, r25
    1836:	80 93 af 0f 	sts	0x0FAF, r24
		if( CommStatus == COMM_RXSUCCESS )
    183a:	81 30       	cpi	r24, 0x01	; 1
    183c:	91 05       	cpc	r25, r1
    183e:	19 f4       	brne	.+6      	; 0x1846 <ArmPosition+0xb2>
			PrintErrorCode();
    1840:	0e 94 a8 0a 	call	0x1550	; 0x1550 <PrintErrorCode>
    1844:	02 c0       	rjmp	.+4      	; 0x184a <ArmPosition+0xb6>
		else
			PrintCommStatus(CommStatus);
    1846:	0e 94 66 0a 	call	0x14cc	; 0x14cc <PrintCommStatus>



}
    184a:	df 91       	pop	r29
    184c:	cf 91       	pop	r28
    184e:	1f 91       	pop	r17
    1850:	0f 91       	pop	r16
    1852:	ff 90       	pop	r15
    1854:	ef 90       	pop	r14
    1856:	df 90       	pop	r13
    1858:	cf 90       	pop	r12
    185a:	08 95       	ret

0000185c <SetConstants>:


//////// ARM METHODS

void SetConstants()
{
    185c:	8f 92       	push	r8
    185e:	9f 92       	push	r9
    1860:	af 92       	push	r10
    1862:	bf 92       	push	r11
    1864:	cf 92       	push	r12
    1866:	df 92       	push	r13
    1868:	ef 92       	push	r14
    186a:	ff 92       	push	r15
    186c:	0f 93       	push	r16
    186e:	1f 93       	push	r17
    1870:	cf 93       	push	r28
    1872:	df 93       	push	r29
    1874:	64 e6       	ldi	r22, 0x64	; 100
    1876:	72 e1       	ldi	r23, 0x12	; 18
    1878:	49 ee       	ldi	r20, 0xE9	; 233
    187a:	51 e1       	ldi	r21, 0x11	; 17
    187c:	b7 e8       	ldi	r27, 0x87	; 135
    187e:	8b 2e       	mov	r8, r27
    1880:	bb e0       	ldi	r27, 0x0B	; 11
    1882:	9b 2e       	mov	r9, r27
    1884:	08 eb       	ldi	r16, 0xB8	; 184
    1886:	12 e1       	ldi	r17, 0x12	; 18
    1888:	a3 e6       	ldi	r26, 0x63	; 99
    188a:	ea 2e       	mov	r14, r26
    188c:	ac e0       	ldi	r26, 0x0C	; 12
    188e:	fa 2e       	mov	r15, r26
    1890:	ff e7       	ldi	r31, 0x7F	; 127
    1892:	cf 2e       	mov	r12, r31
    1894:	fc e0       	ldi	r31, 0x0C	; 12
    1896:	df 2e       	mov	r13, r31
    1898:	e0 e8       	ldi	r30, 0x80	; 128
    189a:	ae 2e       	mov	r10, r30
    189c:	e2 e1       	ldi	r30, 0x12	; 18
    189e:	be 2e       	mov	r11, r30
    18a0:	e3 ea       	ldi	r30, 0xA3	; 163
    18a2:	fb e0       	ldi	r31, 0x0B	; 11
    18a4:	27 e0       	ldi	r18, 0x07	; 7
    18a6:	30 e0       	ldi	r19, 0x00	; 0


	for(int i = 0;i<DOF;i++)
	{

	desiredQPosition[i] = 0;
    18a8:	80 e0       	ldi	r24, 0x00	; 0
    18aa:	90 e0       	ldi	r25, 0x00	; 0
    18ac:	dc 01       	movw	r26, r24
    18ae:	eb 01       	movw	r28, r22
    18b0:	89 93       	st	Y+, r24
    18b2:	99 93       	st	Y+, r25
    18b4:	a9 93       	st	Y+, r26
    18b6:	b9 93       	st	Y+, r27
    18b8:	be 01       	movw	r22, r28
	currentQPosition[i] = 0;
    18ba:	ea 01       	movw	r28, r20
    18bc:	89 93       	st	Y+, r24
    18be:	99 93       	st	Y+, r25
    18c0:	a9 93       	st	Y+, r26
    18c2:	b9 93       	st	Y+, r27
    18c4:	ae 01       	movw	r20, r28
	initialQPosition[i] = 0;
    18c6:	e4 01       	movw	r28, r8
    18c8:	89 93       	st	Y+, r24
    18ca:	99 93       	st	Y+, r25
    18cc:	a9 93       	st	Y+, r26
    18ce:	b9 93       	st	Y+, r27
    18d0:	4e 01       	movw	r8, r28
	desiredXPosition[i] = 0;
    18d2:	e8 01       	movw	r28, r16
    18d4:	89 93       	st	Y+, r24
    18d6:	99 93       	st	Y+, r25
    18d8:	a9 93       	st	Y+, r26
    18da:	b9 93       	st	Y+, r27
    18dc:	8e 01       	movw	r16, r28
	currentXPosition[i] = 0;
    18de:	e7 01       	movw	r28, r14
    18e0:	89 93       	st	Y+, r24
    18e2:	99 93       	st	Y+, r25
    18e4:	a9 93       	st	Y+, r26
    18e6:	b9 93       	st	Y+, r27
    18e8:	7e 01       	movw	r14, r28
	lastPosition[i] = 0;
    18ea:	e6 01       	movw	r28, r12
    18ec:	89 93       	st	Y+, r24
    18ee:	99 93       	st	Y+, r25
    18f0:	a9 93       	st	Y+, r26
    18f2:	b9 93       	st	Y+, r27
    18f4:	6e 01       	movw	r12, r28
	differentialPosition[i] = 0;
    18f6:	e5 01       	movw	r28, r10
    18f8:	89 93       	st	Y+, r24
    18fa:	99 93       	st	Y+, r25
    18fc:	a9 93       	st	Y+, r26
    18fe:	b9 93       	st	Y+, r27
    1900:	5e 01       	movw	r10, r28
		for(int j = 0;j<4;j++)
		{
			PERcoef[i].value[j] = 0;
    1902:	80 83       	st	Z, r24
    1904:	91 83       	std	Z+1, r25	; 0x01
    1906:	a2 83       	std	Z+2, r26	; 0x02
    1908:	b3 83       	std	Z+3, r27	; 0x03
    190a:	84 83       	std	Z+4, r24	; 0x04
    190c:	95 83       	std	Z+5, r25	; 0x05
    190e:	a6 83       	std	Z+6, r26	; 0x06
    1910:	b7 83       	std	Z+7, r27	; 0x07
    1912:	80 87       	std	Z+8, r24	; 0x08
    1914:	91 87       	std	Z+9, r25	; 0x09
    1916:	a2 87       	std	Z+10, r26	; 0x0a
    1918:	b3 87       	std	Z+11, r27	; 0x0b
    191a:	84 87       	std	Z+12, r24	; 0x0c
    191c:	95 87       	std	Z+13, r25	; 0x0d
    191e:	a6 87       	std	Z+14, r26	; 0x0e
    1920:	b7 87       	std	Z+15, r27	; 0x0f
    1922:	21 50       	subi	r18, 0x01	; 1
    1924:	30 40       	sbci	r19, 0x00	; 0
    1926:	70 96       	adiw	r30, 0x10	; 16

void SetConstants()
{


	for(int i = 0;i<DOF;i++)
    1928:	21 15       	cp	r18, r1
    192a:	31 05       	cpc	r19, r1
    192c:	09 f0       	breq	.+2      	; 0x1930 <SetConstants+0xd4>
    192e:	bf cf       	rjmp	.-130    	; 0x18ae <SetConstants+0x52>
			PERcoef[i].value[j] = 0;
			//LSPBcoef[i].value[j] = 0;
		}	
	}
	
}
    1930:	df 91       	pop	r29
    1932:	cf 91       	pop	r28
    1934:	1f 91       	pop	r17
    1936:	0f 91       	pop	r16
    1938:	ff 90       	pop	r15
    193a:	ef 90       	pop	r14
    193c:	df 90       	pop	r13
    193e:	cf 90       	pop	r12
    1940:	bf 90       	pop	r11
    1942:	af 90       	pop	r10
    1944:	9f 90       	pop	r9
    1946:	8f 90       	pop	r8
    1948:	08 95       	ret

0000194a <updateQPosition>:
	
}


void updateQPosition()
{
    194a:	0f 93       	push	r16
    194c:	1f 93       	push	r17
    194e:	cf 93       	push	r28
    1950:	df 93       	push	r29
	for(int i = 0; i<DOF;i++)
    1952:	09 ee       	ldi	r16, 0xE9	; 233
    1954:	11 e1       	ldi	r17, 0x11	; 17
    1956:	c0 e0       	ldi	r28, 0x00	; 0
    1958:	d0 e0       	ldi	r29, 0x00	; 0
	{
		currentQPosition[i] = GetPosition(i);
    195a:	ce 01       	movw	r24, r28
    195c:	0e 94 c2 02 	call	0x584	; 0x584 <GetPosition>
    1960:	f8 01       	movw	r30, r16
    1962:	61 93       	st	Z+, r22
    1964:	71 93       	st	Z+, r23
    1966:	81 93       	st	Z+, r24
    1968:	91 93       	st	Z+, r25
    196a:	8f 01       	movw	r16, r30
}


void updateQPosition()
{
	for(int i = 0; i<DOF;i++)
    196c:	21 96       	adiw	r28, 0x01	; 1
    196e:	c7 30       	cpi	r28, 0x07	; 7
    1970:	d1 05       	cpc	r29, r1
    1972:	99 f7       	brne	.-26     	; 0x195a <updateQPosition+0x10>
	{
		currentQPosition[i] = GetPosition(i);
	}
}
    1974:	df 91       	pop	r29
    1976:	cf 91       	pop	r28
    1978:	1f 91       	pop	r17
    197a:	0f 91       	pop	r16
    197c:	08 95       	ret

0000197e <OpenHand>:

		
}

int OpenHand(float perc1, float perc2, float perc3, float perc4)
{
    197e:	6f 92       	push	r6
    1980:	7f 92       	push	r7
    1982:	8f 92       	push	r8
    1984:	9f 92       	push	r9
    1986:	af 92       	push	r10
    1988:	bf 92       	push	r11
    198a:	cf 92       	push	r12
    198c:	df 92       	push	r13
    198e:	ef 92       	push	r14
    1990:	ff 92       	push	r15
    1992:	0f 93       	push	r16
    1994:	1f 93       	push	r17
    1996:	3b 01       	movw	r6, r22
    1998:	4c 01       	movw	r8, r24
    199a:	ba 01       	movw	r22, r20
    199c:	a9 01       	movw	r20, r18
	//Base del pulgar
	MovePerc(1,perc2);
    199e:	81 e0       	ldi	r24, 0x01	; 1
    19a0:	90 e0       	ldi	r25, 0x00	; 0
    19a2:	0e 94 6a 04 	call	0x8d4	; 0x8d4 <MovePerc>
    19a6:	8f ef       	ldi	r24, 0xFF	; 255
    19a8:	91 ee       	ldi	r25, 0xE1	; 225
    19aa:	a4 e0       	ldi	r26, 0x04	; 4
    19ac:	81 50       	subi	r24, 0x01	; 1
    19ae:	90 40       	sbci	r25, 0x00	; 0
    19b0:	a0 40       	sbci	r26, 0x00	; 0
    19b2:	e1 f7       	brne	.-8      	; 0x19ac <OpenHand+0x2e>
    19b4:	00 c0       	rjmp	.+0      	; 0x19b6 <OpenHand+0x38>
    19b6:	00 00       	nop
	_delay_ms(100);
	
	//Pulgar
	MovePerc(0,perc1);
    19b8:	80 e0       	ldi	r24, 0x00	; 0
    19ba:	90 e0       	ldi	r25, 0x00	; 0
    19bc:	b4 01       	movw	r22, r8
    19be:	a3 01       	movw	r20, r6
    19c0:	0e 94 6a 04 	call	0x8d4	; 0x8d4 <MovePerc>
	//Indice
	MovePerc(2,perc3);
    19c4:	82 e0       	ldi	r24, 0x02	; 2
    19c6:	90 e0       	ldi	r25, 0x00	; 0
    19c8:	b8 01       	movw	r22, r16
    19ca:	a7 01       	movw	r20, r14
    19cc:	0e 94 6a 04 	call	0x8d4	; 0x8d4 <MovePerc>
	//Los otros
	MovePerc(3,perc4);
    19d0:	83 e0       	ldi	r24, 0x03	; 3
    19d2:	90 e0       	ldi	r25, 0x00	; 0
    19d4:	b6 01       	movw	r22, r12
    19d6:	a5 01       	movw	r20, r10
    19d8:	0e 94 6a 04 	call	0x8d4	; 0x8d4 <MovePerc>

	return 1;

}
    19dc:	81 e0       	ldi	r24, 0x01	; 1
    19de:	90 e0       	ldi	r25, 0x00	; 0
    19e0:	1f 91       	pop	r17
    19e2:	0f 91       	pop	r16
    19e4:	ff 90       	pop	r15
    19e6:	ef 90       	pop	r14
    19e8:	df 90       	pop	r13
    19ea:	cf 90       	pop	r12
    19ec:	bf 90       	pop	r11
    19ee:	af 90       	pop	r10
    19f0:	9f 90       	pop	r9
    19f2:	8f 90       	pop	r8
    19f4:	7f 90       	pop	r7
    19f6:	6f 90       	pop	r6
    19f8:	08 95       	ret

000019fa <OpenGripper>:

void OpenGripper(float perc)
{
    19fa:	ef 92       	push	r14
    19fc:	ff 92       	push	r15
    19fe:	0f 93       	push	r16
    1a00:	1f 93       	push	r17
    1a02:	7b 01       	movw	r14, r22
    1a04:	8c 01       	movw	r16, r24
	float openedPosition = 1.1;
	
	SetTorqueControl(7,0);
    1a06:	87 e0       	ldi	r24, 0x07	; 7
    1a08:	90 e0       	ldi	r25, 0x00	; 0
    1a0a:	60 e0       	ldi	r22, 0x00	; 0
    1a0c:	70 e0       	ldi	r23, 0x00	; 0
    1a0e:	0e 94 b9 04 	call	0x972	; 0x972 <SetTorqueControl>
	SetSpeedPerc(7,20);
    1a12:	87 e0       	ldi	r24, 0x07	; 7
    1a14:	90 e0       	ldi	r25, 0x00	; 0
    1a16:	40 e0       	ldi	r20, 0x00	; 0
    1a18:	50 e0       	ldi	r21, 0x00	; 0
    1a1a:	60 ea       	ldi	r22, 0xA0	; 160
    1a1c:	71 e4       	ldi	r23, 0x41	; 65
    1a1e:	0e 94 ef 03 	call	0x7de	; 0x7de <SetSpeedPerc>
	int bits1 = SetPosition(7,(openedPosition * perc / 100.0) );
    1a22:	c8 01       	movw	r24, r16
    1a24:	b7 01       	movw	r22, r14
    1a26:	2d ec       	ldi	r18, 0xCD	; 205
    1a28:	3c ec       	ldi	r19, 0xCC	; 204
    1a2a:	4c e8       	ldi	r20, 0x8C	; 140
    1a2c:	5f e3       	ldi	r21, 0x3F	; 63
    1a2e:	0e 94 5f 3f 	call	0x7ebe	; 0x7ebe <__mulsf3>
    1a32:	20 e0       	ldi	r18, 0x00	; 0
    1a34:	30 e0       	ldi	r19, 0x00	; 0
    1a36:	48 ec       	ldi	r20, 0xC8	; 200
    1a38:	52 e4       	ldi	r21, 0x42	; 66
    1a3a:	0e 94 7f 3d 	call	0x7afe	; 0x7afe <__divsf3>
    1a3e:	f6 2e       	mov	r15, r22
    1a40:	07 2f       	mov	r16, r23
    1a42:	18 2f       	mov	r17, r24
    1a44:	e9 2e       	mov	r14, r25
    1a46:	87 e0       	ldi	r24, 0x07	; 7
    1a48:	90 e0       	ldi	r25, 0x00	; 0
    1a4a:	4f 2d       	mov	r20, r15
    1a4c:	50 2f       	mov	r21, r16
    1a4e:	61 2f       	mov	r22, r17
    1a50:	7e 2d       	mov	r23, r14
    1a52:	0e 94 e2 01 	call	0x3c4	; 0x3c4 <SetPosition>
    1a56:	ac 01       	movw	r20, r24
	dxl_write_word( 7, SERVO_GOAL_POSITION_L,  bits1);
    1a58:	87 e0       	ldi	r24, 0x07	; 7
    1a5a:	90 e0       	ldi	r25, 0x00	; 0
    1a5c:	6e e1       	ldi	r22, 0x1E	; 30
    1a5e:	70 e0       	ldi	r23, 0x00	; 0
    1a60:	0e 94 4d 36 	call	0x6c9a	; 0x6c9a <dxl_write_word>
    1a64:	8f e3       	ldi	r24, 0x3F	; 63
    1a66:	9c e9       	ldi	r25, 0x9C	; 156
    1a68:	01 97       	sbiw	r24, 0x01	; 1
    1a6a:	f1 f7       	brne	.-4      	; 0x1a68 <OpenGripper+0x6e>
    1a6c:	00 c0       	rjmp	.+0      	; 0x1a6e <OpenGripper+0x74>
    1a6e:	00 00       	nop
	
	_delay_ms(10);

	SetTorqueControl(8,0);
    1a70:	88 e0       	ldi	r24, 0x08	; 8
    1a72:	90 e0       	ldi	r25, 0x00	; 0
    1a74:	60 e0       	ldi	r22, 0x00	; 0
    1a76:	70 e0       	ldi	r23, 0x00	; 0
    1a78:	0e 94 b9 04 	call	0x972	; 0x972 <SetTorqueControl>
	SetSpeedPerc(17,20);
    1a7c:	81 e1       	ldi	r24, 0x11	; 17
    1a7e:	90 e0       	ldi	r25, 0x00	; 0
    1a80:	40 e0       	ldi	r20, 0x00	; 0
    1a82:	50 e0       	ldi	r21, 0x00	; 0
    1a84:	60 ea       	ldi	r22, 0xA0	; 160
    1a86:	71 e4       	ldi	r23, 0x41	; 65
    1a88:	0e 94 ef 03 	call	0x7de	; 0x7de <SetSpeedPerc>
	int bits2 = SetPosition(8,(openedPosition * perc / 100.0) );
    1a8c:	88 e0       	ldi	r24, 0x08	; 8
    1a8e:	90 e0       	ldi	r25, 0x00	; 0
    1a90:	4f 2d       	mov	r20, r15
    1a92:	50 2f       	mov	r21, r16
    1a94:	61 2f       	mov	r22, r17
    1a96:	7e 2d       	mov	r23, r14
    1a98:	0e 94 e2 01 	call	0x3c4	; 0x3c4 <SetPosition>
    1a9c:	ac 01       	movw	r20, r24
	dxl_write_word( 17, SERVO_GOAL_POSITION_L, bits2);
    1a9e:	81 e1       	ldi	r24, 0x11	; 17
    1aa0:	90 e0       	ldi	r25, 0x00	; 0
    1aa2:	6e e1       	ldi	r22, 0x1E	; 30
    1aa4:	70 e0       	ldi	r23, 0x00	; 0
    1aa6:	0e 94 4d 36 	call	0x6c9a	; 0x6c9a <dxl_write_word>

}
    1aaa:	1f 91       	pop	r17
    1aac:	0f 91       	pop	r16
    1aae:	ff 90       	pop	r15
    1ab0:	ef 90       	pop	r14
    1ab2:	08 95       	ret

00001ab4 <CloseGripper>:

void CloseGripper(float perc)
{
    1ab4:	ef 92       	push	r14
    1ab6:	ff 92       	push	r15
    1ab8:	0f 93       	push	r16
    1aba:	1f 93       	push	r17
    1abc:	7b 01       	movw	r14, r22
    1abe:	8c 01       	movw	r16, r24
	SetTorqueControl(7,1);
    1ac0:	87 e0       	ldi	r24, 0x07	; 7
    1ac2:	90 e0       	ldi	r25, 0x00	; 0
    1ac4:	61 e0       	ldi	r22, 0x01	; 1
    1ac6:	70 e0       	ldi	r23, 0x00	; 0
    1ac8:	0e 94 b9 04 	call	0x972	; 0x972 <SetTorqueControl>
	int bits1 = SetTorque( 7,  perc);
    1acc:	87 e0       	ldi	r24, 0x07	; 7
    1ace:	90 e0       	ldi	r25, 0x00	; 0
    1ad0:	b8 01       	movw	r22, r16
    1ad2:	a7 01       	movw	r20, r14
    1ad4:	0e 94 1d 05 	call	0xa3a	; 0xa3a <SetTorque>
    1ad8:	ac 01       	movw	r20, r24
	dxl_write_word( 7, SERVO_PROG_SPEED ,  bits1 );
    1ada:	87 e0       	ldi	r24, 0x07	; 7
    1adc:	90 e0       	ldi	r25, 0x00	; 0
    1ade:	60 e2       	ldi	r22, 0x20	; 32
    1ae0:	70 e0       	ldi	r23, 0x00	; 0
    1ae2:	0e 94 4d 36 	call	0x6c9a	; 0x6c9a <dxl_write_word>
    1ae6:	8f e3       	ldi	r24, 0x3F	; 63
    1ae8:	9c e9       	ldi	r25, 0x9C	; 156
    1aea:	01 97       	sbiw	r24, 0x01	; 1
    1aec:	f1 f7       	brne	.-4      	; 0x1aea <CloseGripper+0x36>
    1aee:	00 c0       	rjmp	.+0      	; 0x1af0 <CloseGripper+0x3c>
    1af0:	00 00       	nop
	
	_delay_ms(10);

	SetTorqueControl(8,1);
    1af2:	88 e0       	ldi	r24, 0x08	; 8
    1af4:	90 e0       	ldi	r25, 0x00	; 0
    1af6:	61 e0       	ldi	r22, 0x01	; 1
    1af8:	70 e0       	ldi	r23, 0x00	; 0
    1afa:	0e 94 b9 04 	call	0x972	; 0x972 <SetTorqueControl>
	int bits2 = SetTorque( 8,  perc);
    1afe:	88 e0       	ldi	r24, 0x08	; 8
    1b00:	90 e0       	ldi	r25, 0x00	; 0
    1b02:	b8 01       	movw	r22, r16
    1b04:	a7 01       	movw	r20, r14
    1b06:	0e 94 1d 05 	call	0xa3a	; 0xa3a <SetTorque>
    1b0a:	ac 01       	movw	r20, r24
	dxl_write_word( 17, SERVO_PROG_SPEED , bits2 );
    1b0c:	81 e1       	ldi	r24, 0x11	; 17
    1b0e:	90 e0       	ldi	r25, 0x00	; 0
    1b10:	60 e2       	ldi	r22, 0x20	; 32
    1b12:	70 e0       	ldi	r23, 0x00	; 0
    1b14:	0e 94 4d 36 	call	0x6c9a	; 0x6c9a <dxl_write_word>

	//printf("bits7: %d ",bits1);	
	//printf("bits17: %d",bits2);	
	
	desiredForce = perc;
    1b18:	e0 92 f6 08 	sts	0x08F6, r14
    1b1c:	f0 92 f7 08 	sts	0x08F7, r15
    1b20:	00 93 f8 08 	sts	0x08F8, r16
    1b24:	10 93 f9 08 	sts	0x08F9, r17
	doGripper = 1;
    1b28:	81 e0       	ldi	r24, 0x01	; 1
    1b2a:	90 e0       	ldi	r25, 0x00	; 0
    1b2c:	90 93 f5 08 	sts	0x08F5, r25
    1b30:	80 93 f4 08 	sts	0x08F4, r24


}
    1b34:	1f 91       	pop	r17
    1b36:	0f 91       	pop	r16
    1b38:	ff 90       	pop	r15
    1b3a:	ef 90       	pop	r14
    1b3c:	08 95       	ret

00001b3e <Absolute>:

float Absolute(float numero)
{
    1b3e:	ef 92       	push	r14
    1b40:	ff 92       	push	r15
    1b42:	0f 93       	push	r16
    1b44:	1f 93       	push	r17
    1b46:	7b 01       	movw	r14, r22
    1b48:	8c 01       	movw	r16, r24
	if(numero <0) return -numero;
    1b4a:	20 e0       	ldi	r18, 0x00	; 0
    1b4c:	30 e0       	ldi	r19, 0x00	; 0
    1b4e:	a9 01       	movw	r20, r18
    1b50:	0e 94 78 3d 	call	0x7af0	; 0x7af0 <__cmpsf2>
    1b54:	87 ff       	sbrs	r24, 7
    1b56:	04 c0       	rjmp	.+8      	; 0x1b60 <Absolute+0x22>
    1b58:	17 fb       	bst	r17, 7
    1b5a:	10 95       	com	r17
    1b5c:	17 f9       	bld	r17, 7
    1b5e:	10 95       	com	r17
	else return numero;
}
    1b60:	6e 2d       	mov	r22, r14
    1b62:	7f 2d       	mov	r23, r15
    1b64:	80 2f       	mov	r24, r16
    1b66:	91 2f       	mov	r25, r17
    1b68:	1f 91       	pop	r17
    1b6a:	0f 91       	pop	r16
    1b6c:	ff 90       	pop	r15
    1b6e:	ef 90       	pop	r14
    1b70:	08 95       	ret

00001b72 <ObjectInHand>:

int ObjectInHand()
{
    1b72:	af 92       	push	r10
    1b74:	bf 92       	push	r11
    1b76:	cf 92       	push	r12
    1b78:	df 92       	push	r13
    1b7a:	ef 92       	push	r14
    1b7c:	ff 92       	push	r15
    1b7e:	0f 93       	push	r16
    1b80:	1f 93       	push	r17
	//If position is less than 10% of opened position there's no object holding
	float openedPosition = 1.5;	

	float posG1,posG2;
	posG1 = Absolute(GetPosition(7))-0.1;
    1b82:	87 e0       	ldi	r24, 0x07	; 7
    1b84:	90 e0       	ldi	r25, 0x00	; 0
    1b86:	0e 94 c2 02 	call	0x584	; 0x584 <GetPosition>
    1b8a:	0e 94 9f 0d 	call	0x1b3e	; 0x1b3e <Absolute>
    1b8e:	7b 01       	movw	r14, r22
    1b90:	8c 01       	movw	r16, r24
    1b92:	8f e3       	ldi	r24, 0x3F	; 63
    1b94:	9c e9       	ldi	r25, 0x9C	; 156
    1b96:	01 97       	sbiw	r24, 0x01	; 1
    1b98:	f1 f7       	brne	.-4      	; 0x1b96 <ObjectInHand+0x24>
    1b9a:	00 c0       	rjmp	.+0      	; 0x1b9c <ObjectInHand+0x2a>
    1b9c:	00 00       	nop
	_delay_ms(10);
	posG2 = Absolute(GetPosition(8));
    1b9e:	88 e0       	ldi	r24, 0x08	; 8
    1ba0:	90 e0       	ldi	r25, 0x00	; 0
    1ba2:	0e 94 c2 02 	call	0x584	; 0x584 <GetPosition>
    1ba6:	0e 94 9f 0d 	call	0x1b3e	; 0x1b3e <Absolute>
    1baa:	5b 01       	movw	r10, r22
    1bac:	6c 01       	movw	r12, r24
{
	//If position is less than 10% of opened position there's no object holding
	float openedPosition = 1.5;	

	float posG1,posG2;
	posG1 = Absolute(GetPosition(7))-0.1;
    1bae:	c8 01       	movw	r24, r16
    1bb0:	b7 01       	movw	r22, r14
    1bb2:	2d ec       	ldi	r18, 0xCD	; 205
    1bb4:	3c ec       	ldi	r19, 0xCC	; 204
    1bb6:	4c ec       	ldi	r20, 0xCC	; 204
    1bb8:	5d e3       	ldi	r21, 0x3D	; 61
    1bba:	0e 94 9a 3c 	call	0x7934	; 0x7934 <__subsf3>
	posG2 = Absolute(GetPosition(8));
	
	//Debug line
	//printf("%3.3f : %3.3f ; %3.3f  \r",posG1,posG2,openedPosition*0.2);
	
	if((posG1<(openedPosition*0.1))&&(posG2<(openedPosition*0.1)))
    1bbe:	2a e9       	ldi	r18, 0x9A	; 154
    1bc0:	39 e9       	ldi	r19, 0x99	; 153
    1bc2:	49 e1       	ldi	r20, 0x19	; 25
    1bc4:	5e e3       	ldi	r21, 0x3E	; 62
    1bc6:	0e 94 78 3d 	call	0x7af0	; 0x7af0 <__cmpsf2>
    1bca:	87 ff       	sbrs	r24, 7
    1bcc:	10 c0       	rjmp	.+32     	; 0x1bee <ObjectInHand+0x7c>
    1bce:	c6 01       	movw	r24, r12
    1bd0:	b5 01       	movw	r22, r10
    1bd2:	2a e9       	ldi	r18, 0x9A	; 154
    1bd4:	39 e9       	ldi	r19, 0x99	; 153
    1bd6:	49 e1       	ldi	r20, 0x19	; 25
    1bd8:	5e e3       	ldi	r21, 0x3E	; 62
    1bda:	0e 94 78 3d 	call	0x7af0	; 0x7af0 <__cmpsf2>
    1bde:	88 1f       	adc	r24, r24
    1be0:	88 27       	eor	r24, r24
    1be2:	88 1f       	adc	r24, r24
{
	if(numero <0) return -numero;
	else return numero;
}

int ObjectInHand()
    1be4:	91 e0       	ldi	r25, 0x01	; 1
    1be6:	89 27       	eor	r24, r25
	//Debug line
	//printf("%3.3f : %3.3f ; %3.3f  \r",posG1,posG2,openedPosition*0.2);
	
	if((posG1<(openedPosition*0.1))&&(posG2<(openedPosition*0.1)))
	{
		return 0;
    1be8:	28 2f       	mov	r18, r24
    1bea:	30 e0       	ldi	r19, 0x00	; 0
    1bec:	02 c0       	rjmp	.+4      	; 0x1bf2 <ObjectInHand+0x80>
	}
	return 1;
    1bee:	21 e0       	ldi	r18, 0x01	; 1
    1bf0:	30 e0       	ldi	r19, 0x00	; 0

}
    1bf2:	c9 01       	movw	r24, r18
    1bf4:	1f 91       	pop	r17
    1bf6:	0f 91       	pop	r16
    1bf8:	ff 90       	pop	r15
    1bfa:	ef 90       	pop	r14
    1bfc:	df 90       	pop	r13
    1bfe:	cf 90       	pop	r12
    1c00:	bf 90       	pop	r11
    1c02:	af 90       	pop	r10
    1c04:	08 95       	ret

00001c06 <executeGripper>:
	//if(s1>= desiredForce)
	//{
		//printf("Force Limit Passed");

		//pos = GetPosition(7);
		gripperCounter++;
    1c06:	80 91 fa 08 	lds	r24, 0x08FA
    1c0a:	90 91 fb 08 	lds	r25, 0x08FB
    1c0e:	01 96       	adiw	r24, 0x01	; 1
    1c10:	90 93 fb 08 	sts	0x08FB, r25
    1c14:	80 93 fa 08 	sts	0x08FA, r24
		if(gripperCounter>= 100)
    1c18:	84 36       	cpi	r24, 0x64	; 100
    1c1a:	91 05       	cpc	r25, r1
    1c1c:	d4 f0       	brlt	.+52     	; 0x1c52 <executeGripper+0x4c>
		{
			doGripper = 0;
    1c1e:	10 92 f5 08 	sts	0x08F5, r1
    1c22:	10 92 f4 08 	sts	0x08F4, r1
			object = ObjectInHand();
    1c26:	0e 94 b9 0d 	call	0x1b72	; 0x1b72 <ObjectInHand>
    1c2a:	90 93 e7 08 	sts	0x08E7, r25
    1c2e:	80 93 e6 08 	sts	0x08E6, r24
			printf("c 1 %d\r",object);
    1c32:	00 d0       	rcall	.+0      	; 0x1c34 <executeGripper+0x2e>
    1c34:	0f 92       	push	r0
    1c36:	26 ec       	ldi	r18, 0xC6	; 198
    1c38:	32 e0       	ldi	r19, 0x02	; 2
    1c3a:	ed b7       	in	r30, 0x3d	; 61
    1c3c:	fe b7       	in	r31, 0x3e	; 62
    1c3e:	32 83       	std	Z+2, r19	; 0x02
    1c40:	21 83       	std	Z+1, r18	; 0x01
    1c42:	94 83       	std	Z+4, r25	; 0x04
    1c44:	83 83       	std	Z+3, r24	; 0x03
    1c46:	0e 94 63 44 	call	0x88c6	; 0x88c6 <printf>
    1c4a:	0f 90       	pop	r0
    1c4c:	0f 90       	pop	r0
    1c4e:	0f 90       	pop	r0
    1c50:	0f 90       	pop	r0
    1c52:	08 95       	ret

00001c54 <multVMV>:
	return 1;

}

float multVMV(vector4 a, matrix4 b, vector4 c)
{
    1c54:	2f 92       	push	r2
    1c56:	3f 92       	push	r3
    1c58:	4f 92       	push	r4
    1c5a:	5f 92       	push	r5
    1c5c:	6f 92       	push	r6
    1c5e:	7f 92       	push	r7
    1c60:	8f 92       	push	r8
    1c62:	9f 92       	push	r9
    1c64:	af 92       	push	r10
    1c66:	bf 92       	push	r11
    1c68:	cf 92       	push	r12
    1c6a:	df 92       	push	r13
    1c6c:	ef 92       	push	r14
    1c6e:	ff 92       	push	r15
    1c70:	0f 93       	push	r16
    1c72:	1f 93       	push	r17
    1c74:	df 93       	push	r29
    1c76:	cf 93       	push	r28
    1c78:	cd b7       	in	r28, 0x3d	; 61
    1c7a:	de b7       	in	r29, 0x3e	; 62
    1c7c:	a2 97       	sbiw	r28, 0x22	; 34
    1c7e:	0f b6       	in	r0, 0x3f	; 63
    1c80:	f8 94       	cli
    1c82:	de bf       	out	0x3e, r29	; 62
    1c84:	0f be       	out	0x3f, r0	; 63
    1c86:	cd bf       	out	0x3d, r28	; 61
    1c88:	a9 8a       	std	Y+17, r10	; 0x11
    1c8a:	ba 8a       	std	Y+18, r11	; 0x12
    1c8c:	cb 8a       	std	Y+19, r12	; 0x13
    1c8e:	dc 8a       	std	Y+20, r13	; 0x14
    1c90:	ed 8a       	std	Y+21, r14	; 0x15
    1c92:	fe 8a       	std	Y+22, r15	; 0x16
    1c94:	0f 8b       	std	Y+23, r16	; 0x17
    1c96:	18 8f       	std	Y+24, r17	; 0x18
    1c98:	29 8f       	std	Y+25, r18	; 0x19
    1c9a:	3a 8f       	std	Y+26, r19	; 0x1a
    1c9c:	4b 8f       	std	Y+27, r20	; 0x1b
    1c9e:	5c 8f       	std	Y+28, r21	; 0x1c
    1ca0:	6d 8f       	std	Y+29, r22	; 0x1d
    1ca2:	7e 8f       	std	Y+30, r23	; 0x1e
    1ca4:	8f 8f       	std	Y+31, r24	; 0x1f
    1ca6:	98 a3       	std	Y+32, r25	; 0x20
	}
	return 1;

}

float multVMV(vector4 a, matrix4 b, vector4 c)
    1ca8:	1e 01       	movw	r2, r28
    1caa:	08 94       	sec
    1cac:	21 1c       	adc	r2, r1
    1cae:	31 1c       	adc	r3, r1
    1cb0:	31 01       	movw	r6, r2

	//float temp[4];
	vector4 partial;
	float temp, result;

		for(int k = 0;k<4;k++)
    1cb2:	00 e0       	ldi	r16, 0x00	; 0
    1cb4:	10 e0       	ldi	r17, 0x00	; 0
    1cb6:	28 e7       	ldi	r18, 0x78	; 120
    1cb8:	42 2e       	mov	r4, r18
    1cba:	51 2c       	mov	r5, r1
    1cbc:	4c 0e       	add	r4, r28
    1cbe:	5d 1e       	adc	r5, r29
	}
	return 1;

}

float multVMV(vector4 a, matrix4 b, vector4 c)
    1cc0:	c2 01       	movw	r24, r4
    1cc2:	40 96       	adiw	r24, 0x10	; 16
    1cc4:	9a a3       	std	Y+34, r25	; 0x22
    1cc6:	89 a3       	std	Y+33, r24	; 0x21
    1cc8:	30 c0       	rjmp	.+96     	; 0x1d2a <multVMV+0xd6>
		for(int k = 0;k<4;k++)
			{	
				temp = 0;
				for(int l = 0;l<4;l++)
				{	
					temp += (b.value[k][l] * c.value[l]);
    1cca:	f7 01       	movw	r30, r14
    1ccc:	61 91       	ld	r22, Z+
    1cce:	71 91       	ld	r23, Z+
    1cd0:	81 91       	ld	r24, Z+
    1cd2:	91 91       	ld	r25, Z+
    1cd4:	7f 01       	movw	r14, r30
    1cd6:	f4 01       	movw	r30, r8
    1cd8:	21 91       	ld	r18, Z+
    1cda:	31 91       	ld	r19, Z+
    1cdc:	41 91       	ld	r20, Z+
    1cde:	51 91       	ld	r21, Z+
    1ce0:	4f 01       	movw	r8, r30
    1ce2:	0e 94 5f 3f 	call	0x7ebe	; 0x7ebe <__mulsf3>
    1ce6:	9b 01       	movw	r18, r22
    1ce8:	ac 01       	movw	r20, r24
    1cea:	d6 01       	movw	r26, r12
    1cec:	f5 01       	movw	r30, r10
    1cee:	6b 2f       	mov	r22, r27
    1cf0:	7c 2d       	mov	r23, r12
    1cf2:	8f 2f       	mov	r24, r31
    1cf4:	9a 2d       	mov	r25, r10
    1cf6:	0e 94 9b 3c 	call	0x7936	; 0x7936 <__addsf3>
    1cfa:	d6 2e       	mov	r13, r22
    1cfc:	c7 2e       	mov	r12, r23
    1cfe:	b8 2e       	mov	r11, r24
    1d00:	a9 2e       	mov	r10, r25
	float temp, result;

		for(int k = 0;k<4;k++)
			{	
				temp = 0;
				for(int l = 0;l<4;l++)
    1d02:	89 a1       	ldd	r24, Y+33	; 0x21
    1d04:	9a a1       	ldd	r25, Y+34	; 0x22
    1d06:	88 16       	cp	r8, r24
    1d08:	99 06       	cpc	r9, r25
    1d0a:	f9 f6       	brne	.-66     	; 0x1cca <multVMV+0x76>
				{	
					temp += (b.value[k][l] * c.value[l]);
				}
				partial.value[k] = temp;
    1d0c:	8d 2d       	mov	r24, r13
    1d0e:	9c 2d       	mov	r25, r12
    1d10:	ab 2d       	mov	r26, r11
    1d12:	ba 2d       	mov	r27, r10
    1d14:	f3 01       	movw	r30, r6
    1d16:	81 93       	st	Z+, r24
    1d18:	91 93       	st	Z+, r25
    1d1a:	a1 93       	st	Z+, r26
    1d1c:	b1 93       	st	Z+, r27
    1d1e:	3f 01       	movw	r6, r30

	//float temp[4];
	vector4 partial;
	float temp, result;

		for(int k = 0;k<4;k++)
    1d20:	0f 5f       	subi	r16, 0xFF	; 255
    1d22:	1f 4f       	sbci	r17, 0xFF	; 255
    1d24:	04 30       	cpi	r16, 0x04	; 4
    1d26:	11 05       	cpc	r17, r1
    1d28:	91 f0       	breq	.+36     	; 0x1d4e <multVMV+0xfa>
	}
	return 1;

}

float multVMV(vector4 a, matrix4 b, vector4 c)
    1d2a:	78 01       	movw	r14, r16
    1d2c:	94 e0       	ldi	r25, 0x04	; 4
    1d2e:	ee 0c       	add	r14, r14
    1d30:	ff 1c       	adc	r15, r15
    1d32:	9a 95       	dec	r25
    1d34:	e1 f7       	brne	.-8      	; 0x1d2e <multVMV+0xda>
    1d36:	88 e3       	ldi	r24, 0x38	; 56
    1d38:	90 e0       	ldi	r25, 0x00	; 0
    1d3a:	8c 0f       	add	r24, r28
    1d3c:	9d 1f       	adc	r25, r29
    1d3e:	e8 0e       	add	r14, r24
    1d40:	f9 1e       	adc	r15, r25

	//float temp[4];
	vector4 partial;
	float temp, result;

		for(int k = 0;k<4;k++)
    1d42:	42 01       	movw	r8, r4
	}
	return 1;

}

float multVMV(vector4 a, matrix4 b, vector4 c)
    1d44:	dd 24       	eor	r13, r13
    1d46:	cc 24       	eor	r12, r12
    1d48:	bb 24       	eor	r11, r11
    1d4a:	aa 24       	eor	r10, r10
    1d4c:	be cf       	rjmp	.-132    	; 0x1cca <multVMV+0x76>
    1d4e:	8e 01       	movw	r16, r28
    1d50:	0f 5e       	subi	r16, 0xEF	; 239
    1d52:	1f 4f       	sbci	r17, 0xFF	; 255
    1d54:	81 e2       	ldi	r24, 0x21	; 33
    1d56:	a8 2e       	mov	r10, r24
    1d58:	b1 2c       	mov	r11, r1
    1d5a:	ac 0e       	add	r10, r28
    1d5c:	bd 1e       	adc	r11, r29
    1d5e:	ee 24       	eor	r14, r14
    1d60:	ff 24       	eor	r15, r15
    1d62:	dd 24       	eor	r13, r13
    1d64:	cc 24       	eor	r12, r12
			}
			
		result = 0;
		for(int l = 0;l<4;l++)
			{	
				result += (a.value[l] * partial.value[l]);
    1d66:	f8 01       	movw	r30, r16
    1d68:	61 91       	ld	r22, Z+
    1d6a:	71 91       	ld	r23, Z+
    1d6c:	81 91       	ld	r24, Z+
    1d6e:	91 91       	ld	r25, Z+
    1d70:	8f 01       	movw	r16, r30
    1d72:	f1 01       	movw	r30, r2
    1d74:	21 91       	ld	r18, Z+
    1d76:	31 91       	ld	r19, Z+
    1d78:	41 91       	ld	r20, Z+
    1d7a:	51 91       	ld	r21, Z+
    1d7c:	1f 01       	movw	r2, r30
    1d7e:	0e 94 5f 3f 	call	0x7ebe	; 0x7ebe <__mulsf3>
    1d82:	9b 01       	movw	r18, r22
    1d84:	ac 01       	movw	r20, r24
    1d86:	f6 01       	movw	r30, r12
    1d88:	6e 2d       	mov	r22, r14
    1d8a:	7f 2d       	mov	r23, r15
    1d8c:	8f 2f       	mov	r24, r31
    1d8e:	9c 2d       	mov	r25, r12
    1d90:	0e 94 9b 3c 	call	0x7936	; 0x7936 <__addsf3>
    1d94:	7b 01       	movw	r14, r22
    1d96:	d8 2e       	mov	r13, r24
    1d98:	c9 2e       	mov	r12, r25
				}
				partial.value[k] = temp;
			}
			
		result = 0;
		for(int l = 0;l<4;l++)
    1d9a:	0a 15       	cp	r16, r10
    1d9c:	1b 05       	cpc	r17, r11
    1d9e:	19 f7       	brne	.-58     	; 0x1d66 <multVMV+0x112>
			{	
				result += (a.value[l] * partial.value[l]);
			}
		return result;
}
    1da0:	96 01       	movw	r18, r12
    1da2:	7f 2d       	mov	r23, r15
    1da4:	83 2f       	mov	r24, r19
    1da6:	92 2f       	mov	r25, r18
    1da8:	a2 96       	adiw	r28, 0x22	; 34
    1daa:	0f b6       	in	r0, 0x3f	; 63
    1dac:	f8 94       	cli
    1dae:	de bf       	out	0x3e, r29	; 62
    1db0:	0f be       	out	0x3f, r0	; 63
    1db2:	cd bf       	out	0x3d, r28	; 61
    1db4:	cf 91       	pop	r28
    1db6:	df 91       	pop	r29
    1db8:	1f 91       	pop	r17
    1dba:	0f 91       	pop	r16
    1dbc:	ff 90       	pop	r15
    1dbe:	ef 90       	pop	r14
    1dc0:	df 90       	pop	r13
    1dc2:	cf 90       	pop	r12
    1dc4:	bf 90       	pop	r11
    1dc6:	af 90       	pop	r10
    1dc8:	9f 90       	pop	r9
    1dca:	8f 90       	pop	r8
    1dcc:	7f 90       	pop	r7
    1dce:	6f 90       	pop	r6
    1dd0:	5f 90       	pop	r5
    1dd2:	4f 90       	pop	r4
    1dd4:	3f 90       	pop	r3
    1dd6:	2f 90       	pop	r2
    1dd8:	08 95       	ret

00001dda <multMV>:


vector4 multMV(matrix4 b, vector4 c)
{
    1dda:	2f 92       	push	r2
    1ddc:	3f 92       	push	r3
    1dde:	4f 92       	push	r4
    1de0:	5f 92       	push	r5
    1de2:	6f 92       	push	r6
    1de4:	7f 92       	push	r7
    1de6:	8f 92       	push	r8
    1de8:	9f 92       	push	r9
    1dea:	af 92       	push	r10
    1dec:	bf 92       	push	r11
    1dee:	cf 92       	push	r12
    1df0:	df 92       	push	r13
    1df2:	ef 92       	push	r14
    1df4:	ff 92       	push	r15
    1df6:	0f 93       	push	r16
    1df8:	1f 93       	push	r17
    1dfa:	df 93       	push	r29
    1dfc:	cf 93       	push	r28
    1dfe:	cd b7       	in	r28, 0x3d	; 61
    1e00:	de b7       	in	r29, 0x3e	; 62
    1e02:	62 97       	sbiw	r28, 0x12	; 18
    1e04:	0f b6       	in	r0, 0x3f	; 63
    1e06:	f8 94       	cli
    1e08:	de bf       	out	0x3e, r29	; 62
    1e0a:	0f be       	out	0x3f, r0	; 63
    1e0c:	cd bf       	out	0x3d, r28	; 61
    1e0e:	d8 2e       	mov	r13, r24
    1e10:	c9 2e       	mov	r12, r25

	//float temp[4];
	vector4 partial;
	float temp, result;

		for(int k = 0;k<4;k++)
    1e12:	2e 01       	movw	r4, r28
    1e14:	08 94       	sec
    1e16:	41 1c       	adc	r4, r1
    1e18:	51 1c       	adc	r5, r1
    1e1a:	00 e0       	ldi	r16, 0x00	; 0
    1e1c:	10 e0       	ldi	r17, 0x00	; 0
    1e1e:	48 e6       	ldi	r20, 0x68	; 104
    1e20:	24 2e       	mov	r2, r20
    1e22:	31 2c       	mov	r3, r1
    1e24:	2c 0e       	add	r2, r28
    1e26:	3d 1e       	adc	r3, r29
			}
		return result;
}


vector4 multMV(matrix4 b, vector4 c)
    1e28:	c1 01       	movw	r24, r2
    1e2a:	40 96       	adiw	r24, 0x10	; 16
    1e2c:	9a 8b       	std	Y+18, r25	; 0x12
    1e2e:	89 8b       	std	Y+17, r24	; 0x11
    1e30:	30 c0       	rjmp	.+96     	; 0x1e92 <multMV+0xb8>
		for(int k = 0;k<4;k++)
			{	
				temp = 0;
				for(int l = 0;l<4;l++)
				{	
					temp += (b.value[k][l] * c.value[l]);
    1e32:	f7 01       	movw	r30, r14
    1e34:	61 91       	ld	r22, Z+
    1e36:	71 91       	ld	r23, Z+
    1e38:	81 91       	ld	r24, Z+
    1e3a:	91 91       	ld	r25, Z+
    1e3c:	7f 01       	movw	r14, r30
    1e3e:	f3 01       	movw	r30, r6
    1e40:	21 91       	ld	r18, Z+
    1e42:	31 91       	ld	r19, Z+
    1e44:	41 91       	ld	r20, Z+
    1e46:	51 91       	ld	r21, Z+
    1e48:	3f 01       	movw	r6, r30
    1e4a:	0e 94 5f 3f 	call	0x7ebe	; 0x7ebe <__mulsf3>
    1e4e:	9b 01       	movw	r18, r22
    1e50:	ac 01       	movw	r20, r24
    1e52:	d5 01       	movw	r26, r10
    1e54:	f4 01       	movw	r30, r8
    1e56:	6b 2f       	mov	r22, r27
    1e58:	7a 2d       	mov	r23, r10
    1e5a:	8f 2f       	mov	r24, r31
    1e5c:	98 2d       	mov	r25, r8
    1e5e:	0e 94 9b 3c 	call	0x7936	; 0x7936 <__addsf3>
    1e62:	b6 2e       	mov	r11, r22
    1e64:	a7 2e       	mov	r10, r23
    1e66:	98 2e       	mov	r9, r24
    1e68:	89 2e       	mov	r8, r25
	float temp, result;

		for(int k = 0;k<4;k++)
			{	
				temp = 0;
				for(int l = 0;l<4;l++)
    1e6a:	89 89       	ldd	r24, Y+17	; 0x11
    1e6c:	9a 89       	ldd	r25, Y+18	; 0x12
    1e6e:	68 16       	cp	r6, r24
    1e70:	79 06       	cpc	r7, r25
    1e72:	f9 f6       	brne	.-66     	; 0x1e32 <multMV+0x58>
				{	
					temp += (b.value[k][l] * c.value[l]);
				}
				partial.value[k] = temp;
    1e74:	8b 2d       	mov	r24, r11
    1e76:	9a 2d       	mov	r25, r10
    1e78:	a9 2d       	mov	r26, r9
    1e7a:	b8 2d       	mov	r27, r8
    1e7c:	f2 01       	movw	r30, r4
    1e7e:	81 93       	st	Z+, r24
    1e80:	91 93       	st	Z+, r25
    1e82:	a1 93       	st	Z+, r26
    1e84:	b1 93       	st	Z+, r27
    1e86:	2f 01       	movw	r4, r30

	//float temp[4];
	vector4 partial;
	float temp, result;

		for(int k = 0;k<4;k++)
    1e88:	0f 5f       	subi	r16, 0xFF	; 255
    1e8a:	1f 4f       	sbci	r17, 0xFF	; 255
    1e8c:	04 30       	cpi	r16, 0x04	; 4
    1e8e:	11 05       	cpc	r17, r1
    1e90:	91 f0       	breq	.+36     	; 0x1eb6 <multMV+0xdc>
			}
		return result;
}


vector4 multMV(matrix4 b, vector4 c)
    1e92:	78 01       	movw	r14, r16
    1e94:	34 e0       	ldi	r19, 0x04	; 4
    1e96:	ee 0c       	add	r14, r14
    1e98:	ff 1c       	adc	r15, r15
    1e9a:	3a 95       	dec	r19
    1e9c:	e1 f7       	brne	.-8      	; 0x1e96 <multMV+0xbc>
    1e9e:	88 e2       	ldi	r24, 0x28	; 40
    1ea0:	90 e0       	ldi	r25, 0x00	; 0
    1ea2:	8c 0f       	add	r24, r28
    1ea4:	9d 1f       	adc	r25, r29
    1ea6:	e8 0e       	add	r14, r24
    1ea8:	f9 1e       	adc	r15, r25

	//float temp[4];
	vector4 partial;
	float temp, result;

		for(int k = 0;k<4;k++)
    1eaa:	31 01       	movw	r6, r2
			}
		return result;
}


vector4 multMV(matrix4 b, vector4 c)
    1eac:	bb 24       	eor	r11, r11
    1eae:	aa 24       	eor	r10, r10
    1eb0:	99 24       	eor	r9, r9
    1eb2:	88 24       	eor	r8, r8
    1eb4:	be cf       	rjmp	.-132    	; 0x1e32 <multMV+0x58>
		//for(int l = 0;l<4;l++)
		//	{	
		//		result += (a.value[l] * partial.value[l]);
		//	}
		//return result;
		return partial;
    1eb6:	96 01       	movw	r18, r12
    1eb8:	83 2f       	mov	r24, r19
    1eba:	9c 2d       	mov	r25, r12
    1ebc:	dc 01       	movw	r26, r24
    1ebe:	fe 01       	movw	r30, r28
    1ec0:	31 96       	adiw	r30, 0x01	; 1
    1ec2:	80 e1       	ldi	r24, 0x10	; 16
    1ec4:	01 90       	ld	r0, Z+
    1ec6:	0d 92       	st	X+, r0
    1ec8:	81 50       	subi	r24, 0x01	; 1
    1eca:	e1 f7       	brne	.-8      	; 0x1ec4 <multMV+0xea>

}
    1ecc:	8d 2d       	mov	r24, r13
    1ece:	9c 2d       	mov	r25, r12
    1ed0:	62 96       	adiw	r28, 0x12	; 18
    1ed2:	0f b6       	in	r0, 0x3f	; 63
    1ed4:	f8 94       	cli
    1ed6:	de bf       	out	0x3e, r29	; 62
    1ed8:	0f be       	out	0x3f, r0	; 63
    1eda:	cd bf       	out	0x3d, r28	; 61
    1edc:	cf 91       	pop	r28
    1ede:	df 91       	pop	r29
    1ee0:	1f 91       	pop	r17
    1ee2:	0f 91       	pop	r16
    1ee4:	ff 90       	pop	r15
    1ee6:	ef 90       	pop	r14
    1ee8:	df 90       	pop	r13
    1eea:	cf 90       	pop	r12
    1eec:	bf 90       	pop	r11
    1eee:	af 90       	pop	r10
    1ef0:	9f 90       	pop	r9
    1ef2:	8f 90       	pop	r8
    1ef4:	7f 90       	pop	r7
    1ef6:	6f 90       	pop	r6
    1ef8:	5f 90       	pop	r5
    1efa:	4f 90       	pop	r4
    1efc:	3f 90       	pop	r3
    1efe:	2f 90       	pop	r2
    1f00:	08 95       	ret

00001f02 <mult>:

matrix4 mult(matrix4 a, matrix4 b)
{
    1f02:	2f 92       	push	r2
    1f04:	3f 92       	push	r3
    1f06:	4f 92       	push	r4
    1f08:	5f 92       	push	r5
    1f0a:	6f 92       	push	r6
    1f0c:	7f 92       	push	r7
    1f0e:	8f 92       	push	r8
    1f10:	9f 92       	push	r9
    1f12:	af 92       	push	r10
    1f14:	bf 92       	push	r11
    1f16:	cf 92       	push	r12
    1f18:	df 92       	push	r13
    1f1a:	ef 92       	push	r14
    1f1c:	ff 92       	push	r15
    1f1e:	0f 93       	push	r16
    1f20:	1f 93       	push	r17
    1f22:	df 93       	push	r29
    1f24:	cf 93       	push	r28
    1f26:	cd b7       	in	r28, 0x3d	; 61
    1f28:	de b7       	in	r29, 0x3e	; 62
    1f2a:	ca 55       	subi	r28, 0x5A	; 90
    1f2c:	d0 40       	sbci	r29, 0x00	; 0
    1f2e:	0f b6       	in	r0, 0x3f	; 63
    1f30:	f8 94       	cli
    1f32:	de bf       	out	0x3e, r29	; 62
    1f34:	0f be       	out	0x3f, r0	; 63
    1f36:	cd bf       	out	0x3d, r28	; 61
    1f38:	38 2e       	mov	r3, r24
    1f3a:	66 96       	adiw	r28, 0x16	; 22
    1f3c:	9f af       	std	Y+63, r25	; 0x3f
    1f3e:	66 97       	sbiw	r28, 0x16	; 22
	float temp[4];
	matrix4 response;
	
	for(int j = 0; j<4;j++)
    1f40:	8e 01       	movw	r16, r28
    1f42:	0f 5e       	subi	r16, 0xEF	; 239
    1f44:	1f 4f       	sbci	r17, 0xFF	; 255
		//return result;
		return partial;

}

matrix4 mult(matrix4 a, matrix4 b)
    1f46:	9e 01       	movw	r18, r28
    1f48:	2f 5f       	subi	r18, 0xFF	; 255
    1f4a:	3f 4f       	sbci	r19, 0xFF	; 255
	float temp[4];
	matrix4 response;
	
	for(int j = 0; j<4;j++)
		{
		temp[j] = 0;
    1f4c:	80 e0       	ldi	r24, 0x00	; 0
    1f4e:	90 e0       	ldi	r25, 0x00	; 0
    1f50:	dc 01       	movw	r26, r24
    1f52:	a8 01       	movw	r20, r16
    1f54:	f9 01       	movw	r30, r18
    1f56:	81 93       	st	Z+, r24
    1f58:	91 93       	st	Z+, r25
    1f5a:	a1 93       	st	Z+, r26
    1f5c:	b1 93       	st	Z+, r27
    1f5e:	9f 01       	movw	r18, r30
			for(int k = 0;k<4;k++)
			{
				response.value[j][k] = 0.0f;
    1f60:	fa 01       	movw	r30, r20
    1f62:	80 83       	st	Z, r24
    1f64:	91 83       	std	Z+1, r25	; 0x01
    1f66:	a2 83       	std	Z+2, r26	; 0x02
    1f68:	b3 83       	std	Z+3, r27	; 0x03
    1f6a:	84 83       	std	Z+4, r24	; 0x04
    1f6c:	95 83       	std	Z+5, r25	; 0x05
    1f6e:	a6 83       	std	Z+6, r26	; 0x06
    1f70:	b7 83       	std	Z+7, r27	; 0x07
    1f72:	80 87       	std	Z+8, r24	; 0x08
    1f74:	91 87       	std	Z+9, r25	; 0x09
    1f76:	a2 87       	std	Z+10, r26	; 0x0a
    1f78:	b3 87       	std	Z+11, r27	; 0x0b
    1f7a:	84 87       	std	Z+12, r24	; 0x0c
    1f7c:	95 87       	std	Z+13, r25	; 0x0d
    1f7e:	a6 87       	std	Z+14, r26	; 0x0e
    1f80:	b7 87       	std	Z+15, r27	; 0x0f
    1f82:	40 5f       	subi	r20, 0xF0	; 240
    1f84:	5f 4f       	sbci	r21, 0xFF	; 255
matrix4 mult(matrix4 a, matrix4 b)
{
	float temp[4];
	matrix4 response;
	
	for(int j = 0; j<4;j++)
    1f86:	20 17       	cp	r18, r16
    1f88:	31 07       	cpc	r19, r17
    1f8a:	21 f7       	brne	.-56     	; 0x1f54 <mult+0x52>
    1f8c:	88 24       	eor	r8, r8
    1f8e:	99 24       	eor	r9, r9

	for(int j = 0;j<4;j++)
		{	
			for(int h = 0; h <4 ;h++)
			{
				temp[h] = 0;
    1f90:	0f 2e       	mov	r0, r31
    1f92:	f0 e0       	ldi	r31, 0x00	; 0
    1f94:	4f 2e       	mov	r4, r31
    1f96:	f0 e0       	ldi	r31, 0x00	; 0
    1f98:	5f 2e       	mov	r5, r31
    1f9a:	f0 e0       	ldi	r31, 0x00	; 0
    1f9c:	6f 2e       	mov	r6, r31
    1f9e:	f0 e0       	ldi	r31, 0x00	; 0
    1fa0:	7f 2e       	mov	r7, r31
    1fa2:	f0 2d       	mov	r31, r0
    1fa4:	67 96       	adiw	r28, 0x17	; 23
    1fa6:	3f ae       	std	Y+63, r3	; 0x3f
    1fa8:	67 97       	sbiw	r28, 0x17	; 23
    1faa:	86 c0       	rjmp	.+268    	; 0x20b8 <mult+0x1b6>
			}
			for(int k = 0;k<4;k++)
			{
				for(int l = 0;l<4;l++)
				{	
					temp[k] += (a.value[j][l] * b.value[l][k]);
    1fac:	65 96       	adiw	r28, 0x15	; 21
    1fae:	ee ad       	ldd	r30, Y+62	; 0x3e
    1fb0:	ff ad       	ldd	r31, Y+63	; 0x3f
    1fb2:	65 97       	sbiw	r28, 0x15	; 21
    1fb4:	61 91       	ld	r22, Z+
    1fb6:	71 91       	ld	r23, Z+
    1fb8:	81 91       	ld	r24, Z+
    1fba:	91 91       	ld	r25, Z+
    1fbc:	65 96       	adiw	r28, 0x15	; 21
    1fbe:	ff af       	std	Y+63, r31	; 0x3f
    1fc0:	ee af       	std	Y+62, r30	; 0x3e
    1fc2:	65 97       	sbiw	r28, 0x15	; 21
    1fc4:	f8 01       	movw	r30, r16
    1fc6:	20 81       	ld	r18, Z
    1fc8:	31 81       	ldd	r19, Z+1	; 0x01
    1fca:	42 81       	ldd	r20, Z+2	; 0x02
    1fcc:	53 81       	ldd	r21, Z+3	; 0x03
    1fce:	0e 94 5f 3f 	call	0x7ebe	; 0x7ebe <__mulsf3>
    1fd2:	9b 01       	movw	r18, r22
    1fd4:	ac 01       	movw	r20, r24
    1fd6:	6c 2d       	mov	r22, r12
    1fd8:	73 2d       	mov	r23, r3
    1fda:	82 2d       	mov	r24, r2
    1fdc:	9d 2d       	mov	r25, r13
    1fde:	0e 94 9b 3c 	call	0x7936	; 0x7936 <__addsf3>
    1fe2:	c6 2e       	mov	r12, r22
    1fe4:	37 2e       	mov	r3, r23
    1fe6:	28 2e       	mov	r2, r24
    1fe8:	d9 2e       	mov	r13, r25
			{
				temp[h] = 0;
			}
			for(int k = 0;k<4;k++)
			{
				for(int l = 0;l<4;l++)
    1fea:	08 94       	sec
    1fec:	81 1c       	adc	r8, r1
    1fee:	91 1c       	adc	r9, r1
    1ff0:	00 5f       	subi	r16, 0xF0	; 240
    1ff2:	1f 4f       	sbci	r17, 0xFF	; 255
    1ff4:	f4 e0       	ldi	r31, 0x04	; 4
    1ff6:	8f 16       	cp	r8, r31
    1ff8:	91 04       	cpc	r9, r1
    1ffa:	c1 f6       	brne	.-80     	; 0x1fac <mult+0xaa>
    1ffc:	86 2f       	mov	r24, r22
    1ffe:	93 2d       	mov	r25, r3
    2000:	a2 2d       	mov	r26, r2
    2002:	bd 2d       	mov	r27, r13
    2004:	f7 01       	movw	r30, r14
    2006:	81 93       	st	Z+, r24
    2008:	91 93       	st	Z+, r25
    200a:	a1 93       	st	Z+, r26
    200c:	b1 93       	st	Z+, r27
    200e:	7f 01       	movw	r14, r30
		{	
			for(int h = 0; h <4 ;h++)
			{
				temp[h] = 0;
			}
			for(int k = 0;k<4;k++)
    2010:	08 94       	sec
    2012:	a1 1c       	adc	r10, r1
    2014:	b1 1c       	adc	r11, r1
    2016:	f4 e0       	ldi	r31, 0x04	; 4
    2018:	af 16       	cp	r10, r31
    201a:	b1 04       	cpc	r11, r1
    201c:	d9 f0       	breq	.+54     	; 0x2054 <mult+0x152>
		//return result;
		return partial;

}

matrix4 mult(matrix4 a, matrix4 b)
    201e:	f7 01       	movw	r30, r14
    2020:	c0 80       	ld	r12, Z
    2022:	31 80       	ldd	r3, Z+1	; 0x01
    2024:	22 80       	ldd	r2, Z+2	; 0x02
    2026:	d3 80       	ldd	r13, Z+3	; 0x03
    2028:	63 96       	adiw	r28, 0x13	; 19
    202a:	2e ad       	ldd	r18, Y+62	; 0x3e
    202c:	3f ad       	ldd	r19, Y+63	; 0x3f
    202e:	63 97       	sbiw	r28, 0x13	; 19
    2030:	65 96       	adiw	r28, 0x15	; 21
    2032:	3f af       	std	Y+63, r19	; 0x3f
    2034:	2e af       	std	Y+62, r18	; 0x3e
    2036:	65 97       	sbiw	r28, 0x15	; 21
    2038:	85 01       	movw	r16, r10
    203a:	00 0f       	add	r16, r16
    203c:	11 1f       	adc	r17, r17
    203e:	00 0f       	add	r16, r16
    2040:	11 1f       	adc	r17, r17
    2042:	80 eb       	ldi	r24, 0xB0	; 176
    2044:	90 e0       	ldi	r25, 0x00	; 0
    2046:	8c 0f       	add	r24, r28
    2048:	9d 1f       	adc	r25, r29
    204a:	08 0f       	add	r16, r24
    204c:	19 1f       	adc	r17, r25
    204e:	88 24       	eor	r8, r8
    2050:	99 24       	eor	r9, r9
    2052:	ac cf       	rjmp	.-168    	; 0x1fac <mult+0xaa>
    2054:	69 96       	adiw	r28, 0x19	; 25
    2056:	0e ad       	ldd	r16, Y+62	; 0x3e
    2058:	1f ad       	ldd	r17, Y+63	; 0x3f
    205a:	69 97       	sbiw	r28, 0x19	; 25
    205c:	6b 96       	adiw	r28, 0x1b	; 27
    205e:	8e ac       	ldd	r8, Y+62	; 0x3e
    2060:	9f ac       	ldd	r9, Y+63	; 0x3f
    2062:	6b 97       	sbiw	r28, 0x1b	; 27
					temp[k] += (a.value[j][l] * b.value[l][k]);
				}
			}
			for(int h = 0; h <4 ;h++)
			{
				response.value[j][h] = temp[h];
    2064:	89 81       	ldd	r24, Y+1	; 0x01
    2066:	9a 81       	ldd	r25, Y+2	; 0x02
    2068:	ab 81       	ldd	r26, Y+3	; 0x03
    206a:	bc 81       	ldd	r27, Y+4	; 0x04
    206c:	f8 01       	movw	r30, r16
    206e:	80 83       	st	Z, r24
    2070:	91 83       	std	Z+1, r25	; 0x01
    2072:	a2 83       	std	Z+2, r26	; 0x02
    2074:	b3 83       	std	Z+3, r27	; 0x03
    2076:	8d 81       	ldd	r24, Y+5	; 0x05
    2078:	9e 81       	ldd	r25, Y+6	; 0x06
    207a:	af 81       	ldd	r26, Y+7	; 0x07
    207c:	b8 85       	ldd	r27, Y+8	; 0x08
    207e:	84 83       	std	Z+4, r24	; 0x04
    2080:	95 83       	std	Z+5, r25	; 0x05
    2082:	a6 83       	std	Z+6, r26	; 0x06
    2084:	b7 83       	std	Z+7, r27	; 0x07
    2086:	89 85       	ldd	r24, Y+9	; 0x09
    2088:	9a 85       	ldd	r25, Y+10	; 0x0a
    208a:	ab 85       	ldd	r26, Y+11	; 0x0b
    208c:	bc 85       	ldd	r27, Y+12	; 0x0c
    208e:	80 87       	std	Z+8, r24	; 0x08
    2090:	91 87       	std	Z+9, r25	; 0x09
    2092:	a2 87       	std	Z+10, r26	; 0x0a
    2094:	b3 87       	std	Z+11, r27	; 0x0b
    2096:	8d 85       	ldd	r24, Y+13	; 0x0d
    2098:	9e 85       	ldd	r25, Y+14	; 0x0e
    209a:	af 85       	ldd	r26, Y+15	; 0x0f
    209c:	b8 89       	ldd	r27, Y+16	; 0x10
    209e:	84 87       	std	Z+12, r24	; 0x0c
    20a0:	95 87       	std	Z+13, r25	; 0x0d
    20a2:	a6 87       	std	Z+14, r26	; 0x0e
    20a4:	b7 87       	std	Z+15, r27	; 0x0f
				//printf("%i %i %f \n ",j,k,response.value[j][k]);
			}

		}

	for(int j = 0;j<4;j++)
    20a6:	08 94       	sec
    20a8:	81 1c       	adc	r8, r1
    20aa:	91 1c       	adc	r9, r1
    20ac:	00 5f       	subi	r16, 0xF0	; 240
    20ae:	1f 4f       	sbci	r17, 0xFF	; 255
    20b0:	f4 e0       	ldi	r31, 0x04	; 4
    20b2:	8f 16       	cp	r8, r31
    20b4:	91 04       	cpc	r9, r1
    20b6:	79 f1       	breq	.+94     	; 0x2116 <mult+0x214>
		{	
			for(int h = 0; h <4 ;h++)
			{
				temp[h] = 0;
    20b8:	49 82       	std	Y+1, r4	; 0x01
    20ba:	5a 82       	std	Y+2, r5	; 0x02
    20bc:	6b 82       	std	Y+3, r6	; 0x03
    20be:	7c 82       	std	Y+4, r7	; 0x04
    20c0:	4d 82       	std	Y+5, r4	; 0x05
    20c2:	5e 82       	std	Y+6, r5	; 0x06
    20c4:	6f 82       	std	Y+7, r6	; 0x07
    20c6:	78 86       	std	Y+8, r7	; 0x08
    20c8:	49 86       	std	Y+9, r4	; 0x09
    20ca:	5a 86       	std	Y+10, r5	; 0x0a
    20cc:	6b 86       	std	Y+11, r6	; 0x0b
    20ce:	7c 86       	std	Y+12, r7	; 0x0c
    20d0:	4d 86       	std	Y+13, r4	; 0x0d
    20d2:	5e 86       	std	Y+14, r5	; 0x0e
    20d4:	6f 86       	std	Y+15, r6	; 0x0f
    20d6:	78 8a       	std	Y+16, r7	; 0x10
    20d8:	7e 01       	movw	r14, r28
    20da:	08 94       	sec
    20dc:	e1 1c       	adc	r14, r1
    20de:	f1 1c       	adc	r15, r1
    20e0:	aa 24       	eor	r10, r10
    20e2:	bb 24       	eor	r11, r11
		//return result;
		return partial;

}

matrix4 mult(matrix4 a, matrix4 b)
    20e4:	94 01       	movw	r18, r8
    20e6:	54 e0       	ldi	r21, 0x04	; 4
    20e8:	22 0f       	add	r18, r18
    20ea:	33 1f       	adc	r19, r19
    20ec:	5a 95       	dec	r21
    20ee:	e1 f7       	brne	.-8      	; 0x20e8 <mult+0x1e6>
    20f0:	80 e7       	ldi	r24, 0x70	; 112
    20f2:	90 e0       	ldi	r25, 0x00	; 0
    20f4:	8c 0f       	add	r24, r28
    20f6:	9d 1f       	adc	r25, r29
    20f8:	82 0f       	add	r24, r18
    20fa:	93 1f       	adc	r25, r19
    20fc:	63 96       	adiw	r28, 0x13	; 19
    20fe:	9f af       	std	Y+63, r25	; 0x3f
    2100:	8e af       	std	Y+62, r24	; 0x3e
    2102:	63 97       	sbiw	r28, 0x13	; 19
    2104:	69 96       	adiw	r28, 0x19	; 25
    2106:	1f af       	std	Y+63, r17	; 0x3f
    2108:	0e af       	std	Y+62, r16	; 0x3e
    210a:	69 97       	sbiw	r28, 0x19	; 25
    210c:	6b 96       	adiw	r28, 0x1b	; 27
    210e:	9f ae       	std	Y+63, r9	; 0x3f
    2110:	8e ae       	std	Y+62, r8	; 0x3e
    2112:	6b 97       	sbiw	r28, 0x1b	; 27
    2114:	84 cf       	rjmp	.-248    	; 0x201e <mult+0x11c>
    2116:	67 96       	adiw	r28, 0x17	; 23
    2118:	3f ac       	ldd	r3, Y+63	; 0x3f
    211a:	67 97       	sbiw	r28, 0x17	; 23
				response.value[j][h] = temp[h];
				
			}		
		}	

		return response;
    211c:	66 96       	adiw	r28, 0x16	; 22
    211e:	2f ad       	ldd	r18, Y+63	; 0x3f
    2120:	66 97       	sbiw	r28, 0x16	; 22
    2122:	83 2d       	mov	r24, r3
    2124:	92 2f       	mov	r25, r18
    2126:	dc 01       	movw	r26, r24
    2128:	fe 01       	movw	r30, r28
    212a:	71 96       	adiw	r30, 0x11	; 17
    212c:	80 e4       	ldi	r24, 0x40	; 64
    212e:	01 90       	ld	r0, Z+
    2130:	0d 92       	st	X+, r0
    2132:	81 50       	subi	r24, 0x01	; 1
    2134:	e1 f7       	brne	.-8      	; 0x212e <mult+0x22c>

}
    2136:	83 2d       	mov	r24, r3
    2138:	66 96       	adiw	r28, 0x16	; 22
    213a:	9f ad       	ldd	r25, Y+63	; 0x3f
    213c:	66 97       	sbiw	r28, 0x16	; 22
    213e:	c6 5a       	subi	r28, 0xA6	; 166
    2140:	df 4f       	sbci	r29, 0xFF	; 255
    2142:	0f b6       	in	r0, 0x3f	; 63
    2144:	f8 94       	cli
    2146:	de bf       	out	0x3e, r29	; 62
    2148:	0f be       	out	0x3f, r0	; 63
    214a:	cd bf       	out	0x3d, r28	; 61
    214c:	cf 91       	pop	r28
    214e:	df 91       	pop	r29
    2150:	1f 91       	pop	r17
    2152:	0f 91       	pop	r16
    2154:	ff 90       	pop	r15
    2156:	ef 90       	pop	r14
    2158:	df 90       	pop	r13
    215a:	cf 90       	pop	r12
    215c:	bf 90       	pop	r11
    215e:	af 90       	pop	r10
    2160:	9f 90       	pop	r9
    2162:	8f 90       	pop	r8
    2164:	7f 90       	pop	r7
    2166:	6f 90       	pop	r6
    2168:	5f 90       	pop	r5
    216a:	4f 90       	pop	r4
    216c:	3f 90       	pop	r3
    216e:	2f 90       	pop	r2
    2170:	08 95       	ret

00002172 <SetKConstants>:


//////// METHODS

void SetKConstants()
{
    2172:	af 92       	push	r10
    2174:	bf 92       	push	r11
    2176:	cf 92       	push	r12
    2178:	df 92       	push	r13
    217a:	ef 92       	push	r14
    217c:	ff 92       	push	r15
    217e:	0f 93       	push	r16
    2180:	1f 93       	push	r17
    2182:	cf 93       	push	r28
    2184:	df 93       	push	r29
for(int i = 0;i<DOF;i++)
    2186:	6d ec       	ldi	r22, 0xCD	; 205
    2188:	71 e1       	ldi	r23, 0x11	; 17
    218a:	03 e5       	ldi	r16, 0x53	; 83
    218c:	1d e0       	ldi	r17, 0x0D	; 13
    218e:	fc e9       	ldi	r31, 0x9C	; 156
    2190:	ef 2e       	mov	r14, r31
    2192:	f2 e1       	ldi	r31, 0x12	; 18
    2194:	ff 2e       	mov	r15, r31
    2196:	e1 eb       	ldi	r30, 0xB1	; 177
    2198:	ce 2e       	mov	r12, r30
    219a:	e1 e1       	ldi	r30, 0x11	; 17
    219c:	de 2e       	mov	r13, r30
    219e:	58 e4       	ldi	r21, 0x48	; 72
    21a0:	a5 2e       	mov	r10, r21
    21a2:	52 e1       	ldi	r21, 0x12	; 18
    21a4:	b5 2e       	mov	r11, r21
    21a6:	20 e0       	ldi	r18, 0x00	; 0
    21a8:	30 e0       	ldi	r19, 0x00	; 0
	{
		aDH[i] = 0;				// a DH parameter
    21aa:	80 e0       	ldi	r24, 0x00	; 0
    21ac:	90 e0       	ldi	r25, 0x00	; 0
    21ae:	dc 01       	movw	r26, r24
    21b0:	eb 01       	movw	r28, r22
    21b2:	89 93       	st	Y+, r24
    21b4:	99 93       	st	Y+, r25
    21b6:	a9 93       	st	Y+, r26
    21b8:	b9 93       	st	Y+, r27
    21ba:	be 01       	movw	r22, r28
		dDH[i] = 0;				// d DH parameter
    21bc:	f8 01       	movw	r30, r16
    21be:	81 93       	st	Z+, r24
    21c0:	91 93       	st	Z+, r25
    21c2:	a1 93       	st	Z+, r26
    21c4:	b1 93       	st	Z+, r27
    21c6:	8f 01       	movw	r16, r30
		alphaDH[i] = 0;			// alpha DH parameter
    21c8:	e7 01       	movw	r28, r14
    21ca:	89 93       	st	Y+, r24
    21cc:	99 93       	st	Y+, r25
    21ce:	a9 93       	st	Y+, r26
    21d0:	b9 93       	st	Y+, r27
    21d2:	7e 01       	movw	r14, r28
		thetaDH[i] = 0;			// theta DH parameter
    21d4:	f6 01       	movw	r30, r12
    21d6:	81 93       	st	Z+, r24
    21d8:	91 93       	st	Z+, r25
    21da:	a1 93       	st	Z+, r26
    21dc:	b1 93       	st	Z+, r27
    21de:	6f 01       	movw	r12, r30
		qDH[i] = 0;				// theta DH parameter
    21e0:	e5 01       	movw	r28, r10
    21e2:	89 93       	st	Y+, r24
    21e4:	99 93       	st	Y+, r25
    21e6:	a9 93       	st	Y+, r26
    21e8:	b9 93       	st	Y+, r27
    21ea:	5e 01       	movw	r10, r28
/////////////////////////////////////////////////////////////////  KINEMATICS  ///////////////////////////////////////////////


//////// METHODS

void SetKConstants()
    21ec:	f9 01       	movw	r30, r18
    21ee:	46 e0       	ldi	r20, 0x06	; 6
    21f0:	ee 0f       	add	r30, r30
    21f2:	ff 1f       	adc	r31, r31
    21f4:	4a 95       	dec	r20
    21f6:	e1 f7       	brne	.-8      	; 0x21f0 <SetKConstants+0x7e>
    21f8:	ef 01       	movw	r28, r30
    21fa:	cf 54       	subi	r28, 0x4F	; 79
    21fc:	d0 4f       	sbci	r29, 0xF0	; 240
    21fe:	e1 59       	subi	r30, 0x91	; 145
    2200:	f2 4f       	sbci	r31, 0xF2	; 242
		dDH[i] = 0;				// d DH parameter
		alphaDH[i] = 0;			// alpha DH parameter
		thetaDH[i] = 0;			// theta DH parameter
		qDH[i] = 0;				// theta DH parameter
		//cPos[i] = 0;
		for(int j = 0;j<4;j++)
    2202:	40 e0       	ldi	r20, 0x00	; 0
    2204:	50 e0       	ldi	r21, 0x00	; 0
		{
			for(int k = 0;k<4;k++)
			{
				H[i].value[j][k] = 0;	
    2206:	88 83       	st	Y, r24
    2208:	99 83       	std	Y+1, r25	; 0x01
    220a:	aa 83       	std	Y+2, r26	; 0x02
    220c:	bb 83       	std	Y+3, r27	; 0x03
				//H07.value[j][k] = 0;
				H0[i].value[j][k] = 0;	
    220e:	80 83       	st	Z, r24
    2210:	91 83       	std	Z+1, r25	; 0x01
    2212:	a2 83       	std	Z+2, r26	; 0x02
    2214:	b3 83       	std	Z+3, r27	; 0x03
		//cPos[i] = 0;
		for(int j = 0;j<4;j++)
		{
			for(int k = 0;k<4;k++)
			{
				H[i].value[j][k] = 0;	
    2216:	8c 83       	std	Y+4, r24	; 0x04
    2218:	9d 83       	std	Y+5, r25	; 0x05
    221a:	ae 83       	std	Y+6, r26	; 0x06
    221c:	bf 83       	std	Y+7, r27	; 0x07
				//H07.value[j][k] = 0;
				H0[i].value[j][k] = 0;	
    221e:	84 83       	std	Z+4, r24	; 0x04
    2220:	95 83       	std	Z+5, r25	; 0x05
    2222:	a6 83       	std	Z+6, r26	; 0x06
    2224:	b7 83       	std	Z+7, r27	; 0x07
		//cPos[i] = 0;
		for(int j = 0;j<4;j++)
		{
			for(int k = 0;k<4;k++)
			{
				H[i].value[j][k] = 0;	
    2226:	88 87       	std	Y+8, r24	; 0x08
    2228:	99 87       	std	Y+9, r25	; 0x09
    222a:	aa 87       	std	Y+10, r26	; 0x0a
    222c:	bb 87       	std	Y+11, r27	; 0x0b
				//H07.value[j][k] = 0;
				H0[i].value[j][k] = 0;	
    222e:	80 87       	std	Z+8, r24	; 0x08
    2230:	91 87       	std	Z+9, r25	; 0x09
    2232:	a2 87       	std	Z+10, r26	; 0x0a
    2234:	b3 87       	std	Z+11, r27	; 0x0b
		//cPos[i] = 0;
		for(int j = 0;j<4;j++)
		{
			for(int k = 0;k<4;k++)
			{
				H[i].value[j][k] = 0;	
    2236:	8c 87       	std	Y+12, r24	; 0x0c
    2238:	9d 87       	std	Y+13, r25	; 0x0d
    223a:	ae 87       	std	Y+14, r26	; 0x0e
    223c:	bf 87       	std	Y+15, r27	; 0x0f
				//H07.value[j][k] = 0;
				H0[i].value[j][k] = 0;	
    223e:	84 87       	std	Z+12, r24	; 0x0c
    2240:	95 87       	std	Z+13, r25	; 0x0d
    2242:	a6 87       	std	Z+14, r26	; 0x0e
    2244:	b7 87       	std	Z+15, r27	; 0x0f
		dDH[i] = 0;				// d DH parameter
		alphaDH[i] = 0;			// alpha DH parameter
		thetaDH[i] = 0;			// theta DH parameter
		qDH[i] = 0;				// theta DH parameter
		//cPos[i] = 0;
		for(int j = 0;j<4;j++)
    2246:	4f 5f       	subi	r20, 0xFF	; 255
    2248:	5f 4f       	sbci	r21, 0xFF	; 255
    224a:	60 96       	adiw	r28, 0x10	; 16
    224c:	70 96       	adiw	r30, 0x10	; 16
    224e:	44 30       	cpi	r20, 0x04	; 4
    2250:	51 05       	cpc	r21, r1
    2252:	c9 f6       	brne	.-78     	; 0x2206 <__stack+0x7>

//////// METHODS

void SetKConstants()
{
for(int i = 0;i<DOF;i++)
    2254:	2f 5f       	subi	r18, 0xFF	; 255
    2256:	3f 4f       	sbci	r19, 0xFF	; 255
    2258:	27 30       	cpi	r18, 0x07	; 7
    225a:	31 05       	cpc	r19, r1
    225c:	09 f0       	breq	.+2      	; 0x2260 <__stack+0x61>
    225e:	a8 cf       	rjmp	.-176    	; 0x21b0 <SetKConstants+0x3e>
    2260:	20 e0       	ldi	r18, 0x00	; 0
    2262:	30 e0       	ldi	r19, 0x00	; 0

	for(int j = 0;j<4;j++)
	{
		for(int k = 0;k<4;k++)
		{
			H07.value[j][k] = 0;
    2264:	80 e0       	ldi	r24, 0x00	; 0
    2266:	90 e0       	ldi	r25, 0x00	; 0
    2268:	dc 01       	movw	r26, r24
    226a:	18 c0       	rjmp	.+48     	; 0x229c <__stack+0x9d>
    226c:	81 93       	st	Z+, r24
    226e:	91 93       	st	Z+, r25
    2270:	a1 93       	st	Z+, r26
    2272:	b1 93       	st	Z+, r27
			H[7].value[j][k] = 0;	
    2274:	e8 01       	movw	r28, r16
    2276:	89 93       	st	Y+, r24
    2278:	99 93       	st	Y+, r25
    227a:	a9 93       	st	Y+, r26
    227c:	b9 93       	st	Y+, r27
    227e:	8e 01       	movw	r16, r28
			H0[7].value[j][k] = 0;	
    2280:	ea 01       	movw	r28, r20
    2282:	89 93       	st	Y+, r24
    2284:	99 93       	st	Y+, r25
    2286:	a9 93       	st	Y+, r26
    2288:	b9 93       	st	Y+, r27
    228a:	ae 01       	movw	r20, r28
    228c:	61 50       	subi	r22, 0x01	; 1
    228e:	70 40       	sbci	r23, 0x00	; 0
		}
	}

	for(int j = 0;j<4;j++)
	{
		for(int k = 0;k<4;k++)
    2290:	69 f7       	brne	.-38     	; 0x226c <__stack+0x6d>
				H0[i].value[j][k] = 0;	
			}
		}
	}

	for(int j = 0;j<4;j++)
    2292:	2f 5f       	subi	r18, 0xFF	; 255
    2294:	3f 4f       	sbci	r19, 0xFF	; 255
    2296:	24 30       	cpi	r18, 0x04	; 4
    2298:	31 05       	cpc	r19, r1
    229a:	c1 f0       	breq	.+48     	; 0x22cc <__stack+0xcd>
/////////////////////////////////////////////////////////////////  KINEMATICS  ///////////////////////////////////////////////


//////// METHODS

void SetKConstants()
    229c:	f9 01       	movw	r30, r18
    229e:	14 e0       	ldi	r17, 0x04	; 4
    22a0:	ee 0f       	add	r30, r30
    22a2:	ff 1f       	adc	r31, r31
    22a4:	1a 95       	dec	r17
    22a6:	e1 f7       	brne	.-8      	; 0x22a0 <__stack+0xa1>
    22a8:	e1 59       	subi	r30, 0x91	; 145
    22aa:	f0 4f       	sbci	r31, 0xF0	; 240
    22ac:	a9 01       	movw	r20, r18
    22ae:	44 5e       	subi	r20, 0xE4	; 228
    22b0:	5f 4f       	sbci	r21, 0xFF	; 255
    22b2:	74 e0       	ldi	r23, 0x04	; 4
    22b4:	44 0f       	add	r20, r20
    22b6:	55 1f       	adc	r21, r21
    22b8:	7a 95       	dec	r23
    22ba:	e1 f7       	brne	.-8      	; 0x22b4 <__stack+0xb5>
    22bc:	8a 01       	movw	r16, r20
    22be:	0f 54       	subi	r16, 0x4F	; 79
    22c0:	10 4f       	sbci	r17, 0xF0	; 240
    22c2:	41 59       	subi	r20, 0x91	; 145
    22c4:	52 4f       	sbci	r21, 0xF2	; 242
    22c6:	64 e0       	ldi	r22, 0x04	; 4
    22c8:	70 e0       	ldi	r23, 0x00	; 0
    22ca:	d0 cf       	rjmp	.-96     	; 0x226c <__stack+0x6d>
			H[7].value[j][k] = 0;	
			H0[7].value[j][k] = 0;	
		}
	}
	
	dDH[0] = 0.0;
    22cc:	80 93 53 0d 	sts	0x0D53, r24
    22d0:	90 93 54 0d 	sts	0x0D54, r25
    22d4:	a0 93 55 0d 	sts	0x0D55, r26
    22d8:	b0 93 56 0d 	sts	0x0D56, r27
	dDH[2] = 0.3084;
    22dc:	8b e9       	ldi	r24, 0x9B	; 155
    22de:	96 ee       	ldi	r25, 0xE6	; 230
    22e0:	ad e9       	ldi	r26, 0x9D	; 157
    22e2:	be e3       	ldi	r27, 0x3E	; 62
    22e4:	80 93 5b 0d 	sts	0x0D5B, r24
    22e8:	90 93 5c 0d 	sts	0x0D5C, r25
    22ec:	a0 93 5d 0d 	sts	0x0D5D, r26
    22f0:	b0 93 5e 0d 	sts	0x0D5E, r27
	dDH[4] = 0.2126;
    22f4:	80 ed       	ldi	r24, 0xD0	; 208
    22f6:	93 eb       	ldi	r25, 0xB3	; 179
    22f8:	a9 e5       	ldi	r26, 0x59	; 89
    22fa:	be e3       	ldi	r27, 0x3E	; 62
    22fc:	80 93 63 0d 	sts	0x0D63, r24
    2300:	90 93 64 0d 	sts	0x0D64, r25
    2304:	a0 93 65 0d 	sts	0x0D65, r26
    2308:	b0 93 66 0d 	sts	0x0D66, r27
	dDH[6] = 0.185;
    230c:	84 ea       	ldi	r24, 0xA4	; 164
    230e:	90 e7       	ldi	r25, 0x70	; 112
    2310:	ad e3       	ldi	r26, 0x3D	; 61
    2312:	be e3       	ldi	r27, 0x3E	; 62
    2314:	80 93 6b 0d 	sts	0x0D6B, r24
    2318:	90 93 6c 0d 	sts	0x0D6C, r25
    231c:	a0 93 6d 0d 	sts	0x0D6D, r26
    2320:	b0 93 6e 0d 	sts	0x0D6E, r27
	
	aDH[0] = 0.0603;
    2324:	82 e2       	ldi	r24, 0x22	; 34
    2326:	9d ef       	ldi	r25, 0xFD	; 253
    2328:	a6 e7       	ldi	r26, 0x76	; 118
    232a:	bd e3       	ldi	r27, 0x3D	; 61
    232c:	80 93 cd 11 	sts	0x11CD, r24
    2330:	90 93 ce 11 	sts	0x11CE, r25
    2334:	a0 93 cf 11 	sts	0x11CF, r26
    2338:	b0 93 d0 11 	sts	0x11D0, r27

	alphaDH[0]= M_PI_2;
    233c:	8b ed       	ldi	r24, 0xDB	; 219
    233e:	9f e0       	ldi	r25, 0x0F	; 15
    2340:	a9 ec       	ldi	r26, 0xC9	; 201
    2342:	bf e3       	ldi	r27, 0x3F	; 63
    2344:	80 93 9c 12 	sts	0x129C, r24
    2348:	90 93 9d 12 	sts	0x129D, r25
    234c:	a0 93 9e 12 	sts	0x129E, r26
    2350:	b0 93 9f 12 	sts	0x129F, r27
	alphaDH[1]= M_PI_2;
    2354:	80 93 a0 12 	sts	0x12A0, r24
    2358:	90 93 a1 12 	sts	0x12A1, r25
    235c:	a0 93 a2 12 	sts	0x12A2, r26
    2360:	b0 93 a3 12 	sts	0x12A3, r27
	alphaDH[2]= -M_PI_2;
    2364:	2b ed       	ldi	r18, 0xDB	; 219
    2366:	3f e0       	ldi	r19, 0x0F	; 15
    2368:	49 ec       	ldi	r20, 0xC9	; 201
    236a:	5f eb       	ldi	r21, 0xBF	; 191
    236c:	20 93 a4 12 	sts	0x12A4, r18
    2370:	30 93 a5 12 	sts	0x12A5, r19
    2374:	40 93 a6 12 	sts	0x12A6, r20
    2378:	50 93 a7 12 	sts	0x12A7, r21
	alphaDH[3]= M_PI_2;
    237c:	80 93 a8 12 	sts	0x12A8, r24
    2380:	90 93 a9 12 	sts	0x12A9, r25
    2384:	a0 93 aa 12 	sts	0x12AA, r26
    2388:	b0 93 ab 12 	sts	0x12AB, r27
	alphaDH[4]= -M_PI_2;
    238c:	20 93 ac 12 	sts	0x12AC, r18
    2390:	30 93 ad 12 	sts	0x12AD, r19
    2394:	40 93 ae 12 	sts	0x12AE, r20
    2398:	50 93 af 12 	sts	0x12AF, r21
	alphaDH[5]= M_PI_2;
    239c:	80 93 b0 12 	sts	0x12B0, r24
    23a0:	90 93 b1 12 	sts	0x12B1, r25
    23a4:	a0 93 b2 12 	sts	0x12B2, r26
    23a8:	b0 93 b3 12 	sts	0x12B3, r27

	thetaDH[1] = M_PI_2;
    23ac:	80 93 b5 11 	sts	0x11B5, r24
    23b0:	90 93 b6 11 	sts	0x11B6, r25
    23b4:	a0 93 b7 11 	sts	0x11B7, r26
    23b8:	b0 93 b8 11 	sts	0x11B8, r27
	thetaDH[2] = -M_PI_2;
    23bc:	20 93 b9 11 	sts	0x11B9, r18
    23c0:	30 93 ba 11 	sts	0x11BA, r19
    23c4:	40 93 bb 11 	sts	0x11BB, r20
    23c8:	50 93 bc 11 	sts	0x11BC, r21

	H[7].value[2][0] = 1;
    23cc:	80 e0       	ldi	r24, 0x00	; 0
    23ce:	90 e0       	ldi	r25, 0x00	; 0
    23d0:	a0 e8       	ldi	r26, 0x80	; 128
    23d2:	bf e3       	ldi	r27, 0x3F	; 63
    23d4:	80 93 91 11 	sts	0x1191, r24
    23d8:	90 93 92 11 	sts	0x1192, r25
    23dc:	a0 93 93 11 	sts	0x1193, r26
    23e0:	b0 93 94 11 	sts	0x1194, r27
	H[7].value[0][1] = 1;
    23e4:	80 93 75 11 	sts	0x1175, r24
    23e8:	90 93 76 11 	sts	0x1176, r25
    23ec:	a0 93 77 11 	sts	0x1177, r26
    23f0:	b0 93 78 11 	sts	0x1178, r27
	H[7].value[1][2] = 1;
    23f4:	80 93 89 11 	sts	0x1189, r24
    23f8:	90 93 8a 11 	sts	0x118A, r25
    23fc:	a0 93 8b 11 	sts	0x118B, r26
    2400:	b0 93 8c 11 	sts	0x118C, r27
	H[7].value[3][3] = 1;
    2404:	80 93 ad 11 	sts	0x11AD, r24
    2408:	90 93 ae 11 	sts	0x11AE, r25
    240c:	a0 93 af 11 	sts	0x11AF, r26
    2410:	b0 93 b0 11 	sts	0x11B0, r27


}
    2414:	df 91       	pop	r29
    2416:	cf 91       	pop	r28
    2418:	1f 91       	pop	r17
    241a:	0f 91       	pop	r16
    241c:	ff 90       	pop	r15
    241e:	ef 90       	pop	r14
    2420:	df 90       	pop	r13
    2422:	cf 90       	pop	r12
    2424:	bf 90       	pop	r11
    2426:	af 90       	pop	r10
    2428:	08 95       	ret

0000242a <CalculateDH>:

void CalculateDH(int desired) // Current 0, Desired 1
{
    242a:	2f 92       	push	r2
    242c:	3f 92       	push	r3
    242e:	4f 92       	push	r4
    2430:	5f 92       	push	r5
    2432:	6f 92       	push	r6
    2434:	7f 92       	push	r7
    2436:	8f 92       	push	r8
    2438:	9f 92       	push	r9
    243a:	af 92       	push	r10
    243c:	bf 92       	push	r11
    243e:	cf 92       	push	r12
    2440:	df 92       	push	r13
    2442:	ef 92       	push	r14
    2444:	ff 92       	push	r15
    2446:	0f 93       	push	r16
    2448:	1f 93       	push	r17
    244a:	df 93       	push	r29
    244c:	cf 93       	push	r28
    244e:	cd b7       	in	r28, 0x3d	; 61
    2450:	de b7       	in	r29, 0x3e	; 62
    2452:	60 97       	sbiw	r28, 0x10	; 16
    2454:	0f b6       	in	r0, 0x3f	; 63
    2456:	f8 94       	cli
    2458:	de bf       	out	0x3e, r29	; 62
    245a:	0f be       	out	0x3f, r0	; 63
    245c:	cd bf       	out	0x3d, r28	; 61
	if(desired==1)
    245e:	81 30       	cpi	r24, 0x01	; 1
    2460:	91 05       	cpc	r25, r1
    2462:	c9 f5       	brne	.+114    	; 0x24d6 <CalculateDH+0xac>
    2464:	84 e6       	ldi	r24, 0x64	; 100
    2466:	92 e1       	ldi	r25, 0x12	; 18
    2468:	01 eb       	ldi	r16, 0xB1	; 177
    246a:	11 e1       	ldi	r17, 0x11	; 17
    246c:	b8 e4       	ldi	r27, 0x48	; 72
    246e:	eb 2e       	mov	r14, r27
    2470:	b2 e1       	ldi	r27, 0x12	; 18
    2472:	fb 2e       	mov	r15, r27
    2474:	5c 01       	movw	r10, r24
	{
		for(int i = 0; i < DOF;i++)
		{
			qDH[i] = desiredQPosition[i] + thetaDH[i];
    2476:	d5 01       	movw	r26, r10
    2478:	6d 91       	ld	r22, X+
    247a:	7d 91       	ld	r23, X+
    247c:	8d 91       	ld	r24, X+
    247e:	9d 91       	ld	r25, X+
    2480:	5d 01       	movw	r10, r26
    2482:	f8 01       	movw	r30, r16
    2484:	21 91       	ld	r18, Z+
    2486:	31 91       	ld	r19, Z+
    2488:	41 91       	ld	r20, Z+
    248a:	51 91       	ld	r21, Z+
    248c:	8f 01       	movw	r16, r30
    248e:	0e 94 9b 3c 	call	0x7936	; 0x7936 <__addsf3>
    2492:	d7 01       	movw	r26, r14
    2494:	6d 93       	st	X+, r22
    2496:	7d 93       	st	X+, r23
    2498:	8d 93       	st	X+, r24
    249a:	9d 93       	st	X+, r25
    249c:	7d 01       	movw	r14, r26

void CalculateDH(int desired) // Current 0, Desired 1
{
	if(desired==1)
	{
		for(int i = 0; i < DOF;i++)
    249e:	b0 e8       	ldi	r27, 0x80	; 128
    24a0:	ab 16       	cp	r10, r27
    24a2:	b2 e1       	ldi	r27, 0x12	; 18
    24a4:	bb 06       	cpc	r11, r27
    24a6:	39 f7       	brne	.-50     	; 0x2476 <CalculateDH+0x4c>
    24a8:	e8 e4       	ldi	r30, 0x48	; 72
    24aa:	f2 e1       	ldi	r31, 0x12	; 18
    24ac:	fc 83       	std	Y+4, r31	; 0x04
    24ae:	eb 83       	std	Y+3, r30	; 0x03
    24b0:	21 eb       	ldi	r18, 0xB1	; 177
    24b2:	3f e0       	ldi	r19, 0x0F	; 15
    24b4:	8c e9       	ldi	r24, 0x9C	; 156
    24b6:	92 e1       	ldi	r25, 0x12	; 18
    24b8:	9e 83       	std	Y+6, r25	; 0x06
    24ba:	8d 83       	std	Y+5, r24	; 0x05
    24bc:	ad ec       	ldi	r26, 0xCD	; 205
    24be:	b1 e1       	ldi	r27, 0x11	; 17
    24c0:	b8 87       	std	Y+8, r27	; 0x08
    24c2:	af 83       	std	Y+7, r26	; 0x07
    24c4:	e3 e5       	ldi	r30, 0x53	; 83
    24c6:	fd e0       	ldi	r31, 0x0D	; 13
    24c8:	fa 87       	std	Y+10, r31	; 0x0a
    24ca:	e9 87       	std	Y+9, r30	; 0x09


}

void CalculateDH(int desired) // Current 0, Desired 1
{
    24cc:	1a 82       	std	Y+2, r1	; 0x02
    24ce:	19 82       	std	Y+1, r1	; 0x01
    24d0:	3c 87       	std	Y+12, r19	; 0x0c
    24d2:	2b 87       	std	Y+11, r18	; 0x0b
    24d4:	23 c0       	rjmp	.+70     	; 0x251c <CalculateDH+0xf2>
	if(desired==1)
	{
		for(int i = 0; i < DOF;i++)
    24d6:	89 ee       	ldi	r24, 0xE9	; 233
    24d8:	91 e1       	ldi	r25, 0x11	; 17
    24da:	01 eb       	ldi	r16, 0xB1	; 177
    24dc:	11 e1       	ldi	r17, 0x11	; 17
    24de:	a8 e4       	ldi	r26, 0x48	; 72
    24e0:	ea 2e       	mov	r14, r26
    24e2:	a2 e1       	ldi	r26, 0x12	; 18
    24e4:	fa 2e       	mov	r15, r26
    24e6:	5c 01       	movw	r10, r24
	}
	else
	{
		for(int i = 0; i < DOF;i++)
		{
			qDH[i] = currentQPosition[i] + thetaDH[i];
    24e8:	d5 01       	movw	r26, r10
    24ea:	6d 91       	ld	r22, X+
    24ec:	7d 91       	ld	r23, X+
    24ee:	8d 91       	ld	r24, X+
    24f0:	9d 91       	ld	r25, X+
    24f2:	5d 01       	movw	r10, r26
    24f4:	f8 01       	movw	r30, r16
    24f6:	21 91       	ld	r18, Z+
    24f8:	31 91       	ld	r19, Z+
    24fa:	41 91       	ld	r20, Z+
    24fc:	51 91       	ld	r21, Z+
    24fe:	8f 01       	movw	r16, r30
    2500:	0e 94 9b 3c 	call	0x7936	; 0x7936 <__addsf3>
    2504:	d7 01       	movw	r26, r14
    2506:	6d 93       	st	X+, r22
    2508:	7d 93       	st	X+, r23
    250a:	8d 93       	st	X+, r24
    250c:	9d 93       	st	X+, r25
    250e:	7d 01       	movw	r14, r26
			qDH[i] = desiredQPosition[i] + thetaDH[i];
		}
	}
	else
	{
		for(int i = 0; i < DOF;i++)
    2510:	b5 e0       	ldi	r27, 0x05	; 5
    2512:	ab 16       	cp	r10, r27
    2514:	b2 e1       	ldi	r27, 0x12	; 18
    2516:	bb 06       	cpc	r11, r27
    2518:	39 f7       	brne	.-50     	; 0x24e8 <CalculateDH+0xbe>
    251a:	c6 cf       	rjmp	.-116    	; 0x24a8 <CalculateDH+0x7e>
	

	for (int i = 0; i < DOF ; i++)
	{
	
		H[i].value[0][0] = cos(qDH[i]);
    251c:	eb 81       	ldd	r30, Y+3	; 0x03
    251e:	fc 81       	ldd	r31, Y+4	; 0x04
    2520:	e1 90       	ld	r14, Z+
    2522:	f1 90       	ld	r15, Z+
    2524:	01 91       	ld	r16, Z+
    2526:	11 91       	ld	r17, Z+
    2528:	fc 83       	std	Y+4, r31	; 0x04
    252a:	eb 83       	std	Y+3, r30	; 0x03
    252c:	c8 01       	movw	r24, r16
    252e:	b7 01       	movw	r22, r14
    2530:	0e 94 7c 3d 	call	0x7af8	; 0x7af8 <cos>
    2534:	5b 01       	movw	r10, r22
    2536:	6c 01       	movw	r12, r24
    2538:	ab 85       	ldd	r26, Y+11	; 0x0b
    253a:	bc 85       	ldd	r27, Y+12	; 0x0c
    253c:	6d 93       	st	X+, r22
    253e:	7d 93       	st	X+, r23
    2540:	8d 93       	st	X+, r24
    2542:	9c 93       	st	X, r25
    2544:	13 97       	sbiw	r26, 0x03	; 3
		H[i].value[0][1] = -sin(qDH[i]) * cos(alphaDH[i]);
    2546:	c8 01       	movw	r24, r16
    2548:	b7 01       	movw	r22, r14
    254a:	0e 94 0e 40 	call	0x801c	; 0x801c <sin>
    254e:	3b 01       	movw	r6, r22
    2550:	4c 01       	movw	r8, r24
    2552:	ed 81       	ldd	r30, Y+5	; 0x05
    2554:	fe 81       	ldd	r31, Y+6	; 0x06
    2556:	e1 90       	ld	r14, Z+
    2558:	f1 90       	ld	r15, Z+
    255a:	01 91       	ld	r16, Z+
    255c:	11 91       	ld	r17, Z+
    255e:	fe 83       	std	Y+6, r31	; 0x06
    2560:	ed 83       	std	Y+5, r30	; 0x05
    2562:	c8 01       	movw	r24, r16
    2564:	b7 01       	movw	r22, r14
    2566:	0e 94 7c 3d 	call	0x7af8	; 0x7af8 <cos>
    256a:	6d 87       	std	Y+13, r22	; 0x0d
    256c:	7e 87       	std	Y+14, r23	; 0x0e
    256e:	8f 87       	std	Y+15, r24	; 0x0f
    2570:	98 8b       	std	Y+16, r25	; 0x10
    2572:	c4 01       	movw	r24, r8
    2574:	b3 01       	movw	r22, r6
    2576:	90 58       	subi	r25, 0x80	; 128
    2578:	2d 85       	ldd	r18, Y+13	; 0x0d
    257a:	3e 85       	ldd	r19, Y+14	; 0x0e
    257c:	4f 85       	ldd	r20, Y+15	; 0x0f
    257e:	58 89       	ldd	r21, Y+16	; 0x10
    2580:	0e 94 5f 3f 	call	0x7ebe	; 0x7ebe <__mulsf3>
    2584:	ab 85       	ldd	r26, Y+11	; 0x0b
    2586:	bc 85       	ldd	r27, Y+12	; 0x0c
    2588:	14 96       	adiw	r26, 0x04	; 4
    258a:	6d 93       	st	X+, r22
    258c:	7d 93       	st	X+, r23
    258e:	8d 93       	st	X+, r24
    2590:	9c 93       	st	X, r25
    2592:	17 97       	sbiw	r26, 0x07	; 7
		H[i].value[0][2] = sin(qDH[i]) * sin(alphaDH[i]);
    2594:	c8 01       	movw	r24, r16
    2596:	b7 01       	movw	r22, r14
    2598:	0e 94 0e 40 	call	0x801c	; 0x801c <sin>
    259c:	7b 01       	movw	r14, r22
    259e:	8c 01       	movw	r16, r24
    25a0:	c4 01       	movw	r24, r8
    25a2:	b3 01       	movw	r22, r6
    25a4:	a8 01       	movw	r20, r16
    25a6:	97 01       	movw	r18, r14
    25a8:	0e 94 5f 3f 	call	0x7ebe	; 0x7ebe <__mulsf3>
    25ac:	eb 85       	ldd	r30, Y+11	; 0x0b
    25ae:	fc 85       	ldd	r31, Y+12	; 0x0c
    25b0:	60 87       	std	Z+8, r22	; 0x08
    25b2:	71 87       	std	Z+9, r23	; 0x09
    25b4:	82 87       	std	Z+10, r24	; 0x0a
    25b6:	93 87       	std	Z+11, r25	; 0x0b
		H[i].value[0][3] = aDH[i] * cos(qDH[i]);
    25b8:	af 81       	ldd	r26, Y+7	; 0x07
    25ba:	b8 85       	ldd	r27, Y+8	; 0x08
    25bc:	2d 90       	ld	r2, X+
    25be:	3d 90       	ld	r3, X+
    25c0:	4d 90       	ld	r4, X+
    25c2:	5d 90       	ld	r5, X+
    25c4:	b8 87       	std	Y+8, r27	; 0x08
    25c6:	af 83       	std	Y+7, r26	; 0x07
    25c8:	c2 01       	movw	r24, r4
    25ca:	b1 01       	movw	r22, r2
    25cc:	a6 01       	movw	r20, r12
    25ce:	95 01       	movw	r18, r10
    25d0:	0e 94 5f 3f 	call	0x7ebe	; 0x7ebe <__mulsf3>
    25d4:	eb 85       	ldd	r30, Y+11	; 0x0b
    25d6:	fc 85       	ldd	r31, Y+12	; 0x0c
    25d8:	64 87       	std	Z+12, r22	; 0x0c
    25da:	75 87       	std	Z+13, r23	; 0x0d
    25dc:	86 87       	std	Z+14, r24	; 0x0e
    25de:	97 87       	std	Z+15, r25	; 0x0f

		H[i].value[1][0] = sin(qDH[i]);
    25e0:	60 8a       	std	Z+16, r6	; 0x10
    25e2:	71 8a       	std	Z+17, r7	; 0x11
    25e4:	82 8a       	std	Z+18, r8	; 0x12
    25e6:	93 8a       	std	Z+19, r9	; 0x13
		H[i].value[1][1] = cos(qDH[i]) * cos(alphaDH[i]);
    25e8:	c6 01       	movw	r24, r12
    25ea:	b5 01       	movw	r22, r10
    25ec:	2d 85       	ldd	r18, Y+13	; 0x0d
    25ee:	3e 85       	ldd	r19, Y+14	; 0x0e
    25f0:	4f 85       	ldd	r20, Y+15	; 0x0f
    25f2:	58 89       	ldd	r21, Y+16	; 0x10
    25f4:	0e 94 5f 3f 	call	0x7ebe	; 0x7ebe <__mulsf3>
    25f8:	eb 85       	ldd	r30, Y+11	; 0x0b
    25fa:	fc 85       	ldd	r31, Y+12	; 0x0c
    25fc:	64 8b       	std	Z+20, r22	; 0x14
    25fe:	75 8b       	std	Z+21, r23	; 0x15
    2600:	86 8b       	std	Z+22, r24	; 0x16
    2602:	97 8b       	std	Z+23, r25	; 0x17
		H[i].value[1][2] = -cos(qDH[i]) * sin(alphaDH[i]);
    2604:	c6 01       	movw	r24, r12
    2606:	b5 01       	movw	r22, r10
    2608:	90 58       	subi	r25, 0x80	; 128
    260a:	a8 01       	movw	r20, r16
    260c:	97 01       	movw	r18, r14
    260e:	0e 94 5f 3f 	call	0x7ebe	; 0x7ebe <__mulsf3>
    2612:	ab 85       	ldd	r26, Y+11	; 0x0b
    2614:	bc 85       	ldd	r27, Y+12	; 0x0c
    2616:	58 96       	adiw	r26, 0x18	; 24
    2618:	6d 93       	st	X+, r22
    261a:	7d 93       	st	X+, r23
    261c:	8d 93       	st	X+, r24
    261e:	9c 93       	st	X, r25
    2620:	5b 97       	sbiw	r26, 0x1b	; 27
		H[i].value[1][3] = aDH[i] * sin(qDH[i]);
    2622:	c2 01       	movw	r24, r4
    2624:	b1 01       	movw	r22, r2
    2626:	a4 01       	movw	r20, r8
    2628:	93 01       	movw	r18, r6
    262a:	0e 94 5f 3f 	call	0x7ebe	; 0x7ebe <__mulsf3>
    262e:	eb 85       	ldd	r30, Y+11	; 0x0b
    2630:	fc 85       	ldd	r31, Y+12	; 0x0c
    2632:	64 8f       	std	Z+28, r22	; 0x1c
    2634:	75 8f       	std	Z+29, r23	; 0x1d
    2636:	86 8f       	std	Z+30, r24	; 0x1e
    2638:	97 8f       	std	Z+31, r25	; 0x1f

		H[i].value[2][1] = sin(alphaDH[i]);
    263a:	e4 a2       	std	Z+36, r14	; 0x24
    263c:	f5 a2       	std	Z+37, r15	; 0x25
    263e:	06 a3       	std	Z+38, r16	; 0x26
    2640:	17 a3       	std	Z+39, r17	; 0x27
		H[i].value[2][2] = cos(alphaDH[i]);
    2642:	8d 85       	ldd	r24, Y+13	; 0x0d
    2644:	9e 85       	ldd	r25, Y+14	; 0x0e
    2646:	af 85       	ldd	r26, Y+15	; 0x0f
    2648:	b8 89       	ldd	r27, Y+16	; 0x10
    264a:	80 a7       	std	Z+40, r24	; 0x28
    264c:	91 a7       	std	Z+41, r25	; 0x29
    264e:	a2 a7       	std	Z+42, r26	; 0x2a
    2650:	b3 a7       	std	Z+43, r27	; 0x2b
		H[i].value[2][3] = dDH[i];
    2652:	e9 85       	ldd	r30, Y+9	; 0x09
    2654:	fa 85       	ldd	r31, Y+10	; 0x0a
    2656:	81 91       	ld	r24, Z+
    2658:	91 91       	ld	r25, Z+
    265a:	a1 91       	ld	r26, Z+
    265c:	b1 91       	ld	r27, Z+
    265e:	fa 87       	std	Y+10, r31	; 0x0a
    2660:	e9 87       	std	Y+9, r30	; 0x09
    2662:	eb 85       	ldd	r30, Y+11	; 0x0b
    2664:	fc 85       	ldd	r31, Y+12	; 0x0c
    2666:	84 a7       	std	Z+44, r24	; 0x2c
    2668:	95 a7       	std	Z+45, r25	; 0x2d
    266a:	a6 a7       	std	Z+46, r26	; 0x2e
    266c:	b7 a7       	std	Z+47, r27	; 0x2f

		H[i].value[3][3] = 1;
    266e:	80 e0       	ldi	r24, 0x00	; 0
    2670:	90 e0       	ldi	r25, 0x00	; 0
    2672:	a0 e8       	ldi	r26, 0x80	; 128
    2674:	bf e3       	ldi	r27, 0x3F	; 63
    2676:	84 af       	std	Z+60, r24	; 0x3c
    2678:	95 af       	std	Z+61, r25	; 0x3d
    267a:	a6 af       	std	Z+62, r26	; 0x3e
    267c:	b7 af       	std	Z+63, r27	; 0x3f
			qDH[i] = currentQPosition[i] + thetaDH[i];
		}
	}
	

	for (int i = 0; i < DOF ; i++)
    267e:	89 81       	ldd	r24, Y+1	; 0x01
    2680:	9a 81       	ldd	r25, Y+2	; 0x02
    2682:	01 96       	adiw	r24, 0x01	; 1
    2684:	9a 83       	std	Y+2, r25	; 0x02
    2686:	89 83       	std	Y+1, r24	; 0x01
    2688:	e0 5c       	subi	r30, 0xC0	; 192
    268a:	ff 4f       	sbci	r31, 0xFF	; 255
    268c:	fc 87       	std	Y+12, r31	; 0x0c
    268e:	eb 87       	std	Y+11, r30	; 0x0b
    2690:	87 30       	cpi	r24, 0x07	; 7
    2692:	91 05       	cpc	r25, r1
    2694:	09 f0       	breq	.+2      	; 0x2698 <CalculateDH+0x26e>
    2696:	42 cf       	rjmp	.-380    	; 0x251c <CalculateDH+0xf2>
		H[i].value[2][3] = dDH[i];

		H[i].value[3][3] = 1;
 
	}
}
    2698:	60 96       	adiw	r28, 0x10	; 16
    269a:	0f b6       	in	r0, 0x3f	; 63
    269c:	f8 94       	cli
    269e:	de bf       	out	0x3e, r29	; 62
    26a0:	0f be       	out	0x3f, r0	; 63
    26a2:	cd bf       	out	0x3d, r28	; 61
    26a4:	cf 91       	pop	r28
    26a6:	df 91       	pop	r29
    26a8:	1f 91       	pop	r17
    26aa:	0f 91       	pop	r16
    26ac:	ff 90       	pop	r15
    26ae:	ef 90       	pop	r14
    26b0:	df 90       	pop	r13
    26b2:	cf 90       	pop	r12
    26b4:	bf 90       	pop	r11
    26b6:	af 90       	pop	r10
    26b8:	9f 90       	pop	r9
    26ba:	8f 90       	pop	r8
    26bc:	7f 90       	pop	r7
    26be:	6f 90       	pop	r6
    26c0:	5f 90       	pop	r5
    26c2:	4f 90       	pop	r4
    26c4:	3f 90       	pop	r3
    26c6:	2f 90       	pop	r2
    26c8:	08 95       	ret

000026ca <CalculateHT>:


void CalculateHT(int desired) // Current 0, Desired 1
{
    26ca:	2f 92       	push	r2
    26cc:	3f 92       	push	r3
    26ce:	4f 92       	push	r4
    26d0:	5f 92       	push	r5
    26d2:	6f 92       	push	r6
    26d4:	8f 92       	push	r8
    26d6:	9f 92       	push	r9
    26d8:	af 92       	push	r10
    26da:	bf 92       	push	r11
    26dc:	cf 92       	push	r12
    26de:	df 92       	push	r13
    26e0:	ef 92       	push	r14
    26e2:	0f 93       	push	r16
    26e4:	1f 93       	push	r17
    26e6:	df 93       	push	r29
    26e8:	cf 93       	push	r28
    26ea:	cd b7       	in	r28, 0x3d	; 61
    26ec:	de b7       	in	r29, 0x3e	; 62
    26ee:	6c 97       	sbiw	r28, 0x1c	; 28
    26f0:	0f b6       	in	r0, 0x3f	; 63
    26f2:	f8 94       	cli
    26f4:	de bf       	out	0x3e, r29	; 62
    26f6:	0f be       	out	0x3f, r0	; 63
    26f8:	cd bf       	out	0x3d, r28	; 61
	CalculateDH(desired);
    26fa:	0e 94 15 12 	call	0x242a	; 0x242a <CalculateDH>

	for(int j = 0;j<4;j++)
	{
		for(int k = 0;k<4;k++)
		{
			H07.value[j][k] = 0;
    26fe:	80 e0       	ldi	r24, 0x00	; 0
    2700:	90 e0       	ldi	r25, 0x00	; 0
    2702:	dc 01       	movw	r26, r24
    2704:	80 93 73 0f 	sts	0x0F73, r24
    2708:	90 93 74 0f 	sts	0x0F74, r25
    270c:	a0 93 75 0f 	sts	0x0F75, r26
    2710:	b0 93 76 0f 	sts	0x0F76, r27
    2714:	80 93 77 0f 	sts	0x0F77, r24
    2718:	90 93 78 0f 	sts	0x0F78, r25
    271c:	a0 93 79 0f 	sts	0x0F79, r26
    2720:	b0 93 7a 0f 	sts	0x0F7A, r27
    2724:	80 93 7b 0f 	sts	0x0F7B, r24
    2728:	90 93 7c 0f 	sts	0x0F7C, r25
    272c:	a0 93 7d 0f 	sts	0x0F7D, r26
    2730:	b0 93 7e 0f 	sts	0x0F7E, r27
    2734:	80 93 7f 0f 	sts	0x0F7F, r24
    2738:	90 93 80 0f 	sts	0x0F80, r25
    273c:	a0 93 81 0f 	sts	0x0F81, r26
    2740:	b0 93 82 0f 	sts	0x0F82, r27
    2744:	80 93 87 0f 	sts	0x0F87, r24
    2748:	90 93 88 0f 	sts	0x0F88, r25
    274c:	a0 93 89 0f 	sts	0x0F89, r26
    2750:	b0 93 8a 0f 	sts	0x0F8A, r27
    2754:	80 93 8b 0f 	sts	0x0F8B, r24
    2758:	90 93 8c 0f 	sts	0x0F8C, r25
    275c:	a0 93 8d 0f 	sts	0x0F8D, r26
    2760:	b0 93 8e 0f 	sts	0x0F8E, r27
    2764:	80 93 8f 0f 	sts	0x0F8F, r24
    2768:	90 93 90 0f 	sts	0x0F90, r25
    276c:	a0 93 91 0f 	sts	0x0F91, r26
    2770:	b0 93 92 0f 	sts	0x0F92, r27
    2774:	80 93 93 0f 	sts	0x0F93, r24
    2778:	90 93 94 0f 	sts	0x0F94, r25
    277c:	a0 93 95 0f 	sts	0x0F95, r26
    2780:	b0 93 96 0f 	sts	0x0F96, r27
    2784:	80 93 9b 0f 	sts	0x0F9B, r24
    2788:	90 93 9c 0f 	sts	0x0F9C, r25
    278c:	a0 93 9d 0f 	sts	0x0F9D, r26
    2790:	b0 93 9e 0f 	sts	0x0F9E, r27
    2794:	80 93 9f 0f 	sts	0x0F9F, r24
    2798:	90 93 a0 0f 	sts	0x0FA0, r25
    279c:	a0 93 a1 0f 	sts	0x0FA1, r26
    27a0:	b0 93 a2 0f 	sts	0x0FA2, r27
    27a4:	80 93 a3 0f 	sts	0x0FA3, r24
    27a8:	90 93 a4 0f 	sts	0x0FA4, r25
    27ac:	a0 93 a5 0f 	sts	0x0FA5, r26
    27b0:	b0 93 a6 0f 	sts	0x0FA6, r27
    27b4:	80 93 a7 0f 	sts	0x0FA7, r24
    27b8:	90 93 a8 0f 	sts	0x0FA8, r25
    27bc:	a0 93 a9 0f 	sts	0x0FA9, r26
    27c0:	b0 93 aa 0f 	sts	0x0FAA, r27
		}
	}

	for(int i = 0;i<4;i++)	// Matriz Identidad
	{
		H07.value[i][i] = 1;
    27c4:	ef e6       	ldi	r30, 0x6F	; 111
    27c6:	ff e0       	ldi	r31, 0x0F	; 15
    27c8:	80 e0       	ldi	r24, 0x00	; 0
    27ca:	90 e0       	ldi	r25, 0x00	; 0
    27cc:	a0 e8       	ldi	r26, 0x80	; 128
    27ce:	bf e3       	ldi	r27, 0x3F	; 63
    27d0:	80 93 6f 0f 	sts	0x0F6F, r24
    27d4:	90 93 70 0f 	sts	0x0F70, r25
    27d8:	a0 93 71 0f 	sts	0x0F71, r26
    27dc:	b0 93 72 0f 	sts	0x0F72, r27
    27e0:	84 8b       	std	Z+20, r24	; 0x14
    27e2:	95 8b       	std	Z+21, r25	; 0x15
    27e4:	a6 8b       	std	Z+22, r26	; 0x16
    27e6:	b7 8b       	std	Z+23, r27	; 0x17
    27e8:	80 a7       	std	Z+40, r24	; 0x28
    27ea:	91 a7       	std	Z+41, r25	; 0x29
    27ec:	a2 a7       	std	Z+42, r26	; 0x2a
    27ee:	b3 a7       	std	Z+43, r27	; 0x2b
    27f0:	84 af       	std	Z+60, r24	; 0x3c
    27f2:	95 af       	std	Z+61, r25	; 0x3d
    27f4:	a6 af       	std	Z+62, r26	; 0x3e
    27f6:	b7 af       	std	Z+63, r27	; 0x3f
    27f8:	88 24       	eor	r8, r8
    27fa:	99 24       	eor	r9, r9
    27fc:	e9 c0       	rjmp	.+466    	; 0x29d0 <CalculateHT+0x306>
			}
			for(int k = 0;k<4;k++)
			{
				for(int l = 0;l<4;l++)
				{
					temp[k] += (H07.value[j][l] * H[i].value[l][k]);
    27fe:	ab 89       	ldd	r26, Y+19	; 0x13
    2800:	bc 89       	ldd	r27, Y+20	; 0x14
    2802:	6d 91       	ld	r22, X+
    2804:	7d 91       	ld	r23, X+
    2806:	8d 91       	ld	r24, X+
    2808:	9d 91       	ld	r25, X+
    280a:	bc 8b       	std	Y+20, r27	; 0x14
    280c:	ab 8b       	std	Y+19, r26	; 0x13
    280e:	f8 01       	movw	r30, r16
    2810:	20 81       	ld	r18, Z
    2812:	31 81       	ldd	r19, Z+1	; 0x01
    2814:	42 81       	ldd	r20, Z+2	; 0x02
    2816:	53 81       	ldd	r21, Z+3	; 0x03
    2818:	0e 94 5f 3f 	call	0x7ebe	; 0x7ebe <__mulsf3>
    281c:	9b 01       	movw	r18, r22
    281e:	ac 01       	movw	r20, r24
    2820:	6e 2d       	mov	r22, r14
    2822:	79 2d       	mov	r23, r9
    2824:	88 2d       	mov	r24, r8
    2826:	96 2d       	mov	r25, r6
    2828:	0e 94 9b 3c 	call	0x7936	; 0x7936 <__addsf3>
    282c:	e6 2e       	mov	r14, r22
    282e:	97 2e       	mov	r9, r23
    2830:	88 2e       	mov	r8, r24
    2832:	69 2e       	mov	r6, r25
    2834:	08 94       	sec
    2836:	41 08       	sbc	r4, r1
    2838:	51 08       	sbc	r5, r1
    283a:	00 5f       	subi	r16, 0xF0	; 240
    283c:	1f 4f       	sbci	r17, 0xFF	; 255
			{
				temp[h] = 0;
			}
			for(int k = 0;k<4;k++)
			{
				for(int l = 0;l<4;l++)
    283e:	41 14       	cp	r4, r1
    2840:	51 04       	cpc	r5, r1
    2842:	e9 f6       	brne	.-70     	; 0x27fe <CalculateHT+0x134>
    2844:	86 2f       	mov	r24, r22
    2846:	99 2d       	mov	r25, r9
    2848:	a8 2d       	mov	r26, r8
    284a:	b6 2d       	mov	r27, r6
    284c:	f6 01       	movw	r30, r12
    284e:	81 93       	st	Z+, r24
    2850:	91 93       	st	Z+, r25
    2852:	a1 93       	st	Z+, r26
    2854:	b1 93       	st	Z+, r27
    2856:	6f 01       	movw	r12, r30
		{	
			for(int h = 0; h <4 ;h++)
			{
				temp[h] = 0;
			}
			for(int k = 0;k<4;k++)
    2858:	08 94       	sec
    285a:	a1 1c       	adc	r10, r1
    285c:	b1 1c       	adc	r11, r1
    285e:	f4 e0       	ldi	r31, 0x04	; 4
    2860:	af 16       	cp	r10, r31
    2862:	b1 04       	cpc	r11, r1
    2864:	e9 f0       	breq	.+58     	; 0x28a0 <CalculateHT+0x1d6>
 
	}
}


void CalculateHT(int desired) // Current 0, Desired 1
    2866:	d6 01       	movw	r26, r12
    2868:	ec 90       	ld	r14, X
    286a:	11 96       	adiw	r26, 0x01	; 1
    286c:	9c 90       	ld	r9, X
    286e:	11 97       	sbiw	r26, 0x01	; 1
    2870:	12 96       	adiw	r26, 0x02	; 2
    2872:	8c 90       	ld	r8, X
    2874:	12 97       	sbiw	r26, 0x02	; 2
    2876:	13 96       	adiw	r26, 0x03	; 3
    2878:	6c 90       	ld	r6, X
    287a:	13 97       	sbiw	r26, 0x03	; 3
    287c:	e9 89       	ldd	r30, Y+17	; 0x11
    287e:	fa 89       	ldd	r31, Y+18	; 0x12
    2880:	fc 8b       	std	Y+20, r31	; 0x14
    2882:	eb 8b       	std	Y+19, r30	; 0x13
    2884:	0d 89       	ldd	r16, Y+21	; 0x15
    2886:	1e 89       	ldd	r17, Y+22	; 0x16
    2888:	0a 0d       	add	r16, r10
    288a:	1b 1d       	adc	r17, r11
    288c:	00 0f       	add	r16, r16
    288e:	11 1f       	adc	r17, r17
    2890:	00 0f       	add	r16, r16
    2892:	11 1f       	adc	r17, r17
    2894:	0f 54       	subi	r16, 0x4F	; 79
    2896:	10 4f       	sbci	r17, 0xF0	; 240
    2898:	54 e0       	ldi	r21, 0x04	; 4
    289a:	45 2e       	mov	r4, r21
    289c:	51 2c       	mov	r5, r1
    289e:	af cf       	rjmp	.-162    	; 0x27fe <CalculateHT+0x134>
    28a0:	4b 8c       	ldd	r4, Y+27	; 0x1b
    28a2:	5c 8c       	ldd	r5, Y+28	; 0x1c
    28a4:	81 01       	movw	r16, r2
					temp[k] += (H07.value[j][l] * H[i].value[l][k]);
				}
			}
			for(int h = 0; h <4 ;h++)
			{
				H07.value[j][h] = temp[h];
    28a6:	89 81       	ldd	r24, Y+1	; 0x01
    28a8:	9a 81       	ldd	r25, Y+2	; 0x02
    28aa:	ab 81       	ldd	r26, Y+3	; 0x03
    28ac:	bc 81       	ldd	r27, Y+4	; 0x04
    28ae:	f1 01       	movw	r30, r2
    28b0:	80 83       	st	Z, r24
    28b2:	91 83       	std	Z+1, r25	; 0x01
    28b4:	a2 83       	std	Z+2, r26	; 0x02
    28b6:	b3 83       	std	Z+3, r27	; 0x03
    28b8:	8d 81       	ldd	r24, Y+5	; 0x05
    28ba:	9e 81       	ldd	r25, Y+6	; 0x06
    28bc:	af 81       	ldd	r26, Y+7	; 0x07
    28be:	b8 85       	ldd	r27, Y+8	; 0x08
    28c0:	84 83       	std	Z+4, r24	; 0x04
    28c2:	95 83       	std	Z+5, r25	; 0x05
    28c4:	a6 83       	std	Z+6, r26	; 0x06
    28c6:	b7 83       	std	Z+7, r27	; 0x07
    28c8:	89 85       	ldd	r24, Y+9	; 0x09
    28ca:	9a 85       	ldd	r25, Y+10	; 0x0a
    28cc:	ab 85       	ldd	r26, Y+11	; 0x0b
    28ce:	bc 85       	ldd	r27, Y+12	; 0x0c
    28d0:	80 87       	std	Z+8, r24	; 0x08
    28d2:	91 87       	std	Z+9, r25	; 0x09
    28d4:	a2 87       	std	Z+10, r26	; 0x0a
    28d6:	b3 87       	std	Z+11, r27	; 0x0b
    28d8:	8d 85       	ldd	r24, Y+13	; 0x0d
    28da:	9e 85       	ldd	r25, Y+14	; 0x0e
    28dc:	af 85       	ldd	r26, Y+15	; 0x0f
    28de:	b8 89       	ldd	r27, Y+16	; 0x10
    28e0:	84 87       	std	Z+12, r24	; 0x0c
    28e2:	95 87       	std	Z+13, r25	; 0x0d
    28e4:	a6 87       	std	Z+14, r26	; 0x0e
    28e6:	b7 87       	std	Z+15, r27	; 0x0f
		H07.value[i][i] = 1;
	}

	for(int i = 0;i<DOF+1;i++)
	{
		for(int j = 0;j<4;j++)
    28e8:	08 94       	sec
    28ea:	41 1c       	adc	r4, r1
    28ec:	51 1c       	adc	r5, r1
    28ee:	00 5f       	subi	r16, 0xF0	; 240
    28f0:	1f 4f       	sbci	r17, 0xFF	; 255
    28f2:	f4 e0       	ldi	r31, 0x04	; 4
    28f4:	4f 16       	cp	r4, r31
    28f6:	51 04       	cpc	r5, r1
    28f8:	39 f1       	breq	.+78     	; 0x2948 <CalculateHT+0x27e>
		{	
			for(int h = 0; h <4 ;h++)
			{
				temp[h] = 0;
    28fa:	80 e0       	ldi	r24, 0x00	; 0
    28fc:	90 e0       	ldi	r25, 0x00	; 0
    28fe:	dc 01       	movw	r26, r24
    2900:	89 83       	std	Y+1, r24	; 0x01
    2902:	9a 83       	std	Y+2, r25	; 0x02
    2904:	ab 83       	std	Y+3, r26	; 0x03
    2906:	bc 83       	std	Y+4, r27	; 0x04
    2908:	8d 83       	std	Y+5, r24	; 0x05
    290a:	9e 83       	std	Y+6, r25	; 0x06
    290c:	af 83       	std	Y+7, r26	; 0x07
    290e:	b8 87       	std	Y+8, r27	; 0x08
    2910:	89 87       	std	Y+9, r24	; 0x09
    2912:	9a 87       	std	Y+10, r25	; 0x0a
    2914:	ab 87       	std	Y+11, r26	; 0x0b
    2916:	bc 87       	std	Y+12, r27	; 0x0c
    2918:	8d 87       	std	Y+13, r24	; 0x0d
    291a:	9e 87       	std	Y+14, r25	; 0x0e
    291c:	af 87       	std	Y+15, r26	; 0x0f
    291e:	b8 8b       	std	Y+16, r27	; 0x10
    2920:	6e 01       	movw	r12, r28
    2922:	08 94       	sec
    2924:	c1 1c       	adc	r12, r1
    2926:	d1 1c       	adc	r13, r1
    2928:	aa 24       	eor	r10, r10
    292a:	bb 24       	eor	r11, r11
 
	}
}


void CalculateHT(int desired) // Current 0, Desired 1
    292c:	d2 01       	movw	r26, r4
    292e:	44 e0       	ldi	r20, 0x04	; 4
    2930:	aa 0f       	add	r26, r26
    2932:	bb 1f       	adc	r27, r27
    2934:	4a 95       	dec	r20
    2936:	e1 f7       	brne	.-8      	; 0x2930 <CalculateHT+0x266>
    2938:	a1 59       	subi	r26, 0x91	; 145
    293a:	b0 4f       	sbci	r27, 0xF0	; 240
    293c:	ba 8b       	std	Y+18, r27	; 0x12
    293e:	a9 8b       	std	Y+17, r26	; 0x11
    2940:	5c 8e       	std	Y+28, r5	; 0x1c
    2942:	4b 8e       	std	Y+27, r4	; 0x1b
    2944:	18 01       	movw	r2, r16
    2946:	8f cf       	rjmp	.-226    	; 0x2866 <CalculateHT+0x19c>
    2948:	8f 88       	ldd	r8, Y+23	; 0x17
    294a:	98 8c       	ldd	r9, Y+24	; 0x18
    294c:	09 8d       	ldd	r16, Y+25	; 0x19
    294e:	1a 8d       	ldd	r17, Y+26	; 0x1a
    2950:	f4 01       	movw	r30, r8
    2952:	36 e0       	ldi	r19, 0x06	; 6
    2954:	ee 0f       	add	r30, r30
    2956:	ff 1f       	adc	r31, r31
    2958:	3a 95       	dec	r19
    295a:	e1 f7       	brne	.-8      	; 0x2954 <CalculateHT+0x28a>
    295c:	e1 59       	subi	r30, 0x91	; 145
    295e:	f2 4f       	sbci	r31, 0xF2	; 242
    2960:	9f 01       	movw	r18, r30
    2962:	f8 01       	movw	r30, r16
		}
		for(int k = 0;k<4;k++)
			{
				for(int l = 0;l<4;l++)
				{
					H0[i].value[k][l] = H07.value[k][l];
    2964:	40 81       	ld	r20, Z
    2966:	51 81       	ldd	r21, Z+1	; 0x01
    2968:	62 81       	ldd	r22, Z+2	; 0x02
    296a:	73 81       	ldd	r23, Z+3	; 0x03
    296c:	d9 01       	movw	r26, r18
    296e:	4d 93       	st	X+, r20
    2970:	5d 93       	st	X+, r21
    2972:	6d 93       	st	X+, r22
    2974:	7c 93       	st	X, r23
    2976:	13 97       	sbiw	r26, 0x03	; 3
    2978:	44 81       	ldd	r20, Z+4	; 0x04
    297a:	55 81       	ldd	r21, Z+5	; 0x05
    297c:	66 81       	ldd	r22, Z+6	; 0x06
    297e:	77 81       	ldd	r23, Z+7	; 0x07
    2980:	14 96       	adiw	r26, 0x04	; 4
    2982:	4d 93       	st	X+, r20
    2984:	5d 93       	st	X+, r21
    2986:	6d 93       	st	X+, r22
    2988:	7c 93       	st	X, r23
    298a:	17 97       	sbiw	r26, 0x07	; 7
    298c:	40 85       	ldd	r20, Z+8	; 0x08
    298e:	51 85       	ldd	r21, Z+9	; 0x09
    2990:	62 85       	ldd	r22, Z+10	; 0x0a
    2992:	73 85       	ldd	r23, Z+11	; 0x0b
    2994:	18 96       	adiw	r26, 0x08	; 8
    2996:	4d 93       	st	X+, r20
    2998:	5d 93       	st	X+, r21
    299a:	6d 93       	st	X+, r22
    299c:	7c 93       	st	X, r23
    299e:	1b 97       	sbiw	r26, 0x0b	; 11
    29a0:	44 85       	ldd	r20, Z+12	; 0x0c
    29a2:	55 85       	ldd	r21, Z+13	; 0x0d
    29a4:	66 85       	ldd	r22, Z+14	; 0x0e
    29a6:	77 85       	ldd	r23, Z+15	; 0x0f
    29a8:	1c 96       	adiw	r26, 0x0c	; 12
    29aa:	4d 93       	st	X+, r20
    29ac:	5d 93       	st	X+, r21
    29ae:	6d 93       	st	X+, r22
    29b0:	7c 93       	st	X, r23
    29b2:	1f 97       	sbiw	r26, 0x0f	; 15
    29b4:	70 96       	adiw	r30, 0x10	; 16
    29b6:	20 5f       	subi	r18, 0xF0	; 240
    29b8:	3f 4f       	sbci	r19, 0xFF	; 255
			for(int h = 0; h <4 ;h++)
			{
				H07.value[j][h] = temp[h];
			}		
		}
		for(int k = 0;k<4;k++)
    29ba:	bf e0       	ldi	r27, 0x0F	; 15
    29bc:	ef 3a       	cpi	r30, 0xAF	; 175
    29be:	fb 07       	cpc	r31, r27
    29c0:	89 f6       	brne	.-94     	; 0x2964 <CalculateHT+0x29a>
	for(int i = 0;i<4;i++)	// Matriz Identidad
	{
		H07.value[i][i] = 1;
	}

	for(int i = 0;i<DOF+1;i++)
    29c2:	08 94       	sec
    29c4:	81 1c       	adc	r8, r1
    29c6:	91 1c       	adc	r9, r1
    29c8:	e8 e0       	ldi	r30, 0x08	; 8
    29ca:	8e 16       	cp	r8, r30
    29cc:	91 04       	cpc	r9, r1
    29ce:	89 f0       	breq	.+34     	; 0x29f2 <CalculateHT+0x328>
    29d0:	0f e6       	ldi	r16, 0x6F	; 111
    29d2:	1f e0       	ldi	r17, 0x0F	; 15
	{
		for(int j = 0;j<4;j++)
		{	
			for(int h = 0; h <4 ;h++)
			{
				temp[h] = 0;
    29d4:	44 24       	eor	r4, r4
    29d6:	55 24       	eor	r5, r5
 
	}
}


void CalculateHT(int desired) // Current 0, Desired 1
    29d8:	c4 01       	movw	r24, r8
    29da:	24 e0       	ldi	r18, 0x04	; 4
    29dc:	88 0f       	add	r24, r24
    29de:	99 1f       	adc	r25, r25
    29e0:	2a 95       	dec	r18
    29e2:	e1 f7       	brne	.-8      	; 0x29dc <CalculateHT+0x312>
    29e4:	9e 8b       	std	Y+22, r25	; 0x16
    29e6:	8d 8b       	std	Y+21, r24	; 0x15
    29e8:	98 8e       	std	Y+24, r9	; 0x18
    29ea:	8f 8a       	std	Y+23, r8	; 0x17
    29ec:	1a 8f       	std	Y+26, r17	; 0x1a
    29ee:	09 8f       	std	Y+25, r16	; 0x19
    29f0:	84 cf       	rjmp	.-248    	; 0x28fa <CalculateHT+0x230>
		//printf("%f \t %f \t %f \t %f \t \n",H0[i][1][0],H0[i][1][1],H0[i][1][2],H0[i][1][3]);
		//printf("%f \t %f \t %f \t %f \t \n",H0[i][2][0],H0[i][2][1],H0[i][2][2],H0[i][2][3]);
		//printf("%f \t %f \t %f \t %f \t \n",H0[i][3][0],H0[i][3][1],H0[i][3][2],H0[i][3][3]);
		//printf(" \n ");
	}
}
    29f2:	6c 96       	adiw	r28, 0x1c	; 28
    29f4:	0f b6       	in	r0, 0x3f	; 63
    29f6:	f8 94       	cli
    29f8:	de bf       	out	0x3e, r29	; 62
    29fa:	0f be       	out	0x3f, r0	; 63
    29fc:	cd bf       	out	0x3d, r28	; 61
    29fe:	cf 91       	pop	r28
    2a00:	df 91       	pop	r29
    2a02:	1f 91       	pop	r17
    2a04:	0f 91       	pop	r16
    2a06:	ef 90       	pop	r14
    2a08:	df 90       	pop	r13
    2a0a:	cf 90       	pop	r12
    2a0c:	bf 90       	pop	r11
    2a0e:	af 90       	pop	r10
    2a10:	9f 90       	pop	r9
    2a12:	8f 90       	pop	r8
    2a14:	6f 90       	pop	r6
    2a16:	5f 90       	pop	r5
    2a18:	4f 90       	pop	r4
    2a1a:	3f 90       	pop	r3
    2a1c:	2f 90       	pop	r2
    2a1e:	08 95       	ret

00002a20 <ForwardKinematics>:


void ForwardKinematics()
{
    2a20:	2f 92       	push	r2
    2a22:	3f 92       	push	r3
    2a24:	4f 92       	push	r4
    2a26:	5f 92       	push	r5
    2a28:	6f 92       	push	r6
    2a2a:	7f 92       	push	r7
    2a2c:	8f 92       	push	r8
    2a2e:	9f 92       	push	r9
    2a30:	af 92       	push	r10
    2a32:	bf 92       	push	r11
    2a34:	cf 92       	push	r12
    2a36:	df 92       	push	r13
    2a38:	ef 92       	push	r14
    2a3a:	ff 92       	push	r15
    2a3c:	0f 93       	push	r16
    2a3e:	1f 93       	push	r17
    2a40:	df 93       	push	r29
    2a42:	cf 93       	push	r28
    2a44:	cd b7       	in	r28, 0x3d	; 61
    2a46:	de b7       	in	r29, 0x3e	; 62
    2a48:	28 97       	sbiw	r28, 0x08	; 8
    2a4a:	0f b6       	in	r0, 0x3f	; 63
    2a4c:	f8 94       	cli
    2a4e:	de bf       	out	0x3e, r29	; 62
    2a50:	0f be       	out	0x3f, r0	; 63
    2a52:	cd bf       	out	0x3d, r28	; 61
	
	CalculateHT(0);
    2a54:	80 e0       	ldi	r24, 0x00	; 0
    2a56:	90 e0       	ldi	r25, 0x00	; 0
    2a58:	0e 94 65 13 	call	0x26ca	; 0x26ca <CalculateHT>
	currentXPosition[0] = H07.value[0][3];
    2a5c:	60 90 7b 0f 	lds	r6, 0x0F7B
    2a60:	70 90 7c 0f 	lds	r7, 0x0F7C
    2a64:	80 90 7d 0f 	lds	r8, 0x0F7D
    2a68:	90 90 7e 0f 	lds	r9, 0x0F7E
    2a6c:	60 92 63 0c 	sts	0x0C63, r6
    2a70:	70 92 64 0c 	sts	0x0C64, r7
    2a74:	80 92 65 0c 	sts	0x0C65, r8
    2a78:	90 92 66 0c 	sts	0x0C66, r9
	currentXPosition[1] = H07.value[1][3];
    2a7c:	20 90 8b 0f 	lds	r2, 0x0F8B
    2a80:	30 90 8c 0f 	lds	r3, 0x0F8C
    2a84:	40 90 8d 0f 	lds	r4, 0x0F8D
    2a88:	50 90 8e 0f 	lds	r5, 0x0F8E
    2a8c:	20 92 67 0c 	sts	0x0C67, r2
    2a90:	30 92 68 0c 	sts	0x0C68, r3
    2a94:	40 92 69 0c 	sts	0x0C69, r4
    2a98:	50 92 6a 0c 	sts	0x0C6A, r5
	currentXPosition[2] = H07.value[2][3];
    2a9c:	60 91 9b 0f 	lds	r22, 0x0F9B
    2aa0:	70 91 9c 0f 	lds	r23, 0x0F9C
    2aa4:	80 91 9d 0f 	lds	r24, 0x0F9D
    2aa8:	90 91 9e 0f 	lds	r25, 0x0F9E
    2aac:	69 83       	std	Y+1, r22	; 0x01
    2aae:	7a 83       	std	Y+2, r23	; 0x02
    2ab0:	8b 83       	std	Y+3, r24	; 0x03
    2ab2:	9c 83       	std	Y+4, r25	; 0x04
    2ab4:	60 93 6b 0c 	sts	0x0C6B, r22
    2ab8:	70 93 6c 0c 	sts	0x0C6C, r23
    2abc:	80 93 6d 0c 	sts	0x0C6D, r24
    2ac0:	90 93 6e 0c 	sts	0x0C6E, r25

	currentXPosition[3] = atan2(H07.value[1][0],H07.value[0][0]);
    2ac4:	60 91 7f 0f 	lds	r22, 0x0F7F
    2ac8:	70 91 80 0f 	lds	r23, 0x0F80
    2acc:	80 91 81 0f 	lds	r24, 0x0F81
    2ad0:	90 91 82 0f 	lds	r25, 0x0F82
    2ad4:	20 91 6f 0f 	lds	r18, 0x0F6F
    2ad8:	30 91 70 0f 	lds	r19, 0x0F70
    2adc:	40 91 71 0f 	lds	r20, 0x0F71
    2ae0:	50 91 72 0f 	lds	r21, 0x0F72
    2ae4:	0e 94 25 3d 	call	0x7a4a	; 0x7a4a <atan2>
    2ae8:	5b 01       	movw	r10, r22
    2aea:	6c 01       	movw	r12, r24
    2aec:	60 93 6f 0c 	sts	0x0C6F, r22
    2af0:	70 93 70 0c 	sts	0x0C70, r23
    2af4:	80 93 71 0c 	sts	0x0C71, r24
    2af8:	90 93 72 0c 	sts	0x0C72, r25
	currentXPosition[4] = atan2(-H07.value[2][0],sqrt(1 - (H07.value[2][0]*H07.value[2][0]) ));
    2afc:	e0 90 8f 0f 	lds	r14, 0x0F8F
    2b00:	f0 90 90 0f 	lds	r15, 0x0F90
    2b04:	00 91 91 0f 	lds	r16, 0x0F91
    2b08:	10 91 92 0f 	lds	r17, 0x0F92
    2b0c:	c8 01       	movw	r24, r16
    2b0e:	b7 01       	movw	r22, r14
    2b10:	a8 01       	movw	r20, r16
    2b12:	97 01       	movw	r18, r14
    2b14:	0e 94 5f 3f 	call	0x7ebe	; 0x7ebe <__mulsf3>
    2b18:	9b 01       	movw	r18, r22
    2b1a:	ac 01       	movw	r20, r24
    2b1c:	60 e0       	ldi	r22, 0x00	; 0
    2b1e:	70 e0       	ldi	r23, 0x00	; 0
    2b20:	80 e8       	ldi	r24, 0x80	; 128
    2b22:	9f e3       	ldi	r25, 0x3F	; 63
    2b24:	0e 94 9a 3c 	call	0x7934	; 0x7934 <__subsf3>
    2b28:	0e 94 18 40 	call	0x8030	; 0x8030 <sqrt>
    2b2c:	9b 01       	movw	r18, r22
    2b2e:	ac 01       	movw	r20, r24
    2b30:	c8 01       	movw	r24, r16
    2b32:	b7 01       	movw	r22, r14
    2b34:	90 58       	subi	r25, 0x80	; 128
    2b36:	0e 94 25 3d 	call	0x7a4a	; 0x7a4a <atan2>
    2b3a:	7b 01       	movw	r14, r22
    2b3c:	8c 01       	movw	r16, r24
    2b3e:	60 93 73 0c 	sts	0x0C73, r22
    2b42:	70 93 74 0c 	sts	0x0C74, r23
    2b46:	80 93 75 0c 	sts	0x0C75, r24
    2b4a:	90 93 76 0c 	sts	0x0C76, r25
	currentXPosition[5] = atan2(H07.value[2][1],H07.value[2][2]);
    2b4e:	60 91 93 0f 	lds	r22, 0x0F93
    2b52:	70 91 94 0f 	lds	r23, 0x0F94
    2b56:	80 91 95 0f 	lds	r24, 0x0F95
    2b5a:	90 91 96 0f 	lds	r25, 0x0F96
    2b5e:	20 91 97 0f 	lds	r18, 0x0F97
    2b62:	30 91 98 0f 	lds	r19, 0x0F98
    2b66:	40 91 99 0f 	lds	r20, 0x0F99
    2b6a:	50 91 9a 0f 	lds	r21, 0x0F9A
    2b6e:	0e 94 25 3d 	call	0x7a4a	; 0x7a4a <atan2>
    2b72:	9b 01       	movw	r18, r22
    2b74:	ac 01       	movw	r20, r24
    2b76:	60 93 77 0c 	sts	0x0C77, r22
    2b7a:	70 93 78 0c 	sts	0x0C78, r23
    2b7e:	80 93 79 0c 	sts	0x0C79, r24
    2b82:	90 93 7a 0c 	sts	0x0C7A, r25

	currentXPosition[6] = currentQPosition[2];
    2b86:	80 91 f1 11 	lds	r24, 0x11F1
    2b8a:	90 91 f2 11 	lds	r25, 0x11F2
    2b8e:	a0 91 f3 11 	lds	r26, 0x11F3
    2b92:	b0 91 f4 11 	lds	r27, 0x11F4
    2b96:	8d 83       	std	Y+5, r24	; 0x05
    2b98:	9e 83       	std	Y+6, r25	; 0x06
    2b9a:	af 83       	std	Y+7, r26	; 0x07
    2b9c:	b8 87       	std	Y+8, r27	; 0x08
    2b9e:	80 93 7b 0c 	sts	0x0C7B, r24
    2ba2:	90 93 7c 0c 	sts	0x0C7C, r25
    2ba6:	a0 93 7d 0c 	sts	0x0C7D, r26
    2baa:	b0 93 7e 0c 	sts	0x0C7E, r27

	if(printPosLoop ==1)
    2bae:	60 91 ea 08 	lds	r22, 0x08EA
    2bb2:	70 91 eb 08 	lds	r23, 0x08EB
    2bb6:	61 30       	cpi	r22, 0x01	; 1
    2bb8:	71 05       	cpc	r23, r1
    2bba:	09 f0       	breq	.+2      	; 0x2bbe <ForwardKinematics+0x19e>
    2bbc:	3f c0       	rjmp	.+126    	; 0x2c3c <ForwardKinematics+0x21c>
	{
	printf("G 1 %f %f %f %f %f %f %f \r",currentXPosition[0],currentXPosition[1],currentXPosition[2],currentXPosition[3],currentXPosition[4],currentXPosition[5],currentXPosition[6]);
    2bbe:	ad b7       	in	r26, 0x3d	; 61
    2bc0:	be b7       	in	r27, 0x3e	; 62
    2bc2:	5e 97       	sbiw	r26, 0x1e	; 30
    2bc4:	0f b6       	in	r0, 0x3f	; 63
    2bc6:	f8 94       	cli
    2bc8:	be bf       	out	0x3e, r27	; 62
    2bca:	0f be       	out	0x3f, r0	; 63
    2bcc:	ad bf       	out	0x3d, r26	; 61
    2bce:	ed b7       	in	r30, 0x3d	; 61
    2bd0:	fe b7       	in	r31, 0x3e	; 62
    2bd2:	31 96       	adiw	r30, 0x01	; 1
    2bd4:	6e ec       	ldi	r22, 0xCE	; 206
    2bd6:	72 e0       	ldi	r23, 0x02	; 2
    2bd8:	12 96       	adiw	r26, 0x02	; 2
    2bda:	7c 93       	st	X, r23
    2bdc:	6e 93       	st	-X, r22
    2bde:	11 97       	sbiw	r26, 0x01	; 1
    2be0:	62 82       	std	Z+2, r6	; 0x02
    2be2:	73 82       	std	Z+3, r7	; 0x03
    2be4:	84 82       	std	Z+4, r8	; 0x04
    2be6:	95 82       	std	Z+5, r9	; 0x05
    2be8:	26 82       	std	Z+6, r2	; 0x06
    2bea:	37 82       	std	Z+7, r3	; 0x07
    2bec:	40 86       	std	Z+8, r4	; 0x08
    2bee:	51 86       	std	Z+9, r5	; 0x09
    2bf0:	69 81       	ldd	r22, Y+1	; 0x01
    2bf2:	7a 81       	ldd	r23, Y+2	; 0x02
    2bf4:	8b 81       	ldd	r24, Y+3	; 0x03
    2bf6:	9c 81       	ldd	r25, Y+4	; 0x04
    2bf8:	62 87       	std	Z+10, r22	; 0x0a
    2bfa:	73 87       	std	Z+11, r23	; 0x0b
    2bfc:	84 87       	std	Z+12, r24	; 0x0c
    2bfe:	95 87       	std	Z+13, r25	; 0x0d
    2c00:	a6 86       	std	Z+14, r10	; 0x0e
    2c02:	b7 86       	std	Z+15, r11	; 0x0f
    2c04:	c0 8a       	std	Z+16, r12	; 0x10
    2c06:	d1 8a       	std	Z+17, r13	; 0x11
    2c08:	e2 8a       	std	Z+18, r14	; 0x12
    2c0a:	f3 8a       	std	Z+19, r15	; 0x13
    2c0c:	04 8b       	std	Z+20, r16	; 0x14
    2c0e:	15 8b       	std	Z+21, r17	; 0x15
    2c10:	26 8b       	std	Z+22, r18	; 0x16
    2c12:	37 8b       	std	Z+23, r19	; 0x17
    2c14:	40 8f       	std	Z+24, r20	; 0x18
    2c16:	51 8f       	std	Z+25, r21	; 0x19
    2c18:	8d 81       	ldd	r24, Y+5	; 0x05
    2c1a:	9e 81       	ldd	r25, Y+6	; 0x06
    2c1c:	af 81       	ldd	r26, Y+7	; 0x07
    2c1e:	b8 85       	ldd	r27, Y+8	; 0x08
    2c20:	82 8f       	std	Z+26, r24	; 0x1a
    2c22:	93 8f       	std	Z+27, r25	; 0x1b
    2c24:	a4 8f       	std	Z+28, r26	; 0x1c
    2c26:	b5 8f       	std	Z+29, r27	; 0x1d
    2c28:	0e 94 63 44 	call	0x88c6	; 0x88c6 <printf>
    2c2c:	ad b7       	in	r26, 0x3d	; 61
    2c2e:	be b7       	in	r27, 0x3e	; 62
    2c30:	5e 96       	adiw	r26, 0x1e	; 30
    2c32:	0f b6       	in	r0, 0x3f	; 63
    2c34:	f8 94       	cli
    2c36:	be bf       	out	0x3e, r27	; 62
    2c38:	0f be       	out	0x3f, r0	; 63
    2c3a:	ad bf       	out	0x3d, r26	; 61
	}

}
    2c3c:	28 96       	adiw	r28, 0x08	; 8
    2c3e:	0f b6       	in	r0, 0x3f	; 63
    2c40:	f8 94       	cli
    2c42:	de bf       	out	0x3e, r29	; 62
    2c44:	0f be       	out	0x3f, r0	; 63
    2c46:	cd bf       	out	0x3d, r28	; 61
    2c48:	cf 91       	pop	r28
    2c4a:	df 91       	pop	r29
    2c4c:	1f 91       	pop	r17
    2c4e:	0f 91       	pop	r16
    2c50:	ff 90       	pop	r15
    2c52:	ef 90       	pop	r14
    2c54:	df 90       	pop	r13
    2c56:	cf 90       	pop	r12
    2c58:	bf 90       	pop	r11
    2c5a:	af 90       	pop	r10
    2c5c:	9f 90       	pop	r9
    2c5e:	8f 90       	pop	r8
    2c60:	7f 90       	pop	r7
    2c62:	6f 90       	pop	r6
    2c64:	5f 90       	pop	r5
    2c66:	4f 90       	pop	r4
    2c68:	3f 90       	pop	r3
    2c6a:	2f 90       	pop	r2
    2c6c:	08 95       	ret

00002c6e <InvH>:

	
}

matrix4 InvH(matrix4 x)
{
    2c6e:	8f 92       	push	r8
    2c70:	9f 92       	push	r9
    2c72:	af 92       	push	r10
    2c74:	bf 92       	push	r11
    2c76:	cf 92       	push	r12
    2c78:	df 92       	push	r13
    2c7a:	ef 92       	push	r14
    2c7c:	ff 92       	push	r15
    2c7e:	0f 93       	push	r16
    2c80:	1f 93       	push	r17
    2c82:	df 93       	push	r29
    2c84:	cf 93       	push	r28
    2c86:	cd b7       	in	r28, 0x3d	; 61
    2c88:	de b7       	in	r29, 0x3e	; 62
    2c8a:	cc 54       	subi	r28, 0x4C	; 76
    2c8c:	d0 40       	sbci	r29, 0x00	; 0
    2c8e:	0f b6       	in	r0, 0x3f	; 63
    2c90:	f8 94       	cli
    2c92:	de bf       	out	0x3e, r29	; 62
    2c94:	0f be       	out	0x3f, r0	; 63
    2c96:	cd bf       	out	0x3d, r28	; 61
    2c98:	f8 2e       	mov	r15, r24
    2c9a:	e9 2e       	mov	r14, r25
	

	
}

matrix4 InvH(matrix4 x)
    2c9c:	fe 01       	movw	r30, r28
    2c9e:	e4 5a       	subi	r30, 0xA4	; 164
    2ca0:	ff 4f       	sbci	r31, 0xFF	; 255
    2ca2:	8e 01       	movw	r16, r28
    2ca4:	03 5f       	subi	r16, 0xF3	; 243
    2ca6:	1f 4f       	sbci	r17, 0xFF	; 255
    2ca8:	ae 01       	movw	r20, r28
    2caa:	44 56       	subi	r20, 0x64	; 100
    2cac:	5f 4f       	sbci	r21, 0xFF	; 255
    2cae:	98 01       	movw	r18, r16

	for(int i = 0; i<4; i++)
	{
		for(int j = 0; j<4; j++)
		{
			hi.value[i][j] = x.value[i][j];
    2cb0:	a0 80       	ld	r10, Z
    2cb2:	b1 80       	ldd	r11, Z+1	; 0x01
    2cb4:	c2 80       	ldd	r12, Z+2	; 0x02
    2cb6:	d3 80       	ldd	r13, Z+3	; 0x03
    2cb8:	d9 01       	movw	r26, r18
    2cba:	ad 92       	st	X+, r10
    2cbc:	bd 92       	st	X+, r11
    2cbe:	cd 92       	st	X+, r12
    2cc0:	dc 92       	st	X, r13
    2cc2:	13 97       	sbiw	r26, 0x03	; 3
    2cc4:	a4 80       	ldd	r10, Z+4	; 0x04
    2cc6:	b5 80       	ldd	r11, Z+5	; 0x05
    2cc8:	c6 80       	ldd	r12, Z+6	; 0x06
    2cca:	d7 80       	ldd	r13, Z+7	; 0x07
    2ccc:	14 96       	adiw	r26, 0x04	; 4
    2cce:	ad 92       	st	X+, r10
    2cd0:	bd 92       	st	X+, r11
    2cd2:	cd 92       	st	X+, r12
    2cd4:	dc 92       	st	X, r13
    2cd6:	17 97       	sbiw	r26, 0x07	; 7
    2cd8:	a0 84       	ldd	r10, Z+8	; 0x08
    2cda:	b1 84       	ldd	r11, Z+9	; 0x09
    2cdc:	c2 84       	ldd	r12, Z+10	; 0x0a
    2cde:	d3 84       	ldd	r13, Z+11	; 0x0b
    2ce0:	18 96       	adiw	r26, 0x08	; 8
    2ce2:	ad 92       	st	X+, r10
    2ce4:	bd 92       	st	X+, r11
    2ce6:	cd 92       	st	X+, r12
    2ce8:	dc 92       	st	X, r13
    2cea:	1b 97       	sbiw	r26, 0x0b	; 11
    2cec:	a4 84       	ldd	r10, Z+12	; 0x0c
    2cee:	b5 84       	ldd	r11, Z+13	; 0x0d
    2cf0:	c6 84       	ldd	r12, Z+14	; 0x0e
    2cf2:	d7 84       	ldd	r13, Z+15	; 0x0f
    2cf4:	1c 96       	adiw	r26, 0x0c	; 12
    2cf6:	ad 92       	st	X+, r10
    2cf8:	bd 92       	st	X+, r11
    2cfa:	cd 92       	st	X+, r12
    2cfc:	dc 92       	st	X, r13
    2cfe:	1f 97       	sbiw	r26, 0x0f	; 15
    2d00:	70 96       	adiw	r30, 0x10	; 16
    2d02:	20 5f       	subi	r18, 0xF0	; 240
    2d04:	3f 4f       	sbci	r19, 0xFF	; 255
{
	matrix4 hi;
	vector3 d;
	float suma;

	for(int i = 0; i<4; i++)
    2d06:	e4 17       	cp	r30, r20
    2d08:	f5 07       	cpc	r31, r21
    2d0a:	91 f6       	brne	.-92     	; 0x2cb0 <InvH+0x42>

	for(int i = 0; i<3; i++)
	{
		for(int j = 0; j<3; j++)
		{
			hi.value[i][j] = x.value[j][i];
    2d0c:	a0 96       	adiw	r28, 0x20	; 32
    2d0e:	8c ad       	ldd	r24, Y+60	; 0x3c
    2d10:	9d ad       	ldd	r25, Y+61	; 0x3d
    2d12:	ae ad       	ldd	r26, Y+62	; 0x3e
    2d14:	bf ad       	ldd	r27, Y+63	; 0x3f
    2d16:	a0 97       	sbiw	r28, 0x20	; 32
    2d18:	8d 87       	std	Y+13, r24	; 0x0d
    2d1a:	9e 87       	std	Y+14, r25	; 0x0e
    2d1c:	af 87       	std	Y+15, r26	; 0x0f
    2d1e:	b8 8b       	std	Y+16, r27	; 0x10
    2d20:	e0 96       	adiw	r28, 0x30	; 48
    2d22:	8c ad       	ldd	r24, Y+60	; 0x3c
    2d24:	9d ad       	ldd	r25, Y+61	; 0x3d
    2d26:	ae ad       	ldd	r26, Y+62	; 0x3e
    2d28:	bf ad       	ldd	r27, Y+63	; 0x3f
    2d2a:	e0 97       	sbiw	r28, 0x30	; 48
    2d2c:	89 8b       	std	Y+17, r24	; 0x11
    2d2e:	9a 8b       	std	Y+18, r25	; 0x12
    2d30:	ab 8b       	std	Y+19, r26	; 0x13
    2d32:	bc 8b       	std	Y+20, r27	; 0x14
    2d34:	c4 58       	subi	r28, 0x84	; 132
    2d36:	df 4f       	sbci	r29, 0xFF	; 255
    2d38:	88 81       	ld	r24, Y
    2d3a:	99 81       	ldd	r25, Y+1	; 0x01
    2d3c:	aa 81       	ldd	r26, Y+2	; 0x02
    2d3e:	bb 81       	ldd	r27, Y+3	; 0x03
    2d40:	cc 57       	subi	r28, 0x7C	; 124
    2d42:	d0 40       	sbci	r29, 0x00	; 0
    2d44:	8d 8b       	std	Y+21, r24	; 0x15
    2d46:	9e 8b       	std	Y+22, r25	; 0x16
    2d48:	af 8b       	std	Y+23, r26	; 0x17
    2d4a:	b8 8f       	std	Y+24, r27	; 0x18
    2d4c:	a4 96       	adiw	r28, 0x24	; 36
    2d4e:	8c ad       	ldd	r24, Y+60	; 0x3c
    2d50:	9d ad       	ldd	r25, Y+61	; 0x3d
    2d52:	ae ad       	ldd	r26, Y+62	; 0x3e
    2d54:	bf ad       	ldd	r27, Y+63	; 0x3f
    2d56:	a4 97       	sbiw	r28, 0x24	; 36
    2d58:	8d 8f       	std	Y+29, r24	; 0x1d
    2d5a:	9e 8f       	std	Y+30, r25	; 0x1e
    2d5c:	af 8f       	std	Y+31, r26	; 0x1f
    2d5e:	b8 a3       	std	Y+32, r27	; 0x20
    2d60:	e4 96       	adiw	r28, 0x34	; 52
    2d62:	8c ad       	ldd	r24, Y+60	; 0x3c
    2d64:	9d ad       	ldd	r25, Y+61	; 0x3d
    2d66:	ae ad       	ldd	r26, Y+62	; 0x3e
    2d68:	bf ad       	ldd	r27, Y+63	; 0x3f
    2d6a:	e4 97       	sbiw	r28, 0x34	; 52
    2d6c:	89 a3       	std	Y+33, r24	; 0x21
    2d6e:	9a a3       	std	Y+34, r25	; 0x22
    2d70:	ab a3       	std	Y+35, r26	; 0x23
    2d72:	bc a3       	std	Y+36, r27	; 0x24
    2d74:	c0 58       	subi	r28, 0x80	; 128
    2d76:	df 4f       	sbci	r29, 0xFF	; 255
    2d78:	88 81       	ld	r24, Y
    2d7a:	99 81       	ldd	r25, Y+1	; 0x01
    2d7c:	aa 81       	ldd	r26, Y+2	; 0x02
    2d7e:	bb 81       	ldd	r27, Y+3	; 0x03
    2d80:	c0 58       	subi	r28, 0x80	; 128
    2d82:	d0 40       	sbci	r29, 0x00	; 0
    2d84:	8d a3       	std	Y+37, r24	; 0x25
    2d86:	9e a3       	std	Y+38, r25	; 0x26
    2d88:	af a3       	std	Y+39, r26	; 0x27
    2d8a:	b8 a7       	std	Y+40, r27	; 0x28
    2d8c:	a8 96       	adiw	r28, 0x28	; 40
    2d8e:	8c ad       	ldd	r24, Y+60	; 0x3c
    2d90:	9d ad       	ldd	r25, Y+61	; 0x3d
    2d92:	ae ad       	ldd	r26, Y+62	; 0x3e
    2d94:	bf ad       	ldd	r27, Y+63	; 0x3f
    2d96:	a8 97       	sbiw	r28, 0x28	; 40
    2d98:	8d a7       	std	Y+45, r24	; 0x2d
    2d9a:	9e a7       	std	Y+46, r25	; 0x2e
    2d9c:	af a7       	std	Y+47, r26	; 0x2f
    2d9e:	b8 ab       	std	Y+48, r27	; 0x30
    2da0:	e8 96       	adiw	r28, 0x38	; 56
    2da2:	8c ad       	ldd	r24, Y+60	; 0x3c
    2da4:	9d ad       	ldd	r25, Y+61	; 0x3d
    2da6:	ae ad       	ldd	r26, Y+62	; 0x3e
    2da8:	bf ad       	ldd	r27, Y+63	; 0x3f
    2daa:	e8 97       	sbiw	r28, 0x38	; 56
    2dac:	89 ab       	std	Y+49, r24	; 0x31
    2dae:	9a ab       	std	Y+50, r25	; 0x32
    2db0:	ab ab       	std	Y+51, r26	; 0x33
    2db2:	bc ab       	std	Y+52, r27	; 0x34
    2db4:	cc 57       	subi	r28, 0x7C	; 124
    2db6:	df 4f       	sbci	r29, 0xFF	; 255
    2db8:	88 81       	ld	r24, Y
    2dba:	99 81       	ldd	r25, Y+1	; 0x01
    2dbc:	aa 81       	ldd	r26, Y+2	; 0x02
    2dbe:	bb 81       	ldd	r27, Y+3	; 0x03
    2dc0:	c4 58       	subi	r28, 0x84	; 132
    2dc2:	d0 40       	sbci	r29, 0x00	; 0
    2dc4:	8d ab       	std	Y+53, r24	; 0x35
    2dc6:	9e ab       	std	Y+54, r25	; 0x36
    2dc8:	af ab       	std	Y+55, r26	; 0x37
    2dca:	b8 af       	std	Y+56, r27	; 0x38
		}
	}

	for(int i = 0; i<3; i++)
	{
		d.value[i] = x.value[i][3];
    2dcc:	ac 96       	adiw	r28, 0x2c	; 44
    2dce:	8c ad       	ldd	r24, Y+60	; 0x3c
    2dd0:	9d ad       	ldd	r25, Y+61	; 0x3d
    2dd2:	ae ad       	ldd	r26, Y+62	; 0x3e
    2dd4:	bf ad       	ldd	r27, Y+63	; 0x3f
    2dd6:	ac 97       	sbiw	r28, 0x2c	; 44
    2dd8:	89 83       	std	Y+1, r24	; 0x01
    2dda:	9a 83       	std	Y+2, r25	; 0x02
    2ddc:	ab 83       	std	Y+3, r26	; 0x03
    2dde:	bc 83       	std	Y+4, r27	; 0x04
    2de0:	ec 96       	adiw	r28, 0x3c	; 60
    2de2:	8c ad       	ldd	r24, Y+60	; 0x3c
    2de4:	9d ad       	ldd	r25, Y+61	; 0x3d
    2de6:	ae ad       	ldd	r26, Y+62	; 0x3e
    2de8:	bf ad       	ldd	r27, Y+63	; 0x3f
    2dea:	ec 97       	sbiw	r28, 0x3c	; 60
    2dec:	8d 83       	std	Y+5, r24	; 0x05
    2dee:	9e 83       	std	Y+6, r25	; 0x06
    2df0:	af 83       	std	Y+7, r26	; 0x07
    2df2:	b8 87       	std	Y+8, r27	; 0x08
    2df4:	c8 57       	subi	r28, 0x78	; 120
    2df6:	df 4f       	sbci	r29, 0xFF	; 255
    2df8:	88 81       	ld	r24, Y
    2dfa:	99 81       	ldd	r25, Y+1	; 0x01
    2dfc:	aa 81       	ldd	r26, Y+2	; 0x02
    2dfe:	bb 81       	ldd	r27, Y+3	; 0x03
    2e00:	c8 58       	subi	r28, 0x88	; 136
    2e02:	d0 40       	sbci	r29, 0x00	; 0
    2e04:	89 87       	std	Y+9, r24	; 0x09
    2e06:	9a 87       	std	Y+10, r25	; 0x0a
    2e08:	ab 87       	std	Y+11, r26	; 0x0b
    2e0a:	bc 87       	std	Y+12, r27	; 0x0c
	

	
}

matrix4 InvH(matrix4 x)
    2e0c:	7d e3       	ldi	r23, 0x3D	; 61
    2e0e:	87 2e       	mov	r8, r23
    2e10:	91 2c       	mov	r9, r1
    2e12:	8c 0e       	add	r8, r28
    2e14:	9d 1e       	adc	r9, r29
	for(int i = 0; i<3; i++)
	{
		suma = 0;
		for(int j= 0; j<3; j++)
		{
			suma = suma + hi.value[i][j] * d.value[j];
    2e16:	f8 01       	movw	r30, r16
    2e18:	60 81       	ld	r22, Z
    2e1a:	71 81       	ldd	r23, Z+1	; 0x01
    2e1c:	82 81       	ldd	r24, Z+2	; 0x02
    2e1e:	93 81       	ldd	r25, Z+3	; 0x03
    2e20:	29 81       	ldd	r18, Y+1	; 0x01
    2e22:	3a 81       	ldd	r19, Y+2	; 0x02
    2e24:	4b 81       	ldd	r20, Y+3	; 0x03
    2e26:	5c 81       	ldd	r21, Y+4	; 0x04
    2e28:	0e 94 5f 3f 	call	0x7ebe	; 0x7ebe <__mulsf3>
    2e2c:	20 e0       	ldi	r18, 0x00	; 0
    2e2e:	30 e0       	ldi	r19, 0x00	; 0
    2e30:	a9 01       	movw	r20, r18
    2e32:	0e 94 9b 3c 	call	0x7936	; 0x7936 <__addsf3>
    2e36:	d6 2e       	mov	r13, r22
    2e38:	c7 2e       	mov	r12, r23
    2e3a:	b8 2e       	mov	r11, r24
    2e3c:	a9 2e       	mov	r10, r25
    2e3e:	d8 01       	movw	r26, r16
    2e40:	14 96       	adiw	r26, 0x04	; 4
    2e42:	6d 91       	ld	r22, X+
    2e44:	7d 91       	ld	r23, X+
    2e46:	8d 91       	ld	r24, X+
    2e48:	9c 91       	ld	r25, X
    2e4a:	17 97       	sbiw	r26, 0x07	; 7
    2e4c:	2d 81       	ldd	r18, Y+5	; 0x05
    2e4e:	3e 81       	ldd	r19, Y+6	; 0x06
    2e50:	4f 81       	ldd	r20, Y+7	; 0x07
    2e52:	58 85       	ldd	r21, Y+8	; 0x08
    2e54:	0e 94 5f 3f 	call	0x7ebe	; 0x7ebe <__mulsf3>
    2e58:	9b 01       	movw	r18, r22
    2e5a:	ac 01       	movw	r20, r24
    2e5c:	d6 01       	movw	r26, r12
    2e5e:	f5 01       	movw	r30, r10
    2e60:	6b 2f       	mov	r22, r27
    2e62:	7a 2f       	mov	r23, r26
    2e64:	8f 2f       	mov	r24, r31
    2e66:	9e 2f       	mov	r25, r30
    2e68:	0e 94 9b 3c 	call	0x7936	; 0x7936 <__addsf3>
    2e6c:	d6 2e       	mov	r13, r22
    2e6e:	c7 2e       	mov	r12, r23
    2e70:	b8 2e       	mov	r11, r24
    2e72:	a9 2e       	mov	r10, r25
    2e74:	f8 01       	movw	r30, r16
    2e76:	60 85       	ldd	r22, Z+8	; 0x08
    2e78:	71 85       	ldd	r23, Z+9	; 0x09
    2e7a:	82 85       	ldd	r24, Z+10	; 0x0a
    2e7c:	93 85       	ldd	r25, Z+11	; 0x0b
    2e7e:	29 85       	ldd	r18, Y+9	; 0x09
    2e80:	3a 85       	ldd	r19, Y+10	; 0x0a
    2e82:	4b 85       	ldd	r20, Y+11	; 0x0b
    2e84:	5c 85       	ldd	r21, Y+12	; 0x0c
    2e86:	0e 94 5f 3f 	call	0x7ebe	; 0x7ebe <__mulsf3>
    2e8a:	9b 01       	movw	r18, r22
    2e8c:	ac 01       	movw	r20, r24
    2e8e:	d6 01       	movw	r26, r12
    2e90:	f5 01       	movw	r30, r10
    2e92:	6b 2f       	mov	r22, r27
    2e94:	7a 2f       	mov	r23, r26
    2e96:	8f 2f       	mov	r24, r31
    2e98:	9e 2f       	mov	r25, r30
    2e9a:	0e 94 9b 3c 	call	0x7936	; 0x7936 <__addsf3>
		}
		hi.value[i][3] = -suma;
    2e9e:	90 58       	subi	r25, 0x80	; 128
    2ea0:	d8 01       	movw	r26, r16
    2ea2:	1c 96       	adiw	r26, 0x0c	; 12
    2ea4:	6d 93       	st	X+, r22
    2ea6:	7d 93       	st	X+, r23
    2ea8:	8d 93       	st	X+, r24
    2eaa:	9c 93       	st	X, r25
    2eac:	1f 97       	sbiw	r26, 0x0f	; 15
    2eae:	00 5f       	subi	r16, 0xF0	; 240
    2eb0:	1f 4f       	sbci	r17, 0xFF	; 255
	{
		d.value[i] = x.value[i][3];

	}

	for(int i = 0; i<3; i++)
    2eb2:	08 15       	cp	r16, r8
    2eb4:	19 05       	cpc	r17, r9
    2eb6:	09 f0       	breq	.+2      	; 0x2eba <InvH+0x24c>
    2eb8:	ae cf       	rjmp	.-164    	; 0x2e16 <InvH+0x1a8>
		{
			suma = suma + hi.value[i][j] * d.value[j];
		}
		hi.value[i][3] = -suma;
	}
	return hi;
    2eba:	97 01       	movw	r18, r14
    2ebc:	83 2f       	mov	r24, r19
    2ebe:	9e 2d       	mov	r25, r14
    2ec0:	dc 01       	movw	r26, r24
    2ec2:	fe 01       	movw	r30, r28
    2ec4:	3d 96       	adiw	r30, 0x0d	; 13
    2ec6:	80 e4       	ldi	r24, 0x40	; 64
    2ec8:	01 90       	ld	r0, Z+
    2eca:	0d 92       	st	X+, r0
    2ecc:	81 50       	subi	r24, 0x01	; 1
    2ece:	e1 f7       	brne	.-8      	; 0x2ec8 <InvH+0x25a>
}
    2ed0:	8f 2d       	mov	r24, r15
    2ed2:	9e 2d       	mov	r25, r14
    2ed4:	c4 5b       	subi	r28, 0xB4	; 180
    2ed6:	df 4f       	sbci	r29, 0xFF	; 255
    2ed8:	0f b6       	in	r0, 0x3f	; 63
    2eda:	f8 94       	cli
    2edc:	de bf       	out	0x3e, r29	; 62
    2ede:	0f be       	out	0x3f, r0	; 63
    2ee0:	cd bf       	out	0x3d, r28	; 61
    2ee2:	cf 91       	pop	r28
    2ee4:	df 91       	pop	r29
    2ee6:	1f 91       	pop	r17
    2ee8:	0f 91       	pop	r16
    2eea:	ff 90       	pop	r15
    2eec:	ef 90       	pop	r14
    2eee:	df 90       	pop	r13
    2ef0:	cf 90       	pop	r12
    2ef2:	bf 90       	pop	r11
    2ef4:	af 90       	pop	r10
    2ef6:	9f 90       	pop	r9
    2ef8:	8f 90       	pop	r8
    2efa:	08 95       	ret

00002efc <InverseKinematics>:
	}

}

int InverseKinematics()
{
    2efc:	2f 92       	push	r2
    2efe:	3f 92       	push	r3
    2f00:	4f 92       	push	r4
    2f02:	5f 92       	push	r5
    2f04:	6f 92       	push	r6
    2f06:	7f 92       	push	r7
    2f08:	8f 92       	push	r8
    2f0a:	9f 92       	push	r9
    2f0c:	af 92       	push	r10
    2f0e:	bf 92       	push	r11
    2f10:	cf 92       	push	r12
    2f12:	df 92       	push	r13
    2f14:	ef 92       	push	r14
    2f16:	ff 92       	push	r15
    2f18:	0f 93       	push	r16
    2f1a:	1f 93       	push	r17
    2f1c:	df 93       	push	r29
    2f1e:	cf 93       	push	r28
    2f20:	cd b7       	in	r28, 0x3d	; 61
    2f22:	de b7       	in	r29, 0x3e	; 62
    2f24:	c4 55       	subi	r28, 0x54	; 84
    2f26:	d1 40       	sbci	r29, 0x01	; 1
    2f28:	0f b6       	in	r0, 0x3f	; 63
    2f2a:	f8 94       	cli
    2f2c:	de bf       	out	0x3e, r29	; 62
    2f2e:	0f be       	out	0x3f, r0	; 63
    2f30:	cd bf       	out	0x3d, r28	; 61
    2f32:	be 01       	movw	r22, r28
    2f34:	6f 5f       	subi	r22, 0xFF	; 255
    2f36:	7f 4f       	sbci	r23, 0xFF	; 255
    2f38:	ae 01       	movw	r20, r28
    2f3a:	4f 5e       	subi	r20, 0xEF	; 239
    2f3c:	5f 4f       	sbci	r21, 0xFF	; 255
    2f3e:	9e 01       	movw	r18, r28
    2f40:	2f 5c       	subi	r18, 0xCF	; 207
    2f42:	3f 4f       	sbci	r19, 0xFF	; 255
    2f44:	fe 01       	movw	r30, r28
    2f46:	ef 50       	subi	r30, 0x0F	; 15
    2f48:	ff 4f       	sbci	r31, 0xFF	; 255
	printf("G 1 %f %f %f %f %f %f %f \r",currentXPosition[0],currentXPosition[1],currentXPosition[2],currentXPosition[3],currentXPosition[4],currentXPosition[5],currentXPosition[6]);
	}

}

int InverseKinematics()
    2f4a:	8a 01       	movw	r16, r20
	vector4 Pelbow;
	

	for(int j = 0;j<4;j++)
		{
			WristPosition.value[j] = 0;
    2f4c:	80 e0       	ldi	r24, 0x00	; 0
    2f4e:	90 e0       	ldi	r25, 0x00	; 0
    2f50:	dc 01       	movw	r26, r24
    2f52:	7f 01       	movw	r14, r30
    2f54:	fb 01       	movw	r30, r22
    2f56:	81 93       	st	Z+, r24
    2f58:	91 93       	st	Z+, r25
    2f5a:	a1 93       	st	Z+, r26
    2f5c:	b1 93       	st	Z+, r27
    2f5e:	bf 01       	movw	r22, r30
			Pelbow.value[j] = 0;
    2f60:	fa 01       	movw	r30, r20
    2f62:	81 93       	st	Z+, r24
    2f64:	91 93       	st	Z+, r25
    2f66:	a1 93       	st	Z+, r26
    2f68:	b1 93       	st	Z+, r27
    2f6a:	af 01       	movw	r20, r30
			for(int k = 0;k<4;k++)
			{
				R07.value[j][k] = 0;
    2f6c:	f9 01       	movw	r30, r18
    2f6e:	80 83       	st	Z, r24
    2f70:	91 83       	std	Z+1, r25	; 0x01
    2f72:	a2 83       	std	Z+2, r26	; 0x02
    2f74:	b3 83       	std	Z+3, r27	; 0x03
				R47.value[j][k] = 0;
				R40.value[j][k] = 0;
				oRe.value[j][k] = 0;
    2f76:	f7 01       	movw	r30, r14
    2f78:	80 83       	st	Z, r24
    2f7a:	91 83       	std	Z+1, r25	; 0x01
    2f7c:	a2 83       	std	Z+2, r26	; 0x02
    2f7e:	b3 83       	std	Z+3, r27	; 0x03
		{
			WristPosition.value[j] = 0;
			Pelbow.value[j] = 0;
			for(int k = 0;k<4;k++)
			{
				R07.value[j][k] = 0;
    2f80:	f9 01       	movw	r30, r18
    2f82:	84 83       	std	Z+4, r24	; 0x04
    2f84:	95 83       	std	Z+5, r25	; 0x05
    2f86:	a6 83       	std	Z+6, r26	; 0x06
    2f88:	b7 83       	std	Z+7, r27	; 0x07
				R47.value[j][k] = 0;
				R40.value[j][k] = 0;
				oRe.value[j][k] = 0;
    2f8a:	f7 01       	movw	r30, r14
    2f8c:	84 83       	std	Z+4, r24	; 0x04
    2f8e:	95 83       	std	Z+5, r25	; 0x05
    2f90:	a6 83       	std	Z+6, r26	; 0x06
    2f92:	b7 83       	std	Z+7, r27	; 0x07
		{
			WristPosition.value[j] = 0;
			Pelbow.value[j] = 0;
			for(int k = 0;k<4;k++)
			{
				R07.value[j][k] = 0;
    2f94:	f9 01       	movw	r30, r18
    2f96:	80 87       	std	Z+8, r24	; 0x08
    2f98:	91 87       	std	Z+9, r25	; 0x09
    2f9a:	a2 87       	std	Z+10, r26	; 0x0a
    2f9c:	b3 87       	std	Z+11, r27	; 0x0b
				R47.value[j][k] = 0;
				R40.value[j][k] = 0;
				oRe.value[j][k] = 0;
    2f9e:	f7 01       	movw	r30, r14
    2fa0:	80 87       	std	Z+8, r24	; 0x08
    2fa2:	91 87       	std	Z+9, r25	; 0x09
    2fa4:	a2 87       	std	Z+10, r26	; 0x0a
    2fa6:	b3 87       	std	Z+11, r27	; 0x0b
		{
			WristPosition.value[j] = 0;
			Pelbow.value[j] = 0;
			for(int k = 0;k<4;k++)
			{
				R07.value[j][k] = 0;
    2fa8:	f9 01       	movw	r30, r18
    2faa:	84 87       	std	Z+12, r24	; 0x0c
    2fac:	95 87       	std	Z+13, r25	; 0x0d
    2fae:	a6 87       	std	Z+14, r26	; 0x0e
    2fb0:	b7 87       	std	Z+15, r27	; 0x0f
				R47.value[j][k] = 0;
				R40.value[j][k] = 0;
				oRe.value[j][k] = 0;
    2fb2:	f7 01       	movw	r30, r14
    2fb4:	84 87       	std	Z+12, r24	; 0x0c
    2fb6:	95 87       	std	Z+13, r25	; 0x0d
    2fb8:	a6 87       	std	Z+14, r26	; 0x0e
    2fba:	b7 87       	std	Z+15, r27	; 0x0f
    2fbc:	20 5f       	subi	r18, 0xF0	; 240
    2fbe:	3f 4f       	sbci	r19, 0xFF	; 255
    2fc0:	e0 e1       	ldi	r30, 0x10	; 16
    2fc2:	f0 e0       	ldi	r31, 0x00	; 0
    2fc4:	ee 0e       	add	r14, r30
    2fc6:	ff 1e       	adc	r15, r31

	vector4 WristPosition;
	vector4 Pelbow;
	

	for(int j = 0;j<4;j++)
    2fc8:	60 17       	cp	r22, r16
    2fca:	71 07       	cpc	r23, r17
    2fcc:	19 f6       	brne	.-122    	; 0x2f54 <InverseKinematics+0x58>
				oRe.value[j][k] = 0;
				
			}
		}

	R07.value[0][0] = cos(desiredXPosition[3]) * cos(desiredXPosition[4]);
    2fce:	c0 90 c4 12 	lds	r12, 0x12C4
    2fd2:	d0 90 c5 12 	lds	r13, 0x12C5
    2fd6:	e0 90 c6 12 	lds	r14, 0x12C6
    2fda:	f0 90 c7 12 	lds	r15, 0x12C7
    2fde:	c7 01       	movw	r24, r14
    2fe0:	b6 01       	movw	r22, r12
    2fe2:	0e 94 7c 3d 	call	0x7af8	; 0x7af8 <cos>
    2fe6:	c7 5c       	subi	r28, 0xC7	; 199
    2fe8:	de 4f       	sbci	r29, 0xFE	; 254
    2fea:	68 83       	st	Y, r22
    2fec:	79 83       	std	Y+1, r23	; 0x01
    2fee:	8a 83       	std	Y+2, r24	; 0x02
    2ff0:	9b 83       	std	Y+3, r25	; 0x03
    2ff2:	c9 53       	subi	r28, 0x39	; 57
    2ff4:	d1 40       	sbci	r29, 0x01	; 1
    2ff6:	40 90 c8 12 	lds	r4, 0x12C8
    2ffa:	50 90 c9 12 	lds	r5, 0x12C9
    2ffe:	60 90 ca 12 	lds	r6, 0x12CA
    3002:	70 90 cb 12 	lds	r7, 0x12CB
    3006:	c3 01       	movw	r24, r6
    3008:	b2 01       	movw	r22, r4
    300a:	0e 94 7c 3d 	call	0x7af8	; 0x7af8 <cos>
    300e:	c3 5c       	subi	r28, 0xC3	; 195
    3010:	de 4f       	sbci	r29, 0xFE	; 254
    3012:	68 83       	st	Y, r22
    3014:	79 83       	std	Y+1, r23	; 0x01
    3016:	8a 83       	std	Y+2, r24	; 0x02
    3018:	9b 83       	std	Y+3, r25	; 0x03
    301a:	cd 53       	subi	r28, 0x3D	; 61
    301c:	d1 40       	sbci	r29, 0x01	; 1
    301e:	c7 5c       	subi	r28, 0xC7	; 199
    3020:	de 4f       	sbci	r29, 0xFE	; 254
    3022:	68 81       	ld	r22, Y
    3024:	79 81       	ldd	r23, Y+1	; 0x01
    3026:	8a 81       	ldd	r24, Y+2	; 0x02
    3028:	9b 81       	ldd	r25, Y+3	; 0x03
    302a:	c9 53       	subi	r28, 0x39	; 57
    302c:	d1 40       	sbci	r29, 0x01	; 1
    302e:	c3 5c       	subi	r28, 0xC3	; 195
    3030:	de 4f       	sbci	r29, 0xFE	; 254
    3032:	28 81       	ld	r18, Y
    3034:	39 81       	ldd	r19, Y+1	; 0x01
    3036:	4a 81       	ldd	r20, Y+2	; 0x02
    3038:	5b 81       	ldd	r21, Y+3	; 0x03
    303a:	cd 53       	subi	r28, 0x3D	; 61
    303c:	d1 40       	sbci	r29, 0x01	; 1
    303e:	0e 94 5f 3f 	call	0x7ebe	; 0x7ebe <__mulsf3>
    3042:	69 ab       	std	Y+49, r22	; 0x31
    3044:	7a ab       	std	Y+50, r23	; 0x32
    3046:	8b ab       	std	Y+51, r24	; 0x33
    3048:	9c ab       	std	Y+52, r25	; 0x34
	R07.value[0][1] = -sin(desiredXPosition[3]) * cos(desiredXPosition[5]) + cos(desiredXPosition[3]) * sin(desiredXPosition[4]) * sin(desiredXPosition[5]);
    304a:	c7 01       	movw	r24, r14
    304c:	b6 01       	movw	r22, r12
    304e:	0e 94 0e 40 	call	0x801c	; 0x801c <sin>
    3052:	4b 01       	movw	r8, r22
    3054:	5c 01       	movw	r10, r24
    3056:	c0 90 cc 12 	lds	r12, 0x12CC
    305a:	d0 90 cd 12 	lds	r13, 0x12CD
    305e:	e0 90 ce 12 	lds	r14, 0x12CE
    3062:	f0 90 cf 12 	lds	r15, 0x12CF
    3066:	c7 01       	movw	r24, r14
    3068:	b6 01       	movw	r22, r12
    306a:	0e 94 7c 3d 	call	0x7af8	; 0x7af8 <cos>
    306e:	cf 5c       	subi	r28, 0xCF	; 207
    3070:	de 4f       	sbci	r29, 0xFE	; 254
    3072:	68 83       	st	Y, r22
    3074:	79 83       	std	Y+1, r23	; 0x01
    3076:	8a 83       	std	Y+2, r24	; 0x02
    3078:	9b 83       	std	Y+3, r25	; 0x03
    307a:	c1 53       	subi	r28, 0x31	; 49
    307c:	d1 40       	sbci	r29, 0x01	; 1
    307e:	c3 01       	movw	r24, r6
    3080:	b2 01       	movw	r22, r4
    3082:	0e 94 0e 40 	call	0x801c	; 0x801c <sin>
    3086:	cb 5c       	subi	r28, 0xCB	; 203
    3088:	de 4f       	sbci	r29, 0xFE	; 254
    308a:	68 83       	st	Y, r22
    308c:	79 83       	std	Y+1, r23	; 0x01
    308e:	8a 83       	std	Y+2, r24	; 0x02
    3090:	9b 83       	std	Y+3, r25	; 0x03
    3092:	c5 53       	subi	r28, 0x35	; 53
    3094:	d1 40       	sbci	r29, 0x01	; 1
    3096:	c7 5c       	subi	r28, 0xC7	; 199
    3098:	de 4f       	sbci	r29, 0xFE	; 254
    309a:	68 81       	ld	r22, Y
    309c:	79 81       	ldd	r23, Y+1	; 0x01
    309e:	8a 81       	ldd	r24, Y+2	; 0x02
    30a0:	9b 81       	ldd	r25, Y+3	; 0x03
    30a2:	c9 53       	subi	r28, 0x39	; 57
    30a4:	d1 40       	sbci	r29, 0x01	; 1
    30a6:	cb 5c       	subi	r28, 0xCB	; 203
    30a8:	de 4f       	sbci	r29, 0xFE	; 254
    30aa:	28 81       	ld	r18, Y
    30ac:	39 81       	ldd	r19, Y+1	; 0x01
    30ae:	4a 81       	ldd	r20, Y+2	; 0x02
    30b0:	5b 81       	ldd	r21, Y+3	; 0x03
    30b2:	c5 53       	subi	r28, 0x35	; 53
    30b4:	d1 40       	sbci	r29, 0x01	; 1
    30b6:	0e 94 5f 3f 	call	0x7ebe	; 0x7ebe <__mulsf3>
    30ba:	16 2f       	mov	r17, r22
    30bc:	07 2f       	mov	r16, r23
    30be:	38 2e       	mov	r3, r24
    30c0:	29 2e       	mov	r2, r25
    30c2:	c7 01       	movw	r24, r14
    30c4:	b6 01       	movw	r22, r12
    30c6:	0e 94 0e 40 	call	0x801c	; 0x801c <sin>
    30ca:	6b 01       	movw	r12, r22
    30cc:	7c 01       	movw	r14, r24
    30ce:	c5 01       	movw	r24, r10
    30d0:	b4 01       	movw	r22, r8
    30d2:	90 58       	subi	r25, 0x80	; 128
    30d4:	cf 5c       	subi	r28, 0xCF	; 207
    30d6:	de 4f       	sbci	r29, 0xFE	; 254
    30d8:	28 81       	ld	r18, Y
    30da:	39 81       	ldd	r19, Y+1	; 0x01
    30dc:	4a 81       	ldd	r20, Y+2	; 0x02
    30de:	5b 81       	ldd	r21, Y+3	; 0x03
    30e0:	c1 53       	subi	r28, 0x31	; 49
    30e2:	d1 40       	sbci	r29, 0x01	; 1
    30e4:	0e 94 5f 3f 	call	0x7ebe	; 0x7ebe <__mulsf3>
    30e8:	2b 01       	movw	r4, r22
    30ea:	3c 01       	movw	r6, r24
    30ec:	a8 01       	movw	r20, r16
    30ee:	91 01       	movw	r18, r2
    30f0:	65 2f       	mov	r22, r21
    30f2:	74 2f       	mov	r23, r20
    30f4:	83 2f       	mov	r24, r19
    30f6:	92 2f       	mov	r25, r18
    30f8:	a7 01       	movw	r20, r14
    30fa:	96 01       	movw	r18, r12
    30fc:	0e 94 5f 3f 	call	0x7ebe	; 0x7ebe <__mulsf3>
    3100:	9b 01       	movw	r18, r22
    3102:	ac 01       	movw	r20, r24
    3104:	c3 01       	movw	r24, r6
    3106:	b2 01       	movw	r22, r4
    3108:	0e 94 9b 3c 	call	0x7936	; 0x7936 <__addsf3>
    310c:	6d ab       	std	Y+53, r22	; 0x35
    310e:	7e ab       	std	Y+54, r23	; 0x36
    3110:	8f ab       	std	Y+55, r24	; 0x37
    3112:	98 af       	std	Y+56, r25	; 0x38
	R07.value[0][2] = sin(desiredXPosition[3]) * sin(desiredXPosition[5]) + cos(desiredXPosition[3]) * sin(desiredXPosition[4]) * cos(desiredXPosition[5]);
    3114:	c5 01       	movw	r24, r10
    3116:	b4 01       	movw	r22, r8
    3118:	a7 01       	movw	r20, r14
    311a:	96 01       	movw	r18, r12
    311c:	0e 94 5f 3f 	call	0x7ebe	; 0x7ebe <__mulsf3>
    3120:	2b 01       	movw	r4, r22
    3122:	3c 01       	movw	r6, r24
    3124:	a8 01       	movw	r20, r16
    3126:	91 01       	movw	r18, r2
    3128:	65 2f       	mov	r22, r21
    312a:	74 2f       	mov	r23, r20
    312c:	83 2f       	mov	r24, r19
    312e:	92 2f       	mov	r25, r18
    3130:	cf 5c       	subi	r28, 0xCF	; 207
    3132:	de 4f       	sbci	r29, 0xFE	; 254
    3134:	28 81       	ld	r18, Y
    3136:	39 81       	ldd	r19, Y+1	; 0x01
    3138:	4a 81       	ldd	r20, Y+2	; 0x02
    313a:	5b 81       	ldd	r21, Y+3	; 0x03
    313c:	c1 53       	subi	r28, 0x31	; 49
    313e:	d1 40       	sbci	r29, 0x01	; 1
    3140:	0e 94 5f 3f 	call	0x7ebe	; 0x7ebe <__mulsf3>
    3144:	9b 01       	movw	r18, r22
    3146:	ac 01       	movw	r20, r24
    3148:	c3 01       	movw	r24, r6
    314a:	b2 01       	movw	r22, r4
    314c:	0e 94 9b 3c 	call	0x7936	; 0x7936 <__addsf3>
    3150:	69 af       	std	Y+57, r22	; 0x39
    3152:	7a af       	std	Y+58, r23	; 0x3a
    3154:	8b af       	std	Y+59, r24	; 0x3b
    3156:	9c af       	std	Y+60, r25	; 0x3c

	R07.value[1][0] = sin(desiredXPosition[3]) * cos(desiredXPosition[4]);
    3158:	c5 01       	movw	r24, r10
    315a:	b4 01       	movw	r22, r8
    315c:	c3 5c       	subi	r28, 0xC3	; 195
    315e:	de 4f       	sbci	r29, 0xFE	; 254
    3160:	28 81       	ld	r18, Y
    3162:	39 81       	ldd	r19, Y+1	; 0x01
    3164:	4a 81       	ldd	r20, Y+2	; 0x02
    3166:	5b 81       	ldd	r21, Y+3	; 0x03
    3168:	cd 53       	subi	r28, 0x3D	; 61
    316a:	d1 40       	sbci	r29, 0x01	; 1
    316c:	0e 94 5f 3f 	call	0x7ebe	; 0x7ebe <__mulsf3>
    3170:	fe 01       	movw	r30, r28
    3172:	ef 5b       	subi	r30, 0xBF	; 191
    3174:	ff 4f       	sbci	r31, 0xFF	; 255
    3176:	60 83       	st	Z, r22
    3178:	71 83       	std	Z+1, r23	; 0x01
    317a:	82 83       	std	Z+2, r24	; 0x02
    317c:	93 83       	std	Z+3, r25	; 0x03
	R07.value[1][1] = cos(desiredXPosition[3]) * cos(desiredXPosition[5]) + sin(desiredXPosition[3]) * sin(desiredXPosition[4]) * sin(desiredXPosition[5]);
    317e:	c5 01       	movw	r24, r10
    3180:	b4 01       	movw	r22, r8
    3182:	cb 5c       	subi	r28, 0xCB	; 203
    3184:	de 4f       	sbci	r29, 0xFE	; 254
    3186:	28 81       	ld	r18, Y
    3188:	39 81       	ldd	r19, Y+1	; 0x01
    318a:	4a 81       	ldd	r20, Y+2	; 0x02
    318c:	5b 81       	ldd	r21, Y+3	; 0x03
    318e:	c5 53       	subi	r28, 0x35	; 53
    3190:	d1 40       	sbci	r29, 0x01	; 1
    3192:	0e 94 5f 3f 	call	0x7ebe	; 0x7ebe <__mulsf3>
    3196:	16 2f       	mov	r17, r22
    3198:	07 2f       	mov	r16, r23
    319a:	88 2e       	mov	r8, r24
    319c:	b9 2e       	mov	r11, r25
    319e:	c7 5c       	subi	r28, 0xC7	; 199
    31a0:	de 4f       	sbci	r29, 0xFE	; 254
    31a2:	68 81       	ld	r22, Y
    31a4:	79 81       	ldd	r23, Y+1	; 0x01
    31a6:	8a 81       	ldd	r24, Y+2	; 0x02
    31a8:	9b 81       	ldd	r25, Y+3	; 0x03
    31aa:	c9 53       	subi	r28, 0x39	; 57
    31ac:	d1 40       	sbci	r29, 0x01	; 1
    31ae:	cf 5c       	subi	r28, 0xCF	; 207
    31b0:	de 4f       	sbci	r29, 0xFE	; 254
    31b2:	28 81       	ld	r18, Y
    31b4:	39 81       	ldd	r19, Y+1	; 0x01
    31b6:	4a 81       	ldd	r20, Y+2	; 0x02
    31b8:	5b 81       	ldd	r21, Y+3	; 0x03
    31ba:	c1 53       	subi	r28, 0x31	; 49
    31bc:	d1 40       	sbci	r29, 0x01	; 1
    31be:	0e 94 5f 3f 	call	0x7ebe	; 0x7ebe <__mulsf3>
    31c2:	2b 01       	movw	r4, r22
    31c4:	3c 01       	movw	r6, r24
    31c6:	a8 01       	movw	r20, r16
    31c8:	65 2f       	mov	r22, r21
    31ca:	74 2f       	mov	r23, r20
    31cc:	88 2d       	mov	r24, r8
    31ce:	9b 2d       	mov	r25, r11
    31d0:	a7 01       	movw	r20, r14
    31d2:	96 01       	movw	r18, r12
    31d4:	0e 94 5f 3f 	call	0x7ebe	; 0x7ebe <__mulsf3>
    31d8:	9b 01       	movw	r18, r22
    31da:	ac 01       	movw	r20, r24
    31dc:	c3 01       	movw	r24, r6
    31de:	b2 01       	movw	r22, r4
    31e0:	0e 94 9b 3c 	call	0x7936	; 0x7936 <__addsf3>
    31e4:	fe 01       	movw	r30, r28
    31e6:	eb 5b       	subi	r30, 0xBB	; 187
    31e8:	ff 4f       	sbci	r31, 0xFF	; 255
    31ea:	60 83       	st	Z, r22
    31ec:	71 83       	std	Z+1, r23	; 0x01
    31ee:	82 83       	std	Z+2, r24	; 0x02
    31f0:	93 83       	std	Z+3, r25	; 0x03
	R07.value[1][2] = -cos(desiredXPosition[3]) * sin(desiredXPosition[5]) + sin(desiredXPosition[3]) * sin(desiredXPosition[4]) * cos(desiredXPosition[5]);
    31f2:	c7 5c       	subi	r28, 0xC7	; 199
    31f4:	de 4f       	sbci	r29, 0xFE	; 254
    31f6:	68 81       	ld	r22, Y
    31f8:	79 81       	ldd	r23, Y+1	; 0x01
    31fa:	8a 81       	ldd	r24, Y+2	; 0x02
    31fc:	9b 81       	ldd	r25, Y+3	; 0x03
    31fe:	c9 53       	subi	r28, 0x39	; 57
    3200:	d1 40       	sbci	r29, 0x01	; 1
    3202:	90 58       	subi	r25, 0x80	; 128
    3204:	a7 01       	movw	r20, r14
    3206:	96 01       	movw	r18, r12
    3208:	0e 94 5f 3f 	call	0x7ebe	; 0x7ebe <__mulsf3>
    320c:	2b 01       	movw	r4, r22
    320e:	3c 01       	movw	r6, r24
    3210:	a8 01       	movw	r20, r16
    3212:	65 2f       	mov	r22, r21
    3214:	74 2f       	mov	r23, r20
    3216:	88 2d       	mov	r24, r8
    3218:	9b 2d       	mov	r25, r11
    321a:	cf 5c       	subi	r28, 0xCF	; 207
    321c:	de 4f       	sbci	r29, 0xFE	; 254
    321e:	28 81       	ld	r18, Y
    3220:	39 81       	ldd	r19, Y+1	; 0x01
    3222:	4a 81       	ldd	r20, Y+2	; 0x02
    3224:	5b 81       	ldd	r21, Y+3	; 0x03
    3226:	c1 53       	subi	r28, 0x31	; 49
    3228:	d1 40       	sbci	r29, 0x01	; 1
    322a:	0e 94 5f 3f 	call	0x7ebe	; 0x7ebe <__mulsf3>
    322e:	9b 01       	movw	r18, r22
    3230:	ac 01       	movw	r20, r24
    3232:	c3 01       	movw	r24, r6
    3234:	b2 01       	movw	r22, r4
    3236:	0e 94 9b 3c 	call	0x7936	; 0x7936 <__addsf3>
    323a:	fe 01       	movw	r30, r28
    323c:	e7 5b       	subi	r30, 0xB7	; 183
    323e:	ff 4f       	sbci	r31, 0xFF	; 255
    3240:	60 83       	st	Z, r22
    3242:	71 83       	std	Z+1, r23	; 0x01
    3244:	82 83       	std	Z+2, r24	; 0x02
    3246:	93 83       	std	Z+3, r25	; 0x03

	R07.value[2][0] = -sin(desiredXPosition[4]);
    3248:	cb 5c       	subi	r28, 0xCB	; 203
    324a:	de 4f       	sbci	r29, 0xFE	; 254
    324c:	88 81       	ld	r24, Y
    324e:	99 81       	ldd	r25, Y+1	; 0x01
    3250:	aa 81       	ldd	r26, Y+2	; 0x02
    3252:	bb 81       	ldd	r27, Y+3	; 0x03
    3254:	c5 53       	subi	r28, 0x35	; 53
    3256:	d1 40       	sbci	r29, 0x01	; 1
    3258:	b0 58       	subi	r27, 0x80	; 128
    325a:	fe 01       	movw	r30, r28
    325c:	ef 5a       	subi	r30, 0xAF	; 175
    325e:	ff 4f       	sbci	r31, 0xFF	; 255
    3260:	80 83       	st	Z, r24
    3262:	91 83       	std	Z+1, r25	; 0x01
    3264:	a2 83       	std	Z+2, r26	; 0x02
    3266:	b3 83       	std	Z+3, r27	; 0x03
	R07.value[2][1] = cos(desiredXPosition[4]) * sin(desiredXPosition[5]);
    3268:	c3 5c       	subi	r28, 0xC3	; 195
    326a:	de 4f       	sbci	r29, 0xFE	; 254
    326c:	68 81       	ld	r22, Y
    326e:	79 81       	ldd	r23, Y+1	; 0x01
    3270:	8a 81       	ldd	r24, Y+2	; 0x02
    3272:	9b 81       	ldd	r25, Y+3	; 0x03
    3274:	cd 53       	subi	r28, 0x3D	; 61
    3276:	d1 40       	sbci	r29, 0x01	; 1
    3278:	a7 01       	movw	r20, r14
    327a:	96 01       	movw	r18, r12
    327c:	0e 94 5f 3f 	call	0x7ebe	; 0x7ebe <__mulsf3>
    3280:	fe 01       	movw	r30, r28
    3282:	eb 5a       	subi	r30, 0xAB	; 171
    3284:	ff 4f       	sbci	r31, 0xFF	; 255
    3286:	60 83       	st	Z, r22
    3288:	71 83       	std	Z+1, r23	; 0x01
    328a:	82 83       	std	Z+2, r24	; 0x02
    328c:	93 83       	std	Z+3, r25	; 0x03
	R07.value[2][2] = cos(desiredXPosition[4]) * cos(desiredXPosition[5]);
    328e:	c3 5c       	subi	r28, 0xC3	; 195
    3290:	de 4f       	sbci	r29, 0xFE	; 254
    3292:	68 81       	ld	r22, Y
    3294:	79 81       	ldd	r23, Y+1	; 0x01
    3296:	8a 81       	ldd	r24, Y+2	; 0x02
    3298:	9b 81       	ldd	r25, Y+3	; 0x03
    329a:	cd 53       	subi	r28, 0x3D	; 61
    329c:	d1 40       	sbci	r29, 0x01	; 1
    329e:	cf 5c       	subi	r28, 0xCF	; 207
    32a0:	de 4f       	sbci	r29, 0xFE	; 254
    32a2:	28 81       	ld	r18, Y
    32a4:	39 81       	ldd	r19, Y+1	; 0x01
    32a6:	4a 81       	ldd	r20, Y+2	; 0x02
    32a8:	5b 81       	ldd	r21, Y+3	; 0x03
    32aa:	c1 53       	subi	r28, 0x31	; 49
    32ac:	d1 40       	sbci	r29, 0x01	; 1
    32ae:	0e 94 5f 3f 	call	0x7ebe	; 0x7ebe <__mulsf3>
    32b2:	fe 01       	movw	r30, r28
    32b4:	e7 5a       	subi	r30, 0xA7	; 167
    32b6:	ff 4f       	sbci	r31, 0xFF	; 255
    32b8:	60 83       	st	Z, r22
    32ba:	71 83       	std	Z+1, r23	; 0x01
    32bc:	82 83       	std	Z+2, r24	; 0x02
    32be:	93 83       	std	Z+3, r25	; 0x03

	R07.value[3][3] = 1;
    32c0:	80 e0       	ldi	r24, 0x00	; 0
    32c2:	90 e0       	ldi	r25, 0x00	; 0
    32c4:	a0 e8       	ldi	r26, 0x80	; 128
    32c6:	bf e3       	ldi	r27, 0x3F	; 63
    32c8:	fe 01       	movw	r30, r28
    32ca:	e3 59       	subi	r30, 0x93	; 147
    32cc:	ff 4f       	sbci	r31, 0xFF	; 255
    32ce:	80 83       	st	Z, r24
    32d0:	91 83       	std	Z+1, r25	; 0x01
    32d2:	a2 83       	std	Z+2, r26	; 0x02
    32d4:	b3 83       	std	Z+3, r27	; 0x03
	//printf(" \n ");




	if(desiredXPosition[6] > M_PI) desiredXPosition[6] -= 2*M_PI;
    32d6:	c0 90 d0 12 	lds	r12, 0x12D0
    32da:	d0 90 d1 12 	lds	r13, 0x12D1
    32de:	e0 90 d2 12 	lds	r14, 0x12D2
    32e2:	f0 90 d3 12 	lds	r15, 0x12D3
    32e6:	c7 01       	movw	r24, r14
    32e8:	b6 01       	movw	r22, r12
    32ea:	2b ed       	ldi	r18, 0xDB	; 219
    32ec:	3f e0       	ldi	r19, 0x0F	; 15
    32ee:	49 e4       	ldi	r20, 0x49	; 73
    32f0:	50 e4       	ldi	r21, 0x40	; 64
    32f2:	0e 94 54 3f 	call	0x7ea8	; 0x7ea8 <__gesf2>
    32f6:	18 16       	cp	r1, r24
    32f8:	84 f4       	brge	.+32     	; 0x331a <InverseKinematics+0x41e>
    32fa:	c7 01       	movw	r24, r14
    32fc:	b6 01       	movw	r22, r12
    32fe:	2b ed       	ldi	r18, 0xDB	; 219
    3300:	3f e0       	ldi	r19, 0x0F	; 15
    3302:	49 ec       	ldi	r20, 0xC9	; 201
    3304:	50 e4       	ldi	r21, 0x40	; 64
    3306:	0e 94 9a 3c 	call	0x7934	; 0x7934 <__subsf3>
    330a:	60 93 d0 12 	sts	0x12D0, r22
    330e:	70 93 d1 12 	sts	0x12D1, r23
    3312:	80 93 d2 12 	sts	0x12D2, r24
    3316:	90 93 d3 12 	sts	0x12D3, r25
	if(desiredXPosition[6] < -M_PI) desiredXPosition[6] += 2*M_PI;
    331a:	c0 90 d0 12 	lds	r12, 0x12D0
    331e:	d0 90 d1 12 	lds	r13, 0x12D1
    3322:	e0 90 d2 12 	lds	r14, 0x12D2
    3326:	f0 90 d3 12 	lds	r15, 0x12D3
    332a:	c7 01       	movw	r24, r14
    332c:	b6 01       	movw	r22, r12
    332e:	2b ed       	ldi	r18, 0xDB	; 219
    3330:	3f e0       	ldi	r19, 0x0F	; 15
    3332:	49 e4       	ldi	r20, 0x49	; 73
    3334:	50 ec       	ldi	r21, 0xC0	; 192
    3336:	0e 94 78 3d 	call	0x7af0	; 0x7af0 <__cmpsf2>
    333a:	87 ff       	sbrs	r24, 7
    333c:	10 c0       	rjmp	.+32     	; 0x335e <InverseKinematics+0x462>
    333e:	c7 01       	movw	r24, r14
    3340:	b6 01       	movw	r22, r12
    3342:	2b ed       	ldi	r18, 0xDB	; 219
    3344:	3f e0       	ldi	r19, 0x0F	; 15
    3346:	49 ec       	ldi	r20, 0xC9	; 201
    3348:	50 e4       	ldi	r21, 0x40	; 64
    334a:	0e 94 9b 3c 	call	0x7936	; 0x7936 <__addsf3>
    334e:	60 93 d0 12 	sts	0x12D0, r22
    3352:	70 93 d1 12 	sts	0x12D1, r23
    3356:	80 93 d2 12 	sts	0x12D2, r24
    335a:	90 93 d3 12 	sts	0x12D3, r25

	//printf("  DesiredXPosition6 \n ");
	//printf(" %f ",desiredXPosition[6]);

	WristPosition.value[0] = dDH[6];
    335e:	80 91 6b 0d 	lds	r24, 0x0D6B
    3362:	90 91 6c 0d 	lds	r25, 0x0D6C
    3366:	a0 91 6d 0d 	lds	r26, 0x0D6D
    336a:	b0 91 6e 0d 	lds	r27, 0x0D6E
    336e:	89 83       	std	Y+1, r24	; 0x01
    3370:	9a 83       	std	Y+2, r25	; 0x02
    3372:	ab 83       	std	Y+3, r26	; 0x03
    3374:	bc 83       	std	Y+4, r27	; 0x04
	WristPosition.value[3] = 1;
    3376:	80 e0       	ldi	r24, 0x00	; 0
    3378:	90 e0       	ldi	r25, 0x00	; 0
    337a:	a0 e8       	ldi	r26, 0x80	; 128
    337c:	bf e3       	ldi	r27, 0x3F	; 63
    337e:	8d 87       	std	Y+13, r24	; 0x0d
    3380:	9e 87       	std	Y+14, r25	; 0x0e
    3382:	af 87       	std	Y+15, r26	; 0x0f
    3384:	b8 8b       	std	Y+16, r27	; 0x10

	WristPosition = multMV(R07,WristPosition);
    3386:	8d b7       	in	r24, 0x3d	; 61
    3388:	9e b7       	in	r25, 0x3e	; 62
    338a:	80 55       	subi	r24, 0x50	; 80
    338c:	90 40       	sbci	r25, 0x00	; 0
    338e:	0f b6       	in	r0, 0x3f	; 63
    3390:	f8 94       	cli
    3392:	9e bf       	out	0x3e, r25	; 62
    3394:	0f be       	out	0x3f, r0	; 63
    3396:	8d bf       	out	0x3d, r24	; 61
    3398:	ad b7       	in	r26, 0x3d	; 61
    339a:	be b7       	in	r27, 0x3e	; 62
    339c:	11 96       	adiw	r26, 0x01	; 1
    339e:	cd 01       	movw	r24, r26
    33a0:	fe 01       	movw	r30, r28
    33a2:	f1 96       	adiw	r30, 0x31	; 49
    33a4:	20 e4       	ldi	r18, 0x40	; 64
    33a6:	ad 01       	movw	r20, r26
    33a8:	01 90       	ld	r0, Z+
    33aa:	dc 01       	movw	r26, r24
    33ac:	0d 92       	st	X+, r0
    33ae:	cd 01       	movw	r24, r26
    33b0:	21 50       	subi	r18, 0x01	; 1
    33b2:	d1 f7       	brne	.-12     	; 0x33a8 <InverseKinematics+0x4ac>
    33b4:	da 01       	movw	r26, r20
    33b6:	a0 5c       	subi	r26, 0xC0	; 192
    33b8:	bf 4f       	sbci	r27, 0xFF	; 255
    33ba:	fe 01       	movw	r30, r28
    33bc:	31 96       	adiw	r30, 0x01	; 1
    33be:	80 e1       	ldi	r24, 0x10	; 16
    33c0:	01 90       	ld	r0, Z+
    33c2:	0d 92       	st	X+, r0
    33c4:	81 50       	subi	r24, 0x01	; 1
    33c6:	e1 f7       	brne	.-8      	; 0x33c0 <InverseKinematics+0x4c4>
    33c8:	ce 01       	movw	r24, r28
    33ca:	01 96       	adiw	r24, 0x01	; 1
    33cc:	0e 94 ed 0e 	call	0x1dda	; 0x1dda <multMV>

	

	//printf("WP  %f %f %f %f \n\r",WristPosition.value[0],WristPosition.value[1],WristPosition.value[2],WristPosition.value[3]);

	desiredXPosition[0] = desiredXPosition[0] - WristPosition.value[0];
    33d0:	60 91 b8 12 	lds	r22, 0x12B8
    33d4:	70 91 b9 12 	lds	r23, 0x12B9
    33d8:	80 91 ba 12 	lds	r24, 0x12BA
    33dc:	90 91 bb 12 	lds	r25, 0x12BB
    33e0:	29 81       	ldd	r18, Y+1	; 0x01
    33e2:	3a 81       	ldd	r19, Y+2	; 0x02
    33e4:	4b 81       	ldd	r20, Y+3	; 0x03
    33e6:	5c 81       	ldd	r21, Y+4	; 0x04
    33e8:	0e 94 9a 3c 	call	0x7934	; 0x7934 <__subsf3>
    33ec:	86 2e       	mov	r8, r22
    33ee:	c7 2e       	mov	r12, r23
    33f0:	8c 01       	movw	r16, r24
	desiredXPosition[1] = desiredXPosition[1] - WristPosition.value[1];
    33f2:	60 91 bc 12 	lds	r22, 0x12BC
    33f6:	70 91 bd 12 	lds	r23, 0x12BD
    33fa:	80 91 be 12 	lds	r24, 0x12BE
    33fe:	90 91 bf 12 	lds	r25, 0x12BF
    3402:	2d 81       	ldd	r18, Y+5	; 0x05
    3404:	3e 81       	ldd	r19, Y+6	; 0x06
    3406:	4f 81       	ldd	r20, Y+7	; 0x07
    3408:	58 85       	ldd	r21, Y+8	; 0x08
    340a:	0e 94 9a 3c 	call	0x7934	; 0x7934 <__subsf3>
    340e:	f6 2e       	mov	r15, r22
    3410:	b7 2e       	mov	r11, r23
    3412:	a8 2e       	mov	r10, r24
    3414:	d9 2e       	mov	r13, r25
	desiredXPosition[2] = desiredXPosition[2] - WristPosition.value[2];
    3416:	60 91 c0 12 	lds	r22, 0x12C0
    341a:	70 91 c1 12 	lds	r23, 0x12C1
    341e:	80 91 c2 12 	lds	r24, 0x12C2
    3422:	90 91 c3 12 	lds	r25, 0x12C3
    3426:	29 85       	ldd	r18, Y+9	; 0x09
    3428:	3a 85       	ldd	r19, Y+10	; 0x0a
    342a:	4b 85       	ldd	r20, Y+11	; 0x0b
    342c:	5c 85       	ldd	r21, Y+12	; 0x0c
    342e:	0e 94 9a 3c 	call	0x7934	; 0x7934 <__subsf3>
    3432:	36 2e       	mov	r3, r22
    3434:	27 2e       	mov	r2, r23
    3436:	cf 5c       	subi	r28, 0xCF	; 207
    3438:	de 4f       	sbci	r29, 0xFE	; 254
    343a:	88 83       	st	Y, r24
    343c:	c1 53       	subi	r28, 0x31	; 49
    343e:	d1 40       	sbci	r29, 0x01	; 1
    3440:	cb 5c       	subi	r28, 0xCB	; 203
    3442:	de 4f       	sbci	r29, 0xFE	; 254
    3444:	98 83       	st	Y, r25
    3446:	c5 53       	subi	r28, 0x35	; 53
    3448:	d1 40       	sbci	r29, 0x01	; 1
    344a:	a1 01       	movw	r20, r2
    344c:	38 2f       	mov	r19, r24
    344e:	29 2f       	mov	r18, r25
    3450:	85 2f       	mov	r24, r21
    3452:	94 2f       	mov	r25, r20
    3454:	a3 2f       	mov	r26, r19
    3456:	b2 2f       	mov	r27, r18
    3458:	80 93 c0 12 	sts	0x12C0, r24
    345c:	90 93 c1 12 	sts	0x12C1, r25
    3460:	a0 93 c2 12 	sts	0x12C2, r26
    3464:	b0 93 c3 12 	sts	0x12C3, r27

	//printf("d x %f %f %f %f %f %f %f \n\r",desiredXPosition[0],desiredXPosition[1],desiredXPosition[2],desiredXPosition[3],desiredXPosition[4],desiredXPosition[5],desiredXPosition[6]);

	WristPosition.value[0] = desiredXPosition[0];
    3468:	88 2d       	mov	r24, r8
    346a:	9c 2d       	mov	r25, r12
    346c:	a0 2f       	mov	r26, r16
    346e:	b1 2f       	mov	r27, r17
    3470:	89 83       	std	Y+1, r24	; 0x01
    3472:	9a 83       	std	Y+2, r25	; 0x02
    3474:	ab 83       	std	Y+3, r26	; 0x03
    3476:	bc 83       	std	Y+4, r27	; 0x04
	WristPosition.value[1] = desiredXPosition[1];
    3478:	8f 2d       	mov	r24, r15
    347a:	9b 2d       	mov	r25, r11
    347c:	aa 2d       	mov	r26, r10
    347e:	bd 2d       	mov	r27, r13
    3480:	8d 83       	std	Y+5, r24	; 0x05
    3482:	9e 83       	std	Y+6, r25	; 0x06
    3484:	af 83       	std	Y+7, r26	; 0x07
    3486:	b8 87       	std	Y+8, r27	; 0x08
	WristPosition.value[2] = desiredXPosition[2];
    3488:	a1 01       	movw	r20, r2
    348a:	cf 5c       	subi	r28, 0xCF	; 207
    348c:	de 4f       	sbci	r29, 0xFE	; 254
    348e:	38 81       	ld	r19, Y
    3490:	c1 53       	subi	r28, 0x31	; 49
    3492:	d1 40       	sbci	r29, 0x01	; 1
    3494:	cb 5c       	subi	r28, 0xCB	; 203
    3496:	de 4f       	sbci	r29, 0xFE	; 254
    3498:	28 81       	ld	r18, Y
    349a:	c5 53       	subi	r28, 0x35	; 53
    349c:	d1 40       	sbci	r29, 0x01	; 1
    349e:	85 2f       	mov	r24, r21
    34a0:	94 2f       	mov	r25, r20
    34a2:	a3 2f       	mov	r26, r19
    34a4:	b2 2f       	mov	r27, r18
    34a6:	89 87       	std	Y+9, r24	; 0x09
    34a8:	9a 87       	std	Y+10, r25	; 0x0a
    34aa:	ab 87       	std	Y+11, r26	; 0x0b
    34ac:	bc 87       	std	Y+12, r27	; 0x0c
	WristPosition.value[3] = 1;
    34ae:	80 e0       	ldi	r24, 0x00	; 0
    34b0:	90 e0       	ldi	r25, 0x00	; 0
    34b2:	a0 e8       	ldi	r26, 0x80	; 128
    34b4:	bf e3       	ldi	r27, 0x3F	; 63
    34b6:	8d 87       	std	Y+13, r24	; 0x0d
    34b8:	9e 87       	std	Y+14, r25	; 0x0e
    34ba:	af 87       	std	Y+15, r26	; 0x0f
    34bc:	b8 8b       	std	Y+16, r27	; 0x10

	

	desiredQPosition[0] = atan2(desiredXPosition[1],desiredXPosition[0]);
    34be:	ad b7       	in	r26, 0x3d	; 61
    34c0:	be b7       	in	r27, 0x3e	; 62
    34c2:	a0 5b       	subi	r26, 0xB0	; 176
    34c4:	bf 4f       	sbci	r27, 0xFF	; 255
    34c6:	0f b6       	in	r0, 0x3f	; 63
    34c8:	f8 94       	cli
    34ca:	be bf       	out	0x3e, r27	; 62
    34cc:	0f be       	out	0x3f, r0	; 63
    34ce:	ad bf       	out	0x3d, r26	; 61
    34d0:	6f 2d       	mov	r22, r15
    34d2:	7b 2d       	mov	r23, r11
    34d4:	8a 2d       	mov	r24, r10
    34d6:	9d 2d       	mov	r25, r13
    34d8:	28 2d       	mov	r18, r8
    34da:	3c 2d       	mov	r19, r12
    34dc:	40 2f       	mov	r20, r16
    34de:	51 2f       	mov	r21, r17
    34e0:	0e 94 25 3d 	call	0x7a4a	; 0x7a4a <atan2>
    34e4:	2b 01       	movw	r4, r22
    34e6:	3c 01       	movw	r6, r24
    34e8:	60 93 64 12 	sts	0x1264, r22
    34ec:	70 93 65 12 	sts	0x1265, r23
    34f0:	80 93 66 12 	sts	0x1266, r24
    34f4:	90 93 67 12 	sts	0x1267, r25

	//CORRECCION
	desiredXPosition[0] = desiredXPosition[0] -  aDH[0] * cos(desiredQPosition[0]);
    34f8:	80 91 cd 11 	lds	r24, 0x11CD
    34fc:	90 91 ce 11 	lds	r25, 0x11CE
    3500:	a0 91 cf 11 	lds	r26, 0x11CF
    3504:	b0 91 d0 11 	lds	r27, 0x11D0
    3508:	cb 5b       	subi	r28, 0xBB	; 187
    350a:	de 4f       	sbci	r29, 0xFE	; 254
    350c:	88 83       	st	Y, r24
    350e:	99 83       	std	Y+1, r25	; 0x01
    3510:	aa 83       	std	Y+2, r26	; 0x02
    3512:	bb 83       	std	Y+3, r27	; 0x03
    3514:	c5 54       	subi	r28, 0x45	; 69
    3516:	d1 40       	sbci	r29, 0x01	; 1
    3518:	c3 01       	movw	r24, r6
    351a:	b2 01       	movw	r22, r4
    351c:	0e 94 7c 3d 	call	0x7af8	; 0x7af8 <cos>
    3520:	c7 5c       	subi	r28, 0xC7	; 199
    3522:	de 4f       	sbci	r29, 0xFE	; 254
    3524:	68 83       	st	Y, r22
    3526:	79 83       	std	Y+1, r23	; 0x01
    3528:	8a 83       	std	Y+2, r24	; 0x02
    352a:	9b 83       	std	Y+3, r25	; 0x03
    352c:	c9 53       	subi	r28, 0x39	; 57
    352e:	d1 40       	sbci	r29, 0x01	; 1
    3530:	cb 5b       	subi	r28, 0xBB	; 187
    3532:	de 4f       	sbci	r29, 0xFE	; 254
    3534:	68 81       	ld	r22, Y
    3536:	79 81       	ldd	r23, Y+1	; 0x01
    3538:	8a 81       	ldd	r24, Y+2	; 0x02
    353a:	9b 81       	ldd	r25, Y+3	; 0x03
    353c:	c5 54       	subi	r28, 0x45	; 69
    353e:	d1 40       	sbci	r29, 0x01	; 1
    3540:	c7 5c       	subi	r28, 0xC7	; 199
    3542:	de 4f       	sbci	r29, 0xFE	; 254
    3544:	28 81       	ld	r18, Y
    3546:	39 81       	ldd	r19, Y+1	; 0x01
    3548:	4a 81       	ldd	r20, Y+2	; 0x02
    354a:	5b 81       	ldd	r21, Y+3	; 0x03
    354c:	c9 53       	subi	r28, 0x39	; 57
    354e:	d1 40       	sbci	r29, 0x01	; 1
    3550:	0e 94 5f 3f 	call	0x7ebe	; 0x7ebe <__mulsf3>
    3554:	c3 5b       	subi	r28, 0xB3	; 179
    3556:	de 4f       	sbci	r29, 0xFE	; 254
    3558:	68 83       	st	Y, r22
    355a:	cd 54       	subi	r28, 0x4D	; 77
    355c:	d1 40       	sbci	r29, 0x01	; 1
    355e:	c2 5b       	subi	r28, 0xB2	; 178
    3560:	de 4f       	sbci	r29, 0xFE	; 254
    3562:	78 83       	st	Y, r23
    3564:	ce 54       	subi	r28, 0x4E	; 78
    3566:	d1 40       	sbci	r29, 0x01	; 1
    3568:	c1 5b       	subi	r28, 0xB1	; 177
    356a:	de 4f       	sbci	r29, 0xFE	; 254
    356c:	88 83       	st	Y, r24
    356e:	cf 54       	subi	r28, 0x4F	; 79
    3570:	d1 40       	sbci	r29, 0x01	; 1
    3572:	c0 5b       	subi	r28, 0xB0	; 176
    3574:	de 4f       	sbci	r29, 0xFE	; 254
    3576:	98 83       	st	Y, r25
    3578:	c0 55       	subi	r28, 0x50	; 80
    357a:	d1 40       	sbci	r29, 0x01	; 1
    357c:	68 2d       	mov	r22, r8
    357e:	7c 2d       	mov	r23, r12
    3580:	80 2f       	mov	r24, r16
    3582:	91 2f       	mov	r25, r17
    3584:	c3 5b       	subi	r28, 0xB3	; 179
    3586:	de 4f       	sbci	r29, 0xFE	; 254
    3588:	b8 81       	ld	r27, Y
    358a:	cd 54       	subi	r28, 0x4D	; 77
    358c:	d1 40       	sbci	r29, 0x01	; 1
    358e:	c2 5b       	subi	r28, 0xB2	; 178
    3590:	de 4f       	sbci	r29, 0xFE	; 254
    3592:	a8 81       	ld	r26, Y
    3594:	ce 54       	subi	r28, 0x4E	; 78
    3596:	d1 40       	sbci	r29, 0x01	; 1
    3598:	c1 5b       	subi	r28, 0xB1	; 177
    359a:	de 4f       	sbci	r29, 0xFE	; 254
    359c:	f8 81       	ld	r31, Y
    359e:	cf 54       	subi	r28, 0x4F	; 79
    35a0:	d1 40       	sbci	r29, 0x01	; 1
    35a2:	c0 5b       	subi	r28, 0xB0	; 176
    35a4:	de 4f       	sbci	r29, 0xFE	; 254
    35a6:	e8 81       	ld	r30, Y
    35a8:	c0 55       	subi	r28, 0x50	; 80
    35aa:	d1 40       	sbci	r29, 0x01	; 1
    35ac:	2b 2f       	mov	r18, r27
    35ae:	3a 2f       	mov	r19, r26
    35b0:	4f 2f       	mov	r20, r31
    35b2:	5e 2f       	mov	r21, r30
    35b4:	0e 94 9a 3c 	call	0x7934	; 0x7934 <__subsf3>
    35b8:	c6 2e       	mov	r12, r22
    35ba:	87 2e       	mov	r8, r23
    35bc:	e8 2e       	mov	r14, r24
    35be:	99 2e       	mov	r9, r25
    35c0:	86 2f       	mov	r24, r22
    35c2:	98 2d       	mov	r25, r8
    35c4:	ae 2d       	mov	r26, r14
    35c6:	b9 2d       	mov	r27, r9
    35c8:	80 93 b8 12 	sts	0x12B8, r24
    35cc:	90 93 b9 12 	sts	0x12B9, r25
    35d0:	a0 93 ba 12 	sts	0x12BA, r26
    35d4:	b0 93 bb 12 	sts	0x12BB, r27
	desiredXPosition[1] = desiredXPosition[1] -  aDH[0] * sin(desiredQPosition[0]);
    35d8:	c3 01       	movw	r24, r6
    35da:	b2 01       	movw	r22, r4
    35dc:	0e 94 0e 40 	call	0x801c	; 0x801c <sin>
    35e0:	c3 5c       	subi	r28, 0xC3	; 195
    35e2:	de 4f       	sbci	r29, 0xFE	; 254
    35e4:	68 83       	st	Y, r22
    35e6:	79 83       	std	Y+1, r23	; 0x01
    35e8:	8a 83       	std	Y+2, r24	; 0x02
    35ea:	9b 83       	std	Y+3, r25	; 0x03
    35ec:	cd 53       	subi	r28, 0x3D	; 61
    35ee:	d1 40       	sbci	r29, 0x01	; 1
    35f0:	cb 5b       	subi	r28, 0xBB	; 187
    35f2:	de 4f       	sbci	r29, 0xFE	; 254
    35f4:	68 81       	ld	r22, Y
    35f6:	79 81       	ldd	r23, Y+1	; 0x01
    35f8:	8a 81       	ldd	r24, Y+2	; 0x02
    35fa:	9b 81       	ldd	r25, Y+3	; 0x03
    35fc:	c5 54       	subi	r28, 0x45	; 69
    35fe:	d1 40       	sbci	r29, 0x01	; 1
    3600:	c3 5c       	subi	r28, 0xC3	; 195
    3602:	de 4f       	sbci	r29, 0xFE	; 254
    3604:	28 81       	ld	r18, Y
    3606:	39 81       	ldd	r19, Y+1	; 0x01
    3608:	4a 81       	ldd	r20, Y+2	; 0x02
    360a:	5b 81       	ldd	r21, Y+3	; 0x03
    360c:	cd 53       	subi	r28, 0x3D	; 61
    360e:	d1 40       	sbci	r29, 0x01	; 1
    3610:	0e 94 5f 3f 	call	0x7ebe	; 0x7ebe <__mulsf3>
    3614:	cf 5a       	subi	r28, 0xAF	; 175
    3616:	de 4f       	sbci	r29, 0xFE	; 254
    3618:	68 83       	st	Y, r22
    361a:	c1 55       	subi	r28, 0x51	; 81
    361c:	d1 40       	sbci	r29, 0x01	; 1
    361e:	ce 5a       	subi	r28, 0xAE	; 174
    3620:	de 4f       	sbci	r29, 0xFE	; 254
    3622:	78 83       	st	Y, r23
    3624:	c2 55       	subi	r28, 0x52	; 82
    3626:	d1 40       	sbci	r29, 0x01	; 1
    3628:	cd 5a       	subi	r28, 0xAD	; 173
    362a:	de 4f       	sbci	r29, 0xFE	; 254
    362c:	88 83       	st	Y, r24
    362e:	c3 55       	subi	r28, 0x53	; 83
    3630:	d1 40       	sbci	r29, 0x01	; 1
    3632:	cc 5a       	subi	r28, 0xAC	; 172
    3634:	de 4f       	sbci	r29, 0xFE	; 254
    3636:	98 83       	st	Y, r25
    3638:	c4 55       	subi	r28, 0x54	; 84
    363a:	d1 40       	sbci	r29, 0x01	; 1
    363c:	6f 2d       	mov	r22, r15
    363e:	7b 2d       	mov	r23, r11
    3640:	8a 2d       	mov	r24, r10
    3642:	9d 2d       	mov	r25, r13
    3644:	cf 5a       	subi	r28, 0xAF	; 175
    3646:	de 4f       	sbci	r29, 0xFE	; 254
    3648:	b8 81       	ld	r27, Y
    364a:	c1 55       	subi	r28, 0x51	; 81
    364c:	d1 40       	sbci	r29, 0x01	; 1
    364e:	ce 5a       	subi	r28, 0xAE	; 174
    3650:	de 4f       	sbci	r29, 0xFE	; 254
    3652:	a8 81       	ld	r26, Y
    3654:	c2 55       	subi	r28, 0x52	; 82
    3656:	d1 40       	sbci	r29, 0x01	; 1
    3658:	cd 5a       	subi	r28, 0xAD	; 173
    365a:	de 4f       	sbci	r29, 0xFE	; 254
    365c:	f8 81       	ld	r31, Y
    365e:	c3 55       	subi	r28, 0x53	; 83
    3660:	d1 40       	sbci	r29, 0x01	; 1
    3662:	cc 5a       	subi	r28, 0xAC	; 172
    3664:	de 4f       	sbci	r29, 0xFE	; 254
    3666:	e8 81       	ld	r30, Y
    3668:	c4 55       	subi	r28, 0x54	; 84
    366a:	d1 40       	sbci	r29, 0x01	; 1
    366c:	2b 2f       	mov	r18, r27
    366e:	3a 2f       	mov	r19, r26
    3670:	4f 2f       	mov	r20, r31
    3672:	5e 2f       	mov	r21, r30
    3674:	0e 94 9a 3c 	call	0x7934	; 0x7934 <__subsf3>
    3678:	f6 2e       	mov	r15, r22
    367a:	07 2f       	mov	r16, r23
    367c:	18 2f       	mov	r17, r24
    367e:	b9 2e       	mov	r11, r25
    3680:	86 2f       	mov	r24, r22
    3682:	90 2f       	mov	r25, r16
    3684:	a1 2f       	mov	r26, r17
    3686:	bb 2d       	mov	r27, r11
    3688:	80 93 bc 12 	sts	0x12BC, r24
    368c:	90 93 bd 12 	sts	0x12BD, r25
    3690:	a0 93 be 12 	sts	0x12BE, r26
    3694:	b0 93 bf 12 	sts	0x12BF, r27

	// FIN CORRECCION
	r = sqrt( desiredXPosition[0]*desiredXPosition[0] + desiredXPosition[1]*desiredXPosition[1] + (desiredXPosition[2] - dDH[0])*(desiredXPosition[2] - dDH[0]));
    3698:	80 91 53 0d 	lds	r24, 0x0D53
    369c:	90 91 54 0d 	lds	r25, 0x0D54
    36a0:	a0 91 55 0d 	lds	r26, 0x0D55
    36a4:	b0 91 56 0d 	lds	r27, 0x0D56
    36a8:	cb 5b       	subi	r28, 0xBB	; 187
    36aa:	de 4f       	sbci	r29, 0xFE	; 254
    36ac:	88 83       	st	Y, r24
    36ae:	99 83       	std	Y+1, r25	; 0x01
    36b0:	aa 83       	std	Y+2, r26	; 0x02
    36b2:	bb 83       	std	Y+3, r27	; 0x03
    36b4:	c5 54       	subi	r28, 0x45	; 69
    36b6:	d1 40       	sbci	r29, 0x01	; 1
    36b8:	a1 01       	movw	r20, r2
    36ba:	cf 5c       	subi	r28, 0xCF	; 207
    36bc:	de 4f       	sbci	r29, 0xFE	; 254
    36be:	38 81       	ld	r19, Y
    36c0:	c1 53       	subi	r28, 0x31	; 49
    36c2:	d1 40       	sbci	r29, 0x01	; 1
    36c4:	cb 5c       	subi	r28, 0xCB	; 203
    36c6:	de 4f       	sbci	r29, 0xFE	; 254
    36c8:	28 81       	ld	r18, Y
    36ca:	c5 53       	subi	r28, 0x35	; 53
    36cc:	d1 40       	sbci	r29, 0x01	; 1
    36ce:	65 2f       	mov	r22, r21
    36d0:	74 2f       	mov	r23, r20
    36d2:	83 2f       	mov	r24, r19
    36d4:	92 2f       	mov	r25, r18
    36d6:	cb 5b       	subi	r28, 0xBB	; 187
    36d8:	de 4f       	sbci	r29, 0xFE	; 254
    36da:	28 81       	ld	r18, Y
    36dc:	39 81       	ldd	r19, Y+1	; 0x01
    36de:	4a 81       	ldd	r20, Y+2	; 0x02
    36e0:	5b 81       	ldd	r21, Y+3	; 0x03
    36e2:	c5 54       	subi	r28, 0x45	; 69
    36e4:	d1 40       	sbci	r29, 0x01	; 1
    36e6:	0e 94 9a 3c 	call	0x7934	; 0x7934 <__subsf3>
    36ea:	36 2e       	mov	r3, r22
    36ec:	27 2e       	mov	r2, r23
    36ee:	cf 5b       	subi	r28, 0xBF	; 191
    36f0:	de 4f       	sbci	r29, 0xFE	; 254
    36f2:	88 83       	st	Y, r24
    36f4:	c1 54       	subi	r28, 0x41	; 65
    36f6:	d1 40       	sbci	r29, 0x01	; 1
    36f8:	c7 5b       	subi	r28, 0xB7	; 183
    36fa:	de 4f       	sbci	r29, 0xFE	; 254
    36fc:	98 83       	st	Y, r25
    36fe:	c9 54       	subi	r28, 0x49	; 73
    3700:	d1 40       	sbci	r29, 0x01	; 1
    3702:	6c 2d       	mov	r22, r12
    3704:	78 2d       	mov	r23, r8
    3706:	8e 2d       	mov	r24, r14
    3708:	99 2d       	mov	r25, r9
    370a:	2c 2d       	mov	r18, r12
    370c:	38 2d       	mov	r19, r8
    370e:	4e 2d       	mov	r20, r14
    3710:	59 2d       	mov	r21, r9
    3712:	0e 94 5f 3f 	call	0x7ebe	; 0x7ebe <__mulsf3>
    3716:	2b 01       	movw	r4, r22
    3718:	3c 01       	movw	r6, r24
    371a:	6f 2d       	mov	r22, r15
    371c:	70 2f       	mov	r23, r16
    371e:	81 2f       	mov	r24, r17
    3720:	9b 2d       	mov	r25, r11
    3722:	2f 2d       	mov	r18, r15
    3724:	30 2f       	mov	r19, r16
    3726:	41 2f       	mov	r20, r17
    3728:	5b 2d       	mov	r21, r11
    372a:	0e 94 5f 3f 	call	0x7ebe	; 0x7ebe <__mulsf3>
    372e:	9b 01       	movw	r18, r22
    3730:	ac 01       	movw	r20, r24
    3732:	c3 01       	movw	r24, r6
    3734:	b2 01       	movw	r22, r4
    3736:	0e 94 9b 3c 	call	0x7936	; 0x7936 <__addsf3>
    373a:	2b 01       	movw	r4, r22
    373c:	3c 01       	movw	r6, r24
    373e:	a1 01       	movw	r20, r2
    3740:	cf 5b       	subi	r28, 0xBF	; 191
    3742:	de 4f       	sbci	r29, 0xFE	; 254
    3744:	38 81       	ld	r19, Y
    3746:	c1 54       	subi	r28, 0x41	; 65
    3748:	d1 40       	sbci	r29, 0x01	; 1
    374a:	c7 5b       	subi	r28, 0xB7	; 183
    374c:	de 4f       	sbci	r29, 0xFE	; 254
    374e:	28 81       	ld	r18, Y
    3750:	c9 54       	subi	r28, 0x49	; 73
    3752:	d1 40       	sbci	r29, 0x01	; 1
    3754:	65 2f       	mov	r22, r21
    3756:	74 2f       	mov	r23, r20
    3758:	83 2f       	mov	r24, r19
    375a:	92 2f       	mov	r25, r18
    375c:	d1 01       	movw	r26, r2
    375e:	f9 01       	movw	r30, r18
    3760:	2b 2f       	mov	r18, r27
    3762:	3a 2f       	mov	r19, r26
    3764:	4f 2f       	mov	r20, r31
    3766:	5e 2f       	mov	r21, r30
    3768:	0e 94 5f 3f 	call	0x7ebe	; 0x7ebe <__mulsf3>
    376c:	9b 01       	movw	r18, r22
    376e:	ac 01       	movw	r20, r24
    3770:	c3 01       	movw	r24, r6
    3772:	b2 01       	movw	r22, r4
    3774:	0e 94 9b 3c 	call	0x7936	; 0x7936 <__addsf3>
    3778:	0e 94 18 40 	call	0x8030	; 0x8030 <sqrt>
    377c:	cb 5c       	subi	r28, 0xCB	; 203
    377e:	de 4f       	sbci	r29, 0xFE	; 254
    3780:	68 83       	st	Y, r22
    3782:	79 83       	std	Y+1, r23	; 0x01
    3784:	8a 83       	std	Y+2, r24	; 0x02
    3786:	9b 83       	std	Y+3, r25	; 0x03
    3788:	c5 53       	subi	r28, 0x35	; 53
    378a:	d1 40       	sbci	r29, 0x01	; 1
	
	//printf("d q %f %f %f %f %f %f %f \n\r",desiredQPosition[0],desiredQPosition[1],desiredQPosition[2],desiredQPosition[3],desiredQPosition[4],desiredQPosition[5],desiredQPosition[6]);

	//printf("r= %f \n\f",r);

	if (r >= (dDH[2] + dDH[4]))
    378c:	80 91 5b 0d 	lds	r24, 0x0D5B
    3790:	90 91 5c 0d 	lds	r25, 0x0D5C
    3794:	a0 91 5d 0d 	lds	r26, 0x0D5D
    3798:	b0 91 5e 0d 	lds	r27, 0x0D5E
    379c:	cf 5c       	subi	r28, 0xCF	; 207
    379e:	de 4f       	sbci	r29, 0xFE	; 254
    37a0:	88 83       	st	Y, r24
    37a2:	99 83       	std	Y+1, r25	; 0x01
    37a4:	aa 83       	std	Y+2, r26	; 0x02
    37a6:	bb 83       	std	Y+3, r27	; 0x03
    37a8:	c1 53       	subi	r28, 0x31	; 49
    37aa:	d1 40       	sbci	r29, 0x01	; 1
    37ac:	40 90 63 0d 	lds	r4, 0x0D63
    37b0:	50 90 64 0d 	lds	r5, 0x0D64
    37b4:	60 90 65 0d 	lds	r6, 0x0D65
    37b8:	70 90 66 0d 	lds	r7, 0x0D66
    37bc:	bc 01       	movw	r22, r24
    37be:	cd 01       	movw	r24, r26
    37c0:	a3 01       	movw	r20, r6
    37c2:	92 01       	movw	r18, r4
    37c4:	0e 94 9b 3c 	call	0x7936	; 0x7936 <__addsf3>
    37c8:	9b 01       	movw	r18, r22
    37ca:	ac 01       	movw	r20, r24
    37cc:	cb 5c       	subi	r28, 0xCB	; 203
    37ce:	de 4f       	sbci	r29, 0xFE	; 254
    37d0:	68 81       	ld	r22, Y
    37d2:	79 81       	ldd	r23, Y+1	; 0x01
    37d4:	8a 81       	ldd	r24, Y+2	; 0x02
    37d6:	9b 81       	ldd	r25, Y+3	; 0x03
    37d8:	c5 53       	subi	r28, 0x35	; 53
    37da:	d1 40       	sbci	r29, 0x01	; 1
    37dc:	0e 94 54 3f 	call	0x7ea8	; 0x7ea8 <__gesf2>
    37e0:	87 fd       	sbrc	r24, 7
    37e2:	15 c0       	rjmp	.+42     	; 0x380e <InverseKinematics+0x912>
    37e4:	e9 ee       	ldi	r30, 0xE9	; 233
    37e6:	f1 e1       	ldi	r31, 0x11	; 17
    37e8:	24 e6       	ldi	r18, 0x64	; 100
    37ea:	32 e1       	ldi	r19, 0x12	; 18
	{
	
		for(int i = 0;i<DOF;i++)
		{
			desiredQPosition[i] = currentQPosition[i];
    37ec:	41 91       	ld	r20, Z+
    37ee:	51 91       	ld	r21, Z+
    37f0:	61 91       	ld	r22, Z+
    37f2:	71 91       	ld	r23, Z+
    37f4:	d9 01       	movw	r26, r18
    37f6:	4d 93       	st	X+, r20
    37f8:	5d 93       	st	X+, r21
    37fa:	6d 93       	st	X+, r22
    37fc:	7d 93       	st	X+, r23
    37fe:	9d 01       	movw	r18, r26
	//printf("r= %f \n\f",r);

	if (r >= (dDH[2] + dDH[4]))
	{
	
		for(int i = 0;i<DOF;i++)
    3800:	b2 e1       	ldi	r27, 0x12	; 18
    3802:	e5 30       	cpi	r30, 0x05	; 5
    3804:	fb 07       	cpc	r31, r27
    3806:	91 f7       	brne	.-28     	; 0x37ec <InverseKinematics+0x8f0>
    3808:	80 e0       	ldi	r24, 0x00	; 0
    380a:	90 e0       	ldi	r25, 0x00	; 0
    380c:	b2 c5       	rjmp	.+2916   	; 0x4372 <InverseKinematics+0x1476>
		//printf("regreso %f %f %f %f %f %f %f \n\r",desiredQPosition[0],desiredQPosition[1],desiredQPosition[2],desiredQPosition[3],desiredQPosition[4],desiredQPosition[5],desiredQPosition[6]);
		return 0;
	}
	

	alpha = atan2((desiredXPosition[2] - dDH[0]), sqrt(pow(desiredXPosition[0],2) + pow(desiredXPosition[1],2))); 
    380e:	6c 2d       	mov	r22, r12
    3810:	78 2d       	mov	r23, r8
    3812:	8e 2d       	mov	r24, r14
    3814:	99 2d       	mov	r25, r9
    3816:	2c 2d       	mov	r18, r12
    3818:	38 2d       	mov	r19, r8
    381a:	4e 2d       	mov	r20, r14
    381c:	59 2d       	mov	r21, r9
    381e:	0e 94 5f 3f 	call	0x7ebe	; 0x7ebe <__mulsf3>
    3822:	e6 2e       	mov	r14, r22
    3824:	d7 2e       	mov	r13, r23
    3826:	c8 2e       	mov	r12, r24
    3828:	a9 2e       	mov	r10, r25
    382a:	6f 2d       	mov	r22, r15
    382c:	70 2f       	mov	r23, r16
    382e:	81 2f       	mov	r24, r17
    3830:	9b 2d       	mov	r25, r11
    3832:	2f 2d       	mov	r18, r15
    3834:	30 2f       	mov	r19, r16
    3836:	41 2f       	mov	r20, r17
    3838:	5b 2d       	mov	r21, r11
    383a:	0e 94 5f 3f 	call	0x7ebe	; 0x7ebe <__mulsf3>
    383e:	b6 2f       	mov	r27, r22
    3840:	a7 2f       	mov	r26, r23
    3842:	f8 2f       	mov	r31, r24
    3844:	e9 2f       	mov	r30, r25
    3846:	2e 2d       	mov	r18, r14
    3848:	3d 2d       	mov	r19, r13
    384a:	4c 2d       	mov	r20, r12
    384c:	5a 2d       	mov	r21, r10
    384e:	ca 01       	movw	r24, r20
    3850:	b9 01       	movw	r22, r18
    3852:	eb 2e       	mov	r14, r27
    3854:	fa 2e       	mov	r15, r26
    3856:	0f 2f       	mov	r16, r31
    3858:	1e 2f       	mov	r17, r30
    385a:	97 01       	movw	r18, r14
    385c:	a8 01       	movw	r20, r16
    385e:	0e 94 9b 3c 	call	0x7936	; 0x7936 <__addsf3>
    3862:	0e 94 18 40 	call	0x8030	; 0x8030 <sqrt>
    3866:	9b 01       	movw	r18, r22
    3868:	ac 01       	movw	r20, r24
    386a:	d1 01       	movw	r26, r2
    386c:	cf 5b       	subi	r28, 0xBF	; 191
    386e:	de 4f       	sbci	r29, 0xFE	; 254
    3870:	f8 81       	ld	r31, Y
    3872:	c1 54       	subi	r28, 0x41	; 65
    3874:	d1 40       	sbci	r29, 0x01	; 1
    3876:	c7 5b       	subi	r28, 0xB7	; 183
    3878:	de 4f       	sbci	r29, 0xFE	; 254
    387a:	e8 81       	ld	r30, Y
    387c:	c9 54       	subi	r28, 0x49	; 73
    387e:	d1 40       	sbci	r29, 0x01	; 1
    3880:	6b 2f       	mov	r22, r27
    3882:	7a 2f       	mov	r23, r26
    3884:	8f 2f       	mov	r24, r31
    3886:	9e 2f       	mov	r25, r30
    3888:	0e 94 25 3d 	call	0x7a4a	; 0x7a4a <atan2>
    388c:	cf 5b       	subi	r28, 0xBF	; 191
    388e:	de 4f       	sbci	r29, 0xFE	; 254
    3890:	68 83       	st	Y, r22
    3892:	79 83       	std	Y+1, r23	; 0x01
    3894:	8a 83       	std	Y+2, r24	; 0x02
    3896:	9b 83       	std	Y+3, r25	; 0x03
    3898:	c1 54       	subi	r28, 0x41	; 65
    389a:	d1 40       	sbci	r29, 0x01	; 1
	gamma = acos((-dDH[2] * dDH[2] - dDH[4] * dDH[4] + r * r) / (-2 * dDH[2] * dDH[4]));
    389c:	cf 5c       	subi	r28, 0xCF	; 207
    389e:	de 4f       	sbci	r29, 0xFE	; 254
    38a0:	68 81       	ld	r22, Y
    38a2:	79 81       	ldd	r23, Y+1	; 0x01
    38a4:	8a 81       	ldd	r24, Y+2	; 0x02
    38a6:	9b 81       	ldd	r25, Y+3	; 0x03
    38a8:	c1 53       	subi	r28, 0x31	; 49
    38aa:	d1 40       	sbci	r29, 0x01	; 1
    38ac:	90 58       	subi	r25, 0x80	; 128
    38ae:	cf 5c       	subi	r28, 0xCF	; 207
    38b0:	de 4f       	sbci	r29, 0xFE	; 254
    38b2:	28 81       	ld	r18, Y
    38b4:	39 81       	ldd	r19, Y+1	; 0x01
    38b6:	4a 81       	ldd	r20, Y+2	; 0x02
    38b8:	5b 81       	ldd	r21, Y+3	; 0x03
    38ba:	c1 53       	subi	r28, 0x31	; 49
    38bc:	d1 40       	sbci	r29, 0x01	; 1
    38be:	0e 94 5f 3f 	call	0x7ebe	; 0x7ebe <__mulsf3>
    38c2:	7b 01       	movw	r14, r22
    38c4:	8c 01       	movw	r16, r24
    38c6:	c3 01       	movw	r24, r6
    38c8:	b2 01       	movw	r22, r4
    38ca:	a3 01       	movw	r20, r6
    38cc:	92 01       	movw	r18, r4
    38ce:	0e 94 5f 3f 	call	0x7ebe	; 0x7ebe <__mulsf3>
    38d2:	9b 01       	movw	r18, r22
    38d4:	ac 01       	movw	r20, r24
    38d6:	c8 01       	movw	r24, r16
    38d8:	b7 01       	movw	r22, r14
    38da:	0e 94 9a 3c 	call	0x7934	; 0x7934 <__subsf3>
    38de:	7b 01       	movw	r14, r22
    38e0:	8c 01       	movw	r16, r24
    38e2:	cb 5c       	subi	r28, 0xCB	; 203
    38e4:	de 4f       	sbci	r29, 0xFE	; 254
    38e6:	68 81       	ld	r22, Y
    38e8:	79 81       	ldd	r23, Y+1	; 0x01
    38ea:	8a 81       	ldd	r24, Y+2	; 0x02
    38ec:	9b 81       	ldd	r25, Y+3	; 0x03
    38ee:	c5 53       	subi	r28, 0x35	; 53
    38f0:	d1 40       	sbci	r29, 0x01	; 1
    38f2:	9b 01       	movw	r18, r22
    38f4:	ac 01       	movw	r20, r24
    38f6:	0e 94 5f 3f 	call	0x7ebe	; 0x7ebe <__mulsf3>
    38fa:	9b 01       	movw	r18, r22
    38fc:	ac 01       	movw	r20, r24
    38fe:	c8 01       	movw	r24, r16
    3900:	b7 01       	movw	r22, r14
    3902:	0e 94 9b 3c 	call	0x7936	; 0x7936 <__addsf3>
    3906:	7b 01       	movw	r14, r22
    3908:	8c 01       	movw	r16, r24
    390a:	cf 5c       	subi	r28, 0xCF	; 207
    390c:	de 4f       	sbci	r29, 0xFE	; 254
    390e:	68 81       	ld	r22, Y
    3910:	79 81       	ldd	r23, Y+1	; 0x01
    3912:	8a 81       	ldd	r24, Y+2	; 0x02
    3914:	9b 81       	ldd	r25, Y+3	; 0x03
    3916:	c1 53       	subi	r28, 0x31	; 49
    3918:	d1 40       	sbci	r29, 0x01	; 1
    391a:	20 e0       	ldi	r18, 0x00	; 0
    391c:	30 e0       	ldi	r19, 0x00	; 0
    391e:	40 e0       	ldi	r20, 0x00	; 0
    3920:	50 ec       	ldi	r21, 0xC0	; 192
    3922:	0e 94 5f 3f 	call	0x7ebe	; 0x7ebe <__mulsf3>
    3926:	a3 01       	movw	r20, r6
    3928:	92 01       	movw	r18, r4
    392a:	0e 94 5f 3f 	call	0x7ebe	; 0x7ebe <__mulsf3>
    392e:	9b 01       	movw	r18, r22
    3930:	ac 01       	movw	r20, r24
    3932:	c8 01       	movw	r24, r16
    3934:	b7 01       	movw	r22, r14
    3936:	0e 94 7f 3d 	call	0x7afe	; 0x7afe <__divsf3>
    393a:	0e 94 8c 3c 	call	0x7918	; 0x7918 <acos>
	beta = asin(dDH[4] * sin(gamma) / r);
    393e:	0e 94 0e 40 	call	0x801c	; 0x801c <sin>
    3942:	9b 01       	movw	r18, r22
    3944:	ac 01       	movw	r20, r24
    3946:	c3 01       	movw	r24, r6
    3948:	b2 01       	movw	r22, r4
    394a:	0e 94 5f 3f 	call	0x7ebe	; 0x7ebe <__mulsf3>
    394e:	cb 5c       	subi	r28, 0xCB	; 203
    3950:	de 4f       	sbci	r29, 0xFE	; 254
    3952:	28 81       	ld	r18, Y
    3954:	39 81       	ldd	r19, Y+1	; 0x01
    3956:	4a 81       	ldd	r20, Y+2	; 0x02
    3958:	5b 81       	ldd	r21, Y+3	; 0x03
    395a:	c5 53       	subi	r28, 0x35	; 53
    395c:	d1 40       	sbci	r29, 0x01	; 1
    395e:	0e 94 7f 3d 	call	0x7afe	; 0x7afe <__divsf3>
    3962:	0e 94 ff 3c 	call	0x79fe	; 0x79fe <asin>
    3966:	cb 5c       	subi	r28, 0xCB	; 203
    3968:	de 4f       	sbci	r29, 0xFE	; 254
    396a:	68 83       	st	Y, r22
    396c:	79 83       	std	Y+1, r23	; 0x01
    396e:	8a 83       	std	Y+2, r24	; 0x02
    3970:	9b 83       	std	Y+3, r25	; 0x03
    3972:	c5 53       	subi	r28, 0x35	; 53
    3974:	d1 40       	sbci	r29, 0x01	; 1

	//printf("agb: %f %f %f \n\f",alpha, gamma, beta);	

	//Esto siempre es considerando la solucin de codo arriba, hay que checar que onda con la 
	//otra solucin
	tunningRadiusElbow = dDH[2] * sin(beta);
    3976:	0e 94 0e 40 	call	0x801c	; 0x801c <sin>
    397a:	9b 01       	movw	r18, r22
    397c:	ac 01       	movw	r20, r24

	//printf("tunning= %f \n\f",tunningRadiusElbow);	

	//Posicin del codo con respecto al sistema Oelbow
	Pelbow.value[0] = 0;
    397e:	0f 2e       	mov	r0, r31
    3980:	f0 e0       	ldi	r31, 0x00	; 0
    3982:	4f 2e       	mov	r4, r31
    3984:	f0 e0       	ldi	r31, 0x00	; 0
    3986:	5f 2e       	mov	r5, r31
    3988:	f0 e0       	ldi	r31, 0x00	; 0
    398a:	6f 2e       	mov	r6, r31
    398c:	f0 e0       	ldi	r31, 0x00	; 0
    398e:	7f 2e       	mov	r7, r31
    3990:	f0 2d       	mov	r31, r0
    3992:	49 8a       	std	Y+17, r4	; 0x11
    3994:	5a 8a       	std	Y+18, r5	; 0x12
    3996:	6b 8a       	std	Y+19, r6	; 0x13
    3998:	7c 8a       	std	Y+20, r7	; 0x14

	//printf("agb: %f %f %f \n\f",alpha, gamma, beta);	

	//Esto siempre es considerando la solucin de codo arriba, hay que checar que onda con la 
	//otra solucin
	tunningRadiusElbow = dDH[2] * sin(beta);
    399a:	cf 5c       	subi	r28, 0xCF	; 207
    399c:	de 4f       	sbci	r29, 0xFE	; 254
    399e:	68 81       	ld	r22, Y
    39a0:	79 81       	ldd	r23, Y+1	; 0x01
    39a2:	8a 81       	ldd	r24, Y+2	; 0x02
    39a4:	9b 81       	ldd	r25, Y+3	; 0x03
    39a6:	c1 53       	subi	r28, 0x31	; 49
    39a8:	d1 40       	sbci	r29, 0x01	; 1
    39aa:	0e 94 5f 3f 	call	0x7ebe	; 0x7ebe <__mulsf3>

	//printf("tunning= %f \n\f",tunningRadiusElbow);	

	//Posicin del codo con respecto al sistema Oelbow
	Pelbow.value[0] = 0;
	Pelbow.value[1] = -tunningRadiusElbow * cos(desiredXPosition[6]);
    39ae:	4b 01       	movw	r8, r22
    39b0:	5c 01       	movw	r10, r24
    39b2:	b7 fa       	bst	r11, 7
    39b4:	b0 94       	com	r11
    39b6:	b7 f8       	bld	r11, 7
    39b8:	b0 94       	com	r11
    39ba:	c0 90 d0 12 	lds	r12, 0x12D0
    39be:	d0 90 d1 12 	lds	r13, 0x12D1
    39c2:	e0 90 d2 12 	lds	r14, 0x12D2
    39c6:	f0 90 d3 12 	lds	r15, 0x12D3
    39ca:	c7 01       	movw	r24, r14
    39cc:	b6 01       	movw	r22, r12
    39ce:	0e 94 7c 3d 	call	0x7af8	; 0x7af8 <cos>
    39d2:	9b 01       	movw	r18, r22
    39d4:	ac 01       	movw	r20, r24
    39d6:	c5 01       	movw	r24, r10
    39d8:	b4 01       	movw	r22, r8
    39da:	0e 94 5f 3f 	call	0x7ebe	; 0x7ebe <__mulsf3>
    39de:	6d 8b       	std	Y+21, r22	; 0x15
    39e0:	7e 8b       	std	Y+22, r23	; 0x16
    39e2:	8f 8b       	std	Y+23, r24	; 0x17
    39e4:	98 8f       	std	Y+24, r25	; 0x18
	Pelbow.value[2] = -tunningRadiusElbow * sin(desiredXPosition[6]);
    39e6:	c7 01       	movw	r24, r14
    39e8:	b6 01       	movw	r22, r12
    39ea:	0e 94 0e 40 	call	0x801c	; 0x801c <sin>
    39ee:	9b 01       	movw	r18, r22
    39f0:	ac 01       	movw	r20, r24
    39f2:	c5 01       	movw	r24, r10
    39f4:	b4 01       	movw	r22, r8
    39f6:	0e 94 5f 3f 	call	0x7ebe	; 0x7ebe <__mulsf3>
    39fa:	69 8f       	std	Y+25, r22	; 0x19
    39fc:	7a 8f       	std	Y+26, r23	; 0x1a
    39fe:	8b 8f       	std	Y+27, r24	; 0x1b
    3a00:	9c 8f       	std	Y+28, r25	; 0x1c
	Pelbow.value[3] = 1;
    3a02:	80 e0       	ldi	r24, 0x00	; 0
    3a04:	90 e0       	ldi	r25, 0x00	; 0
    3a06:	a0 e8       	ldi	r26, 0x80	; 128
    3a08:	bf e3       	ldi	r27, 0x3F	; 63
    3a0a:	8d 8f       	std	Y+29, r24	; 0x1d
    3a0c:	9e 8f       	std	Y+30, r25	; 0x1e
    3a0e:	af 8f       	std	Y+31, r26	; 0x1f
    3a10:	b8 a3       	std	Y+32, r27	; 0x20

	
	//printf("Pelbow  %f %f %f %f \n\r",Pelbow.value[0],Pelbow.value[1],Pelbow.value[2],Pelbow.value[3]);

	//Transformacin del sistema sobre el que gira el codo al sistema base
	oRe.value[0][0] = cos(desiredQPosition[0]) * cos(-alpha);
    3a12:	cf 5b       	subi	r28, 0xBF	; 191
    3a14:	de 4f       	sbci	r29, 0xFE	; 254
    3a16:	68 81       	ld	r22, Y
    3a18:	79 81       	ldd	r23, Y+1	; 0x01
    3a1a:	8a 81       	ldd	r24, Y+2	; 0x02
    3a1c:	9b 81       	ldd	r25, Y+3	; 0x03
    3a1e:	c1 54       	subi	r28, 0x41	; 65
    3a20:	d1 40       	sbci	r29, 0x01	; 1
    3a22:	0e 94 7c 3d 	call	0x7af8	; 0x7af8 <cos>
    3a26:	6b 01       	movw	r12, r22
    3a28:	7c 01       	movw	r14, r24
    3a2a:	8e 01       	movw	r16, r28
    3a2c:	0f 50       	subi	r16, 0x0F	; 15
    3a2e:	1f 4f       	sbci	r17, 0xFF	; 255
    3a30:	c7 5c       	subi	r28, 0xC7	; 199
    3a32:	de 4f       	sbci	r29, 0xFE	; 254
    3a34:	68 81       	ld	r22, Y
    3a36:	79 81       	ldd	r23, Y+1	; 0x01
    3a38:	8a 81       	ldd	r24, Y+2	; 0x02
    3a3a:	9b 81       	ldd	r25, Y+3	; 0x03
    3a3c:	c9 53       	subi	r28, 0x39	; 57
    3a3e:	d1 40       	sbci	r29, 0x01	; 1
    3a40:	a7 01       	movw	r20, r14
    3a42:	96 01       	movw	r18, r12
    3a44:	0e 94 5f 3f 	call	0x7ebe	; 0x7ebe <__mulsf3>
    3a48:	d8 01       	movw	r26, r16
    3a4a:	6d 93       	st	X+, r22
    3a4c:	7d 93       	st	X+, r23
    3a4e:	8d 93       	st	X+, r24
    3a50:	9c 93       	st	X, r25
    3a52:	13 97       	sbiw	r26, 0x03	; 3
	oRe.value[1][0] = sin(desiredQPosition[0]) * cos(-alpha);
    3a54:	c3 5c       	subi	r28, 0xC3	; 195
    3a56:	de 4f       	sbci	r29, 0xFE	; 254
    3a58:	68 81       	ld	r22, Y
    3a5a:	79 81       	ldd	r23, Y+1	; 0x01
    3a5c:	8a 81       	ldd	r24, Y+2	; 0x02
    3a5e:	9b 81       	ldd	r25, Y+3	; 0x03
    3a60:	cd 53       	subi	r28, 0x3D	; 61
    3a62:	d1 40       	sbci	r29, 0x01	; 1
    3a64:	a7 01       	movw	r20, r14
    3a66:	96 01       	movw	r18, r12
    3a68:	0e 94 5f 3f 	call	0x7ebe	; 0x7ebe <__mulsf3>
    3a6c:	f8 01       	movw	r30, r16
    3a6e:	60 8b       	std	Z+16, r22	; 0x10
    3a70:	71 8b       	std	Z+17, r23	; 0x11
    3a72:	82 8b       	std	Z+18, r24	; 0x12
    3a74:	93 8b       	std	Z+19, r25	; 0x13
	oRe.value[2][0] = -sin(-alpha);
    3a76:	cf 5b       	subi	r28, 0xBF	; 191
    3a78:	de 4f       	sbci	r29, 0xFE	; 254
    3a7a:	68 81       	ld	r22, Y
    3a7c:	79 81       	ldd	r23, Y+1	; 0x01
    3a7e:	8a 81       	ldd	r24, Y+2	; 0x02
    3a80:	9b 81       	ldd	r25, Y+3	; 0x03
    3a82:	c1 54       	subi	r28, 0x41	; 65
    3a84:	d1 40       	sbci	r29, 0x01	; 1
    3a86:	0e 94 0e 40 	call	0x801c	; 0x801c <sin>
    3a8a:	c7 5b       	subi	r28, 0xB7	; 183
    3a8c:	de 4f       	sbci	r29, 0xFE	; 254
    3a8e:	68 83       	st	Y, r22
    3a90:	79 83       	std	Y+1, r23	; 0x01
    3a92:	8a 83       	std	Y+2, r24	; 0x02
    3a94:	9b 83       	std	Y+3, r25	; 0x03
    3a96:	c9 54       	subi	r28, 0x49	; 73
    3a98:	d1 40       	sbci	r29, 0x01	; 1
    3a9a:	d8 01       	movw	r26, r16
    3a9c:	90 96       	adiw	r26, 0x20	; 32
    3a9e:	6d 93       	st	X+, r22
    3aa0:	7d 93       	st	X+, r23
    3aa2:	8d 93       	st	X+, r24
    3aa4:	9c 93       	st	X, r25
    3aa6:	93 97       	sbiw	r26, 0x23	; 35

	oRe.value[0][1] = -sin(desiredQPosition[0]);
    3aa8:	c3 5c       	subi	r28, 0xC3	; 195
    3aaa:	de 4f       	sbci	r29, 0xFE	; 254
    3aac:	88 81       	ld	r24, Y
    3aae:	99 81       	ldd	r25, Y+1	; 0x01
    3ab0:	aa 81       	ldd	r26, Y+2	; 0x02
    3ab2:	bb 81       	ldd	r27, Y+3	; 0x03
    3ab4:	cd 53       	subi	r28, 0x3D	; 61
    3ab6:	d1 40       	sbci	r29, 0x01	; 1
    3ab8:	b0 58       	subi	r27, 0x80	; 128
    3aba:	f8 01       	movw	r30, r16
    3abc:	84 83       	std	Z+4, r24	; 0x04
    3abe:	95 83       	std	Z+5, r25	; 0x05
    3ac0:	a6 83       	std	Z+6, r26	; 0x06
    3ac2:	b7 83       	std	Z+7, r27	; 0x07
	oRe.value[1][1] = cos(desiredQPosition[0]);
    3ac4:	c7 5c       	subi	r28, 0xC7	; 199
    3ac6:	de 4f       	sbci	r29, 0xFE	; 254
    3ac8:	88 81       	ld	r24, Y
    3aca:	99 81       	ldd	r25, Y+1	; 0x01
    3acc:	aa 81       	ldd	r26, Y+2	; 0x02
    3ace:	bb 81       	ldd	r27, Y+3	; 0x03
    3ad0:	c9 53       	subi	r28, 0x39	; 57
    3ad2:	d1 40       	sbci	r29, 0x01	; 1
    3ad4:	84 8b       	std	Z+20, r24	; 0x14
    3ad6:	95 8b       	std	Z+21, r25	; 0x15
    3ad8:	a6 8b       	std	Z+22, r26	; 0x16
    3ada:	b7 8b       	std	Z+23, r27	; 0x17
	oRe.value[2][1] = 0;
    3adc:	d8 01       	movw	r26, r16
    3ade:	94 96       	adiw	r26, 0x24	; 36
    3ae0:	4d 92       	st	X+, r4
    3ae2:	5d 92       	st	X+, r5
    3ae4:	6d 92       	st	X+, r6
    3ae6:	7c 92       	st	X, r7
    3ae8:	97 97       	sbiw	r26, 0x27	; 39

	oRe.value[0][2] = cos(desiredQPosition[0]) * sin(-alpha);
    3aea:	cf 5b       	subi	r28, 0xBF	; 191
    3aec:	de 4f       	sbci	r29, 0xFE	; 254
    3aee:	68 81       	ld	r22, Y
    3af0:	79 81       	ldd	r23, Y+1	; 0x01
    3af2:	8a 81       	ldd	r24, Y+2	; 0x02
    3af4:	9b 81       	ldd	r25, Y+3	; 0x03
    3af6:	c1 54       	subi	r28, 0x41	; 65
    3af8:	d1 40       	sbci	r29, 0x01	; 1
    3afa:	90 58       	subi	r25, 0x80	; 128
    3afc:	0e 94 0e 40 	call	0x801c	; 0x801c <sin>
    3b00:	4b 01       	movw	r8, r22
    3b02:	5c 01       	movw	r10, r24
    3b04:	c7 5c       	subi	r28, 0xC7	; 199
    3b06:	de 4f       	sbci	r29, 0xFE	; 254
    3b08:	68 81       	ld	r22, Y
    3b0a:	79 81       	ldd	r23, Y+1	; 0x01
    3b0c:	8a 81       	ldd	r24, Y+2	; 0x02
    3b0e:	9b 81       	ldd	r25, Y+3	; 0x03
    3b10:	c9 53       	subi	r28, 0x39	; 57
    3b12:	d1 40       	sbci	r29, 0x01	; 1
    3b14:	a5 01       	movw	r20, r10
    3b16:	94 01       	movw	r18, r8
    3b18:	0e 94 5f 3f 	call	0x7ebe	; 0x7ebe <__mulsf3>
    3b1c:	f8 01       	movw	r30, r16
    3b1e:	60 87       	std	Z+8, r22	; 0x08
    3b20:	71 87       	std	Z+9, r23	; 0x09
    3b22:	82 87       	std	Z+10, r24	; 0x0a
    3b24:	93 87       	std	Z+11, r25	; 0x0b
	oRe.value[1][2] = sin(desiredQPosition[0]) * sin(-alpha);
    3b26:	c3 5c       	subi	r28, 0xC3	; 195
    3b28:	de 4f       	sbci	r29, 0xFE	; 254
    3b2a:	68 81       	ld	r22, Y
    3b2c:	79 81       	ldd	r23, Y+1	; 0x01
    3b2e:	8a 81       	ldd	r24, Y+2	; 0x02
    3b30:	9b 81       	ldd	r25, Y+3	; 0x03
    3b32:	cd 53       	subi	r28, 0x3D	; 61
    3b34:	d1 40       	sbci	r29, 0x01	; 1
    3b36:	a5 01       	movw	r20, r10
    3b38:	94 01       	movw	r18, r8
    3b3a:	0e 94 5f 3f 	call	0x7ebe	; 0x7ebe <__mulsf3>
    3b3e:	d8 01       	movw	r26, r16
    3b40:	58 96       	adiw	r26, 0x18	; 24
    3b42:	6d 93       	st	X+, r22
    3b44:	7d 93       	st	X+, r23
    3b46:	8d 93       	st	X+, r24
    3b48:	9c 93       	st	X, r25
    3b4a:	5b 97       	sbiw	r26, 0x1b	; 27
	oRe.value[2][2] = cos(-alpha);
    3b4c:	f8 01       	movw	r30, r16
    3b4e:	c0 a6       	std	Z+40, r12	; 0x28
    3b50:	d1 a6       	std	Z+41, r13	; 0x29
    3b52:	e2 a6       	std	Z+42, r14	; 0x2a
    3b54:	f3 a6       	std	Z+43, r15	; 0x2b

	oRe.value[0][3] = dDH[2] * cos(beta) * cos(alpha) * cos(desiredQPosition[0]);
    3b56:	cb 5c       	subi	r28, 0xCB	; 203
    3b58:	de 4f       	sbci	r29, 0xFE	; 254
    3b5a:	68 81       	ld	r22, Y
    3b5c:	79 81       	ldd	r23, Y+1	; 0x01
    3b5e:	8a 81       	ldd	r24, Y+2	; 0x02
    3b60:	9b 81       	ldd	r25, Y+3	; 0x03
    3b62:	c5 53       	subi	r28, 0x35	; 53
    3b64:	d1 40       	sbci	r29, 0x01	; 1
    3b66:	0e 94 7c 3d 	call	0x7af8	; 0x7af8 <cos>
    3b6a:	9b 01       	movw	r18, r22
    3b6c:	ac 01       	movw	r20, r24
    3b6e:	cf 5c       	subi	r28, 0xCF	; 207
    3b70:	de 4f       	sbci	r29, 0xFE	; 254
    3b72:	68 81       	ld	r22, Y
    3b74:	79 81       	ldd	r23, Y+1	; 0x01
    3b76:	8a 81       	ldd	r24, Y+2	; 0x02
    3b78:	9b 81       	ldd	r25, Y+3	; 0x03
    3b7a:	c1 53       	subi	r28, 0x31	; 49
    3b7c:	d1 40       	sbci	r29, 0x01	; 1
    3b7e:	0e 94 5f 3f 	call	0x7ebe	; 0x7ebe <__mulsf3>
    3b82:	b6 2e       	mov	r11, r22
    3b84:	a7 2e       	mov	r10, r23
    3b86:	98 2e       	mov	r9, r24
    3b88:	79 2e       	mov	r7, r25
    3b8a:	a5 01       	movw	r20, r10
    3b8c:	65 2f       	mov	r22, r21
    3b8e:	74 2f       	mov	r23, r20
    3b90:	a7 01       	movw	r20, r14
    3b92:	96 01       	movw	r18, r12
    3b94:	0e 94 5f 3f 	call	0x7ebe	; 0x7ebe <__mulsf3>
    3b98:	86 2e       	mov	r8, r22
    3b9a:	c7 2e       	mov	r12, r23
    3b9c:	48 2e       	mov	r4, r24
    3b9e:	f9 2e       	mov	r15, r25
    3ba0:	c7 5c       	subi	r28, 0xC7	; 199
    3ba2:	de 4f       	sbci	r29, 0xFE	; 254
    3ba4:	28 81       	ld	r18, Y
    3ba6:	39 81       	ldd	r19, Y+1	; 0x01
    3ba8:	4a 81       	ldd	r20, Y+2	; 0x02
    3baa:	5b 81       	ldd	r21, Y+3	; 0x03
    3bac:	c9 53       	subi	r28, 0x39	; 57
    3bae:	d1 40       	sbci	r29, 0x01	; 1
    3bb0:	0e 94 5f 3f 	call	0x7ebe	; 0x7ebe <__mulsf3>
    3bb4:	d8 01       	movw	r26, r16
    3bb6:	1c 96       	adiw	r26, 0x0c	; 12
    3bb8:	6d 93       	st	X+, r22
    3bba:	7d 93       	st	X+, r23
    3bbc:	8d 93       	st	X+, r24
    3bbe:	9c 93       	st	X, r25
    3bc0:	1f 97       	sbiw	r26, 0x0f	; 15
	oRe.value[1][3] = dDH[2] * cos(beta) * cos(alpha) * sin(desiredQPosition[0]);
    3bc2:	68 2d       	mov	r22, r8
    3bc4:	7c 2d       	mov	r23, r12
    3bc6:	84 2d       	mov	r24, r4
    3bc8:	9f 2d       	mov	r25, r15
    3bca:	c3 5c       	subi	r28, 0xC3	; 195
    3bcc:	de 4f       	sbci	r29, 0xFE	; 254
    3bce:	28 81       	ld	r18, Y
    3bd0:	39 81       	ldd	r19, Y+1	; 0x01
    3bd2:	4a 81       	ldd	r20, Y+2	; 0x02
    3bd4:	5b 81       	ldd	r21, Y+3	; 0x03
    3bd6:	cd 53       	subi	r28, 0x3D	; 61
    3bd8:	d1 40       	sbci	r29, 0x01	; 1
    3bda:	0e 94 5f 3f 	call	0x7ebe	; 0x7ebe <__mulsf3>
    3bde:	f8 01       	movw	r30, r16
    3be0:	64 8f       	std	Z+28, r22	; 0x1c
    3be2:	75 8f       	std	Z+29, r23	; 0x1d
    3be4:	86 8f       	std	Z+30, r24	; 0x1e
    3be6:	97 8f       	std	Z+31, r25	; 0x1f
	oRe.value[2][3] = dDH[2] * cos(beta) * sin(alpha) + dDH[0];
    3be8:	a5 01       	movw	r20, r10
    3bea:	65 2f       	mov	r22, r21
    3bec:	74 2f       	mov	r23, r20
    3bee:	89 2d       	mov	r24, r9
    3bf0:	97 2d       	mov	r25, r7
    3bf2:	c7 5b       	subi	r28, 0xB7	; 183
    3bf4:	de 4f       	sbci	r29, 0xFE	; 254
    3bf6:	28 81       	ld	r18, Y
    3bf8:	39 81       	ldd	r19, Y+1	; 0x01
    3bfa:	4a 81       	ldd	r20, Y+2	; 0x02
    3bfc:	5b 81       	ldd	r21, Y+3	; 0x03
    3bfe:	c9 54       	subi	r28, 0x49	; 73
    3c00:	d1 40       	sbci	r29, 0x01	; 1
    3c02:	0e 94 5f 3f 	call	0x7ebe	; 0x7ebe <__mulsf3>
    3c06:	cb 5b       	subi	r28, 0xBB	; 187
    3c08:	de 4f       	sbci	r29, 0xFE	; 254
    3c0a:	28 81       	ld	r18, Y
    3c0c:	39 81       	ldd	r19, Y+1	; 0x01
    3c0e:	4a 81       	ldd	r20, Y+2	; 0x02
    3c10:	5b 81       	ldd	r21, Y+3	; 0x03
    3c12:	c5 54       	subi	r28, 0x45	; 69
    3c14:	d1 40       	sbci	r29, 0x01	; 1
    3c16:	0e 94 9b 3c 	call	0x7936	; 0x7936 <__addsf3>
    3c1a:	d8 01       	movw	r26, r16
    3c1c:	9c 96       	adiw	r26, 0x2c	; 44
    3c1e:	6d 93       	st	X+, r22
    3c20:	7d 93       	st	X+, r23
    3c22:	8d 93       	st	X+, r24
    3c24:	9c 93       	st	X, r25
    3c26:	9f 97       	sbiw	r26, 0x2f	; 47
	oRe.value[3][3] = 1;
    3c28:	80 e0       	ldi	r24, 0x00	; 0
    3c2a:	90 e0       	ldi	r25, 0x00	; 0
    3c2c:	a0 e8       	ldi	r26, 0x80	; 128
    3c2e:	bf e3       	ldi	r27, 0x3F	; 63
    3c30:	f8 01       	movw	r30, r16
    3c32:	84 af       	std	Z+60, r24	; 0x3c
    3c34:	95 af       	std	Z+61, r25	; 0x3d
    3c36:	a6 af       	std	Z+62, r26	; 0x3e
    3c38:	b7 af       	std	Z+63, r27	; 0x3f
	//printf("%f \t %f \t %f \t %f \t \n",oRe.value[2][0],oRe.value[2][1],oRe.value[2][2],oRe.value[2][3]);
	//printf("%f \t %f \t %f \t %f \t \n",oRe.value[3][0],oRe.value[3][1],oRe.value[3][2],oRe.value[3][3]);
	//printf(" \n ");


	Pelbow =  multMV(oRe,Pelbow); //Transformo coordenadas de posicin del codo con respecto al sistema base
    3c3a:	8d b7       	in	r24, 0x3d	; 61
    3c3c:	9e b7       	in	r25, 0x3e	; 62
    3c3e:	80 55       	subi	r24, 0x50	; 80
    3c40:	90 40       	sbci	r25, 0x00	; 0
    3c42:	0f b6       	in	r0, 0x3f	; 63
    3c44:	f8 94       	cli
    3c46:	9e bf       	out	0x3e, r25	; 62
    3c48:	0f be       	out	0x3f, r0	; 63
    3c4a:	8d bf       	out	0x3d, r24	; 61
    3c4c:	01 96       	adiw	r24, 0x01	; 1
    3c4e:	fc 01       	movw	r30, r24
    3c50:	d8 01       	movw	r26, r16
    3c52:	20 e4       	ldi	r18, 0x40	; 64
    3c54:	0d 90       	ld	r0, X+
    3c56:	01 92       	st	Z+, r0
    3c58:	21 50       	subi	r18, 0x01	; 1
    3c5a:	e1 f7       	brne	.-8      	; 0x3c54 <InverseKinematics+0xd58>
    3c5c:	dc 01       	movw	r26, r24
    3c5e:	a0 5c       	subi	r26, 0xC0	; 192
    3c60:	bf 4f       	sbci	r27, 0xFF	; 255
    3c62:	fe 01       	movw	r30, r28
    3c64:	71 96       	adiw	r30, 0x11	; 17
    3c66:	80 e1       	ldi	r24, 0x10	; 16
    3c68:	01 90       	ld	r0, Z+
    3c6a:	0d 92       	st	X+, r0
    3c6c:	81 50       	subi	r24, 0x01	; 1
    3c6e:	e1 f7       	brne	.-8      	; 0x3c68 <InverseKinematics+0xd6c>
    3c70:	ce 01       	movw	r24, r28
    3c72:	41 96       	adiw	r24, 0x11	; 17
    3c74:	0e 94 ed 0e 	call	0x1dda	; 0x1dda <multMV>

	
	//printf("Pelbow  %f %f %f %f \n\r",Pelbow.value[0],Pelbow.value[1],Pelbow.value[2],Pelbow.value[3]);


	desiredQPosition[0] = atan2(Pelbow.value[1] + aDH[0] * sin(desiredQPosition[0]), Pelbow.value[0] + aDH[0] * cos(desiredQPosition[0]));
    3c78:	8d 88       	ldd	r8, Y+21	; 0x15
    3c7a:	9e 88       	ldd	r9, Y+22	; 0x16
    3c7c:	af 88       	ldd	r10, Y+23	; 0x17
    3c7e:	b8 8c       	ldd	r11, Y+24	; 0x18
    3c80:	c9 88       	ldd	r12, Y+17	; 0x11
    3c82:	da 88       	ldd	r13, Y+18	; 0x12
    3c84:	eb 88       	ldd	r14, Y+19	; 0x13
    3c86:	fc 88       	ldd	r15, Y+20	; 0x14
    3c88:	ad b7       	in	r26, 0x3d	; 61
    3c8a:	be b7       	in	r27, 0x3e	; 62
    3c8c:	a0 5b       	subi	r26, 0xB0	; 176
    3c8e:	bf 4f       	sbci	r27, 0xFF	; 255
    3c90:	0f b6       	in	r0, 0x3f	; 63
    3c92:	f8 94       	cli
    3c94:	be bf       	out	0x3e, r27	; 62
    3c96:	0f be       	out	0x3f, r0	; 63
    3c98:	ad bf       	out	0x3d, r26	; 61
    3c9a:	c5 01       	movw	r24, r10
    3c9c:	b4 01       	movw	r22, r8
    3c9e:	cf 5a       	subi	r28, 0xAF	; 175
    3ca0:	de 4f       	sbci	r29, 0xFE	; 254
    3ca2:	b8 81       	ld	r27, Y
    3ca4:	c1 55       	subi	r28, 0x51	; 81
    3ca6:	d1 40       	sbci	r29, 0x01	; 1
    3ca8:	ce 5a       	subi	r28, 0xAE	; 174
    3caa:	de 4f       	sbci	r29, 0xFE	; 254
    3cac:	a8 81       	ld	r26, Y
    3cae:	c2 55       	subi	r28, 0x52	; 82
    3cb0:	d1 40       	sbci	r29, 0x01	; 1
    3cb2:	cd 5a       	subi	r28, 0xAD	; 173
    3cb4:	de 4f       	sbci	r29, 0xFE	; 254
    3cb6:	f8 81       	ld	r31, Y
    3cb8:	c3 55       	subi	r28, 0x53	; 83
    3cba:	d1 40       	sbci	r29, 0x01	; 1
    3cbc:	cc 5a       	subi	r28, 0xAC	; 172
    3cbe:	de 4f       	sbci	r29, 0xFE	; 254
    3cc0:	e8 81       	ld	r30, Y
    3cc2:	c4 55       	subi	r28, 0x54	; 84
    3cc4:	d1 40       	sbci	r29, 0x01	; 1
    3cc6:	2b 2f       	mov	r18, r27
    3cc8:	3a 2f       	mov	r19, r26
    3cca:	4f 2f       	mov	r20, r31
    3ccc:	5e 2f       	mov	r21, r30
    3cce:	0e 94 9b 3c 	call	0x7936	; 0x7936 <__addsf3>
    3cd2:	2b 01       	movw	r4, r22
    3cd4:	3c 01       	movw	r6, r24
    3cd6:	c7 01       	movw	r24, r14
    3cd8:	b6 01       	movw	r22, r12
    3cda:	c3 5b       	subi	r28, 0xB3	; 179
    3cdc:	de 4f       	sbci	r29, 0xFE	; 254
    3cde:	b8 81       	ld	r27, Y
    3ce0:	cd 54       	subi	r28, 0x4D	; 77
    3ce2:	d1 40       	sbci	r29, 0x01	; 1
    3ce4:	c2 5b       	subi	r28, 0xB2	; 178
    3ce6:	de 4f       	sbci	r29, 0xFE	; 254
    3ce8:	a8 81       	ld	r26, Y
    3cea:	ce 54       	subi	r28, 0x4E	; 78
    3cec:	d1 40       	sbci	r29, 0x01	; 1
    3cee:	c1 5b       	subi	r28, 0xB1	; 177
    3cf0:	de 4f       	sbci	r29, 0xFE	; 254
    3cf2:	f8 81       	ld	r31, Y
    3cf4:	cf 54       	subi	r28, 0x4F	; 79
    3cf6:	d1 40       	sbci	r29, 0x01	; 1
    3cf8:	c0 5b       	subi	r28, 0xB0	; 176
    3cfa:	de 4f       	sbci	r29, 0xFE	; 254
    3cfc:	e8 81       	ld	r30, Y
    3cfe:	c0 55       	subi	r28, 0x50	; 80
    3d00:	d1 40       	sbci	r29, 0x01	; 1
    3d02:	2b 2f       	mov	r18, r27
    3d04:	3a 2f       	mov	r19, r26
    3d06:	4f 2f       	mov	r20, r31
    3d08:	5e 2f       	mov	r21, r30
    3d0a:	0e 94 9b 3c 	call	0x7936	; 0x7936 <__addsf3>
    3d0e:	9b 01       	movw	r18, r22
    3d10:	ac 01       	movw	r20, r24
    3d12:	c3 01       	movw	r24, r6
    3d14:	b2 01       	movw	r22, r4
    3d16:	0e 94 25 3d 	call	0x7a4a	; 0x7a4a <atan2>
    3d1a:	60 93 64 12 	sts	0x1264, r22
    3d1e:	70 93 65 12 	sts	0x1265, r23
    3d22:	80 93 66 12 	sts	0x1266, r24
    3d26:	90 93 67 12 	sts	0x1267, r25
	desiredQPosition[1] = atan2(Pelbow.value[2] - dDH[0], sqrt(Pelbow.value[0] * Pelbow.value[0] + Pelbow.value[1] * Pelbow.value[1]));
    3d2a:	c7 01       	movw	r24, r14
    3d2c:	b6 01       	movw	r22, r12
    3d2e:	a7 01       	movw	r20, r14
    3d30:	96 01       	movw	r18, r12
    3d32:	0e 94 5f 3f 	call	0x7ebe	; 0x7ebe <__mulsf3>
    3d36:	7b 01       	movw	r14, r22
    3d38:	8c 01       	movw	r16, r24
    3d3a:	c5 01       	movw	r24, r10
    3d3c:	b4 01       	movw	r22, r8
    3d3e:	a5 01       	movw	r20, r10
    3d40:	94 01       	movw	r18, r8
    3d42:	0e 94 5f 3f 	call	0x7ebe	; 0x7ebe <__mulsf3>
    3d46:	9b 01       	movw	r18, r22
    3d48:	ac 01       	movw	r20, r24
    3d4a:	c8 01       	movw	r24, r16
    3d4c:	b7 01       	movw	r22, r14
    3d4e:	0e 94 9b 3c 	call	0x7936	; 0x7936 <__addsf3>
    3d52:	0e 94 18 40 	call	0x8030	; 0x8030 <sqrt>
    3d56:	6b 01       	movw	r12, r22
    3d58:	7c 01       	movw	r14, r24
    3d5a:	69 8d       	ldd	r22, Y+25	; 0x19
    3d5c:	7a 8d       	ldd	r23, Y+26	; 0x1a
    3d5e:	8b 8d       	ldd	r24, Y+27	; 0x1b
    3d60:	9c 8d       	ldd	r25, Y+28	; 0x1c
    3d62:	cb 5b       	subi	r28, 0xBB	; 187
    3d64:	de 4f       	sbci	r29, 0xFE	; 254
    3d66:	28 81       	ld	r18, Y
    3d68:	39 81       	ldd	r19, Y+1	; 0x01
    3d6a:	4a 81       	ldd	r20, Y+2	; 0x02
    3d6c:	5b 81       	ldd	r21, Y+3	; 0x03
    3d6e:	c5 54       	subi	r28, 0x45	; 69
    3d70:	d1 40       	sbci	r29, 0x01	; 1
    3d72:	0e 94 9a 3c 	call	0x7934	; 0x7934 <__subsf3>
    3d76:	a7 01       	movw	r20, r14
    3d78:	96 01       	movw	r18, r12
    3d7a:	0e 94 25 3d 	call	0x7a4a	; 0x7a4a <atan2>
    3d7e:	60 93 68 12 	sts	0x1268, r22
    3d82:	70 93 69 12 	sts	0x1269, r23
    3d86:	80 93 6a 12 	sts	0x126A, r24
    3d8a:	90 93 6b 12 	sts	0x126B, r25
	desiredQPosition[2] = 0;
    3d8e:	80 e0       	ldi	r24, 0x00	; 0
    3d90:	90 e0       	ldi	r25, 0x00	; 0
    3d92:	dc 01       	movw	r26, r24
    3d94:	80 93 6c 12 	sts	0x126C, r24
    3d98:	90 93 6d 12 	sts	0x126D, r25
    3d9c:	a0 93 6e 12 	sts	0x126E, r26
    3da0:	b0 93 6f 12 	sts	0x126F, r27
	desiredQPosition[3] = 0;
    3da4:	80 93 70 12 	sts	0x1270, r24
    3da8:	90 93 71 12 	sts	0x1271, r25
    3dac:	a0 93 72 12 	sts	0x1272, r26
    3db0:	b0 93 73 12 	sts	0x1273, r27

	//printf("d q %f %f %f %f %f %f %f \n\r",desiredQPosition[0],desiredQPosition[1],desiredQPosition[2],desiredQPosition[3],desiredQPosition[4],desiredQPosition[5],desiredQPosition[6]);
	
	CalculateHT(1);
    3db4:	81 e0       	ldi	r24, 0x01	; 1
    3db6:	90 e0       	ldi	r25, 0x00	; 0
    3db8:	0e 94 65 13 	call	0x26ca	; 0x26ca <CalculateHT>
	
	
	//R40 = calculateHomogenMatrix(4, 0);

	// De cero a tres por culpa de los ndices. En Calculate HT, al guardar las transformaciones de 0 a los sitemas 1-7, H0[0] no es identidad es H01
	R40 = InvH(H0[3]);
    3dbc:	ed b7       	in	r30, 0x3d	; 61
    3dbe:	fe b7       	in	r31, 0x3e	; 62
    3dc0:	e0 54       	subi	r30, 0x40	; 64
    3dc2:	f0 40       	sbci	r31, 0x00	; 0
    3dc4:	0f b6       	in	r0, 0x3f	; 63
    3dc6:	f8 94       	cli
    3dc8:	fe bf       	out	0x3e, r31	; 62
    3dca:	0f be       	out	0x3f, r0	; 63
    3dcc:	ed bf       	out	0x3d, r30	; 61
    3dce:	ad b7       	in	r26, 0x3d	; 61
    3dd0:	be b7       	in	r27, 0x3e	; 62
    3dd2:	11 96       	adiw	r26, 0x01	; 1
    3dd4:	ef e2       	ldi	r30, 0x2F	; 47
    3dd6:	fe e0       	ldi	r31, 0x0E	; 14
    3dd8:	80 e4       	ldi	r24, 0x40	; 64
    3dda:	01 90       	ld	r0, Z+
    3ddc:	0d 92       	st	X+, r0
    3dde:	81 50       	subi	r24, 0x01	; 1
    3de0:	e1 f7       	brne	.-8      	; 0x3dda <InverseKinematics+0xede>
    3de2:	ce 01       	movw	r24, r28
    3de4:	8f 54       	subi	r24, 0x4F	; 79
    3de6:	9f 4f       	sbci	r25, 0xFF	; 255
    3de8:	0e 94 37 16 	call	0x2c6e	; 0x2c6e <InvH>
	
	//Esta matriz tambin se utiliza para obtener la posicin del centro de la mueca con respecto al codo
	vector4 wp;
	
	//WristPosition = multMV(R40 , WristPosition);
	wp = multMV(R40 , WristPosition);
    3dec:	8d b7       	in	r24, 0x3d	; 61
    3dee:	9e b7       	in	r25, 0x3e	; 62
    3df0:	80 5c       	subi	r24, 0xC0	; 192
    3df2:	9f 4f       	sbci	r25, 0xFF	; 255
    3df4:	0f b6       	in	r0, 0x3f	; 63
    3df6:	f8 94       	cli
    3df8:	9e bf       	out	0x3e, r25	; 62
    3dfa:	0f be       	out	0x3f, r0	; 63
    3dfc:	8d bf       	out	0x3d, r24	; 61
    3dfe:	ad b7       	in	r26, 0x3d	; 61
    3e00:	be b7       	in	r27, 0x3e	; 62
    3e02:	a0 55       	subi	r26, 0x50	; 80
    3e04:	b0 40       	sbci	r27, 0x00	; 0
    3e06:	0f b6       	in	r0, 0x3f	; 63
    3e08:	f8 94       	cli
    3e0a:	be bf       	out	0x3e, r27	; 62
    3e0c:	0f be       	out	0x3f, r0	; 63
    3e0e:	ad bf       	out	0x3d, r26	; 61
    3e10:	11 96       	adiw	r26, 0x01	; 1
    3e12:	cd 01       	movw	r24, r26
    3e14:	fe 01       	movw	r30, r28
    3e16:	ef 54       	subi	r30, 0x4F	; 79
    3e18:	ff 4f       	sbci	r31, 0xFF	; 255
    3e1a:	20 e4       	ldi	r18, 0x40	; 64
    3e1c:	ad 01       	movw	r20, r26
    3e1e:	01 90       	ld	r0, Z+
    3e20:	dc 01       	movw	r26, r24
    3e22:	0d 92       	st	X+, r0
    3e24:	cd 01       	movw	r24, r26
    3e26:	21 50       	subi	r18, 0x01	; 1
    3e28:	d1 f7       	brne	.-12     	; 0x3e1e <InverseKinematics+0xf22>
    3e2a:	da 01       	movw	r26, r20
    3e2c:	a0 5c       	subi	r26, 0xC0	; 192
    3e2e:	bf 4f       	sbci	r27, 0xFF	; 255
    3e30:	fe 01       	movw	r30, r28
    3e32:	31 96       	adiw	r30, 0x01	; 1
    3e34:	80 e1       	ldi	r24, 0x10	; 16
    3e36:	01 90       	ld	r0, Z+
    3e38:	0d 92       	st	X+, r0
    3e3a:	81 50       	subi	r24, 0x01	; 1
    3e3c:	e1 f7       	brne	.-8      	; 0x3e36 <InverseKinematics+0xf3a>
    3e3e:	ce 01       	movw	r24, r28
    3e40:	81 96       	adiw	r24, 0x21	; 33
    3e42:	0e 94 ed 0e 	call	0x1dda	; 0x1dda <multMV>
    3e46:	c9 a0       	ldd	r12, Y+33	; 0x21
    3e48:	da a0       	ldd	r13, Y+34	; 0x22
    3e4a:	eb a0       	ldd	r14, Y+35	; 0x23
    3e4c:	fc a0       	ldd	r15, Y+36	; 0x24
    3e4e:	8d a0       	ldd	r8, Y+37	; 0x25
    3e50:	9e a0       	ldd	r9, Y+38	; 0x26
    3e52:	af a0       	ldd	r10, Y+39	; 0x27
    3e54:	b8 a4       	ldd	r11, Y+40	; 0x28
    3e56:	49 a4       	ldd	r4, Y+41	; 0x29
    3e58:	5a a4       	ldd	r5, Y+42	; 0x2a
    3e5a:	6b a4       	ldd	r6, Y+43	; 0x2b
    3e5c:	7c a4       	ldd	r7, Y+44	; 0x2c
	
	
	//printf("WP  %f %f %f %f \n\r",wp.value[0],wp.value[1],wp.value[2],wp.value[3]);

	
	desiredQPosition[2] = atan2(wp.value[1],wp.value[0]);
    3e5e:	ed b7       	in	r30, 0x3d	; 61
    3e60:	fe b7       	in	r31, 0x3e	; 62
    3e62:	e0 5b       	subi	r30, 0xB0	; 176
    3e64:	ff 4f       	sbci	r31, 0xFF	; 255
    3e66:	0f b6       	in	r0, 0x3f	; 63
    3e68:	f8 94       	cli
    3e6a:	fe bf       	out	0x3e, r31	; 62
    3e6c:	0f be       	out	0x3f, r0	; 63
    3e6e:	ed bf       	out	0x3d, r30	; 61
    3e70:	c5 01       	movw	r24, r10
    3e72:	b4 01       	movw	r22, r8
    3e74:	a7 01       	movw	r20, r14
    3e76:	96 01       	movw	r18, r12
    3e78:	0e 94 25 3d 	call	0x7a4a	; 0x7a4a <atan2>
    3e7c:	60 93 6c 12 	sts	0x126C, r22
    3e80:	70 93 6d 12 	sts	0x126D, r23
    3e84:	80 93 6e 12 	sts	0x126E, r24
    3e88:	90 93 6f 12 	sts	0x126F, r25
	//desiredQPosition[3] = M_PI_2 - atan2(wp.value[2],
	//sqrt(wp.value[0] * wp.value[0] + wp.value[1]* wp.value[1]));
	
	desiredQPosition[3] = M_PI_2 - atan2(wp.value[2],sqrt(wp.value[0] * wp.value[0] + wp.value[1]* wp.value[1]));
    3e8c:	c7 01       	movw	r24, r14
    3e8e:	b6 01       	movw	r22, r12
    3e90:	a7 01       	movw	r20, r14
    3e92:	96 01       	movw	r18, r12
    3e94:	0e 94 5f 3f 	call	0x7ebe	; 0x7ebe <__mulsf3>
    3e98:	7b 01       	movw	r14, r22
    3e9a:	8c 01       	movw	r16, r24
    3e9c:	c5 01       	movw	r24, r10
    3e9e:	b4 01       	movw	r22, r8
    3ea0:	a5 01       	movw	r20, r10
    3ea2:	94 01       	movw	r18, r8
    3ea4:	0e 94 5f 3f 	call	0x7ebe	; 0x7ebe <__mulsf3>
    3ea8:	9b 01       	movw	r18, r22
    3eaa:	ac 01       	movw	r20, r24
    3eac:	c8 01       	movw	r24, r16
    3eae:	b7 01       	movw	r22, r14
    3eb0:	0e 94 9b 3c 	call	0x7936	; 0x7936 <__addsf3>
    3eb4:	0e 94 18 40 	call	0x8030	; 0x8030 <sqrt>
    3eb8:	9b 01       	movw	r18, r22
    3eba:	ac 01       	movw	r20, r24
    3ebc:	c3 01       	movw	r24, r6
    3ebe:	b2 01       	movw	r22, r4
    3ec0:	0e 94 25 3d 	call	0x7a4a	; 0x7a4a <atan2>
    3ec4:	9b 01       	movw	r18, r22
    3ec6:	ac 01       	movw	r20, r24
    3ec8:	6b ed       	ldi	r22, 0xDB	; 219
    3eca:	7f e0       	ldi	r23, 0x0F	; 15
    3ecc:	89 ec       	ldi	r24, 0xC9	; 201
    3ece:	9f e3       	ldi	r25, 0x3F	; 63
    3ed0:	0e 94 9a 3c 	call	0x7934	; 0x7934 <__subsf3>
    3ed4:	60 93 70 12 	sts	0x1270, r22
    3ed8:	70 93 71 12 	sts	0x1271, r23
    3edc:	80 93 72 12 	sts	0x1272, r24
    3ee0:	90 93 73 12 	sts	0x1273, r25

	//printf("d q %f %f %f %f %f %f %f \n\r",desiredQPosition[0],desiredQPosition[1],desiredQPosition[2],desiredQPosition[3],desiredQPosition[4],desiredQPosition[5],desiredQPosition[6]);



	CalculateHT(1);
    3ee4:	81 e0       	ldi	r24, 0x01	; 1
    3ee6:	90 e0       	ldi	r25, 0x00	; 0
    3ee8:	0e 94 65 13 	call	0x26ca	; 0x26ca <CalculateHT>
	
	//A partir de aqu se calculan los ngulos de orientacin
	//R40 = calculateHomogenMatrix(4, 0);
	R40 = InvH(H0[3]);
    3eec:	8d b7       	in	r24, 0x3d	; 61
    3eee:	9e b7       	in	r25, 0x3e	; 62
    3ef0:	80 54       	subi	r24, 0x40	; 64
    3ef2:	90 40       	sbci	r25, 0x00	; 0
    3ef4:	0f b6       	in	r0, 0x3f	; 63
    3ef6:	f8 94       	cli
    3ef8:	9e bf       	out	0x3e, r25	; 62
    3efa:	0f be       	out	0x3f, r0	; 63
    3efc:	8d bf       	out	0x3d, r24	; 61
    3efe:	ad b7       	in	r26, 0x3d	; 61
    3f00:	be b7       	in	r27, 0x3e	; 62
    3f02:	11 96       	adiw	r26, 0x01	; 1
    3f04:	ef e2       	ldi	r30, 0x2F	; 47
    3f06:	fe e0       	ldi	r31, 0x0E	; 14
    3f08:	80 e4       	ldi	r24, 0x40	; 64
    3f0a:	01 90       	ld	r0, Z+
    3f0c:	0d 92       	st	X+, r0
    3f0e:	81 50       	subi	r24, 0x01	; 1
    3f10:	e1 f7       	brne	.-8      	; 0x3f0a <InverseKinematics+0x100e>
    3f12:	ce 01       	movw	r24, r28
    3f14:	8f 54       	subi	r24, 0x4F	; 79
    3f16:	9f 4f       	sbci	r25, 0xFF	; 255
    3f18:	0e 94 37 16 	call	0x2c6e	; 0x2c6e <InvH>
	//printf("%f \t %f \t %f \t %f \t \n",R40.value[3][0],R40.value[3][1],R40.value[3][2],R40.value[3][3]);
	//printf(" \n ");


	//R47 = R40 * R07;
	R47 = mult(R40 , R07);
    3f1c:	ad b7       	in	r26, 0x3d	; 61
    3f1e:	be b7       	in	r27, 0x3e	; 62
    3f20:	a0 5c       	subi	r26, 0xC0	; 192
    3f22:	bf 4f       	sbci	r27, 0xFF	; 255
    3f24:	0f b6       	in	r0, 0x3f	; 63
    3f26:	f8 94       	cli
    3f28:	be bf       	out	0x3e, r27	; 62
    3f2a:	0f be       	out	0x3f, r0	; 63
    3f2c:	ad bf       	out	0x3d, r26	; 61
    3f2e:	ed b7       	in	r30, 0x3d	; 61
    3f30:	fe b7       	in	r31, 0x3e	; 62
    3f32:	e0 58       	subi	r30, 0x80	; 128
    3f34:	f0 40       	sbci	r31, 0x00	; 0
    3f36:	0f b6       	in	r0, 0x3f	; 63
    3f38:	f8 94       	cli
    3f3a:	fe bf       	out	0x3e, r31	; 62
    3f3c:	0f be       	out	0x3f, r0	; 63
    3f3e:	ed bf       	out	0x3d, r30	; 61
    3f40:	ad b7       	in	r26, 0x3d	; 61
    3f42:	be b7       	in	r27, 0x3e	; 62
    3f44:	11 96       	adiw	r26, 0x01	; 1
    3f46:	cd 01       	movw	r24, r26
    3f48:	fe 01       	movw	r30, r28
    3f4a:	ef 54       	subi	r30, 0x4F	; 79
    3f4c:	ff 4f       	sbci	r31, 0xFF	; 255
    3f4e:	20 e4       	ldi	r18, 0x40	; 64
    3f50:	ad 01       	movw	r20, r26
    3f52:	01 90       	ld	r0, Z+
    3f54:	dc 01       	movw	r26, r24
    3f56:	0d 92       	st	X+, r0
    3f58:	cd 01       	movw	r24, r26
    3f5a:	21 50       	subi	r18, 0x01	; 1
    3f5c:	d1 f7       	brne	.-12     	; 0x3f52 <InverseKinematics+0x1056>
    3f5e:	da 01       	movw	r26, r20
    3f60:	a0 5c       	subi	r26, 0xC0	; 192
    3f62:	bf 4f       	sbci	r27, 0xFF	; 255
    3f64:	fe 01       	movw	r30, r28
    3f66:	f1 96       	adiw	r30, 0x31	; 49
    3f68:	80 e4       	ldi	r24, 0x40	; 64
    3f6a:	01 90       	ld	r0, Z+
    3f6c:	0d 92       	st	X+, r0
    3f6e:	81 50       	subi	r24, 0x01	; 1
    3f70:	e1 f7       	brne	.-8      	; 0x3f6a <InverseKinematics+0x106e>
    3f72:	ce 01       	movw	r24, r28
    3f74:	8f 58       	subi	r24, 0x8F	; 143
    3f76:	9f 4f       	sbci	r25, 0xFF	; 255
    3f78:	0e 94 81 0f 	call	0x1f02	; 0x1f02 <mult>
    3f7c:	fe 01       	movw	r30, r28
    3f7e:	ef 58       	subi	r30, 0x8F	; 143
    3f80:	ff 4f       	sbci	r31, 0xFF	; 255
    3f82:	80 80       	ld	r8, Z
    3f84:	91 80       	ldd	r9, Z+1	; 0x01
    3f86:	a2 80       	ldd	r10, Z+2	; 0x02
    3f88:	b3 80       	ldd	r11, Z+3	; 0x03
    3f8a:	80 89       	ldd	r24, Z+16	; 0x10
    3f8c:	91 89       	ldd	r25, Z+17	; 0x11
    3f8e:	a2 89       	ldd	r26, Z+18	; 0x12
    3f90:	b3 89       	ldd	r27, Z+19	; 0x13
    3f92:	c7 5c       	subi	r28, 0xC7	; 199
    3f94:	de 4f       	sbci	r29, 0xFE	; 254
    3f96:	88 83       	st	Y, r24
    3f98:	99 83       	std	Y+1, r25	; 0x01
    3f9a:	aa 83       	std	Y+2, r26	; 0x02
    3f9c:	bb 83       	std	Y+3, r27	; 0x03
    3f9e:	c9 53       	subi	r28, 0x39	; 57
    3fa0:	d1 40       	sbci	r29, 0x01	; 1
    3fa2:	44 88       	ldd	r4, Z+20	; 0x14
    3fa4:	55 88       	ldd	r5, Z+21	; 0x15
    3fa6:	66 88       	ldd	r6, Z+22	; 0x16
    3fa8:	77 88       	ldd	r7, Z+23	; 0x17
    3faa:	80 8d       	ldd	r24, Z+24	; 0x18
    3fac:	91 8d       	ldd	r25, Z+25	; 0x19
    3fae:	a2 8d       	ldd	r26, Z+26	; 0x1a
    3fb0:	b3 8d       	ldd	r27, Z+27	; 0x1b
    3fb2:	c3 5c       	subi	r28, 0xC3	; 195
    3fb4:	de 4f       	sbci	r29, 0xFE	; 254
    3fb6:	88 83       	st	Y, r24
    3fb8:	99 83       	std	Y+1, r25	; 0x01
    3fba:	aa 83       	std	Y+2, r26	; 0x02
    3fbc:	bb 83       	std	Y+3, r27	; 0x03
    3fbe:	cd 53       	subi	r28, 0x3D	; 61
    3fc0:	d1 40       	sbci	r29, 0x01	; 1
    3fc2:	c0 a0       	ldd	r12, Z+32	; 0x20
    3fc4:	d1 a0       	ldd	r13, Z+33	; 0x21
    3fc6:	e2 a0       	ldd	r14, Z+34	; 0x22
    3fc8:	f3 a0       	ldd	r15, Z+35	; 0x23
    3fca:	84 a1       	ldd	r24, Z+36	; 0x24
    3fcc:	95 a1       	ldd	r25, Z+37	; 0x25
    3fce:	a6 a1       	ldd	r26, Z+38	; 0x26
    3fd0:	b7 a1       	ldd	r27, Z+39	; 0x27
    3fd2:	cb 5c       	subi	r28, 0xCB	; 203
    3fd4:	de 4f       	sbci	r29, 0xFE	; 254
    3fd6:	88 83       	st	Y, r24
    3fd8:	99 83       	std	Y+1, r25	; 0x01
    3fda:	aa 83       	std	Y+2, r26	; 0x02
    3fdc:	bb 83       	std	Y+3, r27	; 0x03
    3fde:	c5 53       	subi	r28, 0x35	; 53
    3fe0:	d1 40       	sbci	r29, 0x01	; 1
    3fe2:	80 a5       	ldd	r24, Z+40	; 0x28
    3fe4:	91 a5       	ldd	r25, Z+41	; 0x29
    3fe6:	a2 a5       	ldd	r26, Z+42	; 0x2a
    3fe8:	b3 a5       	ldd	r27, Z+43	; 0x2b
    3fea:	cf 5c       	subi	r28, 0xCF	; 207
    3fec:	de 4f       	sbci	r29, 0xFE	; 254
    3fee:	88 83       	st	Y, r24
    3ff0:	99 83       	std	Y+1, r25	; 0x01
    3ff2:	aa 83       	std	Y+2, r26	; 0x02
    3ff4:	bb 83       	std	Y+3, r27	; 0x03
    3ff6:	c1 53       	subi	r28, 0x31	; 49
    3ff8:	d1 40       	sbci	r29, 0x01	; 1
	//printf("%f \t %f \t %f \t %f \t \n",R47.value[2][0],R47.value[2][1],R47.value[2][2],R47.value[2][3]);
	//printf("%f \t %f \t %f \t %f \t \n",R47.value[3][0],R47.value[3][1],R47.value[3][2],R47.value[3][3]);
	//printf(" \n ");


	if ((R47.value[0][0] < 0.0001)&&(R47.value[0][0] > -0.0001))
    3ffa:	ad b7       	in	r26, 0x3d	; 61
    3ffc:	be b7       	in	r27, 0x3e	; 62
    3ffe:	a0 58       	subi	r26, 0x80	; 128
    4000:	bf 4f       	sbci	r27, 0xFF	; 255
    4002:	0f b6       	in	r0, 0x3f	; 63
    4004:	f8 94       	cli
    4006:	be bf       	out	0x3e, r27	; 62
    4008:	0f be       	out	0x3f, r0	; 63
    400a:	ad bf       	out	0x3d, r26	; 61
    400c:	c5 01       	movw	r24, r10
    400e:	b4 01       	movw	r22, r8
    4010:	27 e1       	ldi	r18, 0x17	; 23
    4012:	37 eb       	ldi	r19, 0xB7	; 183
    4014:	41 ed       	ldi	r20, 0xD1	; 209
    4016:	58 e3       	ldi	r21, 0x38	; 56
    4018:	0e 94 78 3d 	call	0x7af0	; 0x7af0 <__cmpsf2>
    401c:	87 ff       	sbrs	r24, 7
    401e:	28 c0       	rjmp	.+80     	; 0x4070 <InverseKinematics+0x1174>
    4020:	c5 01       	movw	r24, r10
    4022:	b4 01       	movw	r22, r8
    4024:	27 e1       	ldi	r18, 0x17	; 23
    4026:	37 eb       	ldi	r19, 0xB7	; 183
    4028:	41 ed       	ldi	r20, 0xD1	; 209
    402a:	58 eb       	ldi	r21, 0xB8	; 184
    402c:	0e 94 54 3f 	call	0x7ea8	; 0x7ea8 <__gesf2>
    4030:	18 16       	cp	r1, r24
    4032:	f4 f4       	brge	.+60     	; 0x4070 <InverseKinematics+0x1174>
	{
		desiredQPosition[4] = 0;
    4034:	80 e0       	ldi	r24, 0x00	; 0
    4036:	90 e0       	ldi	r25, 0x00	; 0
    4038:	dc 01       	movw	r26, r24
    403a:	80 93 74 12 	sts	0x1274, r24
    403e:	90 93 75 12 	sts	0x1275, r25
    4042:	a0 93 76 12 	sts	0x1276, r26
    4046:	b0 93 77 12 	sts	0x1277, r27
		desiredQPosition[5] = 0;
    404a:	80 93 78 12 	sts	0x1278, r24
    404e:	90 93 79 12 	sts	0x1279, r25
    4052:	a0 93 7a 12 	sts	0x127A, r26
    4056:	b0 93 7b 12 	sts	0x127B, r27
		desiredQPosition[6] = atan2(R47.value[1][1], R47.value[1][2]);
    405a:	c3 01       	movw	r24, r6
    405c:	b2 01       	movw	r22, r4
    405e:	c3 5c       	subi	r28, 0xC3	; 195
    4060:	de 4f       	sbci	r29, 0xFE	; 254
    4062:	28 81       	ld	r18, Y
    4064:	39 81       	ldd	r19, Y+1	; 0x01
    4066:	4a 81       	ldd	r20, Y+2	; 0x02
    4068:	5b 81       	ldd	r21, Y+3	; 0x03
    406a:	cd 53       	subi	r28, 0x3D	; 61
    406c:	d1 40       	sbci	r29, 0x01	; 1
    406e:	49 c0       	rjmp	.+146    	; 0x4102 <InverseKinematics+0x1206>
		//printf("d q1 %f %f %f %f %f %f %f \n\r",desiredQPosition[0],desiredQPosition[1],desiredQPosition[2],desiredQPosition[3],desiredQPosition[4],desiredQPosition[5],desiredQPosition[6]);
	}
	else
	{
		desiredQPosition[5] = atan2(sqrt(1 - pow(R47.value[2][0], 2)), (R47.value[2][0]));
    4070:	c7 01       	movw	r24, r14
    4072:	b6 01       	movw	r22, r12
    4074:	a7 01       	movw	r20, r14
    4076:	96 01       	movw	r18, r12
    4078:	0e 94 5f 3f 	call	0x7ebe	; 0x7ebe <__mulsf3>
    407c:	56 2f       	mov	r21, r22
    407e:	47 2f       	mov	r20, r23
    4080:	38 2f       	mov	r19, r24
    4082:	29 2f       	mov	r18, r25
    4084:	60 e0       	ldi	r22, 0x00	; 0
    4086:	70 e0       	ldi	r23, 0x00	; 0
    4088:	80 e8       	ldi	r24, 0x80	; 128
    408a:	9f e3       	ldi	r25, 0x3F	; 63
    408c:	da 01       	movw	r26, r20
    408e:	f9 01       	movw	r30, r18
    4090:	2b 2f       	mov	r18, r27
    4092:	3a 2f       	mov	r19, r26
    4094:	4f 2f       	mov	r20, r31
    4096:	5e 2f       	mov	r21, r30
    4098:	0e 94 9a 3c 	call	0x7934	; 0x7934 <__subsf3>
    409c:	0e 94 18 40 	call	0x8030	; 0x8030 <sqrt>
    40a0:	a7 01       	movw	r20, r14
    40a2:	96 01       	movw	r18, r12
    40a4:	0e 94 25 3d 	call	0x7a4a	; 0x7a4a <atan2>
    40a8:	60 93 78 12 	sts	0x1278, r22
    40ac:	70 93 79 12 	sts	0x1279, r23
    40b0:	80 93 7a 12 	sts	0x127A, r24
    40b4:	90 93 7b 12 	sts	0x127B, r25
		desiredQPosition[4] = atan2(R47.value[1][0], R47.value[0][0]);
    40b8:	c7 5c       	subi	r28, 0xC7	; 199
    40ba:	de 4f       	sbci	r29, 0xFE	; 254
    40bc:	68 81       	ld	r22, Y
    40be:	79 81       	ldd	r23, Y+1	; 0x01
    40c0:	8a 81       	ldd	r24, Y+2	; 0x02
    40c2:	9b 81       	ldd	r25, Y+3	; 0x03
    40c4:	c9 53       	subi	r28, 0x39	; 57
    40c6:	d1 40       	sbci	r29, 0x01	; 1
    40c8:	a5 01       	movw	r20, r10
    40ca:	94 01       	movw	r18, r8
    40cc:	0e 94 25 3d 	call	0x7a4a	; 0x7a4a <atan2>
    40d0:	60 93 74 12 	sts	0x1274, r22
    40d4:	70 93 75 12 	sts	0x1275, r23
    40d8:	80 93 76 12 	sts	0x1276, r24
    40dc:	90 93 77 12 	sts	0x1277, r25
		desiredQPosition[6] = atan2(R47.value[2][2], -R47.value[2][1]);
    40e0:	cb 5c       	subi	r28, 0xCB	; 203
    40e2:	de 4f       	sbci	r29, 0xFE	; 254
    40e4:	28 81       	ld	r18, Y
    40e6:	39 81       	ldd	r19, Y+1	; 0x01
    40e8:	4a 81       	ldd	r20, Y+2	; 0x02
    40ea:	5b 81       	ldd	r21, Y+3	; 0x03
    40ec:	c5 53       	subi	r28, 0x35	; 53
    40ee:	d1 40       	sbci	r29, 0x01	; 1
    40f0:	50 58       	subi	r21, 0x80	; 128
    40f2:	cf 5c       	subi	r28, 0xCF	; 207
    40f4:	de 4f       	sbci	r29, 0xFE	; 254
    40f6:	68 81       	ld	r22, Y
    40f8:	79 81       	ldd	r23, Y+1	; 0x01
    40fa:	8a 81       	ldd	r24, Y+2	; 0x02
    40fc:	9b 81       	ldd	r25, Y+3	; 0x03
    40fe:	c1 53       	subi	r28, 0x31	; 49
    4100:	d1 40       	sbci	r29, 0x01	; 1
    4102:	0e 94 25 3d 	call	0x7a4a	; 0x7a4a <atan2>
    4106:	60 93 7c 12 	sts	0x127C, r22
    410a:	70 93 7d 12 	sts	0x127D, r23
    410e:	80 93 7e 12 	sts	0x127E, r24
    4112:	90 93 7f 12 	sts	0x127F, r25
		//printf("d q2 %f %f %f %f %f %f %f \n\r",desiredQPosition[0],desiredQPosition[1],desiredQPosition[2],desiredQPosition[3],desiredQPosition[4],desiredQPosition[5],desiredQPosition[6]);
	}
				
	if (desiredQPosition[4] > 2.4)
    4116:	c0 90 74 12 	lds	r12, 0x1274
    411a:	d0 90 75 12 	lds	r13, 0x1275
    411e:	e0 90 76 12 	lds	r14, 0x1276
    4122:	f0 90 77 12 	lds	r15, 0x1277
    4126:	c7 01       	movw	r24, r14
    4128:	b6 01       	movw	r22, r12
    412a:	2a e9       	ldi	r18, 0x9A	; 154
    412c:	39 e9       	ldi	r19, 0x99	; 153
    412e:	49 e1       	ldi	r20, 0x19	; 25
    4130:	50 e4       	ldi	r21, 0x40	; 64
    4132:	0e 94 54 3f 	call	0x7ea8	; 0x7ea8 <__gesf2>
    4136:	18 16       	cp	r1, r24
    4138:	0c f0       	brlt	.+2      	; 0x413c <InverseKinematics+0x1240>
    413a:	4b c0       	rjmp	.+150    	; 0x41d2 <InverseKinematics+0x12d6>
	{
		desiredQPosition[4] -= M_PI;
    413c:	c7 01       	movw	r24, r14
    413e:	b6 01       	movw	r22, r12
    4140:	2b ed       	ldi	r18, 0xDB	; 219
    4142:	3f e0       	ldi	r19, 0x0F	; 15
    4144:	49 e4       	ldi	r20, 0x49	; 73
    4146:	50 e4       	ldi	r21, 0x40	; 64
    4148:	0e 94 9a 3c 	call	0x7934	; 0x7934 <__subsf3>
    414c:	60 93 74 12 	sts	0x1274, r22
    4150:	70 93 75 12 	sts	0x1275, r23
    4154:	80 93 76 12 	sts	0x1276, r24
    4158:	90 93 77 12 	sts	0x1277, r25
		desiredQPosition[5] *= -1;
    415c:	80 91 78 12 	lds	r24, 0x1278
    4160:	90 91 79 12 	lds	r25, 0x1279
    4164:	a0 91 7a 12 	lds	r26, 0x127A
    4168:	b0 91 7b 12 	lds	r27, 0x127B
    416c:	b0 58       	subi	r27, 0x80	; 128
    416e:	80 93 78 12 	sts	0x1278, r24
    4172:	90 93 79 12 	sts	0x1279, r25
    4176:	a0 93 7a 12 	sts	0x127A, r26
    417a:	b0 93 7b 12 	sts	0x127B, r27
		if (desiredQPosition[6] > 0) desiredQPosition[6] -= M_PI;
    417e:	c0 90 7c 12 	lds	r12, 0x127C
    4182:	d0 90 7d 12 	lds	r13, 0x127D
    4186:	e0 90 7e 12 	lds	r14, 0x127E
    418a:	f0 90 7f 12 	lds	r15, 0x127F
    418e:	c7 01       	movw	r24, r14
    4190:	b6 01       	movw	r22, r12
    4192:	20 e0       	ldi	r18, 0x00	; 0
    4194:	30 e0       	ldi	r19, 0x00	; 0
    4196:	a9 01       	movw	r20, r18
    4198:	0e 94 54 3f 	call	0x7ea8	; 0x7ea8 <__gesf2>
    419c:	18 16       	cp	r1, r24
    419e:	4c f4       	brge	.+18     	; 0x41b2 <InverseKinematics+0x12b6>
    41a0:	c7 01       	movw	r24, r14
    41a2:	b6 01       	movw	r22, r12
    41a4:	2b ed       	ldi	r18, 0xDB	; 219
    41a6:	3f e0       	ldi	r19, 0x0F	; 15
    41a8:	49 e4       	ldi	r20, 0x49	; 73
    41aa:	50 e4       	ldi	r21, 0x40	; 64
    41ac:	0e 94 9a 3c 	call	0x7934	; 0x7934 <__subsf3>
    41b0:	08 c0       	rjmp	.+16     	; 0x41c2 <InverseKinematics+0x12c6>
		else desiredQPosition[6] += M_PI;
    41b2:	c7 01       	movw	r24, r14
    41b4:	b6 01       	movw	r22, r12
    41b6:	2b ed       	ldi	r18, 0xDB	; 219
    41b8:	3f e0       	ldi	r19, 0x0F	; 15
    41ba:	49 e4       	ldi	r20, 0x49	; 73
    41bc:	50 e4       	ldi	r21, 0x40	; 64
    41be:	0e 94 9b 3c 	call	0x7936	; 0x7936 <__addsf3>
    41c2:	60 93 7c 12 	sts	0x127C, r22
    41c6:	70 93 7d 12 	sts	0x127D, r23
    41ca:	80 93 7e 12 	sts	0x127E, r24
    41ce:	90 93 7f 12 	sts	0x127F, r25

		//printf("d q3 %f %f %f %f %f %f %f \n\r",desiredQPosition[0],desiredQPosition[1],desiredQPosition[2],desiredQPosition[3],desiredQPosition[4],desiredQPosition[5],desiredQPosition[6]);

	}
		if (desiredQPosition[4] < -2.4)
    41d2:	c0 90 74 12 	lds	r12, 0x1274
    41d6:	d0 90 75 12 	lds	r13, 0x1275
    41da:	e0 90 76 12 	lds	r14, 0x1276
    41de:	f0 90 77 12 	lds	r15, 0x1277
    41e2:	c7 01       	movw	r24, r14
    41e4:	b6 01       	movw	r22, r12
    41e6:	2a e9       	ldi	r18, 0x9A	; 154
    41e8:	39 e9       	ldi	r19, 0x99	; 153
    41ea:	49 e1       	ldi	r20, 0x19	; 25
    41ec:	50 ec       	ldi	r21, 0xC0	; 192
    41ee:	0e 94 78 3d 	call	0x7af0	; 0x7af0 <__cmpsf2>
    41f2:	87 ff       	sbrs	r24, 7
    41f4:	4b c0       	rjmp	.+150    	; 0x428c <InverseKinematics+0x1390>
		{
			desiredQPosition[4] += M_PI;
    41f6:	c7 01       	movw	r24, r14
    41f8:	b6 01       	movw	r22, r12
    41fa:	2b ed       	ldi	r18, 0xDB	; 219
    41fc:	3f e0       	ldi	r19, 0x0F	; 15
    41fe:	49 e4       	ldi	r20, 0x49	; 73
    4200:	50 e4       	ldi	r21, 0x40	; 64
    4202:	0e 94 9b 3c 	call	0x7936	; 0x7936 <__addsf3>
    4206:	60 93 74 12 	sts	0x1274, r22
    420a:	70 93 75 12 	sts	0x1275, r23
    420e:	80 93 76 12 	sts	0x1276, r24
    4212:	90 93 77 12 	sts	0x1277, r25
			desiredQPosition[5] *= -1;
    4216:	80 91 78 12 	lds	r24, 0x1278
    421a:	90 91 79 12 	lds	r25, 0x1279
    421e:	a0 91 7a 12 	lds	r26, 0x127A
    4222:	b0 91 7b 12 	lds	r27, 0x127B
    4226:	b0 58       	subi	r27, 0x80	; 128
    4228:	80 93 78 12 	sts	0x1278, r24
    422c:	90 93 79 12 	sts	0x1279, r25
    4230:	a0 93 7a 12 	sts	0x127A, r26
    4234:	b0 93 7b 12 	sts	0x127B, r27
			if (desiredQPosition[6] > 0) desiredQPosition[6] -= M_PI;
    4238:	c0 90 7c 12 	lds	r12, 0x127C
    423c:	d0 90 7d 12 	lds	r13, 0x127D
    4240:	e0 90 7e 12 	lds	r14, 0x127E
    4244:	f0 90 7f 12 	lds	r15, 0x127F
    4248:	c7 01       	movw	r24, r14
    424a:	b6 01       	movw	r22, r12
    424c:	20 e0       	ldi	r18, 0x00	; 0
    424e:	30 e0       	ldi	r19, 0x00	; 0
    4250:	a9 01       	movw	r20, r18
    4252:	0e 94 54 3f 	call	0x7ea8	; 0x7ea8 <__gesf2>
    4256:	18 16       	cp	r1, r24
    4258:	4c f4       	brge	.+18     	; 0x426c <InverseKinematics+0x1370>
    425a:	c7 01       	movw	r24, r14
    425c:	b6 01       	movw	r22, r12
    425e:	2b ed       	ldi	r18, 0xDB	; 219
    4260:	3f e0       	ldi	r19, 0x0F	; 15
    4262:	49 e4       	ldi	r20, 0x49	; 73
    4264:	50 e4       	ldi	r21, 0x40	; 64
    4266:	0e 94 9a 3c 	call	0x7934	; 0x7934 <__subsf3>
    426a:	08 c0       	rjmp	.+16     	; 0x427c <InverseKinematics+0x1380>
			else desiredQPosition[6] += M_PI;
    426c:	c7 01       	movw	r24, r14
    426e:	b6 01       	movw	r22, r12
    4270:	2b ed       	ldi	r18, 0xDB	; 219
    4272:	3f e0       	ldi	r19, 0x0F	; 15
    4274:	49 e4       	ldi	r20, 0x49	; 73
    4276:	50 e4       	ldi	r21, 0x40	; 64
    4278:	0e 94 9b 3c 	call	0x7936	; 0x7936 <__addsf3>
    427c:	60 93 7c 12 	sts	0x127C, r22
    4280:	70 93 7d 12 	sts	0x127D, r23
    4284:	80 93 7e 12 	sts	0x127E, r24
    4288:	90 93 7f 12 	sts	0x127F, r25

			//printf("d q4 %f %f %f %f %f %f %f \n\r",desiredQPosition[0],desiredQPosition[1],desiredQPosition[2],desiredQPosition[3],desiredQPosition[4],desiredQPosition[5],desiredQPosition[6]);

		}

		CalculateHT(1);
    428c:	81 e0       	ldi	r24, 0x01	; 1
    428e:	90 e0       	ldi	r25, 0x00	; 0
    4290:	0e 94 65 13 	call	0x26ca	; 0x26ca <CalculateHT>
		printf("dINV qF %f %f %f %f %f %f %f \n\r",desiredQPosition[0],desiredQPosition[1],desiredQPosition[2],desiredQPosition[3],desiredQPosition[4],desiredQPosition[5],desiredQPosition[6]);
    4294:	ed b7       	in	r30, 0x3d	; 61
    4296:	fe b7       	in	r31, 0x3e	; 62
    4298:	7e 97       	sbiw	r30, 0x1e	; 30
    429a:	0f b6       	in	r0, 0x3f	; 63
    429c:	f8 94       	cli
    429e:	fe bf       	out	0x3e, r31	; 62
    42a0:	0f be       	out	0x3f, r0	; 63
    42a2:	ed bf       	out	0x3d, r30	; 61
    42a4:	31 96       	adiw	r30, 0x01	; 1
    42a6:	89 ee       	ldi	r24, 0xE9	; 233
    42a8:	92 e0       	ldi	r25, 0x02	; 2
    42aa:	ad b7       	in	r26, 0x3d	; 61
    42ac:	be b7       	in	r27, 0x3e	; 62
    42ae:	12 96       	adiw	r26, 0x02	; 2
    42b0:	9c 93       	st	X, r25
    42b2:	8e 93       	st	-X, r24
    42b4:	11 97       	sbiw	r26, 0x01	; 1
    42b6:	80 91 64 12 	lds	r24, 0x1264
    42ba:	90 91 65 12 	lds	r25, 0x1265
    42be:	a0 91 66 12 	lds	r26, 0x1266
    42c2:	b0 91 67 12 	lds	r27, 0x1267
    42c6:	82 83       	std	Z+2, r24	; 0x02
    42c8:	93 83       	std	Z+3, r25	; 0x03
    42ca:	a4 83       	std	Z+4, r26	; 0x04
    42cc:	b5 83       	std	Z+5, r27	; 0x05
    42ce:	80 91 68 12 	lds	r24, 0x1268
    42d2:	90 91 69 12 	lds	r25, 0x1269
    42d6:	a0 91 6a 12 	lds	r26, 0x126A
    42da:	b0 91 6b 12 	lds	r27, 0x126B
    42de:	86 83       	std	Z+6, r24	; 0x06
    42e0:	97 83       	std	Z+7, r25	; 0x07
    42e2:	a0 87       	std	Z+8, r26	; 0x08
    42e4:	b1 87       	std	Z+9, r27	; 0x09
    42e6:	80 91 6c 12 	lds	r24, 0x126C
    42ea:	90 91 6d 12 	lds	r25, 0x126D
    42ee:	a0 91 6e 12 	lds	r26, 0x126E
    42f2:	b0 91 6f 12 	lds	r27, 0x126F
    42f6:	82 87       	std	Z+10, r24	; 0x0a
    42f8:	93 87       	std	Z+11, r25	; 0x0b
    42fa:	a4 87       	std	Z+12, r26	; 0x0c
    42fc:	b5 87       	std	Z+13, r27	; 0x0d
    42fe:	80 91 70 12 	lds	r24, 0x1270
    4302:	90 91 71 12 	lds	r25, 0x1271
    4306:	a0 91 72 12 	lds	r26, 0x1272
    430a:	b0 91 73 12 	lds	r27, 0x1273
    430e:	86 87       	std	Z+14, r24	; 0x0e
    4310:	97 87       	std	Z+15, r25	; 0x0f
    4312:	a0 8b       	std	Z+16, r26	; 0x10
    4314:	b1 8b       	std	Z+17, r27	; 0x11
    4316:	80 91 74 12 	lds	r24, 0x1274
    431a:	90 91 75 12 	lds	r25, 0x1275
    431e:	a0 91 76 12 	lds	r26, 0x1276
    4322:	b0 91 77 12 	lds	r27, 0x1277
    4326:	82 8b       	std	Z+18, r24	; 0x12
    4328:	93 8b       	std	Z+19, r25	; 0x13
    432a:	a4 8b       	std	Z+20, r26	; 0x14
    432c:	b5 8b       	std	Z+21, r27	; 0x15
    432e:	80 91 78 12 	lds	r24, 0x1278
    4332:	90 91 79 12 	lds	r25, 0x1279
    4336:	a0 91 7a 12 	lds	r26, 0x127A
    433a:	b0 91 7b 12 	lds	r27, 0x127B
    433e:	86 8b       	std	Z+22, r24	; 0x16
    4340:	97 8b       	std	Z+23, r25	; 0x17
    4342:	a0 8f       	std	Z+24, r26	; 0x18
    4344:	b1 8f       	std	Z+25, r27	; 0x19
    4346:	80 91 7c 12 	lds	r24, 0x127C
    434a:	90 91 7d 12 	lds	r25, 0x127D
    434e:	a0 91 7e 12 	lds	r26, 0x127E
    4352:	b0 91 7f 12 	lds	r27, 0x127F
    4356:	82 8f       	std	Z+26, r24	; 0x1a
    4358:	93 8f       	std	Z+27, r25	; 0x1b
    435a:	a4 8f       	std	Z+28, r26	; 0x1c
    435c:	b5 8f       	std	Z+29, r27	; 0x1d
    435e:	0e 94 63 44 	call	0x88c6	; 0x88c6 <printf>
    4362:	ed b7       	in	r30, 0x3d	; 61
    4364:	fe b7       	in	r31, 0x3e	; 62
    4366:	7e 96       	adiw	r30, 0x1e	; 30
    4368:	0f b6       	in	r0, 0x3f	; 63
    436a:	f8 94       	cli
    436c:	fe bf       	out	0x3e, r31	; 62
    436e:	0f be       	out	0x3f, r0	; 63
    4370:	ed bf       	out	0x3d, r30	; 61
}
    4372:	cc 5a       	subi	r28, 0xAC	; 172
    4374:	de 4f       	sbci	r29, 0xFE	; 254
    4376:	0f b6       	in	r0, 0x3f	; 63
    4378:	f8 94       	cli
    437a:	de bf       	out	0x3e, r29	; 62
    437c:	0f be       	out	0x3f, r0	; 63
    437e:	cd bf       	out	0x3d, r28	; 61
    4380:	cf 91       	pop	r28
    4382:	df 91       	pop	r29
    4384:	1f 91       	pop	r17
    4386:	0f 91       	pop	r16
    4388:	ff 90       	pop	r15
    438a:	ef 90       	pop	r14
    438c:	df 90       	pop	r13
    438e:	cf 90       	pop	r12
    4390:	bf 90       	pop	r11
    4392:	af 90       	pop	r10
    4394:	9f 90       	pop	r9
    4396:	8f 90       	pop	r8
    4398:	7f 90       	pop	r7
    439a:	6f 90       	pop	r6
    439c:	5f 90       	pop	r5
    439e:	4f 90       	pop	r4
    43a0:	3f 90       	pop	r3
    43a2:	2f 90       	pop	r2
    43a4:	08 95       	ret

000043a6 <TestMult>:
void TestMult()
{


	//printf("d 1 %f %f %f %f %f %f %f \n\r",desiredXPosition[0],desiredXPosition[1],desiredXPosition[2],desiredXPosition[3],desiredXPosition[4],desiredXPosition[5],desiredXPosition[6]);
	InverseKinematics();
    43a6:	0e 94 7e 17 	call	0x2efc	; 0x2efc <InverseKinematics>
	

	printf("d F %f %f %f %f %f %f %f \n\r",desiredQPosition[0],desiredQPosition[1],desiredQPosition[2],desiredQPosition[3],desiredQPosition[4],desiredQPosition[5],desiredQPosition[6]);
    43aa:	8d b7       	in	r24, 0x3d	; 61
    43ac:	9e b7       	in	r25, 0x3e	; 62
    43ae:	4e 97       	sbiw	r24, 0x1e	; 30
    43b0:	0f b6       	in	r0, 0x3f	; 63
    43b2:	f8 94       	cli
    43b4:	9e bf       	out	0x3e, r25	; 62
    43b6:	0f be       	out	0x3f, r0	; 63
    43b8:	8d bf       	out	0x3d, r24	; 61
    43ba:	ed b7       	in	r30, 0x3d	; 61
    43bc:	fe b7       	in	r31, 0x3e	; 62
    43be:	31 96       	adiw	r30, 0x01	; 1
    43c0:	89 e0       	ldi	r24, 0x09	; 9
    43c2:	93 e0       	ldi	r25, 0x03	; 3
    43c4:	ad b7       	in	r26, 0x3d	; 61
    43c6:	be b7       	in	r27, 0x3e	; 62
    43c8:	12 96       	adiw	r26, 0x02	; 2
    43ca:	9c 93       	st	X, r25
    43cc:	8e 93       	st	-X, r24
    43ce:	11 97       	sbiw	r26, 0x01	; 1
    43d0:	80 91 64 12 	lds	r24, 0x1264
    43d4:	90 91 65 12 	lds	r25, 0x1265
    43d8:	a0 91 66 12 	lds	r26, 0x1266
    43dc:	b0 91 67 12 	lds	r27, 0x1267
    43e0:	82 83       	std	Z+2, r24	; 0x02
    43e2:	93 83       	std	Z+3, r25	; 0x03
    43e4:	a4 83       	std	Z+4, r26	; 0x04
    43e6:	b5 83       	std	Z+5, r27	; 0x05
    43e8:	80 91 68 12 	lds	r24, 0x1268
    43ec:	90 91 69 12 	lds	r25, 0x1269
    43f0:	a0 91 6a 12 	lds	r26, 0x126A
    43f4:	b0 91 6b 12 	lds	r27, 0x126B
    43f8:	86 83       	std	Z+6, r24	; 0x06
    43fa:	97 83       	std	Z+7, r25	; 0x07
    43fc:	a0 87       	std	Z+8, r26	; 0x08
    43fe:	b1 87       	std	Z+9, r27	; 0x09
    4400:	80 91 6c 12 	lds	r24, 0x126C
    4404:	90 91 6d 12 	lds	r25, 0x126D
    4408:	a0 91 6e 12 	lds	r26, 0x126E
    440c:	b0 91 6f 12 	lds	r27, 0x126F
    4410:	82 87       	std	Z+10, r24	; 0x0a
    4412:	93 87       	std	Z+11, r25	; 0x0b
    4414:	a4 87       	std	Z+12, r26	; 0x0c
    4416:	b5 87       	std	Z+13, r27	; 0x0d
    4418:	80 91 70 12 	lds	r24, 0x1270
    441c:	90 91 71 12 	lds	r25, 0x1271
    4420:	a0 91 72 12 	lds	r26, 0x1272
    4424:	b0 91 73 12 	lds	r27, 0x1273
    4428:	86 87       	std	Z+14, r24	; 0x0e
    442a:	97 87       	std	Z+15, r25	; 0x0f
    442c:	a0 8b       	std	Z+16, r26	; 0x10
    442e:	b1 8b       	std	Z+17, r27	; 0x11
    4430:	80 91 74 12 	lds	r24, 0x1274
    4434:	90 91 75 12 	lds	r25, 0x1275
    4438:	a0 91 76 12 	lds	r26, 0x1276
    443c:	b0 91 77 12 	lds	r27, 0x1277
    4440:	82 8b       	std	Z+18, r24	; 0x12
    4442:	93 8b       	std	Z+19, r25	; 0x13
    4444:	a4 8b       	std	Z+20, r26	; 0x14
    4446:	b5 8b       	std	Z+21, r27	; 0x15
    4448:	80 91 78 12 	lds	r24, 0x1278
    444c:	90 91 79 12 	lds	r25, 0x1279
    4450:	a0 91 7a 12 	lds	r26, 0x127A
    4454:	b0 91 7b 12 	lds	r27, 0x127B
    4458:	86 8b       	std	Z+22, r24	; 0x16
    445a:	97 8b       	std	Z+23, r25	; 0x17
    445c:	a0 8f       	std	Z+24, r26	; 0x18
    445e:	b1 8f       	std	Z+25, r27	; 0x19
    4460:	80 91 7c 12 	lds	r24, 0x127C
    4464:	90 91 7d 12 	lds	r25, 0x127D
    4468:	a0 91 7e 12 	lds	r26, 0x127E
    446c:	b0 91 7f 12 	lds	r27, 0x127F
    4470:	82 8f       	std	Z+26, r24	; 0x1a
    4472:	93 8f       	std	Z+27, r25	; 0x1b
    4474:	a4 8f       	std	Z+28, r26	; 0x1c
    4476:	b5 8f       	std	Z+29, r27	; 0x1d
    4478:	0e 94 63 44 	call	0x88c6	; 0x88c6 <printf>
    447c:	8d b7       	in	r24, 0x3d	; 61
    447e:	9e b7       	in	r25, 0x3e	; 62
    4480:	4e 96       	adiw	r24, 0x1e	; 30
    4482:	0f b6       	in	r0, 0x3f	; 63
    4484:	f8 94       	cli
    4486:	9e bf       	out	0x3e, r25	; 62
    4488:	0f be       	out	0x3f, r0	; 63
    448a:	8d bf       	out	0x3d, r24	; 61
	

	
}
    448c:	08 95       	ret

0000448e <coefLSPB>:

///////////////////////////////// TRAYECTORIAS


vector4 coefLSPB (float q0, float qf, float tf)
{
    448e:	6f 92       	push	r6
    4490:	7f 92       	push	r7
    4492:	8f 92       	push	r8
    4494:	9f 92       	push	r9
    4496:	af 92       	push	r10
    4498:	bf 92       	push	r11
    449a:	cf 92       	push	r12
    449c:	df 92       	push	r13
    449e:	ef 92       	push	r14
    44a0:	ff 92       	push	r15
    44a2:	0f 93       	push	r16
    44a4:	1f 93       	push	r17
    44a6:	cf 93       	push	r28
    44a8:	df 93       	push	r29
    44aa:	ec 01       	movw	r28, r24
    44ac:	3a 01       	movw	r6, r20
    44ae:	4b 01       	movw	r8, r22
    44b0:	c9 01       	movw	r24, r18
    44b2:	b8 01       	movw	r22, r16
    44b4:	56 01       	movw	r10, r12
    44b6:	67 01       	movw	r12, r14

	
	float Vmin = (qf-q0)/tf;
    44b8:	a4 01       	movw	r20, r8
    44ba:	93 01       	movw	r18, r6
    44bc:	0e 94 9a 3c 	call	0x7934	; 0x7934 <__subsf3>
    44c0:	7b 01       	movw	r14, r22
    44c2:	8c 01       	movw	r16, r24
    44c4:	7f 2d       	mov	r23, r15
    44c6:	91 2f       	mov	r25, r17
    44c8:	a6 01       	movw	r20, r12
    44ca:	95 01       	movw	r18, r10
    44cc:	0e 94 7f 3d 	call	0x7afe	; 0x7afe <__divsf3>
    44d0:	3b 01       	movw	r6, r22
    44d2:	4c 01       	movw	r8, r24
	float Vmax = (2*(qf-q0))/tf;
    44d4:	6e 2d       	mov	r22, r14
    44d6:	7f 2d       	mov	r23, r15
    44d8:	80 2f       	mov	r24, r16
    44da:	91 2f       	mov	r25, r17
    44dc:	2e 2d       	mov	r18, r14
    44de:	3f 2d       	mov	r19, r15
    44e0:	40 2f       	mov	r20, r16
    44e2:	51 2f       	mov	r21, r17
    44e4:	0e 94 9b 3c 	call	0x7936	; 0x7936 <__addsf3>
    44e8:	a6 01       	movw	r20, r12
    44ea:	95 01       	movw	r18, r10
    44ec:	0e 94 7f 3d 	call	0x7afe	; 0x7afe <__divsf3>
    44f0:	9b 01       	movw	r18, r22
    44f2:	ac 01       	movw	r20, r24

	float V = (Vmin + Vmax)/2;
    44f4:	c4 01       	movw	r24, r8
    44f6:	b3 01       	movw	r22, r6
    44f8:	0e 94 9b 3c 	call	0x7936	; 0x7936 <__addsf3>
    44fc:	20 e0       	ldi	r18, 0x00	; 0
    44fe:	30 e0       	ldi	r19, 0x00	; 0
    4500:	40 e0       	ldi	r20, 0x00	; 0
    4502:	5f e3       	ldi	r21, 0x3F	; 63
    4504:	0e 94 5f 3f 	call	0x7ebe	; 0x7ebe <__mulsf3>
    4508:	7b 01       	movw	r14, r22
    450a:	8c 01       	movw	r16, r24
	float tb = tf/3;
    450c:	c6 01       	movw	r24, r12
    450e:	b5 01       	movw	r22, r10
    4510:	20 e0       	ldi	r18, 0x00	; 0
    4512:	30 e0       	ldi	r19, 0x00	; 0
    4514:	40 e4       	ldi	r20, 0x40	; 64
    4516:	50 e4       	ldi	r21, 0x40	; 64
    4518:	0e 94 7f 3d 	call	0x7afe	; 0x7afe <__divsf3>
    451c:	66 2e       	mov	r6, r22
    451e:	97 2e       	mov	r9, r23
    4520:	88 2e       	mov	r8, r24
    4522:	79 2e       	mov	r7, r25
    4524:	8e 2d       	mov	r24, r14
    4526:	9f 2d       	mov	r25, r15
    4528:	a0 2f       	mov	r26, r16
    452a:	b1 2f       	mov	r27, r17
    452c:	88 83       	st	Y, r24
    452e:	99 83       	std	Y+1, r25	; 0x01
    4530:	aa 83       	std	Y+2, r26	; 0x02
    4532:	bb 83       	std	Y+3, r27	; 0x03
	float a = V/tb;
    4534:	6e 2d       	mov	r22, r14
    4536:	7f 2d       	mov	r23, r15
    4538:	80 2f       	mov	r24, r16
    453a:	91 2f       	mov	r25, r17
    453c:	26 2d       	mov	r18, r6
    453e:	39 2d       	mov	r19, r9
    4540:	48 2d       	mov	r20, r8
    4542:	57 2d       	mov	r21, r7
    4544:	0e 94 7f 3d 	call	0x7afe	; 0x7afe <__divsf3>
	
	float Vmin = (qf-q0)/tf;
	float Vmax = (2*(qf-q0))/tf;

	float V = (Vmin + Vmax)/2;
	float tb = tf/3;
    4548:	6c 83       	std	Y+4, r22	; 0x04
    454a:	7d 83       	std	Y+5, r23	; 0x05
    454c:	8e 83       	std	Y+6, r24	; 0x06
    454e:	9f 83       	std	Y+7, r25	; 0x07
    4550:	86 2d       	mov	r24, r6
    4552:	99 2d       	mov	r25, r9
    4554:	a8 2d       	mov	r26, r8
    4556:	b7 2d       	mov	r27, r7
    4558:	88 87       	std	Y+8, r24	; 0x08
    455a:	99 87       	std	Y+9, r25	; 0x09
    455c:	aa 87       	std	Y+10, r26	; 0x0a
    455e:	bb 87       	std	Y+11, r27	; 0x0b
    4560:	ac 86       	std	Y+12, r10	; 0x0c
    4562:	bd 86       	std	Y+13, r11	; 0x0d
    4564:	ce 86       	std	Y+14, r12	; 0x0e
    4566:	df 86       	std	Y+15, r13	; 0x0f
	data.value[3]= tf;
	
	return data;
	

} 
    4568:	ce 01       	movw	r24, r28
    456a:	df 91       	pop	r29
    456c:	cf 91       	pop	r28
    456e:	1f 91       	pop	r17
    4570:	0f 91       	pop	r16
    4572:	ff 90       	pop	r15
    4574:	ef 90       	pop	r14
    4576:	df 90       	pop	r13
    4578:	cf 90       	pop	r12
    457a:	bf 90       	pop	r11
    457c:	af 90       	pop	r10
    457e:	9f 90       	pop	r9
    4580:	8f 90       	pop	r8
    4582:	7f 90       	pop	r7
    4584:	6f 90       	pop	r6
    4586:	08 95       	ret

00004588 <evalLSPB>:

float evalLSPB(float q0,float qf,vector4 data,float t)

{
    4588:	2f 92       	push	r2
    458a:	3f 92       	push	r3
    458c:	4f 92       	push	r4
    458e:	5f 92       	push	r5
    4590:	6f 92       	push	r6
    4592:	7f 92       	push	r7
    4594:	8f 92       	push	r8
    4596:	9f 92       	push	r9
    4598:	af 92       	push	r10
    459a:	bf 92       	push	r11
    459c:	cf 92       	push	r12
    459e:	df 92       	push	r13
    45a0:	ef 92       	push	r14
    45a2:	ff 92       	push	r15
    45a4:	0f 93       	push	r16
    45a6:	1f 93       	push	r17
    45a8:	df 93       	push	r29
    45aa:	cf 93       	push	r28
    45ac:	cd b7       	in	r28, 0x3d	; 61
    45ae:	de b7       	in	r29, 0x3e	; 62
    45b0:	2e 97       	sbiw	r28, 0x0e	; 14
    45b2:	0f b6       	in	r0, 0x3f	; 63
    45b4:	f8 94       	cli
    45b6:	de bf       	out	0x3e, r29	; 62
    45b8:	0f be       	out	0x3f, r0	; 63
    45ba:	cd bf       	out	0x3d, r28	; 61
    45bc:	69 83       	std	Y+1, r22	; 0x01
    45be:	7a 83       	std	Y+2, r23	; 0x02
    45c0:	8b 83       	std	Y+3, r24	; 0x03
    45c2:	9c 83       	std	Y+4, r25	; 0x04
    45c4:	29 87       	std	Y+9, r18	; 0x09
    45c6:	3a 87       	std	Y+10, r19	; 0x0a
    45c8:	4b 87       	std	Y+11, r20	; 0x0b
    45ca:	5c 87       	std	Y+12, r21	; 0x0c
    45cc:	ec a8       	ldd	r14, Y+52	; 0x34
    45ce:	fd a8       	ldd	r15, Y+53	; 0x35
    45d0:	0e a9       	ldd	r16, Y+54	; 0x36
    45d2:	1f a9       	ldd	r17, Y+55	; 0x37
	float V,a,tb,tf;
	float q;

	V = data.value[0];
    45d4:	8c a1       	ldd	r24, Y+36	; 0x24
    45d6:	9d a1       	ldd	r25, Y+37	; 0x25
    45d8:	ae a1       	ldd	r26, Y+38	; 0x26
    45da:	bf a1       	ldd	r27, Y+39	; 0x27
    45dc:	8d 83       	std	Y+5, r24	; 0x05
    45de:	9e 83       	std	Y+6, r25	; 0x06
    45e0:	af 83       	std	Y+7, r26	; 0x07
    45e2:	b8 87       	std	Y+8, r27	; 0x08
	a = data.value[1];
    45e4:	28 a4       	ldd	r2, Y+40	; 0x28
    45e6:	39 a4       	ldd	r3, Y+41	; 0x29
    45e8:	4a a4       	ldd	r4, Y+42	; 0x2a
    45ea:	5b a4       	ldd	r5, Y+43	; 0x2b
	tb = data.value[2];
    45ec:	6c a4       	ldd	r6, Y+44	; 0x2c
    45ee:	7d a4       	ldd	r7, Y+45	; 0x2d
    45f0:	8e a4       	ldd	r8, Y+46	; 0x2e
    45f2:	9f a4       	ldd	r9, Y+47	; 0x2f
	tf = data.value[3];
    45f4:	a8 a8       	ldd	r10, Y+48	; 0x30
    45f6:	b9 a8       	ldd	r11, Y+49	; 0x31
    45f8:	ca a8       	ldd	r12, Y+50	; 0x32
    45fa:	db a8       	ldd	r13, Y+51	; 0x33

    if(t <= tb)
    45fc:	c8 01       	movw	r24, r16
    45fe:	b7 01       	movw	r22, r14
    4600:	a4 01       	movw	r20, r8
    4602:	93 01       	movw	r18, r6
    4604:	0e 94 78 3d 	call	0x7af0	; 0x7af0 <__cmpsf2>
    4608:	18 16       	cp	r1, r24
    460a:	fc f0       	brlt	.+62     	; 0x464a <evalLSPB+0xc2>
        q = q0 + (0.5*a*pow(t,2));
    460c:	c8 01       	movw	r24, r16
    460e:	b7 01       	movw	r22, r14
    4610:	a8 01       	movw	r20, r16
    4612:	97 01       	movw	r18, r14
    4614:	0e 94 5f 3f 	call	0x7ebe	; 0x7ebe <__mulsf3>
    4618:	a6 2e       	mov	r10, r22
    461a:	e7 2e       	mov	r14, r23
    461c:	68 2e       	mov	r6, r24
    461e:	19 2f       	mov	r17, r25
    4620:	c2 01       	movw	r24, r4
    4622:	b1 01       	movw	r22, r2
    4624:	20 e0       	ldi	r18, 0x00	; 0
    4626:	30 e0       	ldi	r19, 0x00	; 0
    4628:	40 e0       	ldi	r20, 0x00	; 0
    462a:	5f e3       	ldi	r21, 0x3F	; 63
    462c:	0e 94 5f 3f 	call	0x7ebe	; 0x7ebe <__mulsf3>
    4630:	2a 2d       	mov	r18, r10
    4632:	3e 2d       	mov	r19, r14
    4634:	46 2d       	mov	r20, r6
    4636:	51 2f       	mov	r21, r17
    4638:	0e 94 5f 3f 	call	0x7ebe	; 0x7ebe <__mulsf3>
    463c:	9b 01       	movw	r18, r22
    463e:	ac 01       	movw	r20, r24
    4640:	69 81       	ldd	r22, Y+1	; 0x01
    4642:	7a 81       	ldd	r23, Y+2	; 0x02
    4644:	8b 81       	ldd	r24, Y+3	; 0x03
    4646:	9c 81       	ldd	r25, Y+4	; 0x04
    4648:	4b c0       	rjmp	.+150    	; 0x46e0 <evalLSPB+0x158>

    else if((t>tb) && (t<=(tf-tb)))
    464a:	c8 01       	movw	r24, r16
    464c:	b7 01       	movw	r22, r14
    464e:	a4 01       	movw	r20, r8
    4650:	93 01       	movw	r18, r6
    4652:	0e 94 54 3f 	call	0x7ea8	; 0x7ea8 <__gesf2>
    4656:	18 16       	cp	r1, r24
    4658:	0c f0       	brlt	.+2      	; 0x465c <evalLSPB+0xd4>
    465a:	45 c0       	rjmp	.+138    	; 0x46e6 <evalLSPB+0x15e>
    465c:	c6 01       	movw	r24, r12
    465e:	b5 01       	movw	r22, r10
    4660:	a4 01       	movw	r20, r8
    4662:	93 01       	movw	r18, r6
    4664:	0e 94 9a 3c 	call	0x7934	; 0x7934 <__subsf3>
    4668:	9b 01       	movw	r18, r22
    466a:	ac 01       	movw	r20, r24
    466c:	c8 01       	movw	r24, r16
    466e:	b7 01       	movw	r22, r14
    4670:	0e 94 78 3d 	call	0x7af0	; 0x7af0 <__cmpsf2>
    4674:	18 16       	cp	r1, r24
    4676:	bc f1       	brlt	.+110    	; 0x46e6 <evalLSPB+0x15e>
        q = ((qf-q0-V*tf)/2)+V*t + q0;
    4678:	69 85       	ldd	r22, Y+9	; 0x09
    467a:	7a 85       	ldd	r23, Y+10	; 0x0a
    467c:	8b 85       	ldd	r24, Y+11	; 0x0b
    467e:	9c 85       	ldd	r25, Y+12	; 0x0c
    4680:	29 81       	ldd	r18, Y+1	; 0x01
    4682:	3a 81       	ldd	r19, Y+2	; 0x02
    4684:	4b 81       	ldd	r20, Y+3	; 0x03
    4686:	5c 81       	ldd	r21, Y+4	; 0x04
    4688:	0e 94 9a 3c 	call	0x7934	; 0x7934 <__subsf3>
    468c:	3b 01       	movw	r6, r22
    468e:	4c 01       	movw	r8, r24
    4690:	6d 81       	ldd	r22, Y+5	; 0x05
    4692:	7e 81       	ldd	r23, Y+6	; 0x06
    4694:	8f 81       	ldd	r24, Y+7	; 0x07
    4696:	98 85       	ldd	r25, Y+8	; 0x08
    4698:	a6 01       	movw	r20, r12
    469a:	95 01       	movw	r18, r10
    469c:	0e 94 5f 3f 	call	0x7ebe	; 0x7ebe <__mulsf3>
    46a0:	9b 01       	movw	r18, r22
    46a2:	ac 01       	movw	r20, r24
    46a4:	c4 01       	movw	r24, r8
    46a6:	b3 01       	movw	r22, r6
    46a8:	0e 94 9a 3c 	call	0x7934	; 0x7934 <__subsf3>
    46ac:	20 e0       	ldi	r18, 0x00	; 0
    46ae:	30 e0       	ldi	r19, 0x00	; 0
    46b0:	40 e0       	ldi	r20, 0x00	; 0
    46b2:	5f e3       	ldi	r21, 0x3F	; 63
    46b4:	0e 94 5f 3f 	call	0x7ebe	; 0x7ebe <__mulsf3>
    46b8:	5b 01       	movw	r10, r22
    46ba:	6c 01       	movw	r12, r24
    46bc:	6d 81       	ldd	r22, Y+5	; 0x05
    46be:	7e 81       	ldd	r23, Y+6	; 0x06
    46c0:	8f 81       	ldd	r24, Y+7	; 0x07
    46c2:	98 85       	ldd	r25, Y+8	; 0x08
    46c4:	a8 01       	movw	r20, r16
    46c6:	97 01       	movw	r18, r14
    46c8:	0e 94 5f 3f 	call	0x7ebe	; 0x7ebe <__mulsf3>
    46cc:	9b 01       	movw	r18, r22
    46ce:	ac 01       	movw	r20, r24
    46d0:	c6 01       	movw	r24, r12
    46d2:	b5 01       	movw	r22, r10
    46d4:	0e 94 9b 3c 	call	0x7936	; 0x7936 <__addsf3>
    46d8:	29 81       	ldd	r18, Y+1	; 0x01
    46da:	3a 81       	ldd	r19, Y+2	; 0x02
    46dc:	4b 81       	ldd	r20, Y+3	; 0x03
    46de:	5c 81       	ldd	r21, Y+4	; 0x04
    46e0:	0e 94 9b 3c 	call	0x7936	; 0x7936 <__addsf3>
    46e4:	56 c0       	rjmp	.+172    	; 0x4792 <evalLSPB+0x20a>

    else
        q = qf -((a*pow(tf,2))/2) + a*tf*t - (a/2)*pow(t,2);
    46e6:	c6 01       	movw	r24, r12
    46e8:	b5 01       	movw	r22, r10
    46ea:	a6 01       	movw	r20, r12
    46ec:	95 01       	movw	r18, r10
    46ee:	0e 94 5f 3f 	call	0x7ebe	; 0x7ebe <__mulsf3>
    46f2:	66 2e       	mov	r6, r22
    46f4:	97 2e       	mov	r9, r23
    46f6:	88 2e       	mov	r8, r24
    46f8:	79 2e       	mov	r7, r25
    46fa:	c8 01       	movw	r24, r16
    46fc:	b7 01       	movw	r22, r14
    46fe:	a8 01       	movw	r20, r16
    4700:	97 01       	movw	r18, r14
    4702:	0e 94 5f 3f 	call	0x7ebe	; 0x7ebe <__mulsf3>
    4706:	69 83       	std	Y+1, r22	; 0x01
    4708:	7d 83       	std	Y+5, r23	; 0x05
    470a:	8d 87       	std	Y+13, r24	; 0x0d
    470c:	9e 87       	std	Y+14, r25	; 0x0e
    470e:	c2 01       	movw	r24, r4
    4710:	b1 01       	movw	r22, r2
    4712:	26 2d       	mov	r18, r6
    4714:	39 2d       	mov	r19, r9
    4716:	48 2d       	mov	r20, r8
    4718:	57 2d       	mov	r21, r7
    471a:	0e 94 5f 3f 	call	0x7ebe	; 0x7ebe <__mulsf3>
    471e:	20 e0       	ldi	r18, 0x00	; 0
    4720:	30 e0       	ldi	r19, 0x00	; 0
    4722:	40 e0       	ldi	r20, 0x00	; 0
    4724:	5f e3       	ldi	r21, 0x3F	; 63
    4726:	0e 94 5f 3f 	call	0x7ebe	; 0x7ebe <__mulsf3>
    472a:	9b 01       	movw	r18, r22
    472c:	ac 01       	movw	r20, r24
    472e:	69 85       	ldd	r22, Y+9	; 0x09
    4730:	7a 85       	ldd	r23, Y+10	; 0x0a
    4732:	8b 85       	ldd	r24, Y+11	; 0x0b
    4734:	9c 85       	ldd	r25, Y+12	; 0x0c
    4736:	0e 94 9a 3c 	call	0x7934	; 0x7934 <__subsf3>
    473a:	3b 01       	movw	r6, r22
    473c:	4c 01       	movw	r8, r24
    473e:	c2 01       	movw	r24, r4
    4740:	b1 01       	movw	r22, r2
    4742:	a6 01       	movw	r20, r12
    4744:	95 01       	movw	r18, r10
    4746:	0e 94 5f 3f 	call	0x7ebe	; 0x7ebe <__mulsf3>
    474a:	a8 01       	movw	r20, r16
    474c:	97 01       	movw	r18, r14
    474e:	0e 94 5f 3f 	call	0x7ebe	; 0x7ebe <__mulsf3>
    4752:	9b 01       	movw	r18, r22
    4754:	ac 01       	movw	r20, r24
    4756:	c4 01       	movw	r24, r8
    4758:	b3 01       	movw	r22, r6
    475a:	0e 94 9b 3c 	call	0x7936	; 0x7936 <__addsf3>
    475e:	7b 01       	movw	r14, r22
    4760:	8c 01       	movw	r16, r24
    4762:	c2 01       	movw	r24, r4
    4764:	b1 01       	movw	r22, r2
    4766:	20 e0       	ldi	r18, 0x00	; 0
    4768:	30 e0       	ldi	r19, 0x00	; 0
    476a:	40 e0       	ldi	r20, 0x00	; 0
    476c:	5f e3       	ldi	r21, 0x3F	; 63
    476e:	0e 94 5f 3f 	call	0x7ebe	; 0x7ebe <__mulsf3>
    4772:	b9 81       	ldd	r27, Y+1	; 0x01
    4774:	ad 81       	ldd	r26, Y+5	; 0x05
    4776:	fd 85       	ldd	r31, Y+13	; 0x0d
    4778:	ee 85       	ldd	r30, Y+14	; 0x0e
    477a:	2b 2f       	mov	r18, r27
    477c:	3a 2f       	mov	r19, r26
    477e:	4f 2f       	mov	r20, r31
    4780:	5e 2f       	mov	r21, r30
    4782:	0e 94 5f 3f 	call	0x7ebe	; 0x7ebe <__mulsf3>
    4786:	9b 01       	movw	r18, r22
    4788:	ac 01       	movw	r20, r24
    478a:	c8 01       	movw	r24, r16
    478c:	b7 01       	movw	r22, r14
    478e:	0e 94 9a 3c 	call	0x7934	; 0x7934 <__subsf3>

	return q;

}
    4792:	2e 96       	adiw	r28, 0x0e	; 14
    4794:	0f b6       	in	r0, 0x3f	; 63
    4796:	f8 94       	cli
    4798:	de bf       	out	0x3e, r29	; 62
    479a:	0f be       	out	0x3f, r0	; 63
    479c:	cd bf       	out	0x3d, r28	; 61
    479e:	cf 91       	pop	r28
    47a0:	df 91       	pop	r29
    47a2:	1f 91       	pop	r17
    47a4:	0f 91       	pop	r16
    47a6:	ff 90       	pop	r15
    47a8:	ef 90       	pop	r14
    47aa:	df 90       	pop	r13
    47ac:	cf 90       	pop	r12
    47ae:	bf 90       	pop	r11
    47b0:	af 90       	pop	r10
    47b2:	9f 90       	pop	r9
    47b4:	8f 90       	pop	r8
    47b6:	7f 90       	pop	r7
    47b8:	6f 90       	pop	r6
    47ba:	5f 90       	pop	r5
    47bc:	4f 90       	pop	r4
    47be:	3f 90       	pop	r3
    47c0:	2f 90       	pop	r2
    47c2:	08 95       	ret

000047c4 <coefQuintico>:
vector4 coefQuintico (float q0, float qf, float tf)
{
    47c4:	2f 92       	push	r2
    47c6:	3f 92       	push	r3
    47c8:	4f 92       	push	r4
    47ca:	5f 92       	push	r5
    47cc:	6f 92       	push	r6
    47ce:	7f 92       	push	r7
    47d0:	8f 92       	push	r8
    47d2:	9f 92       	push	r9
    47d4:	af 92       	push	r10
    47d6:	bf 92       	push	r11
    47d8:	cf 92       	push	r12
    47da:	df 92       	push	r13
    47dc:	ef 92       	push	r14
    47de:	ff 92       	push	r15
    47e0:	0f 93       	push	r16
    47e2:	1f 93       	push	r17
    47e4:	df 93       	push	r29
    47e6:	cf 93       	push	r28
    47e8:	00 d0       	rcall	.+0      	; 0x47ea <coefQuintico+0x26>
    47ea:	00 d0       	rcall	.+0      	; 0x47ec <coefQuintico+0x28>
    47ec:	cd b7       	in	r28, 0x3d	; 61
    47ee:	de b7       	in	r29, 0x3e	; 62
    47f0:	9e 83       	std	Y+6, r25	; 0x06
    47f2:	8d 83       	std	Y+5, r24	; 0x05
    47f4:	3a 01       	movw	r6, r20
    47f6:	4b 01       	movw	r8, r22
    47f8:	c9 01       	movw	r24, r18
    47fa:	b8 01       	movw	r22, r16
	float a0 = q0;
	float a3 = 10*(qf-q0)/(pow(tf,3));
    47fc:	a4 01       	movw	r20, r8
    47fe:	93 01       	movw	r18, r6
    4800:	0e 94 9a 3c 	call	0x7934	; 0x7934 <__subsf3>
    4804:	16 2f       	mov	r17, r22
    4806:	07 2f       	mov	r16, r23
    4808:	b8 2e       	mov	r11, r24
    480a:	a9 2e       	mov	r10, r25
    480c:	c7 01       	movw	r24, r14
    480e:	b6 01       	movw	r22, r12
    4810:	20 e0       	ldi	r18, 0x00	; 0
    4812:	30 e0       	ldi	r19, 0x00	; 0
    4814:	40 e4       	ldi	r20, 0x40	; 64
    4816:	50 e4       	ldi	r21, 0x40	; 64
    4818:	0e 94 c2 3f 	call	0x7f84	; 0x7f84 <pow>
    481c:	56 2e       	mov	r5, r22
    481e:	47 2e       	mov	r4, r23
    4820:	38 2e       	mov	r3, r24
    4822:	29 2e       	mov	r2, r25
	float a4 = -15*(qf-q0)/(pow(tf,4));
    4824:	c7 01       	movw	r24, r14
    4826:	b6 01       	movw	r22, r12
    4828:	20 e0       	ldi	r18, 0x00	; 0
    482a:	30 e0       	ldi	r19, 0x00	; 0
    482c:	40 e8       	ldi	r20, 0x80	; 128
    482e:	50 e4       	ldi	r21, 0x40	; 64
    4830:	0e 94 c2 3f 	call	0x7f84	; 0x7f84 <pow>
    4834:	69 83       	std	Y+1, r22	; 0x01
    4836:	7a 83       	std	Y+2, r23	; 0x02
    4838:	8b 83       	std	Y+3, r24	; 0x03
    483a:	9c 83       	std	Y+4, r25	; 0x04
	float a5 = 6*(qf-q0)/(pow(tf,5));
    483c:	c7 01       	movw	r24, r14
    483e:	b6 01       	movw	r22, r12
    4840:	20 e0       	ldi	r18, 0x00	; 0
    4842:	30 e0       	ldi	r19, 0x00	; 0
    4844:	40 ea       	ldi	r20, 0xA0	; 160
    4846:	50 e4       	ldi	r21, 0x40	; 64
    4848:	0e 94 c2 3f 	call	0x7f84	; 0x7f84 <pow>
    484c:	c6 2e       	mov	r12, r22
    484e:	f7 2e       	mov	r15, r23
    4850:	e8 2e       	mov	r14, r24
    4852:	d9 2e       	mov	r13, r25
    4854:	ed 81       	ldd	r30, Y+5	; 0x05
    4856:	fe 81       	ldd	r31, Y+6	; 0x06
    4858:	60 82       	st	Z, r6
    485a:	71 82       	std	Z+1, r7	; 0x01
    485c:	82 82       	std	Z+2, r8	; 0x02
    485e:	93 82       	std	Z+3, r9	; 0x03

}
vector4 coefQuintico (float q0, float qf, float tf)
{
	float a0 = q0;
	float a3 = 10*(qf-q0)/(pow(tf,3));
    4860:	a8 01       	movw	r20, r16
    4862:	95 01       	movw	r18, r10
    4864:	65 2f       	mov	r22, r21
    4866:	74 2f       	mov	r23, r20
    4868:	83 2f       	mov	r24, r19
    486a:	92 2f       	mov	r25, r18
    486c:	20 e0       	ldi	r18, 0x00	; 0
    486e:	30 e0       	ldi	r19, 0x00	; 0
    4870:	40 e2       	ldi	r20, 0x20	; 32
    4872:	51 e4       	ldi	r21, 0x41	; 65
    4874:	0e 94 5f 3f 	call	0x7ebe	; 0x7ebe <__mulsf3>
    4878:	d2 01       	movw	r26, r4
    487a:	f1 01       	movw	r30, r2
    487c:	2b 2f       	mov	r18, r27
    487e:	3a 2f       	mov	r19, r26
    4880:	4f 2f       	mov	r20, r31
    4882:	5e 2f       	mov	r21, r30
    4884:	0e 94 7f 3d 	call	0x7afe	; 0x7afe <__divsf3>
	float a4 = -15*(qf-q0)/(pow(tf,4));
	float a5 = 6*(qf-q0)/(pow(tf,5));
    4888:	ed 81       	ldd	r30, Y+5	; 0x05
    488a:	fe 81       	ldd	r31, Y+6	; 0x06
    488c:	64 83       	std	Z+4, r22	; 0x04
    488e:	75 83       	std	Z+5, r23	; 0x05
    4890:	86 83       	std	Z+6, r24	; 0x06
    4892:	97 83       	std	Z+7, r25	; 0x07
}
vector4 coefQuintico (float q0, float qf, float tf)
{
	float a0 = q0;
	float a3 = 10*(qf-q0)/(pow(tf,3));
	float a4 = -15*(qf-q0)/(pow(tf,4));
    4894:	a8 01       	movw	r20, r16
    4896:	95 01       	movw	r18, r10
    4898:	65 2f       	mov	r22, r21
    489a:	74 2f       	mov	r23, r20
    489c:	83 2f       	mov	r24, r19
    489e:	92 2f       	mov	r25, r18
    48a0:	20 e0       	ldi	r18, 0x00	; 0
    48a2:	30 e0       	ldi	r19, 0x00	; 0
    48a4:	40 e7       	ldi	r20, 0x70	; 112
    48a6:	51 ec       	ldi	r21, 0xC1	; 193
    48a8:	0e 94 5f 3f 	call	0x7ebe	; 0x7ebe <__mulsf3>
    48ac:	b9 81       	ldd	r27, Y+1	; 0x01
    48ae:	aa 81       	ldd	r26, Y+2	; 0x02
    48b0:	6b 80       	ldd	r6, Y+3	; 0x03
    48b2:	5c 80       	ldd	r5, Y+4	; 0x04
    48b4:	2b 2f       	mov	r18, r27
    48b6:	3a 2f       	mov	r19, r26
    48b8:	46 2d       	mov	r20, r6
    48ba:	55 2d       	mov	r21, r5
    48bc:	0e 94 7f 3d 	call	0x7afe	; 0x7afe <__divsf3>
	float a5 = 6*(qf-q0)/(pow(tf,5));
    48c0:	ed 81       	ldd	r30, Y+5	; 0x05
    48c2:	fe 81       	ldd	r31, Y+6	; 0x06
    48c4:	60 87       	std	Z+8, r22	; 0x08
    48c6:	71 87       	std	Z+9, r23	; 0x09
    48c8:	82 87       	std	Z+10, r24	; 0x0a
    48ca:	93 87       	std	Z+11, r25	; 0x0b
    48cc:	a8 01       	movw	r20, r16
    48ce:	95 01       	movw	r18, r10
    48d0:	65 2f       	mov	r22, r21
    48d2:	74 2f       	mov	r23, r20
    48d4:	83 2f       	mov	r24, r19
    48d6:	92 2f       	mov	r25, r18
    48d8:	20 e0       	ldi	r18, 0x00	; 0
    48da:	30 e0       	ldi	r19, 0x00	; 0
    48dc:	40 ec       	ldi	r20, 0xC0	; 192
    48de:	50 e4       	ldi	r21, 0x40	; 64
    48e0:	0e 94 5f 3f 	call	0x7ebe	; 0x7ebe <__mulsf3>
    48e4:	2c 2d       	mov	r18, r12
    48e6:	3f 2d       	mov	r19, r15
    48e8:	4e 2d       	mov	r20, r14
    48ea:	5d 2d       	mov	r21, r13
    48ec:	0e 94 7f 3d 	call	0x7afe	; 0x7afe <__divsf3>
    48f0:	ed 81       	ldd	r30, Y+5	; 0x05
    48f2:	fe 81       	ldd	r31, Y+6	; 0x06
    48f4:	64 87       	std	Z+12, r22	; 0x0c
    48f6:	75 87       	std	Z+13, r23	; 0x0d
    48f8:	86 87       	std	Z+14, r24	; 0x0e
    48fa:	97 87       	std	Z+15, r25	; 0x0f
	data.value[0]= a0;
	data.value[1]= a3;
	data.value[2]= a4;
	data.value[3]= a5;
	return data;
}
    48fc:	cf 01       	movw	r24, r30
    48fe:	26 96       	adiw	r28, 0x06	; 6
    4900:	0f b6       	in	r0, 0x3f	; 63
    4902:	f8 94       	cli
    4904:	de bf       	out	0x3e, r29	; 62
    4906:	0f be       	out	0x3f, r0	; 63
    4908:	cd bf       	out	0x3d, r28	; 61
    490a:	cf 91       	pop	r28
    490c:	df 91       	pop	r29
    490e:	1f 91       	pop	r17
    4910:	0f 91       	pop	r16
    4912:	ff 90       	pop	r15
    4914:	ef 90       	pop	r14
    4916:	df 90       	pop	r13
    4918:	cf 90       	pop	r12
    491a:	bf 90       	pop	r11
    491c:	af 90       	pop	r10
    491e:	9f 90       	pop	r9
    4920:	8f 90       	pop	r8
    4922:	7f 90       	pop	r7
    4924:	6f 90       	pop	r6
    4926:	5f 90       	pop	r5
    4928:	4f 90       	pop	r4
    492a:	3f 90       	pop	r3
    492c:	2f 90       	pop	r2
    492e:	08 95       	ret

00004930 <SetdesiredPosition>:
		currentQPosition[i] = GetPosition(i);
	}
}

int SetdesiredPosition(float p0,float p1,float p2,float p3,float p4,float p5,float p6, float tf)
{
    4930:	2f 92       	push	r2
    4932:	3f 92       	push	r3
    4934:	4f 92       	push	r4
    4936:	5f 92       	push	r5
    4938:	6f 92       	push	r6
    493a:	7f 92       	push	r7
    493c:	8f 92       	push	r8
    493e:	9f 92       	push	r9
    4940:	af 92       	push	r10
    4942:	bf 92       	push	r11
    4944:	cf 92       	push	r12
    4946:	df 92       	push	r13
    4948:	ef 92       	push	r14
    494a:	ff 92       	push	r15
    494c:	0f 93       	push	r16
    494e:	1f 93       	push	r17
    4950:	df 93       	push	r29
    4952:	cf 93       	push	r28
    4954:	cd b7       	in	r28, 0x3d	; 61
    4956:	de b7       	in	r29, 0x3e	; 62
    4958:	62 97       	sbiw	r28, 0x12	; 18
    495a:	0f b6       	in	r0, 0x3f	; 63
    495c:	f8 94       	cli
    495e:	de bf       	out	0x3e, r29	; 62
    4960:	0f be       	out	0x3f, r0	; 63
    4962:	cd bf       	out	0x3d, r28	; 61
    4964:	3b 01       	movw	r6, r22
    4966:	4c 01       	movw	r8, r24
    4968:	19 01       	movw	r2, r18
    496a:	2a 01       	movw	r4, r20

	int succes;
	succes = 0;
    
	SetMaxSpeeds(20);
    496c:	60 e0       	ldi	r22, 0x00	; 0
    496e:	70 e0       	ldi	r23, 0x00	; 0
    4970:	80 ea       	ldi	r24, 0xA0	; 160
    4972:	91 e4       	ldi	r25, 0x41	; 65
    4974:	0e 94 4a 04 	call	0x894	; 0x894 <SetMaxSpeeds>
	updateQPosition();
    4978:	0e 94 a5 0c 	call	0x194a	; 0x194a <updateQPosition>

	if(tf<0.5)
    497c:	6c a9       	ldd	r22, Y+52	; 0x34
    497e:	7d a9       	ldd	r23, Y+53	; 0x35
    4980:	8e a9       	ldd	r24, Y+54	; 0x36
    4982:	9f a9       	ldd	r25, Y+55	; 0x37
    4984:	20 e0       	ldi	r18, 0x00	; 0
    4986:	30 e0       	ldi	r19, 0x00	; 0
    4988:	40 e0       	ldi	r20, 0x00	; 0
    498a:	5f e3       	ldi	r21, 0x3F	; 63
    498c:	0e 94 78 3d 	call	0x7af0	; 0x7af0 <__cmpsf2>
    4990:	87 fd       	sbrc	r24, 7
    4992:	e8 c1       	rjmp	.+976    	; 0x4d64 <SetdesiredPosition+0x434>
		return 0;
	}

	// 1) Escribe Dato. Posicin Cartesiana Deseada.

	if(instructionSet==1)
    4994:	80 91 f2 08 	lds	r24, 0x08F2
    4998:	90 91 f3 08 	lds	r25, 0x08F3
    499c:	81 30       	cpi	r24, 0x01	; 1
    499e:	91 05       	cpc	r25, r1
    49a0:	09 f0       	breq	.+2      	; 0x49a4 <SetdesiredPosition+0x74>
    49a2:	48 c0       	rjmp	.+144    	; 0x4a34 <SetdesiredPosition+0x104>
	{
	
		desiredXPosition[0] = p0;
    49a4:	60 92 b8 12 	sts	0x12B8, r6
    49a8:	70 92 b9 12 	sts	0x12B9, r7
    49ac:	80 92 ba 12 	sts	0x12BA, r8
    49b0:	90 92 bb 12 	sts	0x12BB, r9
		desiredXPosition[1] = p1;
    49b4:	20 92 bc 12 	sts	0x12BC, r2
    49b8:	30 92 bd 12 	sts	0x12BD, r3
    49bc:	40 92 be 12 	sts	0x12BE, r4
    49c0:	50 92 bf 12 	sts	0x12BF, r5
		desiredXPosition[2] = p2;
    49c4:	e0 92 c0 12 	sts	0x12C0, r14
    49c8:	f0 92 c1 12 	sts	0x12C1, r15
    49cc:	00 93 c2 12 	sts	0x12C2, r16
    49d0:	10 93 c3 12 	sts	0x12C3, r17
		desiredXPosition[3] = p3;
    49d4:	a0 92 c4 12 	sts	0x12C4, r10
    49d8:	b0 92 c5 12 	sts	0x12C5, r11
    49dc:	c0 92 c6 12 	sts	0x12C6, r12
    49e0:	d0 92 c7 12 	sts	0x12C7, r13
		desiredXPosition[4] = p4;
    49e4:	88 a5       	ldd	r24, Y+40	; 0x28
    49e6:	99 a5       	ldd	r25, Y+41	; 0x29
    49e8:	aa a5       	ldd	r26, Y+42	; 0x2a
    49ea:	bb a5       	ldd	r27, Y+43	; 0x2b
    49ec:	80 93 c8 12 	sts	0x12C8, r24
    49f0:	90 93 c9 12 	sts	0x12C9, r25
    49f4:	a0 93 ca 12 	sts	0x12CA, r26
    49f8:	b0 93 cb 12 	sts	0x12CB, r27
		desiredXPosition[5] = p5;
    49fc:	8c a5       	ldd	r24, Y+44	; 0x2c
    49fe:	9d a5       	ldd	r25, Y+45	; 0x2d
    4a00:	ae a5       	ldd	r26, Y+46	; 0x2e
    4a02:	bf a5       	ldd	r27, Y+47	; 0x2f
    4a04:	80 93 cc 12 	sts	0x12CC, r24
    4a08:	90 93 cd 12 	sts	0x12CD, r25
    4a0c:	a0 93 ce 12 	sts	0x12CE, r26
    4a10:	b0 93 cf 12 	sts	0x12CF, r27
		desiredXPosition[6] = p6;
    4a14:	88 a9       	ldd	r24, Y+48	; 0x30
    4a16:	99 a9       	ldd	r25, Y+49	; 0x31
    4a18:	aa a9       	ldd	r26, Y+50	; 0x32
    4a1a:	bb a9       	ldd	r27, Y+51	; 0x33
    4a1c:	80 93 d0 12 	sts	0x12D0, r24
    4a20:	90 93 d1 12 	sts	0x12D1, r25
    4a24:	a0 93 d2 12 	sts	0x12D2, r26
    4a28:	b0 93 d3 12 	sts	0x12D3, r27

	
		// 2) Cinemtica Inversa

		//printf("Inverse Kinematics \n\r");
		succes = InverseKinematics();
    4a2c:	0e 94 7e 17 	call	0x2efc	; 0x2efc <InverseKinematics>
    4a30:	1c 01       	movw	r2, r24
    4a32:	4e c0       	rjmp	.+156    	; 0x4ad0 <SetdesiredPosition+0x1a0>
	}
	else if(instructionSet==2)
    4a34:	82 30       	cpi	r24, 0x02	; 2
    4a36:	91 05       	cpc	r25, r1
    4a38:	09 f0       	breq	.+2      	; 0x4a3c <SetdesiredPosition+0x10c>
    4a3a:	48 c0       	rjmp	.+144    	; 0x4acc <SetdesiredPosition+0x19c>
	{
		desiredQPosition[0] = p0;
    4a3c:	60 92 64 12 	sts	0x1264, r6
    4a40:	70 92 65 12 	sts	0x1265, r7
    4a44:	80 92 66 12 	sts	0x1266, r8
    4a48:	90 92 67 12 	sts	0x1267, r9
		desiredQPosition[1] = p1;
    4a4c:	20 92 68 12 	sts	0x1268, r2
    4a50:	30 92 69 12 	sts	0x1269, r3
    4a54:	40 92 6a 12 	sts	0x126A, r4
    4a58:	50 92 6b 12 	sts	0x126B, r5
		desiredQPosition[2] = p2;
    4a5c:	e0 92 6c 12 	sts	0x126C, r14
    4a60:	f0 92 6d 12 	sts	0x126D, r15
    4a64:	00 93 6e 12 	sts	0x126E, r16
    4a68:	10 93 6f 12 	sts	0x126F, r17
		desiredQPosition[3] = p3;
    4a6c:	a0 92 70 12 	sts	0x1270, r10
    4a70:	b0 92 71 12 	sts	0x1271, r11
    4a74:	c0 92 72 12 	sts	0x1272, r12
    4a78:	d0 92 73 12 	sts	0x1273, r13
		desiredQPosition[4] = p4;
    4a7c:	88 a5       	ldd	r24, Y+40	; 0x28
    4a7e:	99 a5       	ldd	r25, Y+41	; 0x29
    4a80:	aa a5       	ldd	r26, Y+42	; 0x2a
    4a82:	bb a5       	ldd	r27, Y+43	; 0x2b
    4a84:	80 93 74 12 	sts	0x1274, r24
    4a88:	90 93 75 12 	sts	0x1275, r25
    4a8c:	a0 93 76 12 	sts	0x1276, r26
    4a90:	b0 93 77 12 	sts	0x1277, r27
		desiredQPosition[5] = p5;
    4a94:	8c a5       	ldd	r24, Y+44	; 0x2c
    4a96:	9d a5       	ldd	r25, Y+45	; 0x2d
    4a98:	ae a5       	ldd	r26, Y+46	; 0x2e
    4a9a:	bf a5       	ldd	r27, Y+47	; 0x2f
    4a9c:	80 93 78 12 	sts	0x1278, r24
    4aa0:	90 93 79 12 	sts	0x1279, r25
    4aa4:	a0 93 7a 12 	sts	0x127A, r26
    4aa8:	b0 93 7b 12 	sts	0x127B, r27
		desiredQPosition[6] = p6;
    4aac:	88 a9       	ldd	r24, Y+48	; 0x30
    4aae:	99 a9       	ldd	r25, Y+49	; 0x31
    4ab0:	aa a9       	ldd	r26, Y+50	; 0x32
    4ab2:	bb a9       	ldd	r27, Y+51	; 0x33
    4ab4:	80 93 7c 12 	sts	0x127C, r24
    4ab8:	90 93 7d 12 	sts	0x127D, r25
    4abc:	a0 93 7e 12 	sts	0x127E, r26
    4ac0:	b0 93 7f 12 	sts	0x127F, r27
	//	printf("Angular Pos \n\r");
		succes = 1;
    4ac4:	b1 e0       	ldi	r27, 0x01	; 1
    4ac6:	2b 2e       	mov	r2, r27
    4ac8:	31 2c       	mov	r3, r1
    4aca:	02 c0       	rjmp	.+4      	; 0x4ad0 <SetdesiredPosition+0x1a0>

int SetdesiredPosition(float p0,float p1,float p2,float p3,float p4,float p5,float p6, float tf)
{

	int succes;
	succes = 0;
    4acc:	22 24       	eor	r2, r2
    4ace:	33 24       	eor	r3, r3
		desiredQPosition[6] = p6;
	//	printf("Angular Pos \n\r");
		succes = 1;
	}

	timeCounter = 0;
    4ad0:	10 92 f1 08 	sts	0x08F1, r1
    4ad4:	10 92 f0 08 	sts	0x08F0, r1
	executionTF = tf;
    4ad8:	8c a9       	ldd	r24, Y+52	; 0x34
    4ada:	9d a9       	ldd	r25, Y+53	; 0x35
    4adc:	ae a9       	ldd	r26, Y+54	; 0x36
    4ade:	bf a9       	ldd	r27, Y+55	; 0x37
    4ae0:	80 93 ec 08 	sts	0x08EC, r24
    4ae4:	90 93 ed 08 	sts	0x08ED, r25
    4ae8:	a0 93 ee 08 	sts	0x08EE, r26
    4aec:	b0 93 ef 08 	sts	0x08EF, r27

	printf("CurrentQPos: %f , %f , %f , %f  , %f , %f , %f \r", currentQPosition[0],currentQPosition[1],currentQPosition[2],currentQPosition[3],currentQPosition[4],currentQPosition[5],currentQPosition[6]);
    4af0:	ad b7       	in	r26, 0x3d	; 61
    4af2:	be b7       	in	r27, 0x3e	; 62
    4af4:	5e 97       	sbiw	r26, 0x1e	; 30
    4af6:	0f b6       	in	r0, 0x3f	; 63
    4af8:	f8 94       	cli
    4afa:	be bf       	out	0x3e, r27	; 62
    4afc:	0f be       	out	0x3f, r0	; 63
    4afe:	ad bf       	out	0x3d, r26	; 61
    4b00:	ed b7       	in	r30, 0x3d	; 61
    4b02:	fe b7       	in	r31, 0x3e	; 62
    4b04:	31 96       	adiw	r30, 0x01	; 1
    4b06:	85 e2       	ldi	r24, 0x25	; 37
    4b08:	93 e0       	ldi	r25, 0x03	; 3
    4b0a:	12 96       	adiw	r26, 0x02	; 2
    4b0c:	9c 93       	st	X, r25
    4b0e:	8e 93       	st	-X, r24
    4b10:	11 97       	sbiw	r26, 0x01	; 1
    4b12:	80 91 e9 11 	lds	r24, 0x11E9
    4b16:	90 91 ea 11 	lds	r25, 0x11EA
    4b1a:	a0 91 eb 11 	lds	r26, 0x11EB
    4b1e:	b0 91 ec 11 	lds	r27, 0x11EC
    4b22:	82 83       	std	Z+2, r24	; 0x02
    4b24:	93 83       	std	Z+3, r25	; 0x03
    4b26:	a4 83       	std	Z+4, r26	; 0x04
    4b28:	b5 83       	std	Z+5, r27	; 0x05
    4b2a:	80 91 ed 11 	lds	r24, 0x11ED
    4b2e:	90 91 ee 11 	lds	r25, 0x11EE
    4b32:	a0 91 ef 11 	lds	r26, 0x11EF
    4b36:	b0 91 f0 11 	lds	r27, 0x11F0
    4b3a:	86 83       	std	Z+6, r24	; 0x06
    4b3c:	97 83       	std	Z+7, r25	; 0x07
    4b3e:	a0 87       	std	Z+8, r26	; 0x08
    4b40:	b1 87       	std	Z+9, r27	; 0x09
    4b42:	80 91 f1 11 	lds	r24, 0x11F1
    4b46:	90 91 f2 11 	lds	r25, 0x11F2
    4b4a:	a0 91 f3 11 	lds	r26, 0x11F3
    4b4e:	b0 91 f4 11 	lds	r27, 0x11F4
    4b52:	82 87       	std	Z+10, r24	; 0x0a
    4b54:	93 87       	std	Z+11, r25	; 0x0b
    4b56:	a4 87       	std	Z+12, r26	; 0x0c
    4b58:	b5 87       	std	Z+13, r27	; 0x0d
    4b5a:	80 91 f5 11 	lds	r24, 0x11F5
    4b5e:	90 91 f6 11 	lds	r25, 0x11F6
    4b62:	a0 91 f7 11 	lds	r26, 0x11F7
    4b66:	b0 91 f8 11 	lds	r27, 0x11F8
    4b6a:	86 87       	std	Z+14, r24	; 0x0e
    4b6c:	97 87       	std	Z+15, r25	; 0x0f
    4b6e:	a0 8b       	std	Z+16, r26	; 0x10
    4b70:	b1 8b       	std	Z+17, r27	; 0x11
    4b72:	80 91 f9 11 	lds	r24, 0x11F9
    4b76:	90 91 fa 11 	lds	r25, 0x11FA
    4b7a:	a0 91 fb 11 	lds	r26, 0x11FB
    4b7e:	b0 91 fc 11 	lds	r27, 0x11FC
    4b82:	82 8b       	std	Z+18, r24	; 0x12
    4b84:	93 8b       	std	Z+19, r25	; 0x13
    4b86:	a4 8b       	std	Z+20, r26	; 0x14
    4b88:	b5 8b       	std	Z+21, r27	; 0x15
    4b8a:	80 91 fd 11 	lds	r24, 0x11FD
    4b8e:	90 91 fe 11 	lds	r25, 0x11FE
    4b92:	a0 91 ff 11 	lds	r26, 0x11FF
    4b96:	b0 91 00 12 	lds	r27, 0x1200
    4b9a:	86 8b       	std	Z+22, r24	; 0x16
    4b9c:	97 8b       	std	Z+23, r25	; 0x17
    4b9e:	a0 8f       	std	Z+24, r26	; 0x18
    4ba0:	b1 8f       	std	Z+25, r27	; 0x19
    4ba2:	80 91 01 12 	lds	r24, 0x1201
    4ba6:	90 91 02 12 	lds	r25, 0x1202
    4baa:	a0 91 03 12 	lds	r26, 0x1203
    4bae:	b0 91 04 12 	lds	r27, 0x1204
    4bb2:	82 8f       	std	Z+26, r24	; 0x1a
    4bb4:	93 8f       	std	Z+27, r25	; 0x1b
    4bb6:	a4 8f       	std	Z+28, r26	; 0x1c
    4bb8:	b5 8f       	std	Z+29, r27	; 0x1d
    4bba:	0e 94 63 44 	call	0x88c6	; 0x88c6 <printf>
	printf("DesiredQPos: %f , %f , %f , %f  , %f , %f , %f \r", desiredQPosition[0],desiredQPosition[1],desiredQPosition[2],desiredQPosition[3],desiredQPosition[4],desiredQPosition[5],desiredQPosition[6]);
    4bbe:	ed b7       	in	r30, 0x3d	; 61
    4bc0:	fe b7       	in	r31, 0x3e	; 62
    4bc2:	31 96       	adiw	r30, 0x01	; 1
    4bc4:	86 e5       	ldi	r24, 0x56	; 86
    4bc6:	93 e0       	ldi	r25, 0x03	; 3
    4bc8:	ad b7       	in	r26, 0x3d	; 61
    4bca:	be b7       	in	r27, 0x3e	; 62
    4bcc:	12 96       	adiw	r26, 0x02	; 2
    4bce:	9c 93       	st	X, r25
    4bd0:	8e 93       	st	-X, r24
    4bd2:	11 97       	sbiw	r26, 0x01	; 1
    4bd4:	80 91 64 12 	lds	r24, 0x1264
    4bd8:	90 91 65 12 	lds	r25, 0x1265
    4bdc:	a0 91 66 12 	lds	r26, 0x1266
    4be0:	b0 91 67 12 	lds	r27, 0x1267
    4be4:	82 83       	std	Z+2, r24	; 0x02
    4be6:	93 83       	std	Z+3, r25	; 0x03
    4be8:	a4 83       	std	Z+4, r26	; 0x04
    4bea:	b5 83       	std	Z+5, r27	; 0x05
    4bec:	80 91 68 12 	lds	r24, 0x1268
    4bf0:	90 91 69 12 	lds	r25, 0x1269
    4bf4:	a0 91 6a 12 	lds	r26, 0x126A
    4bf8:	b0 91 6b 12 	lds	r27, 0x126B
    4bfc:	86 83       	std	Z+6, r24	; 0x06
    4bfe:	97 83       	std	Z+7, r25	; 0x07
    4c00:	a0 87       	std	Z+8, r26	; 0x08
    4c02:	b1 87       	std	Z+9, r27	; 0x09
    4c04:	80 91 6c 12 	lds	r24, 0x126C
    4c08:	90 91 6d 12 	lds	r25, 0x126D
    4c0c:	a0 91 6e 12 	lds	r26, 0x126E
    4c10:	b0 91 6f 12 	lds	r27, 0x126F
    4c14:	82 87       	std	Z+10, r24	; 0x0a
    4c16:	93 87       	std	Z+11, r25	; 0x0b
    4c18:	a4 87       	std	Z+12, r26	; 0x0c
    4c1a:	b5 87       	std	Z+13, r27	; 0x0d
    4c1c:	80 91 70 12 	lds	r24, 0x1270
    4c20:	90 91 71 12 	lds	r25, 0x1271
    4c24:	a0 91 72 12 	lds	r26, 0x1272
    4c28:	b0 91 73 12 	lds	r27, 0x1273
    4c2c:	86 87       	std	Z+14, r24	; 0x0e
    4c2e:	97 87       	std	Z+15, r25	; 0x0f
    4c30:	a0 8b       	std	Z+16, r26	; 0x10
    4c32:	b1 8b       	std	Z+17, r27	; 0x11
    4c34:	80 91 74 12 	lds	r24, 0x1274
    4c38:	90 91 75 12 	lds	r25, 0x1275
    4c3c:	a0 91 76 12 	lds	r26, 0x1276
    4c40:	b0 91 77 12 	lds	r27, 0x1277
    4c44:	82 8b       	std	Z+18, r24	; 0x12
    4c46:	93 8b       	std	Z+19, r25	; 0x13
    4c48:	a4 8b       	std	Z+20, r26	; 0x14
    4c4a:	b5 8b       	std	Z+21, r27	; 0x15
    4c4c:	80 91 78 12 	lds	r24, 0x1278
    4c50:	90 91 79 12 	lds	r25, 0x1279
    4c54:	a0 91 7a 12 	lds	r26, 0x127A
    4c58:	b0 91 7b 12 	lds	r27, 0x127B
    4c5c:	86 8b       	std	Z+22, r24	; 0x16
    4c5e:	97 8b       	std	Z+23, r25	; 0x17
    4c60:	a0 8f       	std	Z+24, r26	; 0x18
    4c62:	b1 8f       	std	Z+25, r27	; 0x19
    4c64:	80 91 7c 12 	lds	r24, 0x127C
    4c68:	90 91 7d 12 	lds	r25, 0x127D
    4c6c:	a0 91 7e 12 	lds	r26, 0x127E
    4c70:	b0 91 7f 12 	lds	r27, 0x127F
    4c74:	82 8f       	std	Z+26, r24	; 0x1a
    4c76:	93 8f       	std	Z+27, r25	; 0x1b
    4c78:	a4 8f       	std	Z+28, r26	; 0x1c
    4c7a:	b5 8f       	std	Z+29, r27	; 0x1d
    4c7c:	0e 94 63 44 	call	0x88c6	; 0x88c6 <printf>
    4c80:	a9 ee       	ldi	r26, 0xE9	; 233
    4c82:	ea 2e       	mov	r14, r26
    4c84:	a1 e1       	ldi	r26, 0x11	; 17
    4c86:	fa 2e       	mov	r15, r26
    4c88:	f7 e8       	ldi	r31, 0x87	; 135
    4c8a:	4f 2e       	mov	r4, r31
    4c8c:	fb e0       	ldi	r31, 0x0B	; 11
    4c8e:	5f 2e       	mov	r5, r31
    4c90:	ed b7       	in	r30, 0x3d	; 61
    4c92:	fe b7       	in	r31, 0x3e	; 62
    4c94:	7e 96       	adiw	r30, 0x1e	; 30
    4c96:	0f b6       	in	r0, 0x3f	; 63
    4c98:	f8 94       	cli
    4c9a:	fe bf       	out	0x3e, r31	; 62
    4c9c:	0f be       	out	0x3f, r0	; 63
    4c9e:	ed bf       	out	0x3d, r30	; 61
    4ca0:	52 01       	movw	r10, r4

	// 2) Constantes de Planeacin-
	for(int i = 0;i<DOF;i++)
    4ca2:	00 e0       	ldi	r16, 0x00	; 0
    4ca4:	10 e0       	ldi	r17, 0x00	; 0
	{
		currentQPosition[i] = GetPosition(i);
    4ca6:	c8 01       	movw	r24, r16
    4ca8:	0e 94 c2 02 	call	0x584	; 0x584 <GetPosition>
    4cac:	d7 01       	movw	r26, r14
    4cae:	6d 93       	st	X+, r22
    4cb0:	7d 93       	st	X+, r23
    4cb2:	8d 93       	st	X+, r24
    4cb4:	9d 93       	st	X+, r25
    4cb6:	7d 01       	movw	r14, r26
		initialQPosition[i] = currentQPosition[i];
    4cb8:	f5 01       	movw	r30, r10
    4cba:	61 93       	st	Z+, r22
    4cbc:	71 93       	st	Z+, r23
    4cbe:	81 93       	st	Z+, r24
    4cc0:	91 93       	st	Z+, r25
    4cc2:	5f 01       	movw	r10, r30

	printf("CurrentQPos: %f , %f , %f , %f  , %f , %f , %f \r", currentQPosition[0],currentQPosition[1],currentQPosition[2],currentQPosition[3],currentQPosition[4],currentQPosition[5],currentQPosition[6]);
	printf("DesiredQPos: %f , %f , %f , %f  , %f , %f , %f \r", desiredQPosition[0],desiredQPosition[1],desiredQPosition[2],desiredQPosition[3],desiredQPosition[4],desiredQPosition[5],desiredQPosition[6]);

	// 2) Constantes de Planeacin-
	for(int i = 0;i<DOF;i++)
    4cc4:	0f 5f       	subi	r16, 0xFF	; 255
    4cc6:	1f 4f       	sbci	r17, 0xFF	; 255
    4cc8:	07 30       	cpi	r16, 0x07	; 7
    4cca:	11 05       	cpc	r17, r1
    4ccc:	61 f7       	brne	.-40     	; 0x4ca6 <SetdesiredPosition+0x376>
    4cce:	84 e6       	ldi	r24, 0x64	; 100
    4cd0:	92 e1       	ldi	r25, 0x12	; 18
    4cd2:	9a 8b       	std	Y+18, r25	; 0x12
    4cd4:	89 8b       	std	Y+17, r24	; 0x11
    4cd6:	aa 24       	eor	r10, r10
    4cd8:	bb 24       	eor	r11, r11
		initialQPosition[i] = currentQPosition[i];
		
	}
	for(int i = 0; i<DOF;i++)
	{
		PERcoef[i] = coefQuintico (initialQPosition[i],desiredQPosition[i], executionTF);
    4cda:	3e 01       	movw	r6, r28
    4cdc:	08 94       	sec
    4cde:	61 1c       	adc	r6, r1
    4ce0:	71 1c       	adc	r7, r1
    4ce2:	d2 01       	movw	r26, r4
    4ce4:	4d 91       	ld	r20, X+
    4ce6:	5d 91       	ld	r21, X+
    4ce8:	6d 91       	ld	r22, X+
    4cea:	7d 91       	ld	r23, X+
    4cec:	2d 01       	movw	r4, r26
    4cee:	e9 89       	ldd	r30, Y+17	; 0x11
    4cf0:	fa 89       	ldd	r31, Y+18	; 0x12
    4cf2:	01 91       	ld	r16, Z+
    4cf4:	11 91       	ld	r17, Z+
    4cf6:	21 91       	ld	r18, Z+
    4cf8:	31 91       	ld	r19, Z+
    4cfa:	fa 8b       	std	Y+18, r31	; 0x12
    4cfc:	e9 8b       	std	Y+17, r30	; 0x11
    4cfe:	45 01       	movw	r8, r10
    4d00:	e4 e0       	ldi	r30, 0x04	; 4
    4d02:	88 0c       	add	r8, r8
    4d04:	99 1c       	adc	r9, r9
    4d06:	ea 95       	dec	r30
    4d08:	e1 f7       	brne	.-8      	; 0x4d02 <SetdesiredPosition+0x3d2>
    4d0a:	83 ea       	ldi	r24, 0xA3	; 163
    4d0c:	9b e0       	ldi	r25, 0x0B	; 11
    4d0e:	88 0e       	add	r8, r24
    4d10:	99 1e       	adc	r9, r25
    4d12:	c0 90 ec 08 	lds	r12, 0x08EC
    4d16:	d0 90 ed 08 	lds	r13, 0x08ED
    4d1a:	e0 90 ee 08 	lds	r14, 0x08EE
    4d1e:	f0 90 ef 08 	lds	r15, 0x08EF
    4d22:	c3 01       	movw	r24, r6
    4d24:	0e 94 e2 23 	call	0x47c4	; 0x47c4 <coefQuintico>
    4d28:	d4 01       	movw	r26, r8
    4d2a:	f3 01       	movw	r30, r6
    4d2c:	80 e1       	ldi	r24, 0x10	; 16
    4d2e:	01 90       	ld	r0, Z+
    4d30:	0d 92       	st	X+, r0
    4d32:	81 50       	subi	r24, 0x01	; 1
    4d34:	e1 f7       	brne	.-8      	; 0x4d2e <SetdesiredPosition+0x3fe>
	{
		currentQPosition[i] = GetPosition(i);
		initialQPosition[i] = currentQPosition[i];
		
	}
	for(int i = 0; i<DOF;i++)
    4d36:	08 94       	sec
    4d38:	a1 1c       	adc	r10, r1
    4d3a:	b1 1c       	adc	r11, r1
    4d3c:	97 e0       	ldi	r25, 0x07	; 7
    4d3e:	a9 16       	cp	r10, r25
    4d40:	b1 04       	cpc	r11, r1
    4d42:	79 f6       	brne	.-98     	; 0x4ce2 <SetdesiredPosition+0x3b2>
	{
		PERcoef[i] = coefQuintico (initialQPosition[i],desiredQPosition[i], executionTF);
		//LSPBcoef[i] = coefLSPB (initialQPosition[i],desiredQPosition[i], executionTF);
	}
	
	if(succes)
    4d44:	21 14       	cp	r2, r1
    4d46:	31 04       	cpc	r3, r1
    4d48:	49 f0       	breq	.+18     	; 0x4d5c <SetdesiredPosition+0x42c>
	{
		doControl = 1;
    4d4a:	81 e0       	ldi	r24, 0x01	; 1
    4d4c:	90 e0       	ldi	r25, 0x00	; 0
    4d4e:	90 93 e9 08 	sts	0x08E9, r25
    4d52:	80 93 e8 08 	sts	0x08E8, r24
		return 1;
    4d56:	21 e0       	ldi	r18, 0x01	; 1
    4d58:	30 e0       	ldi	r19, 0x00	; 0
    4d5a:	06 c0       	rjmp	.+12     	; 0x4d68 <SetdesiredPosition+0x438>
	}
	else{
		doControl = 0;
    4d5c:	10 92 e9 08 	sts	0x08E9, r1
    4d60:	10 92 e8 08 	sts	0x08E8, r1
	SetMaxSpeeds(20);
	updateQPosition();

	if(tf<0.5)
	{
		return 0;
    4d64:	20 e0       	ldi	r18, 0x00	; 0
    4d66:	30 e0       	ldi	r19, 0x00	; 0
	}
	else{
		doControl = 0;
		return 0;
	}
}
    4d68:	c9 01       	movw	r24, r18
    4d6a:	62 96       	adiw	r28, 0x12	; 18
    4d6c:	0f b6       	in	r0, 0x3f	; 63
    4d6e:	f8 94       	cli
    4d70:	de bf       	out	0x3e, r29	; 62
    4d72:	0f be       	out	0x3f, r0	; 63
    4d74:	cd bf       	out	0x3d, r28	; 61
    4d76:	cf 91       	pop	r28
    4d78:	df 91       	pop	r29
    4d7a:	1f 91       	pop	r17
    4d7c:	0f 91       	pop	r16
    4d7e:	ff 90       	pop	r15
    4d80:	ef 90       	pop	r14
    4d82:	df 90       	pop	r13
    4d84:	cf 90       	pop	r12
    4d86:	bf 90       	pop	r11
    4d88:	af 90       	pop	r10
    4d8a:	9f 90       	pop	r9
    4d8c:	8f 90       	pop	r8
    4d8e:	7f 90       	pop	r7
    4d90:	6f 90       	pop	r6
    4d92:	5f 90       	pop	r5
    4d94:	4f 90       	pop	r4
    4d96:	3f 90       	pop	r3
    4d98:	2f 90       	pop	r2
    4d9a:	08 95       	ret

00004d9c <perQuintico>:
	data.value[3]= a5;
	return data;
}

float perQuintico(float q0,float qf,vector4 data,float t)
{
    4d9c:	2f 92       	push	r2
    4d9e:	3f 92       	push	r3
    4da0:	4f 92       	push	r4
    4da2:	5f 92       	push	r5
    4da4:	6f 92       	push	r6
    4da6:	7f 92       	push	r7
    4da8:	8f 92       	push	r8
    4daa:	9f 92       	push	r9
    4dac:	af 92       	push	r10
    4dae:	bf 92       	push	r11
    4db0:	cf 92       	push	r12
    4db2:	df 92       	push	r13
    4db4:	ef 92       	push	r14
    4db6:	ff 92       	push	r15
    4db8:	0f 93       	push	r16
    4dba:	1f 93       	push	r17
    4dbc:	df 93       	push	r29
    4dbe:	cf 93       	push	r28
    4dc0:	cd b7       	in	r28, 0x3d	; 61
    4dc2:	de b7       	in	r29, 0x3e	; 62
    4dc4:	ee a0       	ldd	r14, Y+38	; 0x26
    4dc6:	ff a0       	ldd	r15, Y+39	; 0x27
    4dc8:	08 a5       	ldd	r16, Y+40	; 0x28
    4dca:	19 a5       	ldd	r17, Y+41	; 0x29
	float q;
	a0 = data.value[0];
	a3 = data.value[1];
	a4 = data.value[2];
	a5 = data.value[3];
	q=a0+a3*pow(t,3)+a4*pow(t,4)+a5*pow(t,5);
    4dcc:	c8 01       	movw	r24, r16
    4dce:	b7 01       	movw	r22, r14
    4dd0:	20 e0       	ldi	r18, 0x00	; 0
    4dd2:	30 e0       	ldi	r19, 0x00	; 0
    4dd4:	40 e4       	ldi	r20, 0x40	; 64
    4dd6:	50 e4       	ldi	r21, 0x40	; 64
    4dd8:	0e 94 c2 3f 	call	0x7f84	; 0x7f84 <pow>
    4ddc:	d6 2e       	mov	r13, r22
    4dde:	c7 2e       	mov	r12, r23
    4de0:	b8 2e       	mov	r11, r24
    4de2:	a9 2e       	mov	r10, r25
    4de4:	c8 01       	movw	r24, r16
    4de6:	b7 01       	movw	r22, r14
    4de8:	20 e0       	ldi	r18, 0x00	; 0
    4dea:	30 e0       	ldi	r19, 0x00	; 0
    4dec:	40 e8       	ldi	r20, 0x80	; 128
    4dee:	50 e4       	ldi	r21, 0x40	; 64
    4df0:	0e 94 c2 3f 	call	0x7f84	; 0x7f84 <pow>
    4df4:	96 2e       	mov	r9, r22
    4df6:	87 2e       	mov	r8, r23
    4df8:	78 2e       	mov	r7, r24
    4dfa:	69 2e       	mov	r6, r25
    4dfc:	c8 01       	movw	r24, r16
    4dfe:	b7 01       	movw	r22, r14
    4e00:	20 e0       	ldi	r18, 0x00	; 0
    4e02:	30 e0       	ldi	r19, 0x00	; 0
    4e04:	40 ea       	ldi	r20, 0xA0	; 160
    4e06:	50 e4       	ldi	r21, 0x40	; 64
    4e08:	0e 94 c2 3f 	call	0x7f84	; 0x7f84 <pow>
    4e0c:	56 2e       	mov	r5, r22
    4e0e:	47 2e       	mov	r4, r23
    4e10:	38 2e       	mov	r3, r24
    4e12:	29 2e       	mov	r2, r25
    4e14:	a6 01       	movw	r20, r12
    4e16:	95 01       	movw	r18, r10
    4e18:	65 2f       	mov	r22, r21
    4e1a:	74 2f       	mov	r23, r20
    4e1c:	83 2f       	mov	r24, r19
    4e1e:	92 2f       	mov	r25, r18
    4e20:	2a 8d       	ldd	r18, Y+26	; 0x1a
    4e22:	3b 8d       	ldd	r19, Y+27	; 0x1b
    4e24:	4c 8d       	ldd	r20, Y+28	; 0x1c
    4e26:	5d 8d       	ldd	r21, Y+29	; 0x1d
    4e28:	0e 94 5f 3f 	call	0x7ebe	; 0x7ebe <__mulsf3>
    4e2c:	2e 89       	ldd	r18, Y+22	; 0x16
    4e2e:	3f 89       	ldd	r19, Y+23	; 0x17
    4e30:	48 8d       	ldd	r20, Y+24	; 0x18
    4e32:	59 8d       	ldd	r21, Y+25	; 0x19
    4e34:	0e 94 9b 3c 	call	0x7936	; 0x7936 <__addsf3>
    4e38:	7b 01       	movw	r14, r22
    4e3a:	8c 01       	movw	r16, r24
    4e3c:	a4 01       	movw	r20, r8
    4e3e:	93 01       	movw	r18, r6
    4e40:	65 2f       	mov	r22, r21
    4e42:	74 2f       	mov	r23, r20
    4e44:	83 2f       	mov	r24, r19
    4e46:	92 2f       	mov	r25, r18
    4e48:	2e 8d       	ldd	r18, Y+30	; 0x1e
    4e4a:	3f 8d       	ldd	r19, Y+31	; 0x1f
    4e4c:	48 a1       	ldd	r20, Y+32	; 0x20
    4e4e:	59 a1       	ldd	r21, Y+33	; 0x21
    4e50:	0e 94 5f 3f 	call	0x7ebe	; 0x7ebe <__mulsf3>
    4e54:	9b 01       	movw	r18, r22
    4e56:	ac 01       	movw	r20, r24
    4e58:	c8 01       	movw	r24, r16
    4e5a:	b7 01       	movw	r22, r14
    4e5c:	0e 94 9b 3c 	call	0x7936	; 0x7936 <__addsf3>
    4e60:	7b 01       	movw	r14, r22
    4e62:	8c 01       	movw	r16, r24
    4e64:	a2 01       	movw	r20, r4
    4e66:	91 01       	movw	r18, r2
    4e68:	65 2f       	mov	r22, r21
    4e6a:	74 2f       	mov	r23, r20
    4e6c:	83 2f       	mov	r24, r19
    4e6e:	92 2f       	mov	r25, r18
    4e70:	2a a1       	ldd	r18, Y+34	; 0x22
    4e72:	3b a1       	ldd	r19, Y+35	; 0x23
    4e74:	4c a1       	ldd	r20, Y+36	; 0x24
    4e76:	5d a1       	ldd	r21, Y+37	; 0x25
    4e78:	0e 94 5f 3f 	call	0x7ebe	; 0x7ebe <__mulsf3>
    4e7c:	9b 01       	movw	r18, r22
    4e7e:	ac 01       	movw	r20, r24
    4e80:	c8 01       	movw	r24, r16
    4e82:	b7 01       	movw	r22, r14
    4e84:	0e 94 9b 3c 	call	0x7936	; 0x7936 <__addsf3>
	return q;
}
    4e88:	cf 91       	pop	r28
    4e8a:	df 91       	pop	r29
    4e8c:	1f 91       	pop	r17
    4e8e:	0f 91       	pop	r16
    4e90:	ff 90       	pop	r15
    4e92:	ef 90       	pop	r14
    4e94:	df 90       	pop	r13
    4e96:	cf 90       	pop	r12
    4e98:	bf 90       	pop	r11
    4e9a:	af 90       	pop	r10
    4e9c:	9f 90       	pop	r9
    4e9e:	8f 90       	pop	r8
    4ea0:	7f 90       	pop	r7
    4ea2:	6f 90       	pop	r6
    4ea4:	5f 90       	pop	r5
    4ea6:	4f 90       	pop	r4
    4ea8:	3f 90       	pop	r3
    4eaa:	2f 90       	pop	r2
    4eac:	08 95       	ret

00004eae <executeControl>:
		}	
	}
	
}
void executeControl()
{
    4eae:	2f 92       	push	r2
    4eb0:	3f 92       	push	r3
    4eb2:	4f 92       	push	r4
    4eb4:	5f 92       	push	r5
    4eb6:	6f 92       	push	r6
    4eb8:	7f 92       	push	r7
    4eba:	8f 92       	push	r8
    4ebc:	9f 92       	push	r9
    4ebe:	af 92       	push	r10
    4ec0:	bf 92       	push	r11
    4ec2:	cf 92       	push	r12
    4ec4:	df 92       	push	r13
    4ec6:	ef 92       	push	r14
    4ec8:	ff 92       	push	r15
    4eca:	0f 93       	push	r16
    4ecc:	1f 93       	push	r17
    4ece:	df 93       	push	r29
    4ed0:	cf 93       	push	r28
    4ed2:	cd b7       	in	r28, 0x3d	; 61
    4ed4:	de b7       	in	r29, 0x3e	; 62
    4ed6:	a0 97       	sbiw	r28, 0x20	; 32
    4ed8:	0f b6       	in	r0, 0x3f	; 63
    4eda:	f8 94       	cli
    4edc:	de bf       	out	0x3e, r29	; 62
    4ede:	0f be       	out	0x3f, r0	; 63
    4ee0:	cd bf       	out	0x3d, r28	; 61
	
	// READING
	if(doReading == 1 && doControl == 0)
    4ee2:	80 91 d5 08 	lds	r24, 0x08D5
    4ee6:	90 91 d6 08 	lds	r25, 0x08D6
    4eea:	81 30       	cpi	r24, 0x01	; 1
    4eec:	91 05       	cpc	r25, r1
    4eee:	09 f0       	breq	.+2      	; 0x4ef2 <executeControl+0x44>
    4ef0:	07 c1       	rjmp	.+526    	; 0x5100 <executeControl+0x252>
    4ef2:	80 91 e8 08 	lds	r24, 0x08E8
    4ef6:	90 91 e9 08 	lds	r25, 0x08E9
    4efa:	00 97       	sbiw	r24, 0x00	; 0
    4efc:	09 f0       	breq	.+2      	; 0x4f00 <executeControl+0x52>
    4efe:	00 c1       	rjmp	.+512    	; 0x5100 <executeControl+0x252>
	{
		updateQPosition();
    4f00:	0e 94 a5 0c 	call	0x194a	; 0x194a <updateQPosition>
		
		//}
		

	//printf("Test g 1 %f %f %f %f %f %f %f \r\n",currentQPosition[0],currentQPosition[1],currentQPosition[2],currentQPosition[3],currentQPosition[4],currentQPosition[5],currentQPosition[6]);
	ForwardKinematics();
    4f04:	0e 94 10 15 	call	0x2a20	; 0x2a20 <ForwardKinematics>
	
	if(instructionSet == 1)
    4f08:	80 91 f2 08 	lds	r24, 0x08F2
    4f0c:	90 91 f3 08 	lds	r25, 0x08F3
    4f10:	81 30       	cpi	r24, 0x01	; 1
    4f12:	91 05       	cpc	r25, r1
    4f14:	09 f0       	breq	.+2      	; 0x4f18 <executeControl+0x6a>
    4f16:	76 c0       	rjmp	.+236    	; 0x5004 <executeControl+0x156>
	{

		printf("p 1 %f %f %f %f %f %f %f \r", currentXPosition[0],currentXPosition[1],currentXPosition[2],currentXPosition[3],currentXPosition[4],currentXPosition[5],currentXPosition[6]);	
    4f18:	2d b7       	in	r18, 0x3d	; 61
    4f1a:	3e b7       	in	r19, 0x3e	; 62
    4f1c:	2e 51       	subi	r18, 0x1E	; 30
    4f1e:	30 40       	sbci	r19, 0x00	; 0
    4f20:	0f b6       	in	r0, 0x3f	; 63
    4f22:	f8 94       	cli
    4f24:	3e bf       	out	0x3e, r19	; 62
    4f26:	0f be       	out	0x3f, r0	; 63
    4f28:	2d bf       	out	0x3d, r18	; 61
    4f2a:	ed b7       	in	r30, 0x3d	; 61
    4f2c:	fe b7       	in	r31, 0x3e	; 62
    4f2e:	31 96       	adiw	r30, 0x01	; 1
    4f30:	87 e8       	ldi	r24, 0x87	; 135
    4f32:	93 e0       	ldi	r25, 0x03	; 3
    4f34:	ad b7       	in	r26, 0x3d	; 61
    4f36:	be b7       	in	r27, 0x3e	; 62
    4f38:	12 96       	adiw	r26, 0x02	; 2
    4f3a:	9c 93       	st	X, r25
    4f3c:	8e 93       	st	-X, r24
    4f3e:	11 97       	sbiw	r26, 0x01	; 1
    4f40:	80 91 63 0c 	lds	r24, 0x0C63
    4f44:	90 91 64 0c 	lds	r25, 0x0C64
    4f48:	a0 91 65 0c 	lds	r26, 0x0C65
    4f4c:	b0 91 66 0c 	lds	r27, 0x0C66
    4f50:	82 83       	std	Z+2, r24	; 0x02
    4f52:	93 83       	std	Z+3, r25	; 0x03
    4f54:	a4 83       	std	Z+4, r26	; 0x04
    4f56:	b5 83       	std	Z+5, r27	; 0x05
    4f58:	80 91 67 0c 	lds	r24, 0x0C67
    4f5c:	90 91 68 0c 	lds	r25, 0x0C68
    4f60:	a0 91 69 0c 	lds	r26, 0x0C69
    4f64:	b0 91 6a 0c 	lds	r27, 0x0C6A
    4f68:	86 83       	std	Z+6, r24	; 0x06
    4f6a:	97 83       	std	Z+7, r25	; 0x07
    4f6c:	a0 87       	std	Z+8, r26	; 0x08
    4f6e:	b1 87       	std	Z+9, r27	; 0x09
    4f70:	80 91 6b 0c 	lds	r24, 0x0C6B
    4f74:	90 91 6c 0c 	lds	r25, 0x0C6C
    4f78:	a0 91 6d 0c 	lds	r26, 0x0C6D
    4f7c:	b0 91 6e 0c 	lds	r27, 0x0C6E
    4f80:	82 87       	std	Z+10, r24	; 0x0a
    4f82:	93 87       	std	Z+11, r25	; 0x0b
    4f84:	a4 87       	std	Z+12, r26	; 0x0c
    4f86:	b5 87       	std	Z+13, r27	; 0x0d
    4f88:	80 91 6f 0c 	lds	r24, 0x0C6F
    4f8c:	90 91 70 0c 	lds	r25, 0x0C70
    4f90:	a0 91 71 0c 	lds	r26, 0x0C71
    4f94:	b0 91 72 0c 	lds	r27, 0x0C72
    4f98:	86 87       	std	Z+14, r24	; 0x0e
    4f9a:	97 87       	std	Z+15, r25	; 0x0f
    4f9c:	a0 8b       	std	Z+16, r26	; 0x10
    4f9e:	b1 8b       	std	Z+17, r27	; 0x11
    4fa0:	80 91 73 0c 	lds	r24, 0x0C73
    4fa4:	90 91 74 0c 	lds	r25, 0x0C74
    4fa8:	a0 91 75 0c 	lds	r26, 0x0C75
    4fac:	b0 91 76 0c 	lds	r27, 0x0C76
    4fb0:	82 8b       	std	Z+18, r24	; 0x12
    4fb2:	93 8b       	std	Z+19, r25	; 0x13
    4fb4:	a4 8b       	std	Z+20, r26	; 0x14
    4fb6:	b5 8b       	std	Z+21, r27	; 0x15
    4fb8:	80 91 77 0c 	lds	r24, 0x0C77
    4fbc:	90 91 78 0c 	lds	r25, 0x0C78
    4fc0:	a0 91 79 0c 	lds	r26, 0x0C79
    4fc4:	b0 91 7a 0c 	lds	r27, 0x0C7A
    4fc8:	86 8b       	std	Z+22, r24	; 0x16
    4fca:	97 8b       	std	Z+23, r25	; 0x17
    4fcc:	a0 8f       	std	Z+24, r26	; 0x18
    4fce:	b1 8f       	std	Z+25, r27	; 0x19
    4fd0:	80 91 7b 0c 	lds	r24, 0x0C7B
    4fd4:	90 91 7c 0c 	lds	r25, 0x0C7C
    4fd8:	a0 91 7d 0c 	lds	r26, 0x0C7D
    4fdc:	b0 91 7e 0c 	lds	r27, 0x0C7E
    4fe0:	82 8f       	std	Z+26, r24	; 0x1a
    4fe2:	93 8f       	std	Z+27, r25	; 0x1b
    4fe4:	a4 8f       	std	Z+28, r26	; 0x1c
    4fe6:	b5 8f       	std	Z+29, r27	; 0x1d
    4fe8:	0e 94 63 44 	call	0x88c6	; 0x88c6 <printf>

		instructionSet = 0;
    4fec:	10 92 f3 08 	sts	0x08F3, r1
    4ff0:	10 92 f2 08 	sts	0x08F2, r1
    4ff4:	ed b7       	in	r30, 0x3d	; 61
    4ff6:	fe b7       	in	r31, 0x3e	; 62
    4ff8:	7e 96       	adiw	r30, 0x1e	; 30
    4ffa:	0f b6       	in	r0, 0x3f	; 63
    4ffc:	f8 94       	cli
    4ffe:	fe bf       	out	0x3e, r31	; 62
    5000:	0f be       	out	0x3f, r0	; 63
    5002:	ed bf       	out	0x3d, r30	; 61
	}

	if(instructionSet == 2)
    5004:	80 91 f2 08 	lds	r24, 0x08F2
    5008:	90 91 f3 08 	lds	r25, 0x08F3
    500c:	82 30       	cpi	r24, 0x02	; 2
    500e:	91 05       	cpc	r25, r1
    5010:	09 f0       	breq	.+2      	; 0x5014 <executeControl+0x166>
    5012:	76 c0       	rjmp	.+236    	; 0x5100 <executeControl+0x252>
	{
		printf("q 1 %f %f %f %f %f %f %f \r", currentQPosition[0],currentQPosition[1],currentQPosition[2],currentQPosition[3],currentQPosition[4],currentQPosition[5],currentQPosition[6]);	
    5014:	2d b7       	in	r18, 0x3d	; 61
    5016:	3e b7       	in	r19, 0x3e	; 62
    5018:	2e 51       	subi	r18, 0x1E	; 30
    501a:	30 40       	sbci	r19, 0x00	; 0
    501c:	0f b6       	in	r0, 0x3f	; 63
    501e:	f8 94       	cli
    5020:	3e bf       	out	0x3e, r19	; 62
    5022:	0f be       	out	0x3f, r0	; 63
    5024:	2d bf       	out	0x3d, r18	; 61
    5026:	ed b7       	in	r30, 0x3d	; 61
    5028:	fe b7       	in	r31, 0x3e	; 62
    502a:	31 96       	adiw	r30, 0x01	; 1
    502c:	82 ea       	ldi	r24, 0xA2	; 162
    502e:	93 e0       	ldi	r25, 0x03	; 3
    5030:	ad b7       	in	r26, 0x3d	; 61
    5032:	be b7       	in	r27, 0x3e	; 62
    5034:	12 96       	adiw	r26, 0x02	; 2
    5036:	9c 93       	st	X, r25
    5038:	8e 93       	st	-X, r24
    503a:	11 97       	sbiw	r26, 0x01	; 1
    503c:	80 91 e9 11 	lds	r24, 0x11E9
    5040:	90 91 ea 11 	lds	r25, 0x11EA
    5044:	a0 91 eb 11 	lds	r26, 0x11EB
    5048:	b0 91 ec 11 	lds	r27, 0x11EC
    504c:	82 83       	std	Z+2, r24	; 0x02
    504e:	93 83       	std	Z+3, r25	; 0x03
    5050:	a4 83       	std	Z+4, r26	; 0x04
    5052:	b5 83       	std	Z+5, r27	; 0x05
    5054:	80 91 ed 11 	lds	r24, 0x11ED
    5058:	90 91 ee 11 	lds	r25, 0x11EE
    505c:	a0 91 ef 11 	lds	r26, 0x11EF
    5060:	b0 91 f0 11 	lds	r27, 0x11F0
    5064:	86 83       	std	Z+6, r24	; 0x06
    5066:	97 83       	std	Z+7, r25	; 0x07
    5068:	a0 87       	std	Z+8, r26	; 0x08
    506a:	b1 87       	std	Z+9, r27	; 0x09
    506c:	80 91 f1 11 	lds	r24, 0x11F1
    5070:	90 91 f2 11 	lds	r25, 0x11F2
    5074:	a0 91 f3 11 	lds	r26, 0x11F3
    5078:	b0 91 f4 11 	lds	r27, 0x11F4
    507c:	82 87       	std	Z+10, r24	; 0x0a
    507e:	93 87       	std	Z+11, r25	; 0x0b
    5080:	a4 87       	std	Z+12, r26	; 0x0c
    5082:	b5 87       	std	Z+13, r27	; 0x0d
    5084:	80 91 f5 11 	lds	r24, 0x11F5
    5088:	90 91 f6 11 	lds	r25, 0x11F6
    508c:	a0 91 f7 11 	lds	r26, 0x11F7
    5090:	b0 91 f8 11 	lds	r27, 0x11F8
    5094:	86 87       	std	Z+14, r24	; 0x0e
    5096:	97 87       	std	Z+15, r25	; 0x0f
    5098:	a0 8b       	std	Z+16, r26	; 0x10
    509a:	b1 8b       	std	Z+17, r27	; 0x11
    509c:	80 91 f9 11 	lds	r24, 0x11F9
    50a0:	90 91 fa 11 	lds	r25, 0x11FA
    50a4:	a0 91 fb 11 	lds	r26, 0x11FB
    50a8:	b0 91 fc 11 	lds	r27, 0x11FC
    50ac:	82 8b       	std	Z+18, r24	; 0x12
    50ae:	93 8b       	std	Z+19, r25	; 0x13
    50b0:	a4 8b       	std	Z+20, r26	; 0x14
    50b2:	b5 8b       	std	Z+21, r27	; 0x15
    50b4:	80 91 fd 11 	lds	r24, 0x11FD
    50b8:	90 91 fe 11 	lds	r25, 0x11FE
    50bc:	a0 91 ff 11 	lds	r26, 0x11FF
    50c0:	b0 91 00 12 	lds	r27, 0x1200
    50c4:	86 8b       	std	Z+22, r24	; 0x16
    50c6:	97 8b       	std	Z+23, r25	; 0x17
    50c8:	a0 8f       	std	Z+24, r26	; 0x18
    50ca:	b1 8f       	std	Z+25, r27	; 0x19
    50cc:	80 91 01 12 	lds	r24, 0x1201
    50d0:	90 91 02 12 	lds	r25, 0x1202
    50d4:	a0 91 03 12 	lds	r26, 0x1203
    50d8:	b0 91 04 12 	lds	r27, 0x1204
    50dc:	82 8f       	std	Z+26, r24	; 0x1a
    50de:	93 8f       	std	Z+27, r25	; 0x1b
    50e0:	a4 8f       	std	Z+28, r26	; 0x1c
    50e2:	b5 8f       	std	Z+29, r27	; 0x1d
    50e4:	0e 94 63 44 	call	0x88c6	; 0x88c6 <printf>
		instructionSet = 0;
    50e8:	10 92 f3 08 	sts	0x08F3, r1
    50ec:	10 92 f2 08 	sts	0x08F2, r1
    50f0:	ed b7       	in	r30, 0x3d	; 61
    50f2:	fe b7       	in	r31, 0x3e	; 62
    50f4:	7e 96       	adiw	r30, 0x1e	; 30
    50f6:	0f b6       	in	r0, 0x3f	; 63
    50f8:	f8 94       	cli
    50fa:	fe bf       	out	0x3e, r31	; 62
    50fc:	0f be       	out	0x3f, r0	; 63
    50fe:	ed bf       	out	0x3d, r30	; 61
	}

	}
	
	if(doControl)
    5100:	80 91 e8 08 	lds	r24, 0x08E8
    5104:	90 91 e9 08 	lds	r25, 0x08E9
    5108:	00 97       	sbiw	r24, 0x00	; 0
    510a:	09 f4       	brne	.+2      	; 0x510e <executeControl+0x260>
    510c:	ab c0       	rjmp	.+342    	; 0x5264 <executeControl+0x3b6>
	{
		float nextPos[DOF];
		float t;
		//Aqui va ir la evaluacin de la trayectoria y el envo de datos. El preclculo de las constantes de la planeacin se hacen en cmdATM al recibir los datos en la instruccin p

		t = timeCounter * sampleTime;
    510e:	60 91 f0 08 	lds	r22, 0x08F0
    5112:	70 91 f1 08 	lds	r23, 0x08F1
    5116:	88 27       	eor	r24, r24
    5118:	77 fd       	sbrc	r23, 7
    511a:	80 95       	com	r24
    511c:	98 2f       	mov	r25, r24
    511e:	0e 94 1a 3e 	call	0x7c34	; 0x7c34 <__floatsisf>
    5122:	20 91 d7 08 	lds	r18, 0x08D7
    5126:	30 91 d8 08 	lds	r19, 0x08D8
    512a:	40 91 d9 08 	lds	r20, 0x08D9
    512e:	50 91 da 08 	lds	r21, 0x08DA
    5132:	0e 94 5f 3f 	call	0x7ebe	; 0x7ebe <__mulsf3>
    5136:	36 2e       	mov	r3, r22
    5138:	27 2e       	mov	r2, r23
    513a:	8f 8f       	std	Y+31, r24	; 0x1f
    513c:	98 a3       	std	Y+32, r25	; 0x20
    513e:	37 e8       	ldi	r19, 0x87	; 135
    5140:	a3 2e       	mov	r10, r19
    5142:	3b e0       	ldi	r19, 0x0B	; 11
    5144:	b3 2e       	mov	r11, r19
    5146:	24 e6       	ldi	r18, 0x64	; 100
    5148:	82 2e       	mov	r8, r18
    514a:	22 e1       	ldi	r18, 0x12	; 18
    514c:	92 2e       	mov	r9, r18
    514e:	3e 01       	movw	r6, r28
    5150:	08 94       	sec
    5152:	61 1c       	adc	r6, r1
    5154:	71 1c       	adc	r7, r1
    5156:	99 ee       	ldi	r25, 0xE9	; 233
    5158:	49 2e       	mov	r4, r25
    515a:	91 e1       	ldi	r25, 0x11	; 17
    515c:	59 2e       	mov	r5, r25
		//printf("ExecutionTime = %f \n",executionTF);
		//printf("time = %f \n",t);

		for(int i = 0; i<DOF;i++)
    515e:	00 e0       	ldi	r16, 0x00	; 0
    5160:	10 e0       	ldi	r17, 0x00	; 0
		{
			
				nextPos[i] = perQuintico(initialQPosition[i],desiredQPosition[i],PERcoef[i],t);
    5162:	d5 01       	movw	r26, r10
    5164:	2d 91       	ld	r18, X+
    5166:	3d 91       	ld	r19, X+
    5168:	4d 91       	ld	r20, X+
    516a:	5d 91       	ld	r21, X+
    516c:	5d 01       	movw	r10, r26
    516e:	f4 01       	movw	r30, r8
    5170:	c1 90       	ld	r12, Z+
    5172:	d1 90       	ld	r13, Z+
    5174:	e1 90       	ld	r14, Z+
    5176:	f1 90       	ld	r15, Z+
    5178:	4f 01       	movw	r8, r30
    517a:	8d b7       	in	r24, 0x3d	; 61
    517c:	9e b7       	in	r25, 0x3e	; 62
    517e:	44 97       	sbiw	r24, 0x14	; 20
    5180:	0f b6       	in	r0, 0x3f	; 63
    5182:	f8 94       	cli
    5184:	9e bf       	out	0x3e, r25	; 62
    5186:	0f be       	out	0x3f, r0	; 63
    5188:	8d bf       	out	0x3d, r24	; 61
    518a:	ad b7       	in	r26, 0x3d	; 61
    518c:	be b7       	in	r27, 0x3e	; 62
    518e:	11 96       	adiw	r26, 0x01	; 1
    5190:	be 8f       	std	Y+30, r27	; 0x1e
    5192:	ad 8f       	std	Y+29, r26	; 0x1d
    5194:	f8 01       	movw	r30, r16
    5196:	84 e0       	ldi	r24, 0x04	; 4
    5198:	ee 0f       	add	r30, r30
    519a:	ff 1f       	adc	r31, r31
    519c:	8a 95       	dec	r24
    519e:	e1 f7       	brne	.-8      	; 0x5198 <executeControl+0x2ea>
    51a0:	ed 55       	subi	r30, 0x5D	; 93
    51a2:	f4 4f       	sbci	r31, 0xF4	; 244
    51a4:	80 e1       	ldi	r24, 0x10	; 16
    51a6:	01 90       	ld	r0, Z+
    51a8:	0d 92       	st	X+, r0
    51aa:	81 50       	subi	r24, 0x01	; 1
    51ac:	e1 f7       	brne	.-8      	; 0x51a6 <executeControl+0x2f8>
    51ae:	f1 01       	movw	r30, r2
    51b0:	7f 8d       	ldd	r23, Y+31	; 0x1f
    51b2:	68 a1       	ldd	r22, Y+32	; 0x20
    51b4:	8f 2f       	mov	r24, r31
    51b6:	92 2d       	mov	r25, r2
    51b8:	a7 2f       	mov	r26, r23
    51ba:	b6 2f       	mov	r27, r22
    51bc:	ed 8d       	ldd	r30, Y+29	; 0x1d
    51be:	fe 8d       	ldd	r31, Y+30	; 0x1e
    51c0:	80 8b       	std	Z+16, r24	; 0x10
    51c2:	91 8b       	std	Z+17, r25	; 0x11
    51c4:	a2 8b       	std	Z+18, r26	; 0x12
    51c6:	b3 8b       	std	Z+19, r27	; 0x13
    51c8:	ca 01       	movw	r24, r20
    51ca:	b9 01       	movw	r22, r18
    51cc:	a7 01       	movw	r20, r14
    51ce:	96 01       	movw	r18, r12
    51d0:	0e 94 ce 26 	call	0x4d9c	; 0x4d9c <perQuintico>
    51d4:	2d b7       	in	r18, 0x3d	; 61
    51d6:	3e b7       	in	r19, 0x3e	; 62
    51d8:	2c 5e       	subi	r18, 0xEC	; 236
    51da:	3f 4f       	sbci	r19, 0xFF	; 255
    51dc:	0f b6       	in	r0, 0x3f	; 63
    51de:	f8 94       	cli
    51e0:	3e bf       	out	0x3e, r19	; 62
    51e2:	0f be       	out	0x3f, r0	; 63
    51e4:	2d bf       	out	0x3d, r18	; 61
    51e6:	d3 01       	movw	r26, r6
    51e8:	6d 93       	st	X+, r22
    51ea:	7d 93       	st	X+, r23
    51ec:	8d 93       	st	X+, r24
    51ee:	9d 93       	st	X+, r25
    51f0:	3d 01       	movw	r6, r26
				//nextPos[i] = evalLSPB(initialQPosition[i],desiredQPosition[i],LSPBcoef[i],t);
				//currentQPosition[i]	 = nextPos[i];
				
				currentQPosition[i] = GetPosition(i);
    51f2:	c8 01       	movw	r24, r16
    51f4:	0e 94 c2 02 	call	0x584	; 0x584 <GetPosition>
    51f8:	f2 01       	movw	r30, r4
    51fa:	61 93       	st	Z+, r22
    51fc:	71 93       	st	Z+, r23
    51fe:	81 93       	st	Z+, r24
    5200:	91 93       	st	Z+, r25
    5202:	2f 01       	movw	r4, r30

		t = timeCounter * sampleTime;
		//printf("ExecutionTime = %f \n",executionTF);
		//printf("time = %f \n",t);

		for(int i = 0; i<DOF;i++)
    5204:	0f 5f       	subi	r16, 0xFF	; 255
    5206:	1f 4f       	sbci	r17, 0xFF	; 255
    5208:	07 30       	cpi	r16, 0x07	; 7
    520a:	11 05       	cpc	r17, r1
    520c:	09 f0       	breq	.+2      	; 0x5210 <executeControl+0x362>
    520e:	a9 cf       	rjmp	.-174    	; 0x5162 <executeControl+0x2b4>
				
				//if(abs(currentQPosition[i] - nextPos[i])>maxTol)
				//currentQPosition[i] = nextPos[i];
		}
		
		ArmPosition(nextPos);
    5210:	ce 01       	movw	r24, r28
    5212:	01 96       	adiw	r24, 0x01	; 1
    5214:	0e 94 ca 0b 	call	0x1794	; 0x1794 <ArmPosition>
    5218:	8f e1       	ldi	r24, 0x1F	; 31
    521a:	9e e4       	ldi	r25, 0x4E	; 78
    521c:	01 97       	sbiw	r24, 0x01	; 1
    521e:	f1 f7       	brne	.-4      	; 0x521c <executeControl+0x36e>
    5220:	00 c0       	rjmp	.+0      	; 0x5222 <executeControl+0x374>
    5222:	00 00       	nop
		
		//printf("%f , %f , %f , %f , %f  , %f , %f , %f \n", t, nextPos[0],nextPos[1],nextPos[2],nextPos[3],nextPos[4],nextPos[5],nextPos[6]);
		_delay_ms(5);
		timeCounter++;
    5224:	80 91 f0 08 	lds	r24, 0x08F0
    5228:	90 91 f1 08 	lds	r25, 0x08F1
    522c:	01 96       	adiw	r24, 0x01	; 1
    522e:	90 93 f1 08 	sts	0x08F1, r25
    5232:	80 93 f0 08 	sts	0x08F0, r24
		
		if(t >= executionTF)
    5236:	a1 01       	movw	r20, r2
    5238:	3f 8d       	ldd	r19, Y+31	; 0x1f
    523a:	28 a1       	ldd	r18, Y+32	; 0x20
    523c:	65 2f       	mov	r22, r21
    523e:	72 2d       	mov	r23, r2
    5240:	83 2f       	mov	r24, r19
    5242:	92 2f       	mov	r25, r18
    5244:	20 91 ec 08 	lds	r18, 0x08EC
    5248:	30 91 ed 08 	lds	r19, 0x08ED
    524c:	40 91 ee 08 	lds	r20, 0x08EE
    5250:	50 91 ef 08 	lds	r21, 0x08EF
    5254:	0e 94 54 3f 	call	0x7ea8	; 0x7ea8 <__gesf2>
    5258:	87 fd       	sbrc	r24, 7
    525a:	04 c0       	rjmp	.+8      	; 0x5264 <executeControl+0x3b6>
		{
			doControl = 0;
    525c:	10 92 e9 08 	sts	0x08E9, r1
    5260:	10 92 e8 08 	sts	0x08E8, r1
		}

	}
	
}
    5264:	a0 96       	adiw	r28, 0x20	; 32
    5266:	0f b6       	in	r0, 0x3f	; 63
    5268:	f8 94       	cli
    526a:	de bf       	out	0x3e, r29	; 62
    526c:	0f be       	out	0x3f, r0	; 63
    526e:	cd bf       	out	0x3d, r28	; 61
    5270:	cf 91       	pop	r28
    5272:	df 91       	pop	r29
    5274:	1f 91       	pop	r17
    5276:	0f 91       	pop	r16
    5278:	ff 90       	pop	r15
    527a:	ef 90       	pop	r14
    527c:	df 90       	pop	r13
    527e:	cf 90       	pop	r12
    5280:	bf 90       	pop	r11
    5282:	af 90       	pop	r10
    5284:	9f 90       	pop	r9
    5286:	8f 90       	pop	r8
    5288:	7f 90       	pop	r7
    528a:	6f 90       	pop	r6
    528c:	5f 90       	pop	r5
    528e:	4f 90       	pop	r4
    5290:	3f 90       	pop	r3
    5292:	2f 90       	pop	r2
    5294:	08 95       	ret

00005296 <serial_initialize>:


void serial_initialize(long ubrr)
{
	// Serial communication using UART1
	int baud = (unsigned short)(2000000.0 / ubrr) - 1;
    5296:	0e 94 1a 3e 	call	0x7c34	; 0x7c34 <__floatsisf>
    529a:	9b 01       	movw	r18, r22
    529c:	ac 01       	movw	r20, r24
    529e:	60 e0       	ldi	r22, 0x00	; 0
    52a0:	74 e2       	ldi	r23, 0x24	; 36
    52a2:	84 ef       	ldi	r24, 0xF4	; 244
    52a4:	99 e4       	ldi	r25, 0x49	; 73
    52a6:	0e 94 7f 3d 	call	0x7afe	; 0x7afe <__divsf3>
    52aa:	0e 94 ec 3d 	call	0x7bd8	; 0x7bd8 <__fixunssfsi>
    52ae:	61 50       	subi	r22, 0x01	; 1
    52b0:	70 40       	sbci	r23, 0x00	; 0
	//Bit 4: Frame Error
	//Bit 3: Data OverRun
	//Bit 2: Parity Error
	//Bit 1: Double The USART Transmission Speed
	//Bit 0: Multi-Processor Communication Mode
	UCSR1A = 0b01000010;
    52b2:	82 e4       	ldi	r24, 0x42	; 66
    52b4:	80 93 c8 00 	sts	0x00C8, r24
	// bit7: enable rx interrupt
    // bit6: enable tx interrupt
    // bit4: enable rx
    // bit3: enable tx
    // bit2: set sendding size(0 = 8bit)
	UCSR1B = 0b10011000;
    52b8:	88 e9       	ldi	r24, 0x98	; 152
    52ba:	80 93 c9 00 	sts	0x00C9, r24
	// set UART register C
	// bit6: communication mode (1 = synchronize, 0 = asynchronize)
    // bit5,bit4: parity bit(00 = no parity) 
    // bit3: stop bit(0 = stop bit 1, 1 = stop bit 2)
    // bit2,bit1: data size(11 = 8bit)
	UCSR1C = 0b00000110;
    52be:	86 e0       	ldi	r24, 0x06	; 6
    52c0:	80 93 ca 00 	sts	0x00CA, r24

	// initialize
	UDR1 = 0xFF;
    52c4:	8f ef       	ldi	r24, 0xFF	; 255
    52c6:	80 93 ce 00 	sts	0x00CE, r24
	bufferHead = 0;
    52ca:	10 92 7c 09 	sts	0x097C, r1
	bufferTail = 0;
    52ce:	10 92 7d 09 	sts	0x097D, r1

	// set baudrate
	UBRR1H = (unsigned char)(baud>>8);
    52d2:	87 2f       	mov	r24, r23
    52d4:	99 27       	eor	r25, r25
    52d6:	87 fd       	sbrc	r24, 7
    52d8:	9a 95       	dec	r25
    52da:	80 93 cd 00 	sts	0x00CD, r24
	UBRR1L = (unsigned char)(baud & 0xFF);
    52de:	60 93 cc 00 	sts	0x00CC, r22
	DIR_RXD;
    52e2:	72 98       	cbi	0x0e, 2	; 14
    52e4:	73 9a       	sbi	0x0e, 3	; 14
	device = fdevopen( std_putchar, std_getchar );
    52e6:	83 e8       	ldi	r24, 0x83	; 131
    52e8:	93 e3       	ldi	r25, 0x33	; 51
    52ea:	66 ef       	ldi	r22, 0xF6	; 246
    52ec:	73 e3       	ldi	r23, 0x33	; 51
    52ee:	0e 94 ec 43 	call	0x87d8	; 0x87d8 <fdevopen>
    52f2:	90 93 88 09 	sts	0x0988, r25
    52f6:	80 93 87 09 	sts	0x0987, r24
}
    52fa:	08 95       	ret

000052fc <__vector_36>:
//Interrupt service routine
//Gets a char from serial port and stores it in a buffer
//If char == ENTER, puts a string end char and sets the cmdReady flag
//
SIGNAL(USART1_RX_vect)
{
    52fc:	1f 92       	push	r1
    52fe:	0f 92       	push	r0
    5300:	0f b6       	in	r0, 0x3f	; 63
    5302:	0f 92       	push	r0
    5304:	0b b6       	in	r0, 0x3b	; 59
    5306:	0f 92       	push	r0
    5308:	11 24       	eor	r1, r1
    530a:	2f 93       	push	r18
    530c:	3f 93       	push	r19
    530e:	8f 93       	push	r24
    5310:	9f 93       	push	r25
    5312:	ef 93       	push	r30
    5314:	ff 93       	push	r31

static char next = 0;
	
	//buffer[next] = getc();
	buffer[next] = UDR1;
    5316:	20 91 86 09 	lds	r18, 0x0986
    531a:	82 2f       	mov	r24, r18
    531c:	90 e0       	ldi	r25, 0x00	; 0
    531e:	30 91 ce 00 	lds	r19, 0x00CE
    5322:	fc 01       	movw	r30, r24
    5324:	e4 50       	subi	r30, 0x04	; 4
    5326:	f7 4f       	sbci	r31, 0xF7	; 247
    5328:	30 83       	st	Z, r19
		
	if(
		((buffer[next] >= 'a') && (buffer[next] <= 'z')) ||
    532a:	30 81       	ld	r19, Z
static char next = 0;
	
	//buffer[next] = getc();
	buffer[next] = UDR1;
		
	if(
    532c:	31 36       	cpi	r19, 0x61	; 97
    532e:	18 f0       	brcs	.+6      	; 0x5336 <__vector_36+0x3a>
		((buffer[next] >= 'a') && (buffer[next] <= 'z')) ||
    5330:	30 81       	ld	r19, Z
    5332:	3b 37       	cpi	r19, 0x7B	; 123
    5334:	f0 f0       	brcs	.+60     	; 0x5372 <__vector_36+0x76>
		((buffer[next] >= '0') && (buffer[next] <= '9')) ||
    5336:	fc 01       	movw	r30, r24
    5338:	e4 50       	subi	r30, 0x04	; 4
    533a:	f7 4f       	sbci	r31, 0xF7	; 247
    533c:	30 81       	ld	r19, Z
	
	//buffer[next] = getc();
	buffer[next] = UDR1;
		
	if(
		((buffer[next] >= 'a') && (buffer[next] <= 'z')) ||
    533e:	30 33       	cpi	r19, 0x30	; 48
    5340:	18 f0       	brcs	.+6      	; 0x5348 <__vector_36+0x4c>
		((buffer[next] >= '0') && (buffer[next] <= '9')) ||
    5342:	30 81       	ld	r19, Z
    5344:	3a 33       	cpi	r19, 0x3A	; 58
    5346:	a8 f0       	brcs	.+42     	; 0x5372 <__vector_36+0x76>
		(buffer[next] == '-') || (buffer[next] == ' ') ||
    5348:	fc 01       	movw	r30, r24
    534a:	e4 50       	subi	r30, 0x04	; 4
    534c:	f7 4f       	sbci	r31, 0xF7	; 247
    534e:	30 81       	ld	r19, Z
	//buffer[next] = getc();
	buffer[next] = UDR1;
		
	if(
		((buffer[next] >= 'a') && (buffer[next] <= 'z')) ||
		((buffer[next] >= '0') && (buffer[next] <= '9')) ||
    5350:	3d 32       	cpi	r19, 0x2D	; 45
    5352:	79 f0       	breq	.+30     	; 0x5372 <__vector_36+0x76>
		(buffer[next] == '-') || (buffer[next] == ' ') ||
    5354:	30 81       	ld	r19, Z
    5356:	30 32       	cpi	r19, 0x20	; 32
    5358:	61 f0       	breq	.+24     	; 0x5372 <__vector_36+0x76>
		(buffer[next] == '\t') || (buffer[next] == '.')
    535a:	30 81       	ld	r19, Z
	buffer[next] = UDR1;
		
	if(
		((buffer[next] >= 'a') && (buffer[next] <= 'z')) ||
		((buffer[next] >= '0') && (buffer[next] <= '9')) ||
		(buffer[next] == '-') || (buffer[next] == ' ') ||
    535c:	39 30       	cpi	r19, 0x09	; 9
    535e:	49 f0       	breq	.+18     	; 0x5372 <__vector_36+0x76>
		(buffer[next] == '\t') || (buffer[next] == '.')
    5360:	30 81       	ld	r19, Z
    5362:	3e 32       	cpi	r19, 0x2E	; 46
    5364:	31 f0       	breq	.+12     	; 0x5372 <__vector_36+0x76>
	{
		++next;
		if (next >= BUFFER_SIZE) next = 0;
		return;
	}
	else if((buffer[next] >= 'A') && (buffer[next] <= 'Z'))
    5366:	30 81       	ld	r19, Z
    5368:	31 34       	cpi	r19, 0x41	; 65
    536a:	48 f0       	brcs	.+18     	; 0x537e <__vector_36+0x82>
    536c:	30 81       	ld	r19, Z
    536e:	3b 35       	cpi	r19, 0x5B	; 91
    5370:	30 f4       	brcc	.+12     	; 0x537e <__vector_36+0x82>
	{
	//	buffer[next]+= 32;		//Conversion a minuscula
		++next;
    5372:	2f 5f       	subi	r18, 0xFF	; 255
    5374:	20 93 86 09 	sts	0x0986, r18
		if (next >= BUFFER_SIZE) next = 0;
    5378:	27 ff       	sbrs	r18, 7
    537a:	18 c0       	rjmp	.+48     	; 0x53ac <__vector_36+0xb0>
    537c:	15 c0       	rjmp	.+42     	; 0x53a8 <__vector_36+0xac>
		return;
	}
	else if((buffer[next] == '\r') || (buffer[next] == '\n'))//0x0D)
    537e:	fc 01       	movw	r30, r24
    5380:	e4 50       	subi	r30, 0x04	; 4
    5382:	f7 4f       	sbci	r31, 0xF7	; 247
    5384:	30 81       	ld	r19, Z
    5386:	3d 30       	cpi	r19, 0x0D	; 13
    5388:	19 f0       	breq	.+6      	; 0x5390 <__vector_36+0x94>
    538a:	30 81       	ld	r19, Z
    538c:	3a 30       	cpi	r19, 0x0A	; 10
    538e:	71 f4       	brne	.+28     	; 0x53ac <__vector_36+0xb0>
	{
		//putc(0x0A);
		buffer[next] = 0;
    5390:	84 50       	subi	r24, 0x04	; 4
    5392:	97 4f       	sbci	r25, 0xF7	; 247
    5394:	fc 01       	movw	r30, r24
    5396:	10 82       	st	Z, r1
		//next++;
		//buffer[next] = 0;
		if(next != 0)
    5398:	22 23       	and	r18, r18
    539a:	41 f0       	breq	.+16     	; 0x53ac <__vector_36+0xb0>
		{
			cmdReady = 1;
    539c:	81 e0       	ldi	r24, 0x01	; 1
    539e:	90 e0       	ldi	r25, 0x00	; 0
    53a0:	90 93 7f 09 	sts	0x097F, r25
    53a4:	80 93 7e 09 	sts	0x097E, r24
			next = 0;
    53a8:	10 92 86 09 	sts	0x0986, r1
	//serial_put_queue( UDR1 );
	//std_putchar('i');
	//printf("\n\rinterrupcion\n\r");
	//unsigned char a = serial_get_queue();
	//printf("dato: %c \n\r",a);
}
    53ac:	ff 91       	pop	r31
    53ae:	ef 91       	pop	r30
    53b0:	9f 91       	pop	r25
    53b2:	8f 91       	pop	r24
    53b4:	3f 91       	pop	r19
    53b6:	2f 91       	pop	r18
    53b8:	0f 90       	pop	r0
    53ba:	0b be       	out	0x3b, r0	; 59
    53bc:	0f 90       	pop	r0
    53be:	0f be       	out	0x3f, r0	; 63
    53c0:	0f 90       	pop	r0
    53c2:	1f 90       	pop	r1
    53c4:	18 95       	reti

000053c6 <showHelp>:


void showHelp()
{
	printf("\r\n\nRIGHT ARM FIRMWARE. Last modification: March 11th, 2014\r\n");
    53c6:	8d eb       	ldi	r24, 0xBD	; 189
    53c8:	93 e0       	ldi	r25, 0x03	; 3
    53ca:	0e 94 75 44 	call	0x88ea	; 0x88ea <puts>
	printf("\r\nCommands:\r\n");
    53ce:	89 ef       	ldi	r24, 0xF9	; 249
    53d0:	93 e0       	ldi	r25, 0x03	; 3
    53d2:	0e 94 75 44 	call	0x88ea	; 0x88ea <puts>
	printf("\t c value\tCloses gripper. Value represents a percentage of the maximum torque\r\n");
    53d6:	86 e0       	ldi	r24, 0x06	; 6
    53d8:	94 e0       	ldi	r25, 0x04	; 4
    53da:	0e 94 75 44 	call	0x88ea	; 0x88ea <puts>
	printf("\t d ID value\tSets desired position [value in bits] of servo ID\r\n");
    53de:	85 e5       	ldi	r24, 0x55	; 85
    53e0:	94 e0       	ldi	r25, 0x04	; 4
    53e2:	0e 94 75 44 	call	0x88ea	; 0x88ea <puts>
	printf("\t g \t\tGets the current arm position in articular coordinates [rads]\r\n");
    53e6:	85 e9       	ldi	r24, 0x95	; 149
    53e8:	94 e0       	ldi	r25, 0x04	; 4
    53ea:	0e 94 75 44 	call	0x88ea	; 0x88ea <puts>
	printf("\t G 1/0\tEnables/disables continuous cartesian position printing\r\n");
    53ee:	8a ed       	ldi	r24, 0xDA	; 218
    53f0:	94 e0       	ldi	r25, 0x04	; 4
    53f2:	0e 94 75 44 	call	0x88ea	; 0x88ea <puts>
	printf("\t h \t\tShows help (If you are seeing this, I assume you knew this command\r\n");
    53f6:	8b e1       	ldi	r24, 0x1B	; 27
    53f8:	95 e0       	ldi	r25, 0x05	; 5
    53fa:	0e 94 75 44 	call	0x88ea	; 0x88ea <puts>
	printf("\t k ID\tGets the current position [bits] of servo ID\r\n");
    53fe:	85 e6       	ldi	r24, 0x65	; 101
    5400:	95 e0       	ldi	r25, 0x05	; 5
    5402:	0e 94 75 44 	call	0x88ea	; 0x88ea <puts>
	printf("\t o value\tOpens gripper. Value represents a percentage of maximun opening angle.\n\t\t\t\t100 = maximum angle, 0 = completely closed\r\n");
    5406:	8a e9       	ldi	r24, 0x9A	; 154
    5408:	95 e0       	ldi	r25, 0x05	; 5
    540a:	0e 94 75 44 	call	0x88ea	; 0x88ea <puts>
	printf("\t q value[7] time\tSets desired position [rads] and time [seconds] (8 values needed)\r\n");
    540e:	8b e1       	ldi	r24, 0x1B	; 27
    5410:	96 e0       	ldi	r25, 0x06	; 6
    5412:	0e 94 75 44 	call	0x88ea	; 0x88ea <puts>
	printf("\t S \t\t Returns the main error states of all servos\r\n");
    5416:	80 e7       	ldi	r24, 0x70	; 112
    5418:	96 e0       	ldi	r25, 0x06	; 6
    541a:	0e 94 75 44 	call	0x88ea	; 0x88ea <puts>
	printf("\t x value[4]\t\t Sets desired OPEN position of the robot hand motors [percentage of max opening]\r\n");
    541e:	84 ea       	ldi	r24, 0xA4	; 164
    5420:	96 e0       	ldi	r25, 0x06	; 6
    5422:	0e 94 75 44 	call	0x88ea	; 0x88ea <puts>
	printf("\t t 1/0 \tEnables/disables torque in all servos\r\n");
    5426:	84 e0       	ldi	r24, 0x04	; 4
    5428:	97 e0       	ldi	r25, 0x07	; 7
    542a:	0e 94 75 44 	call	0x88ea	; 0x88ea <puts>
	printf("\t v \tGet Voltage on Servo 0\r\n");
    542e:	84 e3       	ldi	r24, 0x34	; 52
    5430:	97 e0       	ldi	r25, 0x07	; 7
    5432:	0e 94 75 44 	call	0x88ea	; 0x88ea <puts>
	printf("\r\nDON'T SEND ANY OTHER COMMAND BECAUSE THIS IS A BETA VERSION\r\n");
    5436:	81 e5       	ldi	r24, 0x51	; 81
    5438:	97 e0       	ldi	r25, 0x07	; 7
    543a:	0e 94 75 44 	call	0x88ea	; 0x88ea <puts>
	printf("NOT ATTENDING THIS WARNING MAY RESULT IN ROBOT DAMAGE OR MALFUNCTION\r\n");
    543e:	80 e9       	ldi	r24, 0x90	; 144
    5440:	97 e0       	ldi	r25, 0x07	; 7
    5442:	0e 94 75 44 	call	0x88ea	; 0x88ea <puts>
	printf("THERE IS NO WARRANTY IN ELECTRICAL PARTS\n\n");
    5446:	86 ed       	ldi	r24, 0xD6	; 214
    5448:	97 e0       	ldi	r25, 0x07	; 7
    544a:	0e 94 75 44 	call	0x88ea	; 0x88ea <puts>
}
    544e:	08 95       	ret

00005450 <is_alpha>:
}


int is_alpha(int c)
{
	if(((c >= 'a') && (c <= 'z')) || ((c >= 'A') && (c <= 'Z'))) return 1;
    5450:	9c 01       	movw	r18, r24
    5452:	81 56       	subi	r24, 0x61	; 97
    5454:	90 40       	sbci	r25, 0x00	; 0
    5456:	8a 31       	cpi	r24, 0x1A	; 26
    5458:	91 05       	cpc	r25, r1
    545a:	58 f0       	brcs	.+22     	; 0x5472 <is_alpha+0x22>
    545c:	c9 01       	movw	r24, r18
    545e:	81 54       	subi	r24, 0x41	; 65
    5460:	90 40       	sbci	r25, 0x00	; 0
    5462:	21 e0       	ldi	r18, 0x01	; 1
    5464:	30 e0       	ldi	r19, 0x00	; 0
    5466:	8a 31       	cpi	r24, 0x1A	; 26
    5468:	91 05       	cpc	r25, r1
    546a:	28 f0       	brcs	.+10     	; 0x5476 <is_alpha+0x26>
    546c:	20 e0       	ldi	r18, 0x00	; 0
    546e:	30 e0       	ldi	r19, 0x00	; 0
    5470:	02 c0       	rjmp	.+4      	; 0x5476 <is_alpha+0x26>
    5472:	21 e0       	ldi	r18, 0x01	; 1
    5474:	30 e0       	ldi	r19, 0x00	; 0
	return 0;
}
    5476:	c9 01       	movw	r24, r18
    5478:	08 95       	ret

0000547a <cmdX>:

void cmdX(char cmd, float p1, float p2, float p3, float p4, float p5, float p6, float p7, float p8)
{
    547a:	8f 92       	push	r8
    547c:	9f 92       	push	r9
    547e:	af 92       	push	r10
    5480:	bf 92       	push	r11
    5482:	cf 92       	push	r12
    5484:	df 92       	push	r13
    5486:	ef 92       	push	r14
    5488:	ff 92       	push	r15
    548a:	0f 93       	push	r16
    548c:	1f 93       	push	r17
    548e:	df 93       	push	r29
    5490:	cf 93       	push	r28
    5492:	cd b7       	in	r28, 0x3d	; 61
    5494:	de b7       	in	r29, 0x3e	; 62
	comando.cmd = cmd;
    5496:	80 93 27 12 	sts	0x1227, r24
	comando.param1 = p1;
    549a:	40 93 28 12 	sts	0x1228, r20
    549e:	50 93 29 12 	sts	0x1229, r21
    54a2:	60 93 2a 12 	sts	0x122A, r22
    54a6:	70 93 2b 12 	sts	0x122B, r23
	comando.param2 = p2;
    54aa:	00 93 2c 12 	sts	0x122C, r16
    54ae:	10 93 2d 12 	sts	0x122D, r17
    54b2:	20 93 2e 12 	sts	0x122E, r18
    54b6:	30 93 2f 12 	sts	0x122F, r19
	comando.param3 = p3;
    54ba:	c0 92 30 12 	sts	0x1230, r12
    54be:	d0 92 31 12 	sts	0x1231, r13
    54c2:	e0 92 32 12 	sts	0x1232, r14
    54c6:	f0 92 33 12 	sts	0x1233, r15
	comando.param4 = p4;
    54ca:	80 92 34 12 	sts	0x1234, r8
    54ce:	90 92 35 12 	sts	0x1235, r9
    54d2:	a0 92 36 12 	sts	0x1236, r10
    54d6:	b0 92 37 12 	sts	0x1237, r11
	comando.param5 = p5;
    54da:	88 89       	ldd	r24, Y+16	; 0x10
    54dc:	99 89       	ldd	r25, Y+17	; 0x11
    54de:	aa 89       	ldd	r26, Y+18	; 0x12
    54e0:	bb 89       	ldd	r27, Y+19	; 0x13
    54e2:	80 93 38 12 	sts	0x1238, r24
    54e6:	90 93 39 12 	sts	0x1239, r25
    54ea:	a0 93 3a 12 	sts	0x123A, r26
    54ee:	b0 93 3b 12 	sts	0x123B, r27
	comando.param6 = p6;
    54f2:	8c 89       	ldd	r24, Y+20	; 0x14
    54f4:	9d 89       	ldd	r25, Y+21	; 0x15
    54f6:	ae 89       	ldd	r26, Y+22	; 0x16
    54f8:	bf 89       	ldd	r27, Y+23	; 0x17
    54fa:	80 93 3c 12 	sts	0x123C, r24
    54fe:	90 93 3d 12 	sts	0x123D, r25
    5502:	a0 93 3e 12 	sts	0x123E, r26
    5506:	b0 93 3f 12 	sts	0x123F, r27
	comando.param7 = p7;
    550a:	88 8d       	ldd	r24, Y+24	; 0x18
    550c:	99 8d       	ldd	r25, Y+25	; 0x19
    550e:	aa 8d       	ldd	r26, Y+26	; 0x1a
    5510:	bb 8d       	ldd	r27, Y+27	; 0x1b
    5512:	80 93 40 12 	sts	0x1240, r24
    5516:	90 93 41 12 	sts	0x1241, r25
    551a:	a0 93 42 12 	sts	0x1242, r26
    551e:	b0 93 43 12 	sts	0x1243, r27
	comando.param8 = p8;
    5522:	8c 8d       	ldd	r24, Y+28	; 0x1c
    5524:	9d 8d       	ldd	r25, Y+29	; 0x1d
    5526:	ae 8d       	ldd	r26, Y+30	; 0x1e
    5528:	bf 8d       	ldd	r27, Y+31	; 0x1f
    552a:	80 93 44 12 	sts	0x1244, r24
    552e:	90 93 45 12 	sts	0x1245, r25
    5532:	a0 93 46 12 	sts	0x1246, r26
    5536:	b0 93 47 12 	sts	0x1247, r27

}
    553a:	cf 91       	pop	r28
    553c:	df 91       	pop	r29
    553e:	1f 91       	pop	r17
    5540:	0f 91       	pop	r16
    5542:	ff 90       	pop	r15
    5544:	ef 90       	pop	r14
    5546:	df 90       	pop	r13
    5548:	cf 90       	pop	r12
    554a:	bf 90       	pop	r11
    554c:	af 90       	pop	r10
    554e:	9f 90       	pop	r9
    5550:	8f 90       	pop	r8
    5552:	08 95       	ret

00005554 <fetchParam>:

int fetchParam(char *cc, float *param)
{
    5554:	ff 92       	push	r15
    5556:	0f 93       	push	r16
    5558:	1f 93       	push	r17
    555a:	cf 93       	push	r28
    555c:	df 93       	push	r29
    555e:	ec 01       	movw	r28, r24
    5560:	8b 01       	movw	r16, r22
	char *bcc, c;
	int pointCount = 0;
	
	
	if((buffer[*cc] != ' ') && (buffer[*cc] != '\t')) return 0;		// Se espera espacio
    5562:	e8 81       	ld	r30, Y
    5564:	f0 e0       	ldi	r31, 0x00	; 0
    5566:	e4 50       	subi	r30, 0x04	; 4
    5568:	f7 4f       	sbci	r31, 0xF7	; 247
    556a:	80 81       	ld	r24, Z
    556c:	80 32       	cpi	r24, 0x20	; 32
    556e:	39 f0       	breq	.+14     	; 0x557e <fetchParam+0x2a>
    5570:	80 81       	ld	r24, Z
    5572:	89 30       	cpi	r24, 0x09	; 9
    5574:	09 f0       	breq	.+2      	; 0x5578 <fetchParam+0x24>
    5576:	4c c0       	rjmp	.+152    	; 0x5610 <fetchParam+0xbc>
    5578:	02 c0       	rjmp	.+4      	; 0x557e <fetchParam+0x2a>

	while((buffer[*cc] == ' ') || (buffer[*cc] == '\t')) ++(*cc);	// Como espacios
    557a:	4f 5f       	subi	r20, 0xFF	; 255
    557c:	48 83       	st	Y, r20
    557e:	48 81       	ld	r20, Y
    5580:	e4 2f       	mov	r30, r20
    5582:	f0 e0       	ldi	r31, 0x00	; 0
    5584:	e4 50       	subi	r30, 0x04	; 4
    5586:	f7 4f       	sbci	r31, 0xF7	; 247
    5588:	80 81       	ld	r24, Z
    558a:	80 32       	cpi	r24, 0x20	; 32
    558c:	b1 f3       	breq	.-20     	; 0x557a <fetchParam+0x26>
    558e:	80 81       	ld	r24, Z
    5590:	89 30       	cpi	r24, 0x09	; 9
    5592:	99 f3       	breq	.-26     	; 0x557a <fetchParam+0x26>
	bcc = buffer + *cc;												// Guardo posicion de inicio de primer parametro
    5594:	cf 01       	movw	r24, r30
	if((buffer[*cc] != '-') && !is_digit(buffer[*cc])) return 0;		// Se espera - o numero
    5596:	20 81       	ld	r18, Z
    5598:	2d 32       	cpi	r18, 0x2D	; 45
    559a:	39 f0       	breq	.+14     	; 0x55aa <fetchParam+0x56>
    559c:	20 81       	ld	r18, Z
    559e:	30 e0       	ldi	r19, 0x00	; 0
	return 1;
}

int is_digit(int c)
{
	if((c >= '0') && (c <= '9')) return 1;
    55a0:	20 53       	subi	r18, 0x30	; 48
    55a2:	30 40       	sbci	r19, 0x00	; 0
    55a4:	2a 30       	cpi	r18, 0x0A	; 10
    55a6:	31 05       	cpc	r19, r1
    55a8:	98 f5       	brcc	.+102    	; 0x5610 <fetchParam+0xbc>
	if((buffer[*cc] != ' ') && (buffer[*cc] != '\t')) return 0;		// Se espera espacio

	while((buffer[*cc] == ' ') || (buffer[*cc] == '\t')) ++(*cc);	// Como espacios
	bcc = buffer + *cc;												// Guardo posicion de inicio de primer parametro
	if((buffer[*cc] != '-') && !is_digit(buffer[*cc])) return 0;		// Se espera - o numero
	++(*cc);
    55aa:	4f 5f       	subi	r20, 0xFF	; 255
    55ac:	48 83       	st	Y, r20
}

int fetchParam(char *cc, float *param)
{
	char *bcc, c;
	int pointCount = 0;
    55ae:	20 e0       	ldi	r18, 0x00	; 0
    55b0:	30 e0       	ldi	r19, 0x00	; 0

	while((buffer[*cc] == ' ') || (buffer[*cc] == '\t')) ++(*cc);	// Como espacios
	bcc = buffer + *cc;												// Guardo posicion de inicio de primer parametro
	if((buffer[*cc] != '-') && !is_digit(buffer[*cc])) return 0;		// Se espera - o numero
	++(*cc);
	while(is_digit(buffer[*cc]) || (buffer[*cc] == '.'))				// Como numeros y punto decimal
    55b2:	0a c0       	rjmp	.+20     	; 0x55c8 <fetchParam+0x74>
	{
		if(buffer[*cc] == '.') ++pointCount;						// Cuento los puntos decimales
    55b4:	64 50       	subi	r22, 0x04	; 4
    55b6:	77 4f       	sbci	r23, 0xF7	; 247
    55b8:	fb 01       	movw	r30, r22
    55ba:	40 81       	ld	r20, Z
    55bc:	4e 32       	cpi	r20, 0x2E	; 46
    55be:	11 f4       	brne	.+4      	; 0x55c4 <fetchParam+0x70>
    55c0:	2f 5f       	subi	r18, 0xFF	; 255
    55c2:	3f 4f       	sbci	r19, 0xFF	; 255
		 ++(*cc);
    55c4:	af 5f       	subi	r26, 0xFF	; 255
    55c6:	a8 83       	st	Y, r26

	while((buffer[*cc] == ' ') || (buffer[*cc] == '\t')) ++(*cc);	// Como espacios
	bcc = buffer + *cc;												// Guardo posicion de inicio de primer parametro
	if((buffer[*cc] != '-') && !is_digit(buffer[*cc])) return 0;		// Se espera - o numero
	++(*cc);
	while(is_digit(buffer[*cc]) || (buffer[*cc] == '.'))				// Como numeros y punto decimal
    55c8:	a8 81       	ld	r26, Y
    55ca:	6a 2f       	mov	r22, r26
    55cc:	70 e0       	ldi	r23, 0x00	; 0
    55ce:	fb 01       	movw	r30, r22
    55d0:	e4 50       	subi	r30, 0x04	; 4
    55d2:	f7 4f       	sbci	r31, 0xF7	; 247
    55d4:	40 81       	ld	r20, Z
    55d6:	50 e0       	ldi	r21, 0x00	; 0
	return 1;
}

int is_digit(int c)
{
	if((c >= '0') && (c <= '9')) return 1;
    55d8:	40 53       	subi	r20, 0x30	; 48
    55da:	50 40       	sbci	r21, 0x00	; 0
    55dc:	4a 30       	cpi	r20, 0x0A	; 10
    55de:	51 05       	cpc	r21, r1
    55e0:	48 f3       	brcs	.-46     	; 0x55b4 <fetchParam+0x60>
    55e2:	1f c0       	rjmp	.+62     	; 0x5622 <fetchParam+0xce>
	while(is_digit(buffer[*cc]) || (buffer[*cc] == '.'))				// Como numeros y punto decimal
	{
		if(buffer[*cc] == '.') ++pointCount;						// Cuento los puntos decimales
		 ++(*cc);
	}
	if(pointCount > 1) return 0;									// Solo se acepta un punto decimal
    55e4:	22 30       	cpi	r18, 0x02	; 2
    55e6:	31 05       	cpc	r19, r1
    55e8:	9c f4       	brge	.+38     	; 0x5610 <fetchParam+0xbc>
	c = buffer[*cc];												// Respaldo Caracter 
    55ea:	f0 80       	ld	r15, Z
	buffer[*cc] = 0;												// Simulo fin de cadena
    55ec:	10 82       	st	Z, r1
	//*param = (float)atof(bcc);												// Obtengo el parametro
	//sscanf(bcc, "%f", param);
	//printf("FLOAT: %f    ,bcc: %c",param, bcc);
	*param = (float)strtod(bcc,0);
    55ee:	60 e0       	ldi	r22, 0x00	; 0
    55f0:	70 e0       	ldi	r23, 0x00	; 0
    55f2:	0e 94 4d 41 	call	0x829a	; 0x829a <strtod>
    55f6:	f8 01       	movw	r30, r16
    55f8:	60 83       	st	Z, r22
    55fa:	71 83       	std	Z+1, r23	; 0x01
    55fc:	82 83       	std	Z+2, r24	; 0x02
    55fe:	93 83       	std	Z+3, r25	; 0x03
	buffer[*cc] = c;												// Recupero caracter
    5600:	e8 81       	ld	r30, Y
    5602:	f0 e0       	ldi	r31, 0x00	; 0
    5604:	e4 50       	subi	r30, 0x04	; 4
    5606:	f7 4f       	sbci	r31, 0xF7	; 247
    5608:	f0 82       	st	Z, r15
	return 1;
    560a:	21 e0       	ldi	r18, 0x01	; 1
    560c:	30 e0       	ldi	r19, 0x00	; 0
    560e:	02 c0       	rjmp	.+4      	; 0x5614 <fetchParam+0xc0>
	while(is_digit(buffer[*cc]) || (buffer[*cc] == '.'))				// Como numeros y punto decimal
	{
		if(buffer[*cc] == '.') ++pointCount;						// Cuento los puntos decimales
		 ++(*cc);
	}
	if(pointCount > 1) return 0;									// Solo se acepta un punto decimal
    5610:	20 e0       	ldi	r18, 0x00	; 0
    5612:	30 e0       	ldi	r19, 0x00	; 0
	//sscanf(bcc, "%f", param);
	//printf("FLOAT: %f    ,bcc: %c",param, bcc);
	*param = (float)strtod(bcc,0);
	buffer[*cc] = c;												// Recupero caracter
	return 1;
}
    5614:	c9 01       	movw	r24, r18
    5616:	df 91       	pop	r29
    5618:	cf 91       	pop	r28
    561a:	1f 91       	pop	r17
    561c:	0f 91       	pop	r16
    561e:	ff 90       	pop	r15
    5620:	08 95       	ret

	while((buffer[*cc] == ' ') || (buffer[*cc] == '\t')) ++(*cc);	// Como espacios
	bcc = buffer + *cc;												// Guardo posicion de inicio de primer parametro
	if((buffer[*cc] != '-') && !is_digit(buffer[*cc])) return 0;		// Se espera - o numero
	++(*cc);
	while(is_digit(buffer[*cc]) || (buffer[*cc] == '.'))				// Como numeros y punto decimal
    5622:	40 81       	ld	r20, Z
    5624:	4e 32       	cpi	r20, 0x2E	; 46
    5626:	31 f2       	breq	.-116    	; 0x55b4 <fetchParam+0x60>
    5628:	dd cf       	rjmp	.-70     	; 0x55e4 <fetchParam+0x90>

0000562a <fetchCommand>:
	return 1;
}


int fetchCommand()
{
    562a:	2f 92       	push	r2
    562c:	3f 92       	push	r3
    562e:	4f 92       	push	r4
    5630:	5f 92       	push	r5
    5632:	6f 92       	push	r6
    5634:	7f 92       	push	r7
    5636:	8f 92       	push	r8
    5638:	9f 92       	push	r9
    563a:	af 92       	push	r10
    563c:	bf 92       	push	r11
    563e:	cf 92       	push	r12
    5640:	df 92       	push	r13
    5642:	ef 92       	push	r14
    5644:	ff 92       	push	r15
    5646:	0f 93       	push	r16
    5648:	1f 93       	push	r17
    564a:	df 93       	push	r29
    564c:	cf 93       	push	r28
    564e:	cd b7       	in	r28, 0x3d	; 61
    5650:	de b7       	in	r29, 0x3e	; 62
    5652:	ad 97       	sbiw	r28, 0x2d	; 45
    5654:	0f b6       	in	r0, 0x3f	; 63
    5656:	f8 94       	cli
    5658:	de bf       	out	0x3e, r29	; 62
    565a:	0f be       	out	0x3f, r0	; 63
    565c:	cd bf       	out	0x3d, r28	; 61
	char cc;
	float p1 = 0;
    565e:	80 e0       	ldi	r24, 0x00	; 0
    5660:	90 e0       	ldi	r25, 0x00	; 0
    5662:	dc 01       	movw	r26, r24
    5664:	8a 83       	std	Y+2, r24	; 0x02
    5666:	9b 83       	std	Y+3, r25	; 0x03
    5668:	ac 83       	std	Y+4, r26	; 0x04
    566a:	bd 83       	std	Y+5, r27	; 0x05
	float p2 = 0;
    566c:	8e 83       	std	Y+6, r24	; 0x06
    566e:	9f 83       	std	Y+7, r25	; 0x07
    5670:	a8 87       	std	Y+8, r26	; 0x08
    5672:	b9 87       	std	Y+9, r27	; 0x09
	float p3 = 0;
    5674:	8a 87       	std	Y+10, r24	; 0x0a
    5676:	9b 87       	std	Y+11, r25	; 0x0b
    5678:	ac 87       	std	Y+12, r26	; 0x0c
    567a:	bd 87       	std	Y+13, r27	; 0x0d
	float p4 = 0;
    567c:	8e 87       	std	Y+14, r24	; 0x0e
    567e:	9f 87       	std	Y+15, r25	; 0x0f
    5680:	a8 8b       	std	Y+16, r26	; 0x10
    5682:	b9 8b       	std	Y+17, r27	; 0x11
	float p5 = 0;
    5684:	8a 8b       	std	Y+18, r24	; 0x12
    5686:	9b 8b       	std	Y+19, r25	; 0x13
    5688:	ac 8b       	std	Y+20, r26	; 0x14
    568a:	bd 8b       	std	Y+21, r27	; 0x15
	float p6 = 0;
    568c:	8e 8b       	std	Y+22, r24	; 0x16
    568e:	9f 8b       	std	Y+23, r25	; 0x17
    5690:	a8 8f       	std	Y+24, r26	; 0x18
    5692:	b9 8f       	std	Y+25, r27	; 0x19
	float p7 = 0;
    5694:	8a 8f       	std	Y+26, r24	; 0x1a
    5696:	9b 8f       	std	Y+27, r25	; 0x1b
    5698:	ac 8f       	std	Y+28, r26	; 0x1c
    569a:	bd 8f       	std	Y+29, r27	; 0x1d
	float p8 = 0;
    569c:	8e 8f       	std	Y+30, r24	; 0x1e
    569e:	9f 8f       	std	Y+31, r25	; 0x1f
    56a0:	a8 a3       	std	Y+32, r26	; 0x20
    56a2:	b9 a3       	std	Y+33, r27	; 0x21
	
	//Sin parmetros
	if((buffer[0] == 'z')||(buffer[0] == 'g')||(buffer[0] == 's')||(buffer[0] == 'h')||(buffer[0] == 'i') || (buffer[0] == 'S') || (buffer[0] == 'v'))
    56a4:	80 91 fc 08 	lds	r24, 0x08FC
    56a8:	8a 37       	cpi	r24, 0x7A	; 122
    56aa:	c1 f0       	breq	.+48     	; 0x56dc <fetchCommand+0xb2>
    56ac:	80 91 fc 08 	lds	r24, 0x08FC
    56b0:	87 36       	cpi	r24, 0x67	; 103
    56b2:	a1 f0       	breq	.+40     	; 0x56dc <fetchCommand+0xb2>
    56b4:	80 91 fc 08 	lds	r24, 0x08FC
    56b8:	83 37       	cpi	r24, 0x73	; 115
    56ba:	81 f0       	breq	.+32     	; 0x56dc <fetchCommand+0xb2>
    56bc:	80 91 fc 08 	lds	r24, 0x08FC
    56c0:	88 36       	cpi	r24, 0x68	; 104
    56c2:	61 f0       	breq	.+24     	; 0x56dc <fetchCommand+0xb2>
    56c4:	80 91 fc 08 	lds	r24, 0x08FC
    56c8:	89 36       	cpi	r24, 0x69	; 105
    56ca:	41 f0       	breq	.+16     	; 0x56dc <fetchCommand+0xb2>
    56cc:	80 91 fc 08 	lds	r24, 0x08FC
    56d0:	83 35       	cpi	r24, 0x53	; 83
    56d2:	21 f0       	breq	.+8      	; 0x56dc <fetchCommand+0xb2>
    56d4:	80 91 fc 08 	lds	r24, 0x08FC
    56d8:	86 37       	cpi	r24, 0x76	; 118
    56da:	09 f5       	brne	.+66     	; 0x571e <fetchCommand+0xf4>
    56dc:	11 e0       	ldi	r17, 0x01	; 1
	{
		cc = 1;
		while(is_alpha(buffer[cc]))++cc;
    56de:	e1 2f       	mov	r30, r17
    56e0:	f0 e0       	ldi	r31, 0x00	; 0
    56e2:	e4 50       	subi	r30, 0x04	; 4
    56e4:	f7 4f       	sbci	r31, 0xF7	; 247
    56e6:	80 81       	ld	r24, Z
    56e8:	90 e0       	ldi	r25, 0x00	; 0
    56ea:	0e 94 28 2a 	call	0x5450	; 0x5450 <is_alpha>
    56ee:	1f 5f       	subi	r17, 0xFF	; 255
    56f0:	00 97       	sbiw	r24, 0x00	; 0
    56f2:	a9 f7       	brne	.-22     	; 0x56de <fetchCommand+0xb4>
		if(buffer[1] != 0) return 0; //Parametros no requeridos
    56f4:	80 91 fd 08 	lds	r24, 0x08FD
    56f8:	88 23       	and	r24, r24
    56fa:	09 f0       	breq	.+2      	; 0x56fe <fetchCommand+0xd4>
    56fc:	a6 c3       	rjmp	.+1868   	; 0x5e4a <fetchCommand+0x820>
		cmdX(buffer[0], 0.0f, 0.0f, 0.0f, 0.0f, 0.0f, 0.0f, 0.0f, 0.0f);
    56fe:	80 91 fc 08 	lds	r24, 0x08FC
	return 0;
}

void cmdX(char cmd, float p1, float p2, float p3, float p4, float p5, float p6, float p7, float p8)
{
	comando.cmd = cmd;
    5702:	80 93 27 12 	sts	0x1227, r24
	comando.param1 = p1;
    5706:	80 e0       	ldi	r24, 0x00	; 0
    5708:	90 e0       	ldi	r25, 0x00	; 0
    570a:	dc 01       	movw	r26, r24
    570c:	80 93 28 12 	sts	0x1228, r24
    5710:	90 93 29 12 	sts	0x1229, r25
    5714:	a0 93 2a 12 	sts	0x122A, r26
    5718:	b0 93 2b 12 	sts	0x122B, r27
    571c:	59 c0       	rjmp	.+178    	; 0x57d0 <fetchCommand+0x1a6>
		if(buffer[1] != 0) return 0; //Parametros no requeridos
		cmdX(buffer[0], 0.0f, 0.0f, 0.0f, 0.0f, 0.0f, 0.0f, 0.0f, 0.0f);
		return 1;
	}
	//1 Parmetro
	else if((buffer[0] == 'k')||(buffer[0] == 'C')||(buffer[0] == 'L')||(buffer[0] == 'R')||(buffer[0] == 'G')||(buffer[0] == 't') ||(buffer[0] == 'o')||(buffer[0] == 'c')||(buffer[0] == 'I'))	//////// 1 PARMETRO
    571e:	80 91 fc 08 	lds	r24, 0x08FC
    5722:	8b 36       	cpi	r24, 0x6B	; 107
    5724:	01 f1       	breq	.+64     	; 0x5766 <fetchCommand+0x13c>
    5726:	80 91 fc 08 	lds	r24, 0x08FC
    572a:	83 34       	cpi	r24, 0x43	; 67
    572c:	e1 f0       	breq	.+56     	; 0x5766 <fetchCommand+0x13c>
    572e:	80 91 fc 08 	lds	r24, 0x08FC
    5732:	8c 34       	cpi	r24, 0x4C	; 76
    5734:	c1 f0       	breq	.+48     	; 0x5766 <fetchCommand+0x13c>
    5736:	80 91 fc 08 	lds	r24, 0x08FC
    573a:	82 35       	cpi	r24, 0x52	; 82
    573c:	a1 f0       	breq	.+40     	; 0x5766 <fetchCommand+0x13c>
    573e:	80 91 fc 08 	lds	r24, 0x08FC
    5742:	87 34       	cpi	r24, 0x47	; 71
    5744:	81 f0       	breq	.+32     	; 0x5766 <fetchCommand+0x13c>
    5746:	80 91 fc 08 	lds	r24, 0x08FC
    574a:	84 37       	cpi	r24, 0x74	; 116
    574c:	61 f0       	breq	.+24     	; 0x5766 <fetchCommand+0x13c>
    574e:	80 91 fc 08 	lds	r24, 0x08FC
    5752:	8f 36       	cpi	r24, 0x6F	; 111
    5754:	41 f0       	breq	.+16     	; 0x5766 <fetchCommand+0x13c>
    5756:	80 91 fc 08 	lds	r24, 0x08FC
    575a:	83 36       	cpi	r24, 0x63	; 99
    575c:	21 f0       	breq	.+8      	; 0x5766 <fetchCommand+0x13c>
    575e:	80 91 fc 08 	lds	r24, 0x08FC
    5762:	89 34       	cpi	r24, 0x49	; 73
    5764:	f1 f5       	brne	.+124    	; 0x57e2 <fetchCommand+0x1b8>
    5766:	11 e0       	ldi	r17, 0x01	; 1
    5768:	01 c0       	rjmp	.+2      	; 0x576c <fetchCommand+0x142>
	{
		// Obtener primer parametro
		
		cc = 1;
		while(is_alpha(buffer[cc]))++cc;
    576a:	12 2f       	mov	r17, r18
    576c:	e1 2f       	mov	r30, r17
    576e:	f0 e0       	ldi	r31, 0x00	; 0
    5770:	e4 50       	subi	r30, 0x04	; 4
    5772:	f7 4f       	sbci	r31, 0xF7	; 247
    5774:	80 81       	ld	r24, Z
    5776:	90 e0       	ldi	r25, 0x00	; 0
    5778:	0e 94 28 2a 	call	0x5450	; 0x5450 <is_alpha>
    577c:	21 2f       	mov	r18, r17
    577e:	2f 5f       	subi	r18, 0xFF	; 255
    5780:	00 97       	sbiw	r24, 0x00	; 0
    5782:	99 f7       	brne	.-26     	; 0x576a <fetchCommand+0x140>
    5784:	19 83       	std	Y+1, r17	; 0x01
		if(!fetchParam(&cc, &p1)) return 0;
    5786:	ce 01       	movw	r24, r28
    5788:	01 96       	adiw	r24, 0x01	; 1
    578a:	be 01       	movw	r22, r28
    578c:	6e 5f       	subi	r22, 0xFE	; 254
    578e:	7f 4f       	sbci	r23, 0xFF	; 255
    5790:	0e 94 aa 2a 	call	0x5554	; 0x5554 <fetchParam>
    5794:	00 97       	sbiw	r24, 0x00	; 0
    5796:	09 f4       	brne	.+2      	; 0x579a <fetchCommand+0x170>
    5798:	58 c3       	rjmp	.+1712   	; 0x5e4a <fetchCommand+0x820>
		if(buffer[cc] != 0) return 0;				// Se espera fin de cadena
    579a:	e9 81       	ldd	r30, Y+1	; 0x01
    579c:	f0 e0       	ldi	r31, 0x00	; 0
    579e:	e4 50       	subi	r30, 0x04	; 4
    57a0:	f7 4f       	sbci	r31, 0xF7	; 247
    57a2:	80 81       	ld	r24, Z
    57a4:	88 23       	and	r24, r24
    57a6:	09 f0       	breq	.+2      	; 0x57aa <fetchCommand+0x180>
    57a8:	50 c3       	rjmp	.+1696   	; 0x5e4a <fetchCommand+0x820>
		cmdX(buffer[0], p1, 0.0f, 0.0f, 0.0f, 0.0f, 0.0f, 0.0f, 0.0f);
    57aa:	20 91 fc 08 	lds	r18, 0x08FC
    57ae:	8a 81       	ldd	r24, Y+2	; 0x02
    57b0:	9b 81       	ldd	r25, Y+3	; 0x03
    57b2:	ac 81       	ldd	r26, Y+4	; 0x04
    57b4:	bd 81       	ldd	r27, Y+5	; 0x05
	return 0;
}

void cmdX(char cmd, float p1, float p2, float p3, float p4, float p5, float p6, float p7, float p8)
{
	comando.cmd = cmd;
    57b6:	20 93 27 12 	sts	0x1227, r18
	comando.param1 = p1;
    57ba:	80 93 28 12 	sts	0x1228, r24
    57be:	90 93 29 12 	sts	0x1229, r25
    57c2:	a0 93 2a 12 	sts	0x122A, r26
    57c6:	b0 93 2b 12 	sts	0x122B, r27
	comando.param2 = p2;
    57ca:	80 e0       	ldi	r24, 0x00	; 0
    57cc:	90 e0       	ldi	r25, 0x00	; 0
    57ce:	dc 01       	movw	r26, r24
    57d0:	80 93 2c 12 	sts	0x122C, r24
    57d4:	90 93 2d 12 	sts	0x122D, r25
    57d8:	a0 93 2e 12 	sts	0x122E, r26
    57dc:	b0 93 2f 12 	sts	0x122F, r27
    57e0:	56 c0       	rjmp	.+172    	; 0x588e <fetchCommand+0x264>
		if(buffer[cc] != 0) return 0;				// Se espera fin de cadena
		cmdX(buffer[0], p1, 0.0f, 0.0f, 0.0f, 0.0f, 0.0f, 0.0f, 0.0f);
		return 1;
	}
	//2 Parmetros
	else if((buffer[0] == 'f')||(buffer[0] == 'd'))						/////////// 2 PARMETROS
    57e2:	80 91 fc 08 	lds	r24, 0x08FC
    57e6:	86 36       	cpi	r24, 0x66	; 102
    57e8:	29 f0       	breq	.+10     	; 0x57f4 <fetchCommand+0x1ca>
    57ea:	80 91 fc 08 	lds	r24, 0x08FC
    57ee:	84 36       	cpi	r24, 0x64	; 100
    57f0:	09 f0       	breq	.+2      	; 0x57f4 <fetchCommand+0x1ca>
    57f2:	56 c0       	rjmp	.+172    	; 0x58a0 <fetchCommand+0x276>
    57f4:	11 e0       	ldi	r17, 0x01	; 1
    57f6:	01 c0       	rjmp	.+2      	; 0x57fa <fetchCommand+0x1d0>
	{
		cc = 1;
		while(is_alpha(buffer[cc]))++cc;
    57f8:	12 2f       	mov	r17, r18
    57fa:	e1 2f       	mov	r30, r17
    57fc:	f0 e0       	ldi	r31, 0x00	; 0
    57fe:	e4 50       	subi	r30, 0x04	; 4
    5800:	f7 4f       	sbci	r31, 0xF7	; 247
    5802:	80 81       	ld	r24, Z
    5804:	90 e0       	ldi	r25, 0x00	; 0
    5806:	0e 94 28 2a 	call	0x5450	; 0x5450 <is_alpha>
    580a:	21 2f       	mov	r18, r17
    580c:	2f 5f       	subi	r18, 0xFF	; 255
    580e:	00 97       	sbiw	r24, 0x00	; 0
    5810:	99 f7       	brne	.-26     	; 0x57f8 <fetchCommand+0x1ce>
    5812:	19 83       	std	Y+1, r17	; 0x01
		if(!fetchParam(&cc, &p1)) return 0;			// Obtengo primer parametro
    5814:	7e 01       	movw	r14, r28
    5816:	08 94       	sec
    5818:	e1 1c       	adc	r14, r1
    581a:	f1 1c       	adc	r15, r1
    581c:	c7 01       	movw	r24, r14
    581e:	be 01       	movw	r22, r28
    5820:	6e 5f       	subi	r22, 0xFE	; 254
    5822:	7f 4f       	sbci	r23, 0xFF	; 255
    5824:	0e 94 aa 2a 	call	0x5554	; 0x5554 <fetchParam>
    5828:	00 97       	sbiw	r24, 0x00	; 0
    582a:	09 f4       	brne	.+2      	; 0x582e <fetchCommand+0x204>
    582c:	0e c3       	rjmp	.+1564   	; 0x5e4a <fetchCommand+0x820>
		if(!fetchParam(&cc, &p2)) return 0;			// Obtengo segundo parametro
    582e:	c7 01       	movw	r24, r14
    5830:	be 01       	movw	r22, r28
    5832:	6a 5f       	subi	r22, 0xFA	; 250
    5834:	7f 4f       	sbci	r23, 0xFF	; 255
    5836:	0e 94 aa 2a 	call	0x5554	; 0x5554 <fetchParam>
    583a:	00 97       	sbiw	r24, 0x00	; 0
    583c:	09 f4       	brne	.+2      	; 0x5840 <fetchCommand+0x216>
    583e:	05 c3       	rjmp	.+1546   	; 0x5e4a <fetchCommand+0x820>
		if(buffer[cc] != 0) return 0;				// Se espera fin de cadena
    5840:	e9 81       	ldd	r30, Y+1	; 0x01
    5842:	f0 e0       	ldi	r31, 0x00	; 0
    5844:	e4 50       	subi	r30, 0x04	; 4
    5846:	f7 4f       	sbci	r31, 0xF7	; 247
    5848:	80 81       	ld	r24, Z
    584a:	88 23       	and	r24, r24
    584c:	09 f0       	breq	.+2      	; 0x5850 <fetchCommand+0x226>
    584e:	fd c2       	rjmp	.+1530   	; 0x5e4a <fetchCommand+0x820>
		cmdX(buffer[0], p1, p2, 0.0f, 0.0f, 0.0f, 0.0f, 0.0f, 0.0f);
    5850:	60 91 fc 08 	lds	r22, 0x08FC
    5854:	2a 81       	ldd	r18, Y+2	; 0x02
    5856:	3b 81       	ldd	r19, Y+3	; 0x03
    5858:	4c 81       	ldd	r20, Y+4	; 0x04
    585a:	5d 81       	ldd	r21, Y+5	; 0x05
    585c:	8e 81       	ldd	r24, Y+6	; 0x06
    585e:	9f 81       	ldd	r25, Y+7	; 0x07
    5860:	a8 85       	ldd	r26, Y+8	; 0x08
    5862:	b9 85       	ldd	r27, Y+9	; 0x09
	return 0;
}

void cmdX(char cmd, float p1, float p2, float p3, float p4, float p5, float p6, float p7, float p8)
{
	comando.cmd = cmd;
    5864:	60 93 27 12 	sts	0x1227, r22
	comando.param1 = p1;
    5868:	20 93 28 12 	sts	0x1228, r18
    586c:	30 93 29 12 	sts	0x1229, r19
    5870:	40 93 2a 12 	sts	0x122A, r20
    5874:	50 93 2b 12 	sts	0x122B, r21
	comando.param2 = p2;
    5878:	80 93 2c 12 	sts	0x122C, r24
    587c:	90 93 2d 12 	sts	0x122D, r25
    5880:	a0 93 2e 12 	sts	0x122E, r26
    5884:	b0 93 2f 12 	sts	0x122F, r27
	comando.param3 = p3;
    5888:	80 e0       	ldi	r24, 0x00	; 0
    588a:	90 e0       	ldi	r25, 0x00	; 0
    588c:	dc 01       	movw	r26, r24
    588e:	80 93 30 12 	sts	0x1230, r24
    5892:	90 93 31 12 	sts	0x1231, r25
    5896:	a0 93 32 12 	sts	0x1232, r26
    589a:	b0 93 33 12 	sts	0x1233, r27
    589e:	6d c0       	rjmp	.+218    	; 0x597a <fetchCommand+0x350>
		cmdX(buffer[0], p1, p2, 0.0f, 0.0f, 0.0f, 0.0f, 0.0f, 0.0f);
		return 1;
		
	}
	//3 Parmetros
	else if((buffer[0] == 'n'))		
    58a0:	80 91 fc 08 	lds	r24, 0x08FC
    58a4:	8e 36       	cpi	r24, 0x6E	; 110
    58a6:	09 f0       	breq	.+2      	; 0x58aa <fetchCommand+0x280>
    58a8:	71 c0       	rjmp	.+226    	; 0x598c <fetchCommand+0x362>
    58aa:	11 e0       	ldi	r17, 0x01	; 1
    58ac:	01 c0       	rjmp	.+2      	; 0x58b0 <fetchCommand+0x286>
	{
		cc = 1;
		while(is_alpha(buffer[cc]))++cc;
    58ae:	12 2f       	mov	r17, r18
    58b0:	e1 2f       	mov	r30, r17
    58b2:	f0 e0       	ldi	r31, 0x00	; 0
    58b4:	e4 50       	subi	r30, 0x04	; 4
    58b6:	f7 4f       	sbci	r31, 0xF7	; 247
    58b8:	80 81       	ld	r24, Z
    58ba:	90 e0       	ldi	r25, 0x00	; 0
    58bc:	0e 94 28 2a 	call	0x5450	; 0x5450 <is_alpha>
    58c0:	21 2f       	mov	r18, r17
    58c2:	2f 5f       	subi	r18, 0xFF	; 255
    58c4:	00 97       	sbiw	r24, 0x00	; 0
    58c6:	99 f7       	brne	.-26     	; 0x58ae <fetchCommand+0x284>
    58c8:	19 83       	std	Y+1, r17	; 0x01
		if(!fetchParam(&cc, &p1)) return 0;			// Obtengo primer parametro
    58ca:	7e 01       	movw	r14, r28
    58cc:	08 94       	sec
    58ce:	e1 1c       	adc	r14, r1
    58d0:	f1 1c       	adc	r15, r1
    58d2:	c7 01       	movw	r24, r14
    58d4:	be 01       	movw	r22, r28
    58d6:	6e 5f       	subi	r22, 0xFE	; 254
    58d8:	7f 4f       	sbci	r23, 0xFF	; 255
    58da:	0e 94 aa 2a 	call	0x5554	; 0x5554 <fetchParam>
    58de:	00 97       	sbiw	r24, 0x00	; 0
    58e0:	09 f4       	brne	.+2      	; 0x58e4 <fetchCommand+0x2ba>
    58e2:	b3 c2       	rjmp	.+1382   	; 0x5e4a <fetchCommand+0x820>
		if(!fetchParam(&cc, &p2)) return 0;			// Obtengo segundo parametro
    58e4:	c7 01       	movw	r24, r14
    58e6:	be 01       	movw	r22, r28
    58e8:	6a 5f       	subi	r22, 0xFA	; 250
    58ea:	7f 4f       	sbci	r23, 0xFF	; 255
    58ec:	0e 94 aa 2a 	call	0x5554	; 0x5554 <fetchParam>
    58f0:	00 97       	sbiw	r24, 0x00	; 0
    58f2:	09 f4       	brne	.+2      	; 0x58f6 <fetchCommand+0x2cc>
    58f4:	aa c2       	rjmp	.+1364   	; 0x5e4a <fetchCommand+0x820>
		if(!fetchParam(&cc, &p3)) p3 = 0.0f;		// Obtengo tercer parametro si existe
    58f6:	c7 01       	movw	r24, r14
    58f8:	be 01       	movw	r22, r28
    58fa:	66 5f       	subi	r22, 0xF6	; 246
    58fc:	7f 4f       	sbci	r23, 0xFF	; 255
    58fe:	0e 94 aa 2a 	call	0x5554	; 0x5554 <fetchParam>
    5902:	00 97       	sbiw	r24, 0x00	; 0
    5904:	39 f4       	brne	.+14     	; 0x5914 <fetchCommand+0x2ea>
    5906:	80 e0       	ldi	r24, 0x00	; 0
    5908:	90 e0       	ldi	r25, 0x00	; 0
    590a:	dc 01       	movw	r26, r24
    590c:	8a 87       	std	Y+10, r24	; 0x0a
    590e:	9b 87       	std	Y+11, r25	; 0x0b
    5910:	ac 87       	std	Y+12, r26	; 0x0c
    5912:	bd 87       	std	Y+13, r27	; 0x0d
		if(buffer[cc] != 0) return 0;				// Se espera fin de cadena
    5914:	e9 81       	ldd	r30, Y+1	; 0x01
    5916:	f0 e0       	ldi	r31, 0x00	; 0
    5918:	e4 50       	subi	r30, 0x04	; 4
    591a:	f7 4f       	sbci	r31, 0xF7	; 247
    591c:	80 81       	ld	r24, Z
    591e:	88 23       	and	r24, r24
    5920:	09 f0       	breq	.+2      	; 0x5924 <fetchCommand+0x2fa>
    5922:	93 c2       	rjmp	.+1318   	; 0x5e4a <fetchCommand+0x820>
		cmdX(buffer[0], p1, p2, p3, 0.0f, 0.0f, 0.0f, 0.0f, 0.0f);
    5924:	60 91 fc 08 	lds	r22, 0x08FC
    5928:	ea 80       	ldd	r14, Y+2	; 0x02
    592a:	fb 80       	ldd	r15, Y+3	; 0x03
    592c:	0c 81       	ldd	r16, Y+4	; 0x04
    592e:	1d 81       	ldd	r17, Y+5	; 0x05
    5930:	2e 81       	ldd	r18, Y+6	; 0x06
    5932:	3f 81       	ldd	r19, Y+7	; 0x07
    5934:	48 85       	ldd	r20, Y+8	; 0x08
    5936:	59 85       	ldd	r21, Y+9	; 0x09
    5938:	8a 85       	ldd	r24, Y+10	; 0x0a
    593a:	9b 85       	ldd	r25, Y+11	; 0x0b
    593c:	ac 85       	ldd	r26, Y+12	; 0x0c
    593e:	bd 85       	ldd	r27, Y+13	; 0x0d
	return 0;
}

void cmdX(char cmd, float p1, float p2, float p3, float p4, float p5, float p6, float p7, float p8)
{
	comando.cmd = cmd;
    5940:	60 93 27 12 	sts	0x1227, r22
	comando.param1 = p1;
    5944:	e0 92 28 12 	sts	0x1228, r14
    5948:	f0 92 29 12 	sts	0x1229, r15
    594c:	00 93 2a 12 	sts	0x122A, r16
    5950:	10 93 2b 12 	sts	0x122B, r17
	comando.param2 = p2;
    5954:	20 93 2c 12 	sts	0x122C, r18
    5958:	30 93 2d 12 	sts	0x122D, r19
    595c:	40 93 2e 12 	sts	0x122E, r20
    5960:	50 93 2f 12 	sts	0x122F, r21
	comando.param3 = p3;
    5964:	80 93 30 12 	sts	0x1230, r24
    5968:	90 93 31 12 	sts	0x1231, r25
    596c:	a0 93 32 12 	sts	0x1232, r26
    5970:	b0 93 33 12 	sts	0x1233, r27
	comando.param4 = p4;
    5974:	80 e0       	ldi	r24, 0x00	; 0
    5976:	90 e0       	ldi	r25, 0x00	; 0
    5978:	dc 01       	movw	r26, r24
    597a:	80 93 34 12 	sts	0x1234, r24
    597e:	90 93 35 12 	sts	0x1235, r25
    5982:	a0 93 36 12 	sts	0x1236, r26
    5986:	b0 93 37 12 	sts	0x1237, r27
    598a:	82 c0       	rjmp	.+260    	; 0x5a90 <fetchCommand+0x466>
		cmdX(buffer[0], p1, p2, p3, 0.0f, 0.0f, 0.0f, 0.0f, 0.0f);
		return 1;
		
	}
	//4 Parmetros
	else if((buffer[0] == 'x'))		
    598c:	80 91 fc 08 	lds	r24, 0x08FC
    5990:	88 37       	cpi	r24, 0x78	; 120
    5992:	09 f0       	breq	.+2      	; 0x5996 <fetchCommand+0x36c>
    5994:	96 c0       	rjmp	.+300    	; 0x5ac2 <fetchCommand+0x498>
    5996:	11 e0       	ldi	r17, 0x01	; 1
    5998:	01 c0       	rjmp	.+2      	; 0x599c <fetchCommand+0x372>
	{
		cc = 1;
		while(is_alpha(buffer[cc]))++cc;
    599a:	12 2f       	mov	r17, r18
    599c:	e1 2f       	mov	r30, r17
    599e:	f0 e0       	ldi	r31, 0x00	; 0
    59a0:	e4 50       	subi	r30, 0x04	; 4
    59a2:	f7 4f       	sbci	r31, 0xF7	; 247
    59a4:	80 81       	ld	r24, Z
    59a6:	90 e0       	ldi	r25, 0x00	; 0
    59a8:	0e 94 28 2a 	call	0x5450	; 0x5450 <is_alpha>
    59ac:	21 2f       	mov	r18, r17
    59ae:	2f 5f       	subi	r18, 0xFF	; 255
    59b0:	00 97       	sbiw	r24, 0x00	; 0
    59b2:	99 f7       	brne	.-26     	; 0x599a <fetchCommand+0x370>
    59b4:	19 83       	std	Y+1, r17	; 0x01
		if(!fetchParam(&cc, &p1)) return 0;			// Obtengo primer parametro
    59b6:	7e 01       	movw	r14, r28
    59b8:	08 94       	sec
    59ba:	e1 1c       	adc	r14, r1
    59bc:	f1 1c       	adc	r15, r1
    59be:	c7 01       	movw	r24, r14
    59c0:	be 01       	movw	r22, r28
    59c2:	6e 5f       	subi	r22, 0xFE	; 254
    59c4:	7f 4f       	sbci	r23, 0xFF	; 255
    59c6:	0e 94 aa 2a 	call	0x5554	; 0x5554 <fetchParam>
    59ca:	00 97       	sbiw	r24, 0x00	; 0
    59cc:	09 f4       	brne	.+2      	; 0x59d0 <fetchCommand+0x3a6>
    59ce:	3d c2       	rjmp	.+1146   	; 0x5e4a <fetchCommand+0x820>
		if(!fetchParam(&cc, &p2)) return 0;			// Obtengo segundo parmetro
    59d0:	c7 01       	movw	r24, r14
    59d2:	be 01       	movw	r22, r28
    59d4:	6a 5f       	subi	r22, 0xFA	; 250
    59d6:	7f 4f       	sbci	r23, 0xFF	; 255
    59d8:	0e 94 aa 2a 	call	0x5554	; 0x5554 <fetchParam>
    59dc:	00 97       	sbiw	r24, 0x00	; 0
    59de:	09 f4       	brne	.+2      	; 0x59e2 <fetchCommand+0x3b8>
    59e0:	34 c2       	rjmp	.+1128   	; 0x5e4a <fetchCommand+0x820>
		if(!fetchParam(&cc, &p3)) return 0;			// Obtengo tercer parametro
    59e2:	c7 01       	movw	r24, r14
    59e4:	be 01       	movw	r22, r28
    59e6:	66 5f       	subi	r22, 0xF6	; 246
    59e8:	7f 4f       	sbci	r23, 0xFF	; 255
    59ea:	0e 94 aa 2a 	call	0x5554	; 0x5554 <fetchParam>
    59ee:	00 97       	sbiw	r24, 0x00	; 0
    59f0:	09 f4       	brne	.+2      	; 0x59f4 <fetchCommand+0x3ca>
    59f2:	2b c2       	rjmp	.+1110   	; 0x5e4a <fetchCommand+0x820>
		if(!fetchParam(&cc, &p4)) p4 = 0.0f;		// Obtengo cuarto parametro si existe
    59f4:	c7 01       	movw	r24, r14
    59f6:	be 01       	movw	r22, r28
    59f8:	62 5f       	subi	r22, 0xF2	; 242
    59fa:	7f 4f       	sbci	r23, 0xFF	; 255
    59fc:	0e 94 aa 2a 	call	0x5554	; 0x5554 <fetchParam>
    5a00:	00 97       	sbiw	r24, 0x00	; 0
    5a02:	39 f4       	brne	.+14     	; 0x5a12 <fetchCommand+0x3e8>
    5a04:	80 e0       	ldi	r24, 0x00	; 0
    5a06:	90 e0       	ldi	r25, 0x00	; 0
    5a08:	dc 01       	movw	r26, r24
    5a0a:	8e 87       	std	Y+14, r24	; 0x0e
    5a0c:	9f 87       	std	Y+15, r25	; 0x0f
    5a0e:	a8 8b       	std	Y+16, r26	; 0x10
    5a10:	b9 8b       	std	Y+17, r27	; 0x11
		if(buffer[cc] != 0) return 0;				// Se espera fin de cadena
    5a12:	e9 81       	ldd	r30, Y+1	; 0x01
    5a14:	f0 e0       	ldi	r31, 0x00	; 0
    5a16:	e4 50       	subi	r30, 0x04	; 4
    5a18:	f7 4f       	sbci	r31, 0xF7	; 247
    5a1a:	80 81       	ld	r24, Z
    5a1c:	88 23       	and	r24, r24
    5a1e:	09 f0       	breq	.+2      	; 0x5a22 <fetchCommand+0x3f8>
    5a20:	14 c2       	rjmp	.+1064   	; 0x5e4a <fetchCommand+0x820>
		cmdX(buffer[0], p1, p2, p3, p4, 0.0f, 0.0f, 0.0f, 0.0f);
    5a22:	60 91 fc 08 	lds	r22, 0x08FC
    5a26:	ea 80       	ldd	r14, Y+2	; 0x02
    5a28:	fb 80       	ldd	r15, Y+3	; 0x03
    5a2a:	0c 81       	ldd	r16, Y+4	; 0x04
    5a2c:	1d 81       	ldd	r17, Y+5	; 0x05
    5a2e:	2e 81       	ldd	r18, Y+6	; 0x06
    5a30:	3f 81       	ldd	r19, Y+7	; 0x07
    5a32:	48 85       	ldd	r20, Y+8	; 0x08
    5a34:	59 85       	ldd	r21, Y+9	; 0x09
    5a36:	8a 85       	ldd	r24, Y+10	; 0x0a
    5a38:	9b 85       	ldd	r25, Y+11	; 0x0b
    5a3a:	ac 85       	ldd	r26, Y+12	; 0x0c
    5a3c:	bd 85       	ldd	r27, Y+13	; 0x0d
    5a3e:	ae 84       	ldd	r10, Y+14	; 0x0e
    5a40:	bf 84       	ldd	r11, Y+15	; 0x0f
    5a42:	c8 88       	ldd	r12, Y+16	; 0x10
    5a44:	d9 88       	ldd	r13, Y+17	; 0x11
	return 0;
}

void cmdX(char cmd, float p1, float p2, float p3, float p4, float p5, float p6, float p7, float p8)
{
	comando.cmd = cmd;
    5a46:	60 93 27 12 	sts	0x1227, r22
	comando.param1 = p1;
    5a4a:	e0 92 28 12 	sts	0x1228, r14
    5a4e:	f0 92 29 12 	sts	0x1229, r15
    5a52:	00 93 2a 12 	sts	0x122A, r16
    5a56:	10 93 2b 12 	sts	0x122B, r17
	comando.param2 = p2;
    5a5a:	20 93 2c 12 	sts	0x122C, r18
    5a5e:	30 93 2d 12 	sts	0x122D, r19
    5a62:	40 93 2e 12 	sts	0x122E, r20
    5a66:	50 93 2f 12 	sts	0x122F, r21
	comando.param3 = p3;
    5a6a:	80 93 30 12 	sts	0x1230, r24
    5a6e:	90 93 31 12 	sts	0x1231, r25
    5a72:	a0 93 32 12 	sts	0x1232, r26
    5a76:	b0 93 33 12 	sts	0x1233, r27
	comando.param4 = p4;
    5a7a:	a0 92 34 12 	sts	0x1234, r10
    5a7e:	b0 92 35 12 	sts	0x1235, r11
    5a82:	c0 92 36 12 	sts	0x1236, r12
    5a86:	d0 92 37 12 	sts	0x1237, r13
	comando.param5 = p5;
    5a8a:	80 e0       	ldi	r24, 0x00	; 0
    5a8c:	90 e0       	ldi	r25, 0x00	; 0
    5a8e:	dc 01       	movw	r26, r24
    5a90:	80 93 38 12 	sts	0x1238, r24
    5a94:	90 93 39 12 	sts	0x1239, r25
    5a98:	a0 93 3a 12 	sts	0x123A, r26
    5a9c:	b0 93 3b 12 	sts	0x123B, r27
	comando.param6 = p6;
    5aa0:	80 93 3c 12 	sts	0x123C, r24
    5aa4:	90 93 3d 12 	sts	0x123D, r25
    5aa8:	a0 93 3e 12 	sts	0x123E, r26
    5aac:	b0 93 3f 12 	sts	0x123F, r27
	comando.param7 = p7;
    5ab0:	80 93 40 12 	sts	0x1240, r24
    5ab4:	90 93 41 12 	sts	0x1241, r25
    5ab8:	a0 93 42 12 	sts	0x1242, r26
    5abc:	b0 93 43 12 	sts	0x1243, r27
    5ac0:	b9 c1       	rjmp	.+882    	; 0x5e34 <fetchCommand+0x80a>
		cmdX(buffer[0], p1, p2, p3, p4, 0.0f, 0.0f, 0.0f, 0.0f);
		return 1;
		
	}
	//7Parmetros
	else if((buffer[0] == 'x'))
    5ac2:	80 91 fc 08 	lds	r24, 0x08FC
    5ac6:	88 37       	cpi	r24, 0x78	; 120
    5ac8:	09 f0       	breq	.+2      	; 0x5acc <fetchCommand+0x4a2>
    5aca:	cd c0       	rjmp	.+410    	; 0x5c66 <fetchCommand+0x63c>
    5acc:	11 e0       	ldi	r17, 0x01	; 1
    5ace:	01 c0       	rjmp	.+2      	; 0x5ad2 <fetchCommand+0x4a8>
	{
		cc = 1;
		while(is_alpha(buffer[cc]))++cc;
    5ad0:	12 2f       	mov	r17, r18
    5ad2:	e1 2f       	mov	r30, r17
    5ad4:	f0 e0       	ldi	r31, 0x00	; 0
    5ad6:	e4 50       	subi	r30, 0x04	; 4
    5ad8:	f7 4f       	sbci	r31, 0xF7	; 247
    5ada:	80 81       	ld	r24, Z
    5adc:	90 e0       	ldi	r25, 0x00	; 0
    5ade:	0e 94 28 2a 	call	0x5450	; 0x5450 <is_alpha>
    5ae2:	21 2f       	mov	r18, r17
    5ae4:	2f 5f       	subi	r18, 0xFF	; 255
    5ae6:	00 97       	sbiw	r24, 0x00	; 0
    5ae8:	99 f7       	brne	.-26     	; 0x5ad0 <fetchCommand+0x4a6>
    5aea:	19 83       	std	Y+1, r17	; 0x01
		if(!fetchParam(&cc, &p1)) return 0;			// Obtengo primer parametro
    5aec:	7e 01       	movw	r14, r28
    5aee:	08 94       	sec
    5af0:	e1 1c       	adc	r14, r1
    5af2:	f1 1c       	adc	r15, r1
    5af4:	c7 01       	movw	r24, r14
    5af6:	be 01       	movw	r22, r28
    5af8:	6e 5f       	subi	r22, 0xFE	; 254
    5afa:	7f 4f       	sbci	r23, 0xFF	; 255
    5afc:	0e 94 aa 2a 	call	0x5554	; 0x5554 <fetchParam>
    5b00:	00 97       	sbiw	r24, 0x00	; 0
    5b02:	09 f4       	brne	.+2      	; 0x5b06 <fetchCommand+0x4dc>
    5b04:	a2 c1       	rjmp	.+836    	; 0x5e4a <fetchCommand+0x820>
		if(!fetchParam(&cc, &p2)) return 0;			// Obtengo segundo parametro
    5b06:	c7 01       	movw	r24, r14
    5b08:	be 01       	movw	r22, r28
    5b0a:	6a 5f       	subi	r22, 0xFA	; 250
    5b0c:	7f 4f       	sbci	r23, 0xFF	; 255
    5b0e:	0e 94 aa 2a 	call	0x5554	; 0x5554 <fetchParam>
    5b12:	00 97       	sbiw	r24, 0x00	; 0
    5b14:	09 f4       	brne	.+2      	; 0x5b18 <fetchCommand+0x4ee>
    5b16:	99 c1       	rjmp	.+818    	; 0x5e4a <fetchCommand+0x820>
		if(!fetchParam(&cc, &p3)) return 0;			// Obtengo tercer parametro
    5b18:	c7 01       	movw	r24, r14
    5b1a:	be 01       	movw	r22, r28
    5b1c:	66 5f       	subi	r22, 0xF6	; 246
    5b1e:	7f 4f       	sbci	r23, 0xFF	; 255
    5b20:	0e 94 aa 2a 	call	0x5554	; 0x5554 <fetchParam>
    5b24:	00 97       	sbiw	r24, 0x00	; 0
    5b26:	09 f4       	brne	.+2      	; 0x5b2a <fetchCommand+0x500>
    5b28:	90 c1       	rjmp	.+800    	; 0x5e4a <fetchCommand+0x820>
		if(!fetchParam(&cc, &p4)) return 0;			// Obtengo cuarto parametro
    5b2a:	c7 01       	movw	r24, r14
    5b2c:	be 01       	movw	r22, r28
    5b2e:	62 5f       	subi	r22, 0xF2	; 242
    5b30:	7f 4f       	sbci	r23, 0xFF	; 255
    5b32:	0e 94 aa 2a 	call	0x5554	; 0x5554 <fetchParam>
    5b36:	00 97       	sbiw	r24, 0x00	; 0
    5b38:	09 f4       	brne	.+2      	; 0x5b3c <fetchCommand+0x512>
    5b3a:	87 c1       	rjmp	.+782    	; 0x5e4a <fetchCommand+0x820>
		if(!fetchParam(&cc, &p5)) return 0;			// Obtengo quinto parametro
    5b3c:	c7 01       	movw	r24, r14
    5b3e:	be 01       	movw	r22, r28
    5b40:	6e 5e       	subi	r22, 0xEE	; 238
    5b42:	7f 4f       	sbci	r23, 0xFF	; 255
    5b44:	0e 94 aa 2a 	call	0x5554	; 0x5554 <fetchParam>
    5b48:	00 97       	sbiw	r24, 0x00	; 0
    5b4a:	09 f4       	brne	.+2      	; 0x5b4e <fetchCommand+0x524>
    5b4c:	7e c1       	rjmp	.+764    	; 0x5e4a <fetchCommand+0x820>
		if(!fetchParam(&cc, &p6)) return 0;			// Obtengo sexto parametro
    5b4e:	c7 01       	movw	r24, r14
    5b50:	be 01       	movw	r22, r28
    5b52:	6a 5e       	subi	r22, 0xEA	; 234
    5b54:	7f 4f       	sbci	r23, 0xFF	; 255
    5b56:	0e 94 aa 2a 	call	0x5554	; 0x5554 <fetchParam>
    5b5a:	00 97       	sbiw	r24, 0x00	; 0
    5b5c:	09 f4       	brne	.+2      	; 0x5b60 <fetchCommand+0x536>
    5b5e:	75 c1       	rjmp	.+746    	; 0x5e4a <fetchCommand+0x820>
		if(!fetchParam(&cc, &p7)) p7 = 0.0f;		// Obtengo sptimo parametro si existe
    5b60:	c7 01       	movw	r24, r14
    5b62:	be 01       	movw	r22, r28
    5b64:	66 5e       	subi	r22, 0xE6	; 230
    5b66:	7f 4f       	sbci	r23, 0xFF	; 255
    5b68:	0e 94 aa 2a 	call	0x5554	; 0x5554 <fetchParam>
    5b6c:	00 97       	sbiw	r24, 0x00	; 0
    5b6e:	39 f4       	brne	.+14     	; 0x5b7e <fetchCommand+0x554>
    5b70:	80 e0       	ldi	r24, 0x00	; 0
    5b72:	90 e0       	ldi	r25, 0x00	; 0
    5b74:	dc 01       	movw	r26, r24
    5b76:	8a 8f       	std	Y+26, r24	; 0x1a
    5b78:	9b 8f       	std	Y+27, r25	; 0x1b
    5b7a:	ac 8f       	std	Y+28, r26	; 0x1c
    5b7c:	bd 8f       	std	Y+29, r27	; 0x1d
		if(buffer[cc] != 0) return 0;				// Se espera fin de cadena
    5b7e:	e9 81       	ldd	r30, Y+1	; 0x01
    5b80:	f0 e0       	ldi	r31, 0x00	; 0
    5b82:	e4 50       	subi	r30, 0x04	; 4
    5b84:	f7 4f       	sbci	r31, 0xF7	; 247
    5b86:	80 81       	ld	r24, Z
    5b88:	88 23       	and	r24, r24
    5b8a:	09 f0       	breq	.+2      	; 0x5b8e <fetchCommand+0x564>
    5b8c:	5e c1       	rjmp	.+700    	; 0x5e4a <fetchCommand+0x820>
		cmdX(buffer[0], p1, p2, p3, p4, p5, p6, p7, 0.0f);
    5b8e:	60 91 fc 08 	lds	r22, 0x08FC
    5b92:	ea 80       	ldd	r14, Y+2	; 0x02
    5b94:	fb 80       	ldd	r15, Y+3	; 0x03
    5b96:	0c 81       	ldd	r16, Y+4	; 0x04
    5b98:	1d 81       	ldd	r17, Y+5	; 0x05
    5b9a:	2e 81       	ldd	r18, Y+6	; 0x06
    5b9c:	3f 81       	ldd	r19, Y+7	; 0x07
    5b9e:	48 85       	ldd	r20, Y+8	; 0x08
    5ba0:	59 85       	ldd	r21, Y+9	; 0x09
    5ba2:	8a 85       	ldd	r24, Y+10	; 0x0a
    5ba4:	9b 85       	ldd	r25, Y+11	; 0x0b
    5ba6:	ac 85       	ldd	r26, Y+12	; 0x0c
    5ba8:	bd 85       	ldd	r27, Y+13	; 0x0d
    5baa:	8e a3       	std	Y+38, r24	; 0x26
    5bac:	9f a3       	std	Y+39, r25	; 0x27
    5bae:	a8 a7       	std	Y+40, r26	; 0x28
    5bb0:	b9 a7       	std	Y+41, r27	; 0x29
    5bb2:	ae 84       	ldd	r10, Y+14	; 0x0e
    5bb4:	bf 84       	ldd	r11, Y+15	; 0x0f
    5bb6:	c8 88       	ldd	r12, Y+16	; 0x10
    5bb8:	d9 88       	ldd	r13, Y+17	; 0x11
    5bba:	6a 88       	ldd	r6, Y+18	; 0x12
    5bbc:	7b 88       	ldd	r7, Y+19	; 0x13
    5bbe:	8c 88       	ldd	r8, Y+20	; 0x14
    5bc0:	9d 88       	ldd	r9, Y+21	; 0x15
    5bc2:	2e 88       	ldd	r2, Y+22	; 0x16
    5bc4:	3f 88       	ldd	r3, Y+23	; 0x17
    5bc6:	48 8c       	ldd	r4, Y+24	; 0x18
    5bc8:	59 8c       	ldd	r5, Y+25	; 0x19
    5bca:	8a 8d       	ldd	r24, Y+26	; 0x1a
    5bcc:	9b 8d       	ldd	r25, Y+27	; 0x1b
    5bce:	ac 8d       	ldd	r26, Y+28	; 0x1c
    5bd0:	bd 8d       	ldd	r27, Y+29	; 0x1d
    5bd2:	8a a3       	std	Y+34, r24	; 0x22
    5bd4:	9b a3       	std	Y+35, r25	; 0x23
    5bd6:	ac a3       	std	Y+36, r26	; 0x24
    5bd8:	bd a3       	std	Y+37, r27	; 0x25
	return 0;
}

void cmdX(char cmd, float p1, float p2, float p3, float p4, float p5, float p6, float p7, float p8)
{
	comando.cmd = cmd;
    5bda:	60 93 27 12 	sts	0x1227, r22
	comando.param1 = p1;
    5bde:	e0 92 28 12 	sts	0x1228, r14
    5be2:	f0 92 29 12 	sts	0x1229, r15
    5be6:	00 93 2a 12 	sts	0x122A, r16
    5bea:	10 93 2b 12 	sts	0x122B, r17
	comando.param2 = p2;
    5bee:	20 93 2c 12 	sts	0x122C, r18
    5bf2:	30 93 2d 12 	sts	0x122D, r19
    5bf6:	40 93 2e 12 	sts	0x122E, r20
    5bfa:	50 93 2f 12 	sts	0x122F, r21
	comando.param3 = p3;
    5bfe:	8e a1       	ldd	r24, Y+38	; 0x26
    5c00:	9f a1       	ldd	r25, Y+39	; 0x27
    5c02:	a8 a5       	ldd	r26, Y+40	; 0x28
    5c04:	b9 a5       	ldd	r27, Y+41	; 0x29
    5c06:	80 93 30 12 	sts	0x1230, r24
    5c0a:	90 93 31 12 	sts	0x1231, r25
    5c0e:	a0 93 32 12 	sts	0x1232, r26
    5c12:	b0 93 33 12 	sts	0x1233, r27
	comando.param4 = p4;
    5c16:	a0 92 34 12 	sts	0x1234, r10
    5c1a:	b0 92 35 12 	sts	0x1235, r11
    5c1e:	c0 92 36 12 	sts	0x1236, r12
    5c22:	d0 92 37 12 	sts	0x1237, r13
	comando.param5 = p5;
    5c26:	60 92 38 12 	sts	0x1238, r6
    5c2a:	70 92 39 12 	sts	0x1239, r7
    5c2e:	80 92 3a 12 	sts	0x123A, r8
    5c32:	90 92 3b 12 	sts	0x123B, r9
	comando.param6 = p6;
    5c36:	20 92 3c 12 	sts	0x123C, r2
    5c3a:	30 92 3d 12 	sts	0x123D, r3
    5c3e:	40 92 3e 12 	sts	0x123E, r4
    5c42:	50 92 3f 12 	sts	0x123F, r5
	comando.param7 = p7;
    5c46:	8a a1       	ldd	r24, Y+34	; 0x22
    5c48:	9b a1       	ldd	r25, Y+35	; 0x23
    5c4a:	ac a1       	ldd	r26, Y+36	; 0x24
    5c4c:	bd a1       	ldd	r27, Y+37	; 0x25
    5c4e:	80 93 40 12 	sts	0x1240, r24
    5c52:	90 93 41 12 	sts	0x1241, r25
    5c56:	a0 93 42 12 	sts	0x1242, r26
    5c5a:	b0 93 43 12 	sts	0x1243, r27
	comando.param8 = p8;
    5c5e:	80 e0       	ldi	r24, 0x00	; 0
    5c60:	90 e0       	ldi	r25, 0x00	; 0
    5c62:	dc 01       	movw	r26, r24
    5c64:	e7 c0       	rjmp	.+462    	; 0x5e34 <fetchCommand+0x80a>
		cmdX(buffer[0], p1, p2, p3, p4, p5, p6, p7, 0.0f);
		return 1;
		
	}
	//8 Parmetros
	else if((buffer[0] == 'p')||(buffer[0] == 'q'))
    5c66:	80 91 fc 08 	lds	r24, 0x08FC
    5c6a:	80 37       	cpi	r24, 0x70	; 112
    5c6c:	29 f0       	breq	.+10     	; 0x5c78 <fetchCommand+0x64e>
    5c6e:	80 91 fc 08 	lds	r24, 0x08FC
    5c72:	81 37       	cpi	r24, 0x71	; 113
    5c74:	09 f0       	breq	.+2      	; 0x5c78 <fetchCommand+0x64e>
    5c76:	e9 c0       	rjmp	.+466    	; 0x5e4a <fetchCommand+0x820>
    5c78:	11 e0       	ldi	r17, 0x01	; 1
    5c7a:	01 c0       	rjmp	.+2      	; 0x5c7e <fetchCommand+0x654>
	{
		cc = 1;
		while(is_alpha(buffer[cc]))++cc;
    5c7c:	12 2f       	mov	r17, r18
    5c7e:	e1 2f       	mov	r30, r17
    5c80:	f0 e0       	ldi	r31, 0x00	; 0
    5c82:	e4 50       	subi	r30, 0x04	; 4
    5c84:	f7 4f       	sbci	r31, 0xF7	; 247
    5c86:	80 81       	ld	r24, Z
    5c88:	90 e0       	ldi	r25, 0x00	; 0
    5c8a:	0e 94 28 2a 	call	0x5450	; 0x5450 <is_alpha>
    5c8e:	21 2f       	mov	r18, r17
    5c90:	2f 5f       	subi	r18, 0xFF	; 255
    5c92:	00 97       	sbiw	r24, 0x00	; 0
    5c94:	99 f7       	brne	.-26     	; 0x5c7c <fetchCommand+0x652>
    5c96:	19 83       	std	Y+1, r17	; 0x01
		if(!fetchParam(&cc, &p1)) return 0;			// Obtengo primer parametro
    5c98:	7e 01       	movw	r14, r28
    5c9a:	08 94       	sec
    5c9c:	e1 1c       	adc	r14, r1
    5c9e:	f1 1c       	adc	r15, r1
    5ca0:	c7 01       	movw	r24, r14
    5ca2:	be 01       	movw	r22, r28
    5ca4:	6e 5f       	subi	r22, 0xFE	; 254
    5ca6:	7f 4f       	sbci	r23, 0xFF	; 255
    5ca8:	0e 94 aa 2a 	call	0x5554	; 0x5554 <fetchParam>
    5cac:	00 97       	sbiw	r24, 0x00	; 0
    5cae:	09 f4       	brne	.+2      	; 0x5cb2 <fetchCommand+0x688>
    5cb0:	cc c0       	rjmp	.+408    	; 0x5e4a <fetchCommand+0x820>
		if(!fetchParam(&cc, &p2)) return 0;			// Obtengo segundo parametro
    5cb2:	c7 01       	movw	r24, r14
    5cb4:	be 01       	movw	r22, r28
    5cb6:	6a 5f       	subi	r22, 0xFA	; 250
    5cb8:	7f 4f       	sbci	r23, 0xFF	; 255
    5cba:	0e 94 aa 2a 	call	0x5554	; 0x5554 <fetchParam>
    5cbe:	00 97       	sbiw	r24, 0x00	; 0
    5cc0:	09 f4       	brne	.+2      	; 0x5cc4 <fetchCommand+0x69a>
    5cc2:	c3 c0       	rjmp	.+390    	; 0x5e4a <fetchCommand+0x820>
		if(!fetchParam(&cc, &p3)) return 0;			// Obtengo tercer parametro
    5cc4:	c7 01       	movw	r24, r14
    5cc6:	be 01       	movw	r22, r28
    5cc8:	66 5f       	subi	r22, 0xF6	; 246
    5cca:	7f 4f       	sbci	r23, 0xFF	; 255
    5ccc:	0e 94 aa 2a 	call	0x5554	; 0x5554 <fetchParam>
    5cd0:	00 97       	sbiw	r24, 0x00	; 0
    5cd2:	09 f4       	brne	.+2      	; 0x5cd6 <fetchCommand+0x6ac>
    5cd4:	ba c0       	rjmp	.+372    	; 0x5e4a <fetchCommand+0x820>
		if(!fetchParam(&cc, &p4)) return 0;			// Obtengo cuarto parametro
    5cd6:	c7 01       	movw	r24, r14
    5cd8:	be 01       	movw	r22, r28
    5cda:	62 5f       	subi	r22, 0xF2	; 242
    5cdc:	7f 4f       	sbci	r23, 0xFF	; 255
    5cde:	0e 94 aa 2a 	call	0x5554	; 0x5554 <fetchParam>
    5ce2:	00 97       	sbiw	r24, 0x00	; 0
    5ce4:	09 f4       	brne	.+2      	; 0x5ce8 <fetchCommand+0x6be>
    5ce6:	b1 c0       	rjmp	.+354    	; 0x5e4a <fetchCommand+0x820>
		if(!fetchParam(&cc, &p5)) return 0;			// Obtengo quinto parametro
    5ce8:	c7 01       	movw	r24, r14
    5cea:	be 01       	movw	r22, r28
    5cec:	6e 5e       	subi	r22, 0xEE	; 238
    5cee:	7f 4f       	sbci	r23, 0xFF	; 255
    5cf0:	0e 94 aa 2a 	call	0x5554	; 0x5554 <fetchParam>
    5cf4:	00 97       	sbiw	r24, 0x00	; 0
    5cf6:	09 f4       	brne	.+2      	; 0x5cfa <fetchCommand+0x6d0>
    5cf8:	a8 c0       	rjmp	.+336    	; 0x5e4a <fetchCommand+0x820>
		if(!fetchParam(&cc, &p6)) return 0;			// Obtengo sexto parametro
    5cfa:	c7 01       	movw	r24, r14
    5cfc:	be 01       	movw	r22, r28
    5cfe:	6a 5e       	subi	r22, 0xEA	; 234
    5d00:	7f 4f       	sbci	r23, 0xFF	; 255
    5d02:	0e 94 aa 2a 	call	0x5554	; 0x5554 <fetchParam>
    5d06:	00 97       	sbiw	r24, 0x00	; 0
    5d08:	09 f4       	brne	.+2      	; 0x5d0c <fetchCommand+0x6e2>
    5d0a:	9f c0       	rjmp	.+318    	; 0x5e4a <fetchCommand+0x820>
		if(!fetchParam(&cc, &p7)) return 0;			// Obtengo sexto parametro
    5d0c:	c7 01       	movw	r24, r14
    5d0e:	be 01       	movw	r22, r28
    5d10:	66 5e       	subi	r22, 0xE6	; 230
    5d12:	7f 4f       	sbci	r23, 0xFF	; 255
    5d14:	0e 94 aa 2a 	call	0x5554	; 0x5554 <fetchParam>
    5d18:	00 97       	sbiw	r24, 0x00	; 0
    5d1a:	09 f4       	brne	.+2      	; 0x5d1e <fetchCommand+0x6f4>
    5d1c:	96 c0       	rjmp	.+300    	; 0x5e4a <fetchCommand+0x820>
		if(!fetchParam(&cc, &p8)) p8 = 0.0f;		// Obtengo sptimo parametro si existe
    5d1e:	c7 01       	movw	r24, r14
    5d20:	be 01       	movw	r22, r28
    5d22:	62 5e       	subi	r22, 0xE2	; 226
    5d24:	7f 4f       	sbci	r23, 0xFF	; 255
    5d26:	0e 94 aa 2a 	call	0x5554	; 0x5554 <fetchParam>
    5d2a:	00 97       	sbiw	r24, 0x00	; 0
    5d2c:	39 f4       	brne	.+14     	; 0x5d3c <fetchCommand+0x712>
    5d2e:	80 e0       	ldi	r24, 0x00	; 0
    5d30:	90 e0       	ldi	r25, 0x00	; 0
    5d32:	dc 01       	movw	r26, r24
    5d34:	8e 8f       	std	Y+30, r24	; 0x1e
    5d36:	9f 8f       	std	Y+31, r25	; 0x1f
    5d38:	a8 a3       	std	Y+32, r26	; 0x20
    5d3a:	b9 a3       	std	Y+33, r27	; 0x21
		if(buffer[cc] != 0) return 0;				// Se espera fin de cadena
    5d3c:	e9 81       	ldd	r30, Y+1	; 0x01
    5d3e:	f0 e0       	ldi	r31, 0x00	; 0
    5d40:	e4 50       	subi	r30, 0x04	; 4
    5d42:	f7 4f       	sbci	r31, 0xF7	; 247
    5d44:	80 81       	ld	r24, Z
    5d46:	88 23       	and	r24, r24
    5d48:	09 f0       	breq	.+2      	; 0x5d4c <fetchCommand+0x722>
    5d4a:	7f c0       	rjmp	.+254    	; 0x5e4a <fetchCommand+0x820>
		cmdX(buffer[0], p1, p2, p3, p4, p5, p6, p7,p8);
    5d4c:	60 91 fc 08 	lds	r22, 0x08FC
    5d50:	ea 80       	ldd	r14, Y+2	; 0x02
    5d52:	fb 80       	ldd	r15, Y+3	; 0x03
    5d54:	0c 81       	ldd	r16, Y+4	; 0x04
    5d56:	1d 81       	ldd	r17, Y+5	; 0x05
    5d58:	2e 81       	ldd	r18, Y+6	; 0x06
    5d5a:	3f 81       	ldd	r19, Y+7	; 0x07
    5d5c:	48 85       	ldd	r20, Y+8	; 0x08
    5d5e:	59 85       	ldd	r21, Y+9	; 0x09
    5d60:	8a 85       	ldd	r24, Y+10	; 0x0a
    5d62:	9b 85       	ldd	r25, Y+11	; 0x0b
    5d64:	ac 85       	ldd	r26, Y+12	; 0x0c
    5d66:	bd 85       	ldd	r27, Y+13	; 0x0d
    5d68:	8a a7       	std	Y+42, r24	; 0x2a
    5d6a:	9b a7       	std	Y+43, r25	; 0x2b
    5d6c:	ac a7       	std	Y+44, r26	; 0x2c
    5d6e:	bd a7       	std	Y+45, r27	; 0x2d
    5d70:	ae 84       	ldd	r10, Y+14	; 0x0e
    5d72:	bf 84       	ldd	r11, Y+15	; 0x0f
    5d74:	c8 88       	ldd	r12, Y+16	; 0x10
    5d76:	d9 88       	ldd	r13, Y+17	; 0x11
    5d78:	6a 88       	ldd	r6, Y+18	; 0x12
    5d7a:	7b 88       	ldd	r7, Y+19	; 0x13
    5d7c:	8c 88       	ldd	r8, Y+20	; 0x14
    5d7e:	9d 88       	ldd	r9, Y+21	; 0x15
    5d80:	2e 88       	ldd	r2, Y+22	; 0x16
    5d82:	3f 88       	ldd	r3, Y+23	; 0x17
    5d84:	48 8c       	ldd	r4, Y+24	; 0x18
    5d86:	59 8c       	ldd	r5, Y+25	; 0x19
    5d88:	8a 8d       	ldd	r24, Y+26	; 0x1a
    5d8a:	9b 8d       	ldd	r25, Y+27	; 0x1b
    5d8c:	ac 8d       	ldd	r26, Y+28	; 0x1c
    5d8e:	bd 8d       	ldd	r27, Y+29	; 0x1d
    5d90:	8a a3       	std	Y+34, r24	; 0x22
    5d92:	9b a3       	std	Y+35, r25	; 0x23
    5d94:	ac a3       	std	Y+36, r26	; 0x24
    5d96:	bd a3       	std	Y+37, r27	; 0x25
    5d98:	8e 8d       	ldd	r24, Y+30	; 0x1e
    5d9a:	9f 8d       	ldd	r25, Y+31	; 0x1f
    5d9c:	a8 a1       	ldd	r26, Y+32	; 0x20
    5d9e:	b9 a1       	ldd	r27, Y+33	; 0x21
    5da0:	8e a3       	std	Y+38, r24	; 0x26
    5da2:	9f a3       	std	Y+39, r25	; 0x27
    5da4:	a8 a7       	std	Y+40, r26	; 0x28
    5da6:	b9 a7       	std	Y+41, r27	; 0x29
	return 0;
}

void cmdX(char cmd, float p1, float p2, float p3, float p4, float p5, float p6, float p7, float p8)
{
	comando.cmd = cmd;
    5da8:	60 93 27 12 	sts	0x1227, r22
	comando.param1 = p1;
    5dac:	e0 92 28 12 	sts	0x1228, r14
    5db0:	f0 92 29 12 	sts	0x1229, r15
    5db4:	00 93 2a 12 	sts	0x122A, r16
    5db8:	10 93 2b 12 	sts	0x122B, r17
	comando.param2 = p2;
    5dbc:	20 93 2c 12 	sts	0x122C, r18
    5dc0:	30 93 2d 12 	sts	0x122D, r19
    5dc4:	40 93 2e 12 	sts	0x122E, r20
    5dc8:	50 93 2f 12 	sts	0x122F, r21
	comando.param3 = p3;
    5dcc:	8a a5       	ldd	r24, Y+42	; 0x2a
    5dce:	9b a5       	ldd	r25, Y+43	; 0x2b
    5dd0:	ac a5       	ldd	r26, Y+44	; 0x2c
    5dd2:	bd a5       	ldd	r27, Y+45	; 0x2d
    5dd4:	80 93 30 12 	sts	0x1230, r24
    5dd8:	90 93 31 12 	sts	0x1231, r25
    5ddc:	a0 93 32 12 	sts	0x1232, r26
    5de0:	b0 93 33 12 	sts	0x1233, r27
	comando.param4 = p4;
    5de4:	a0 92 34 12 	sts	0x1234, r10
    5de8:	b0 92 35 12 	sts	0x1235, r11
    5dec:	c0 92 36 12 	sts	0x1236, r12
    5df0:	d0 92 37 12 	sts	0x1237, r13
	comando.param5 = p5;
    5df4:	60 92 38 12 	sts	0x1238, r6
    5df8:	70 92 39 12 	sts	0x1239, r7
    5dfc:	80 92 3a 12 	sts	0x123A, r8
    5e00:	90 92 3b 12 	sts	0x123B, r9
	comando.param6 = p6;
    5e04:	20 92 3c 12 	sts	0x123C, r2
    5e08:	30 92 3d 12 	sts	0x123D, r3
    5e0c:	40 92 3e 12 	sts	0x123E, r4
    5e10:	50 92 3f 12 	sts	0x123F, r5
	comando.param7 = p7;
    5e14:	8a a1       	ldd	r24, Y+34	; 0x22
    5e16:	9b a1       	ldd	r25, Y+35	; 0x23
    5e18:	ac a1       	ldd	r26, Y+36	; 0x24
    5e1a:	bd a1       	ldd	r27, Y+37	; 0x25
    5e1c:	80 93 40 12 	sts	0x1240, r24
    5e20:	90 93 41 12 	sts	0x1241, r25
    5e24:	a0 93 42 12 	sts	0x1242, r26
    5e28:	b0 93 43 12 	sts	0x1243, r27
	comando.param8 = p8;
    5e2c:	8e a1       	ldd	r24, Y+38	; 0x26
    5e2e:	9f a1       	ldd	r25, Y+39	; 0x27
    5e30:	a8 a5       	ldd	r26, Y+40	; 0x28
    5e32:	b9 a5       	ldd	r27, Y+41	; 0x29
    5e34:	80 93 44 12 	sts	0x1244, r24
    5e38:	90 93 45 12 	sts	0x1245, r25
    5e3c:	a0 93 46 12 	sts	0x1246, r26
    5e40:	b0 93 47 12 	sts	0x1247, r27
		if(!fetchParam(&cc, &p6)) return 0;			// Obtengo sexto parametro
		if(!fetchParam(&cc, &p7)) return 0;			// Obtengo sexto parametro
		if(!fetchParam(&cc, &p8)) p8 = 0.0f;		// Obtengo sptimo parametro si existe
		if(buffer[cc] != 0) return 0;				// Se espera fin de cadena
		cmdX(buffer[0], p1, p2, p3, p4, p5, p6, p7,p8);
		return 1;
    5e44:	21 e0       	ldi	r18, 0x01	; 1
    5e46:	30 e0       	ldi	r19, 0x00	; 0
    5e48:	02 c0       	rjmp	.+4      	; 0x5e4e <fetchCommand+0x824>
		if(!fetchParam(&cc, &p4)) return 0;			// Obtengo cuarto parametro
		if(!fetchParam(&cc, &p5)) return 0;			// Obtengo quinto parametro
		if(!fetchParam(&cc, &p6)) return 0;			// Obtengo sexto parametro
		if(!fetchParam(&cc, &p7)) return 0;			// Obtengo sexto parametro
		if(!fetchParam(&cc, &p8)) p8 = 0.0f;		// Obtengo sptimo parametro si existe
		if(buffer[cc] != 0) return 0;				// Se espera fin de cadena
    5e4a:	20 e0       	ldi	r18, 0x00	; 0
    5e4c:	30 e0       	ldi	r19, 0x00	; 0
		cmdX(buffer[0], p1, p2, p3, p4, p5, p6, p7,p8);
		return 1;
		
	}
	return 0;
}
    5e4e:	c9 01       	movw	r24, r18
    5e50:	ad 96       	adiw	r28, 0x2d	; 45
    5e52:	0f b6       	in	r0, 0x3f	; 63
    5e54:	f8 94       	cli
    5e56:	de bf       	out	0x3e, r29	; 62
    5e58:	0f be       	out	0x3f, r0	; 63
    5e5a:	cd bf       	out	0x3d, r28	; 61
    5e5c:	cf 91       	pop	r28
    5e5e:	df 91       	pop	r29
    5e60:	1f 91       	pop	r17
    5e62:	0f 91       	pop	r16
    5e64:	ff 90       	pop	r15
    5e66:	ef 90       	pop	r14
    5e68:	df 90       	pop	r13
    5e6a:	cf 90       	pop	r12
    5e6c:	bf 90       	pop	r11
    5e6e:	af 90       	pop	r10
    5e70:	9f 90       	pop	r9
    5e72:	8f 90       	pop	r8
    5e74:	7f 90       	pop	r7
    5e76:	6f 90       	pop	r6
    5e78:	5f 90       	pop	r5
    5e7a:	4f 90       	pop	r4
    5e7c:	3f 90       	pop	r3
    5e7e:	2f 90       	pop	r2
    5e80:	08 95       	ret

00005e82 <execCommand>:
	printf("NOT ATTENDING THIS WARNING MAY RESULT IN ROBOT DAMAGE OR MALFUNCTION\r\n");
	printf("THERE IS NO WARRANTY IN ELECTRICAL PARTS\n\n");
}

int execCommand()
{ 	
    5e82:	2f 92       	push	r2
    5e84:	3f 92       	push	r3
    5e86:	4f 92       	push	r4
    5e88:	5f 92       	push	r5
    5e8a:	6f 92       	push	r6
    5e8c:	7f 92       	push	r7
    5e8e:	8f 92       	push	r8
    5e90:	9f 92       	push	r9
    5e92:	af 92       	push	r10
    5e94:	bf 92       	push	r11
    5e96:	cf 92       	push	r12
    5e98:	df 92       	push	r13
    5e9a:	ef 92       	push	r14
    5e9c:	ff 92       	push	r15
    5e9e:	0f 93       	push	r16
    5ea0:	1f 93       	push	r17
    5ea2:	df 93       	push	r29
    5ea4:	cf 93       	push	r28
    5ea6:	cd b7       	in	r28, 0x3d	; 61
    5ea8:	de b7       	in	r29, 0x3e	; 62
    5eaa:	2c 97       	sbiw	r28, 0x0c	; 12
    5eac:	0f b6       	in	r0, 0x3f	; 63
    5eae:	f8 94       	cli
    5eb0:	de bf       	out	0x3e, r29	; 62
    5eb2:	0f be       	out	0x3f, r0	; 63
    5eb4:	cd bf       	out	0x3d, r28	; 61

	float test=0;
	int succes;
	succes = 0;
	//float f1, f2, f3;
	if(!cmdReady) return 0;
    5eb6:	80 91 7e 09 	lds	r24, 0x097E
    5eba:	90 91 7f 09 	lds	r25, 0x097F
    5ebe:	00 97       	sbiw	r24, 0x00	; 0
    5ec0:	09 f4       	brne	.+2      	; 0x5ec4 <execCommand+0x42>
    5ec2:	e6 c3       	rjmp	.+1996   	; 0x6690 <execCommand+0x80e>
	cmdReady = 0;
    5ec4:	10 92 7f 09 	sts	0x097F, r1
    5ec8:	10 92 7e 09 	sts	0x097E, r1
	
	if(!fetchCommand()) return 0;
    5ecc:	0e 94 15 2b 	call	0x562a	; 0x562a <fetchCommand>
    5ed0:	00 97       	sbiw	r24, 0x00	; 0
    5ed2:	09 f4       	brne	.+2      	; 0x5ed6 <execCommand+0x54>
    5ed4:	dd c3       	rjmp	.+1978   	; 0x6690 <execCommand+0x80e>

	//printf("\n Comando: %s  , cmdReady:%i",buffer,cmdReady);
	
	switch(comando.cmd)
    5ed6:	80 91 27 12 	lds	r24, 0x1227
    5eda:	90 e0       	ldi	r25, 0x00	; 0
    5edc:	83 54       	subi	r24, 0x43	; 67
    5ede:	90 40       	sbci	r25, 0x00	; 0
    5ee0:	88 33       	cpi	r24, 0x38	; 56
    5ee2:	91 05       	cpc	r25, r1
    5ee4:	08 f0       	brcs	.+2      	; 0x5ee8 <execCommand+0x66>
    5ee6:	d4 c3       	rjmp	.+1960   	; 0x6690 <execCommand+0x80e>
    5ee8:	8a 59       	subi	r24, 0x9A	; 154
    5eea:	9f 4f       	sbci	r25, 0xFF	; 255
    5eec:	fc 01       	movw	r30, r24
    5eee:	ee 0f       	add	r30, r30
    5ef0:	ff 1f       	adc	r31, r31
    5ef2:	05 90       	lpm	r0, Z+
    5ef4:	f4 91       	lpm	r31, Z+
    5ef6:	e0 2d       	mov	r30, r0
    5ef8:	19 94       	eijmp
	{
		case 'C':	// Control Reading ON/OFF
			
			object = ObjectInHand();
    5efa:	0e 94 b9 0d 	call	0x1b72	; 0x1b72 <ObjectInHand>
    5efe:	90 93 e7 08 	sts	0x08E7, r25
    5f02:	80 93 e6 08 	sts	0x08E6, r24
			printf("C %d\r",object);
    5f06:	00 d0       	rcall	.+0      	; 0x5f08 <execCommand+0x86>
    5f08:	0f 92       	push	r0
    5f0a:	20 e0       	ldi	r18, 0x00	; 0
    5f0c:	38 e0       	ldi	r19, 0x08	; 8
    5f0e:	ad b7       	in	r26, 0x3d	; 61
    5f10:	be b7       	in	r27, 0x3e	; 62
    5f12:	12 96       	adiw	r26, 0x02	; 2
    5f14:	3c 93       	st	X, r19
    5f16:	2e 93       	st	-X, r18
    5f18:	11 97       	sbiw	r26, 0x01	; 1
    5f1a:	14 96       	adiw	r26, 0x04	; 4
    5f1c:	9c 93       	st	X, r25
    5f1e:	8e 93       	st	-X, r24
    5f20:	13 97       	sbiw	r26, 0x03	; 3
    5f22:	31 c1       	rjmp	.+610    	; 0x6186 <execCommand+0x304>
			//	printf("C 0\r");
			//	//PORTC |= 0b0010000;
			//}
			break;
		case 'c':	//  Open gripper
			gripperCounter = 0;
    5f24:	10 92 fb 08 	sts	0x08FB, r1
    5f28:	10 92 fa 08 	sts	0x08FA, r1
			CloseGripper(comando.param1);
    5f2c:	60 91 28 12 	lds	r22, 0x1228
    5f30:	70 91 29 12 	lds	r23, 0x1229
    5f34:	80 91 2a 12 	lds	r24, 0x122A
    5f38:	90 91 2b 12 	lds	r25, 0x122B
    5f3c:	0e 94 5a 0d 	call	0x1ab4	; 0x1ab4 <CloseGripper>
    5f40:	aa c3       	rjmp	.+1876   	; 0x6696 <execCommand+0x814>
			servoPos[3] = comando.param4;
			servoPos[4] = comando.param5;
			servoPos[5] = comando.param6;
			servoPos[6] = comando.param7;
			ArmPosition(servoPos);*/
			printf("Id %f = %d \r",comando.param1,(int)comando.param2);
    5f42:	ed b7       	in	r30, 0x3d	; 61
    5f44:	fe b7       	in	r31, 0x3e	; 62
    5f46:	38 97       	sbiw	r30, 0x08	; 8
    5f48:	0f b6       	in	r0, 0x3f	; 63
    5f4a:	f8 94       	cli
    5f4c:	fe bf       	out	0x3e, r31	; 62
    5f4e:	0f be       	out	0x3f, r0	; 63
    5f50:	ed bf       	out	0x3d, r30	; 61
    5f52:	ed b6       	in	r14, 0x3d	; 61
    5f54:	fe b6       	in	r15, 0x3e	; 62
    5f56:	08 94       	sec
    5f58:	e1 1c       	adc	r14, r1
    5f5a:	f1 1c       	adc	r15, r1
    5f5c:	86 e0       	ldi	r24, 0x06	; 6
    5f5e:	98 e0       	ldi	r25, 0x08	; 8
    5f60:	92 83       	std	Z+2, r25	; 0x02
    5f62:	81 83       	std	Z+1, r24	; 0x01
    5f64:	80 91 28 12 	lds	r24, 0x1228
    5f68:	90 91 29 12 	lds	r25, 0x1229
    5f6c:	a0 91 2a 12 	lds	r26, 0x122A
    5f70:	b0 91 2b 12 	lds	r27, 0x122B
    5f74:	f7 01       	movw	r30, r14
    5f76:	82 83       	std	Z+2, r24	; 0x02
    5f78:	93 83       	std	Z+3, r25	; 0x03
    5f7a:	a4 83       	std	Z+4, r26	; 0x04
    5f7c:	b5 83       	std	Z+5, r27	; 0x05
    5f7e:	60 91 2c 12 	lds	r22, 0x122C
    5f82:	70 91 2d 12 	lds	r23, 0x122D
    5f86:	80 91 2e 12 	lds	r24, 0x122E
    5f8a:	90 91 2f 12 	lds	r25, 0x122F
    5f8e:	0e 94 e7 3d 	call	0x7bce	; 0x7bce <__fixsfsi>
    5f92:	d7 01       	movw	r26, r14
    5f94:	17 96       	adiw	r26, 0x07	; 7
    5f96:	7c 93       	st	X, r23
    5f98:	6e 93       	st	-X, r22
    5f9a:	16 97       	sbiw	r26, 0x06	; 6
    5f9c:	0e 94 63 44 	call	0x88c6	; 0x88c6 <printf>
			dxl_write_word( comando.param1, SERVO_GOAL_POSITION_L, (int)comando.param2);
    5fa0:	ed b7       	in	r30, 0x3d	; 61
    5fa2:	fe b7       	in	r31, 0x3e	; 62
    5fa4:	38 96       	adiw	r30, 0x08	; 8
    5fa6:	0f b6       	in	r0, 0x3f	; 63
    5fa8:	f8 94       	cli
    5faa:	fe bf       	out	0x3e, r31	; 62
    5fac:	0f be       	out	0x3f, r0	; 63
    5fae:	ed bf       	out	0x3d, r30	; 61
    5fb0:	60 91 28 12 	lds	r22, 0x1228
    5fb4:	70 91 29 12 	lds	r23, 0x1229
    5fb8:	80 91 2a 12 	lds	r24, 0x122A
    5fbc:	90 91 2b 12 	lds	r25, 0x122B
    5fc0:	0e 94 e7 3d 	call	0x7bce	; 0x7bce <__fixsfsi>
    5fc4:	7b 01       	movw	r14, r22
    5fc6:	8c 01       	movw	r16, r24
    5fc8:	60 91 2c 12 	lds	r22, 0x122C
    5fcc:	70 91 2d 12 	lds	r23, 0x122D
    5fd0:	80 91 2e 12 	lds	r24, 0x122E
    5fd4:	90 91 2f 12 	lds	r25, 0x122F
    5fd8:	0e 94 e7 3d 	call	0x7bce	; 0x7bce <__fixsfsi>
    5fdc:	9b 01       	movw	r18, r22
    5fde:	ac 01       	movw	r20, r24
    5fe0:	c7 01       	movw	r24, r14
    5fe2:	6e e1       	ldi	r22, 0x1E	; 30
    5fe4:	70 e0       	ldi	r23, 0x00	; 0
    5fe6:	a9 01       	movw	r20, r18
    5fe8:	0e 94 4d 36 	call	0x6c9a	; 0x6c9a <dxl_write_word>
    5fec:	54 c3       	rjmp	.+1704   	; 0x6696 <execCommand+0x814>
		case 'f':	// Set Arm Torque 
			//servoPos[0] = comando.param1;
			//servoPos[1] = comando.param2;
			//servoPos[2] = comando.param3;
			//ArmTorque(servoPos);
			SetTorque2(comando.param1,comando.param2);
    5fee:	60 91 28 12 	lds	r22, 0x1228
    5ff2:	70 91 29 12 	lds	r23, 0x1229
    5ff6:	80 91 2a 12 	lds	r24, 0x122A
    5ffa:	90 91 2b 12 	lds	r25, 0x122B
    5ffe:	0e 94 e7 3d 	call	0x7bce	; 0x7bce <__fixsfsi>
    6002:	dc 01       	movw	r26, r24
    6004:	cb 01       	movw	r24, r22
    6006:	40 91 2c 12 	lds	r20, 0x122C
    600a:	50 91 2d 12 	lds	r21, 0x122D
    600e:	60 91 2e 12 	lds	r22, 0x122E
    6012:	70 91 2f 12 	lds	r23, 0x122F
    6016:	0e 94 7f 05 	call	0xafe	; 0xafe <SetTorque2>
    601a:	3d c3       	rjmp	.+1658   	; 0x6696 <execCommand+0x814>

			
		
		case 'g':	
			//Gets the arm position in cartesian coordinates
			if(doReading == 1 && doLoop ==1)
    601c:	80 91 d5 08 	lds	r24, 0x08D5
    6020:	90 91 d6 08 	lds	r25, 0x08D6
    6024:	81 30       	cpi	r24, 0x01	; 1
    6026:	91 05       	cpc	r25, r1
    6028:	09 f0       	breq	.+2      	; 0x602c <execCommand+0x1aa>
    602a:	78 c0       	rjmp	.+240    	; 0x611c <execCommand+0x29a>
    602c:	80 91 d3 08 	lds	r24, 0x08D3
    6030:	90 91 d4 08 	lds	r25, 0x08D4
    6034:	81 30       	cpi	r24, 0x01	; 1
    6036:	91 05       	cpc	r25, r1
    6038:	09 f0       	breq	.+2      	; 0x603c <execCommand+0x1ba>
    603a:	70 c0       	rjmp	.+224    	; 0x611c <execCommand+0x29a>
			{
				updateQPosition();
    603c:	0e 94 a5 0c 	call	0x194a	; 0x194a <updateQPosition>
				printf("g 1 %f %f %f %f %f %f %f \r",currentQPosition[0],currentQPosition[1],currentQPosition[2],currentQPosition[3],currentQPosition[4],currentQPosition[5],currentQPosition[6]);
    6040:	2d b7       	in	r18, 0x3d	; 61
    6042:	3e b7       	in	r19, 0x3e	; 62
    6044:	2e 51       	subi	r18, 0x1E	; 30
    6046:	30 40       	sbci	r19, 0x00	; 0
    6048:	0f b6       	in	r0, 0x3f	; 63
    604a:	f8 94       	cli
    604c:	3e bf       	out	0x3e, r19	; 62
    604e:	0f be       	out	0x3f, r0	; 63
    6050:	2d bf       	out	0x3d, r18	; 61
    6052:	ed b7       	in	r30, 0x3d	; 61
    6054:	fe b7       	in	r31, 0x3e	; 62
    6056:	31 96       	adiw	r30, 0x01	; 1
    6058:	83 e1       	ldi	r24, 0x13	; 19
    605a:	98 e0       	ldi	r25, 0x08	; 8
    605c:	ad b7       	in	r26, 0x3d	; 61
    605e:	be b7       	in	r27, 0x3e	; 62
    6060:	12 96       	adiw	r26, 0x02	; 2
    6062:	9c 93       	st	X, r25
    6064:	8e 93       	st	-X, r24
    6066:	11 97       	sbiw	r26, 0x01	; 1
    6068:	80 91 e9 11 	lds	r24, 0x11E9
    606c:	90 91 ea 11 	lds	r25, 0x11EA
    6070:	a0 91 eb 11 	lds	r26, 0x11EB
    6074:	b0 91 ec 11 	lds	r27, 0x11EC
    6078:	82 83       	std	Z+2, r24	; 0x02
    607a:	93 83       	std	Z+3, r25	; 0x03
    607c:	a4 83       	std	Z+4, r26	; 0x04
    607e:	b5 83       	std	Z+5, r27	; 0x05
    6080:	80 91 ed 11 	lds	r24, 0x11ED
    6084:	90 91 ee 11 	lds	r25, 0x11EE
    6088:	a0 91 ef 11 	lds	r26, 0x11EF
    608c:	b0 91 f0 11 	lds	r27, 0x11F0
    6090:	86 83       	std	Z+6, r24	; 0x06
    6092:	97 83       	std	Z+7, r25	; 0x07
    6094:	a0 87       	std	Z+8, r26	; 0x08
    6096:	b1 87       	std	Z+9, r27	; 0x09
    6098:	80 91 f1 11 	lds	r24, 0x11F1
    609c:	90 91 f2 11 	lds	r25, 0x11F2
    60a0:	a0 91 f3 11 	lds	r26, 0x11F3
    60a4:	b0 91 f4 11 	lds	r27, 0x11F4
    60a8:	82 87       	std	Z+10, r24	; 0x0a
    60aa:	93 87       	std	Z+11, r25	; 0x0b
    60ac:	a4 87       	std	Z+12, r26	; 0x0c
    60ae:	b5 87       	std	Z+13, r27	; 0x0d
    60b0:	80 91 f5 11 	lds	r24, 0x11F5
    60b4:	90 91 f6 11 	lds	r25, 0x11F6
    60b8:	a0 91 f7 11 	lds	r26, 0x11F7
    60bc:	b0 91 f8 11 	lds	r27, 0x11F8
    60c0:	86 87       	std	Z+14, r24	; 0x0e
    60c2:	97 87       	std	Z+15, r25	; 0x0f
    60c4:	a0 8b       	std	Z+16, r26	; 0x10
    60c6:	b1 8b       	std	Z+17, r27	; 0x11
    60c8:	80 91 f9 11 	lds	r24, 0x11F9
    60cc:	90 91 fa 11 	lds	r25, 0x11FA
    60d0:	a0 91 fb 11 	lds	r26, 0x11FB
    60d4:	b0 91 fc 11 	lds	r27, 0x11FC
    60d8:	82 8b       	std	Z+18, r24	; 0x12
    60da:	93 8b       	std	Z+19, r25	; 0x13
    60dc:	a4 8b       	std	Z+20, r26	; 0x14
    60de:	b5 8b       	std	Z+21, r27	; 0x15
    60e0:	80 91 fd 11 	lds	r24, 0x11FD
    60e4:	90 91 fe 11 	lds	r25, 0x11FE
    60e8:	a0 91 ff 11 	lds	r26, 0x11FF
    60ec:	b0 91 00 12 	lds	r27, 0x1200
    60f0:	86 8b       	std	Z+22, r24	; 0x16
    60f2:	97 8b       	std	Z+23, r25	; 0x17
    60f4:	a0 8f       	std	Z+24, r26	; 0x18
    60f6:	b1 8f       	std	Z+25, r27	; 0x19
    60f8:	80 91 01 12 	lds	r24, 0x1201
    60fc:	90 91 02 12 	lds	r25, 0x1202
    6100:	a0 91 03 12 	lds	r26, 0x1203
    6104:	b0 91 04 12 	lds	r27, 0x1204
    6108:	82 8f       	std	Z+26, r24	; 0x1a
    610a:	93 8f       	std	Z+27, r25	; 0x1b
    610c:	a4 8f       	std	Z+28, r26	; 0x1c
    610e:	b5 8f       	std	Z+29, r27	; 0x1d
    6110:	0e 94 63 44 	call	0x88c6	; 0x88c6 <printf>
    6114:	ed b7       	in	r30, 0x3d	; 61
    6116:	fe b7       	in	r31, 0x3e	; 62
    6118:	7e 96       	adiw	r30, 0x1e	; 30
    611a:	aa c0       	rjmp	.+340    	; 0x6270 <execCommand+0x3ee>
			}else
			{
				printf("g 0\r");
    611c:	0f 92       	push	r0
    611e:	0f 92       	push	r0
    6120:	8e e2       	ldi	r24, 0x2E	; 46
    6122:	98 e0       	ldi	r25, 0x08	; 8
    6124:	aa c2       	rjmp	.+1364   	; 0x667a <execCommand+0x7f8>
			}
			break;
			
		case 'G':	// 
			if(comando.param1 ==1)
    6126:	e0 90 28 12 	lds	r14, 0x1228
    612a:	f0 90 29 12 	lds	r15, 0x1229
    612e:	00 91 2a 12 	lds	r16, 0x122A
    6132:	10 91 2b 12 	lds	r17, 0x122B
    6136:	c8 01       	movw	r24, r16
    6138:	b7 01       	movw	r22, r14
    613a:	20 e0       	ldi	r18, 0x00	; 0
    613c:	30 e0       	ldi	r19, 0x00	; 0
    613e:	40 e8       	ldi	r20, 0x80	; 128
    6140:	5f e3       	ldi	r21, 0x3F	; 63
    6142:	0e 94 78 3d 	call	0x7af0	; 0x7af0 <__cmpsf2>
    6146:	88 23       	and	r24, r24
    6148:	39 f4       	brne	.+14     	; 0x6158 <execCommand+0x2d6>
			{
				printPosLoop = comando.param1;
    614a:	81 e0       	ldi	r24, 0x01	; 1
    614c:	90 e0       	ldi	r25, 0x00	; 0
    614e:	90 93 eb 08 	sts	0x08EB, r25
    6152:	80 93 ea 08 	sts	0x08EA, r24
    6156:	9f c2       	rjmp	.+1342   	; 0x6696 <execCommand+0x814>
			}
			else
			{
				printPosLoop = comando.param1;
    6158:	c8 01       	movw	r24, r16
    615a:	b7 01       	movw	r22, r14
    615c:	0e 94 e7 3d 	call	0x7bce	; 0x7bce <__fixsfsi>
    6160:	70 93 eb 08 	sts	0x08EB, r23
    6164:	60 93 ea 08 	sts	0x08EA, r22
				printf("G %d\r",printPosLoop);
    6168:	00 d0       	rcall	.+0      	; 0x616a <execCommand+0x2e8>
    616a:	0f 92       	push	r0
    616c:	ed b7       	in	r30, 0x3d	; 61
    616e:	fe b7       	in	r31, 0x3e	; 62
    6170:	31 96       	adiw	r30, 0x01	; 1
    6172:	23 e3       	ldi	r18, 0x33	; 51
    6174:	38 e0       	ldi	r19, 0x08	; 8
    6176:	ad b7       	in	r26, 0x3d	; 61
    6178:	be b7       	in	r27, 0x3e	; 62
    617a:	12 96       	adiw	r26, 0x02	; 2
    617c:	3c 93       	st	X, r19
    617e:	2e 93       	st	-X, r18
    6180:	11 97       	sbiw	r26, 0x01	; 1
    6182:	73 83       	std	Z+3, r23	; 0x03
    6184:	62 83       	std	Z+2, r22	; 0x02
    6186:	0e 94 63 44 	call	0x88c6	; 0x88c6 <printf>
    618a:	0f 90       	pop	r0
    618c:	0f 90       	pop	r0
    618e:	0f 90       	pop	r0
    6190:	0f 90       	pop	r0
    6192:	81 c2       	rjmp	.+1282   	; 0x6696 <execCommand+0x814>
			}
			break;
			
		case 'h':	//Shows help;
			showHelp();
    6194:	0e 94 e3 29 	call	0x53c6	; 0x53c6 <showHelp>
    6198:	7e c2       	rjmp	.+1276   	; 0x6696 <execCommand+0x814>
			//doControl = 0;
			break;
			
		case 'I':	// Sets Desired Position of Control Loop
			if(comando.param1==1)
    619a:	60 91 28 12 	lds	r22, 0x1228
    619e:	70 91 29 12 	lds	r23, 0x1229
    61a2:	80 91 2a 12 	lds	r24, 0x122A
    61a6:	90 91 2b 12 	lds	r25, 0x122B
    61aa:	20 e0       	ldi	r18, 0x00	; 0
    61ac:	30 e0       	ldi	r19, 0x00	; 0
    61ae:	40 e8       	ldi	r20, 0x80	; 128
    61b0:	5f e3       	ldi	r21, 0x3F	; 63
    61b2:	0e 94 78 3d 	call	0x7af0	; 0x7af0 <__cmpsf2>
    61b6:	88 23       	and	r24, r24
    61b8:	59 f4       	brne	.+22     	; 0x61d0 <execCommand+0x34e>
			{
				printStatus = 1;
    61ba:	81 e0       	ldi	r24, 0x01	; 1
    61bc:	90 e0       	ldi	r25, 0x00	; 0
    61be:	90 93 e5 08 	sts	0x08E5, r25
    61c2:	80 93 e4 08 	sts	0x08E4, r24
				printf("I 1\r");
    61c6:	0f 92       	push	r0
    61c8:	0f 92       	push	r0
    61ca:	89 e3       	ldi	r24, 0x39	; 57
    61cc:	98 e0       	ldi	r25, 0x08	; 8
    61ce:	4c c2       	rjmp	.+1176   	; 0x6668 <execCommand+0x7e6>
			}else{
				printStatus = 0;
    61d0:	10 92 e5 08 	sts	0x08E5, r1
    61d4:	10 92 e4 08 	sts	0x08E4, r1
				printf("I 0\r");
    61d8:	0f 92       	push	r0
    61da:	0f 92       	push	r0
    61dc:	8e e3       	ldi	r24, 0x3E	; 62
    61de:	98 e0       	ldi	r25, 0x08	; 8
    61e0:	4c c2       	rjmp	.+1176   	; 0x667a <execCommand+0x7f8>
			}
			break;
			
		case 'i':	// Sets Desired Position of Control Loop
			ArmPing();
    61e2:	0e 94 f7 0a 	call	0x15ee	; 0x15ee <ArmPing>
    61e6:	57 c2       	rjmp	.+1198   	; 0x6696 <execCommand+0x814>
			
		case 'k':	// Sets Desired Position of Control Loop
			//ForwardKinematics();
			//CalculateHT();
			//TestMult();
			test = dxl_read_word( (int)comando.param1, SERVO_PRESENT_POSITION_L );
    61e8:	60 91 28 12 	lds	r22, 0x1228
    61ec:	70 91 29 12 	lds	r23, 0x1229
    61f0:	80 91 2a 12 	lds	r24, 0x122A
    61f4:	90 91 2b 12 	lds	r25, 0x122B
    61f8:	0e 94 e7 3d 	call	0x7bce	; 0x7bce <__fixsfsi>
    61fc:	dc 01       	movw	r26, r24
    61fe:	cb 01       	movw	r24, r22
    6200:	64 e2       	ldi	r22, 0x24	; 36
    6202:	70 e0       	ldi	r23, 0x00	; 0
    6204:	0e 94 68 36 	call	0x6cd0	; 0x6cd0 <dxl_read_word>
			printf("pos %f = %f \r",comando.param1,test);
    6208:	ed b7       	in	r30, 0x3d	; 61
    620a:	fe b7       	in	r31, 0x3e	; 62
    620c:	3a 97       	sbiw	r30, 0x0a	; 10
    620e:	0f b6       	in	r0, 0x3f	; 63
    6210:	f8 94       	cli
    6212:	fe bf       	out	0x3e, r31	; 62
    6214:	0f be       	out	0x3f, r0	; 63
    6216:	ed bf       	out	0x3d, r30	; 61
    6218:	ed b6       	in	r14, 0x3d	; 61
    621a:	fe b6       	in	r15, 0x3e	; 62
    621c:	08 94       	sec
    621e:	e1 1c       	adc	r14, r1
    6220:	f1 1c       	adc	r15, r1
    6222:	23 e4       	ldi	r18, 0x43	; 67
    6224:	38 e0       	ldi	r19, 0x08	; 8
    6226:	32 83       	std	Z+2, r19	; 0x02
    6228:	21 83       	std	Z+1, r18	; 0x01
    622a:	20 91 28 12 	lds	r18, 0x1228
    622e:	30 91 29 12 	lds	r19, 0x1229
    6232:	40 91 2a 12 	lds	r20, 0x122A
    6236:	50 91 2b 12 	lds	r21, 0x122B
    623a:	d7 01       	movw	r26, r14
    623c:	12 96       	adiw	r26, 0x02	; 2
    623e:	2d 93       	st	X+, r18
    6240:	3d 93       	st	X+, r19
    6242:	4d 93       	st	X+, r20
    6244:	5c 93       	st	X, r21
    6246:	15 97       	sbiw	r26, 0x05	; 5
			
		case 'k':	// Sets Desired Position of Control Loop
			//ForwardKinematics();
			//CalculateHT();
			//TestMult();
			test = dxl_read_word( (int)comando.param1, SERVO_PRESENT_POSITION_L );
    6248:	fc 01       	movw	r30, r24
    624a:	bf 01       	movw	r22, r30
    624c:	88 27       	eor	r24, r24
    624e:	77 fd       	sbrc	r23, 7
    6250:	80 95       	com	r24
    6252:	98 2f       	mov	r25, r24
    6254:	0e 94 1a 3e 	call	0x7c34	; 0x7c34 <__floatsisf>
			printf("pos %f = %f \r",comando.param1,test);
    6258:	d7 01       	movw	r26, r14
    625a:	16 96       	adiw	r26, 0x06	; 6
    625c:	6d 93       	st	X+, r22
    625e:	7d 93       	st	X+, r23
    6260:	8d 93       	st	X+, r24
    6262:	9c 93       	st	X, r25
    6264:	19 97       	sbiw	r26, 0x09	; 9
    6266:	0e 94 63 44 	call	0x88c6	; 0x88c6 <printf>
			break;
    626a:	ed b7       	in	r30, 0x3d	; 61
    626c:	fe b7       	in	r31, 0x3e	; 62
    626e:	3a 96       	adiw	r30, 0x0a	; 10
    6270:	0f b6       	in	r0, 0x3f	; 63
    6272:	f8 94       	cli
    6274:	fe bf       	out	0x3e, r31	; 62
    6276:	0f be       	out	0x3f, r0	; 63
    6278:	ed bf       	out	0x3d, r30	; 61
    627a:	0d c2       	rjmp	.+1050   	; 0x6696 <execCommand+0x814>
			
		case 'L':	// Control Loop ON/OFF
			if(comando.param1 == 1)
    627c:	60 91 28 12 	lds	r22, 0x1228
    6280:	70 91 29 12 	lds	r23, 0x1229
    6284:	80 91 2a 12 	lds	r24, 0x122A
    6288:	90 91 2b 12 	lds	r25, 0x122B
    628c:	20 e0       	ldi	r18, 0x00	; 0
    628e:	30 e0       	ldi	r19, 0x00	; 0
    6290:	40 e8       	ldi	r20, 0x80	; 128
    6292:	5f e3       	ldi	r21, 0x3F	; 63
    6294:	0e 94 78 3d 	call	0x7af0	; 0x7af0 <__cmpsf2>
    6298:	88 23       	and	r24, r24
    629a:	59 f4       	brne	.+22     	; 0x62b2 <execCommand+0x430>
			{
				doLoop = 1;
    629c:	81 e0       	ldi	r24, 0x01	; 1
    629e:	90 e0       	ldi	r25, 0x00	; 0
    62a0:	90 93 d4 08 	sts	0x08D4, r25
    62a4:	80 93 d3 08 	sts	0x08D3, r24
				printf("L 1\r");
    62a8:	0f 92       	push	r0
    62aa:	0f 92       	push	r0
    62ac:	81 e5       	ldi	r24, 0x51	; 81
    62ae:	98 e0       	ldi	r25, 0x08	; 8
    62b0:	e4 c1       	rjmp	.+968    	; 0x667a <execCommand+0x7f8>
				//PORTC &= 0b0111111;
			}else
			{
				doLoop = 0;
    62b2:	10 92 d4 08 	sts	0x08D4, r1
    62b6:	10 92 d3 08 	sts	0x08D3, r1
				printf("L 0\r");
    62ba:	0f 92       	push	r0
    62bc:	0f 92       	push	r0
    62be:	86 e5       	ldi	r24, 0x56	; 86
    62c0:	98 e0       	ldi	r25, 0x08	; 8
    62c2:	d2 c1       	rjmp	.+932    	; 0x6668 <execCommand+0x7e6>
				//PORTC |= 0b1000000;
			}
			break;
		
		case 'o':	//  Open gripper
			OpenGripper(comando.param1);
    62c4:	60 91 28 12 	lds	r22, 0x1228
    62c8:	70 91 29 12 	lds	r23, 0x1229
    62cc:	80 91 2a 12 	lds	r24, 0x122A
    62d0:	90 91 2b 12 	lds	r25, 0x122B
    62d4:	0e 94 fd 0c 	call	0x19fa	; 0x19fa <OpenGripper>
			printf("o 1\r");
    62d8:	0f 92       	push	r0
    62da:	0f 92       	push	r0
    62dc:	8b e5       	ldi	r24, 0x5B	; 91
    62de:	98 e0       	ldi	r25, 0x08	; 8
    62e0:	cc c1       	rjmp	.+920    	; 0x667a <execCommand+0x7f8>
			//if(!succes)
			//{
			//	printf("p 0 \r");
			//	instructionSet = 0;
			//}
			printf("Unimplemented command\r\n");
    62e2:	80 e6       	ldi	r24, 0x60	; 96
    62e4:	98 e0       	ldi	r25, 0x08	; 8
    62e6:	0e 94 75 44 	call	0x88ea	; 0x88ea <puts>
    62ea:	d5 c1       	rjmp	.+938    	; 0x6696 <execCommand+0x814>
			break;
	
		case 'q':	// Sets Desired Position of Control Loop
			instructionSet = 2;
    62ec:	82 e0       	ldi	r24, 0x02	; 2
    62ee:	90 e0       	ldi	r25, 0x00	; 0
    62f0:	90 93 f3 08 	sts	0x08F3, r25
    62f4:	80 93 f2 08 	sts	0x08F2, r24
			succes = SetdesiredPosition(comando.param1,comando.param2,comando.param3,comando.param4,comando.param5,comando.param6,comando.param7,comando.param8);
    62f8:	ed b7       	in	r30, 0x3d	; 61
    62fa:	fe b7       	in	r31, 0x3e	; 62
    62fc:	70 97       	sbiw	r30, 0x10	; 16
    62fe:	0f b6       	in	r0, 0x3f	; 63
    6300:	f8 94       	cli
    6302:	fe bf       	out	0x3e, r31	; 62
    6304:	0f be       	out	0x3f, r0	; 63
    6306:	ed bf       	out	0x3d, r30	; 61
    6308:	31 96       	adiw	r30, 0x01	; 1
    630a:	60 91 28 12 	lds	r22, 0x1228
    630e:	70 91 29 12 	lds	r23, 0x1229
    6312:	80 91 2a 12 	lds	r24, 0x122A
    6316:	90 91 2b 12 	lds	r25, 0x122B
    631a:	e0 90 2c 12 	lds	r14, 0x122C
    631e:	f0 90 2d 12 	lds	r15, 0x122D
    6322:	00 91 2e 12 	lds	r16, 0x122E
    6326:	10 91 2f 12 	lds	r17, 0x122F
    632a:	a0 90 30 12 	lds	r10, 0x1230
    632e:	b0 90 31 12 	lds	r11, 0x1231
    6332:	c0 90 32 12 	lds	r12, 0x1232
    6336:	d0 90 33 12 	lds	r13, 0x1233
    633a:	60 90 34 12 	lds	r6, 0x1234
    633e:	70 90 35 12 	lds	r7, 0x1235
    6342:	80 90 36 12 	lds	r8, 0x1236
    6346:	90 90 37 12 	lds	r9, 0x1237
    634a:	20 91 38 12 	lds	r18, 0x1238
    634e:	30 91 39 12 	lds	r19, 0x1239
    6352:	40 91 3a 12 	lds	r20, 0x123A
    6356:	50 91 3b 12 	lds	r21, 0x123B
    635a:	ad b7       	in	r26, 0x3d	; 61
    635c:	be b7       	in	r27, 0x3e	; 62
    635e:	11 96       	adiw	r26, 0x01	; 1
    6360:	2d 93       	st	X+, r18
    6362:	3d 93       	st	X+, r19
    6364:	4d 93       	st	X+, r20
    6366:	5c 93       	st	X, r21
    6368:	14 97       	sbiw	r26, 0x04	; 4
    636a:	20 91 3c 12 	lds	r18, 0x123C
    636e:	30 91 3d 12 	lds	r19, 0x123D
    6372:	40 91 3e 12 	lds	r20, 0x123E
    6376:	50 91 3f 12 	lds	r21, 0x123F
    637a:	24 83       	std	Z+4, r18	; 0x04
    637c:	35 83       	std	Z+5, r19	; 0x05
    637e:	46 83       	std	Z+6, r20	; 0x06
    6380:	57 83       	std	Z+7, r21	; 0x07
    6382:	20 91 40 12 	lds	r18, 0x1240
    6386:	30 91 41 12 	lds	r19, 0x1241
    638a:	40 91 42 12 	lds	r20, 0x1242
    638e:	50 91 43 12 	lds	r21, 0x1243
    6392:	20 87       	std	Z+8, r18	; 0x08
    6394:	31 87       	std	Z+9, r19	; 0x09
    6396:	42 87       	std	Z+10, r20	; 0x0a
    6398:	53 87       	std	Z+11, r21	; 0x0b
    639a:	20 91 44 12 	lds	r18, 0x1244
    639e:	30 91 45 12 	lds	r19, 0x1245
    63a2:	40 91 46 12 	lds	r20, 0x1246
    63a6:	50 91 47 12 	lds	r21, 0x1247
    63aa:	24 87       	std	Z+12, r18	; 0x0c
    63ac:	35 87       	std	Z+13, r19	; 0x0d
    63ae:	46 87       	std	Z+14, r20	; 0x0e
    63b0:	57 87       	std	Z+15, r21	; 0x0f
    63b2:	a8 01       	movw	r20, r16
    63b4:	97 01       	movw	r18, r14
    63b6:	86 01       	movw	r16, r12
    63b8:	75 01       	movw	r14, r10
    63ba:	64 01       	movw	r12, r8
    63bc:	53 01       	movw	r10, r6
    63be:	0e 94 98 24 	call	0x4930	; 0x4930 <SetdesiredPosition>
			if(!succes)
    63c2:	ed b7       	in	r30, 0x3d	; 61
    63c4:	fe b7       	in	r31, 0x3e	; 62
    63c6:	70 96       	adiw	r30, 0x10	; 16
    63c8:	0f b6       	in	r0, 0x3f	; 63
    63ca:	f8 94       	cli
    63cc:	fe bf       	out	0x3e, r31	; 62
    63ce:	0f be       	out	0x3f, r0	; 63
    63d0:	ed bf       	out	0x3d, r30	; 61
    63d2:	00 97       	sbiw	r24, 0x00	; 0
    63d4:	09 f0       	breq	.+2      	; 0x63d8 <execCommand+0x556>
    63d6:	5f c1       	rjmp	.+702    	; 0x6696 <execCommand+0x814>
			{
				printf("q 0 \r");
    63d8:	0f 92       	push	r0
    63da:	0f 92       	push	r0
    63dc:	87 e7       	ldi	r24, 0x77	; 119
    63de:	98 e0       	ldi	r25, 0x08	; 8
    63e0:	ad b7       	in	r26, 0x3d	; 61
    63e2:	be b7       	in	r27, 0x3e	; 62
    63e4:	12 96       	adiw	r26, 0x02	; 2
    63e6:	9c 93       	st	X, r25
    63e8:	8e 93       	st	-X, r24
    63ea:	11 97       	sbiw	r26, 0x01	; 1
    63ec:	0e 94 63 44 	call	0x88c6	; 0x88c6 <printf>
				instructionSet = 0;
    63f0:	10 92 f3 08 	sts	0x08F3, r1
    63f4:	10 92 f2 08 	sts	0x08F2, r1
    63f8:	48 c1       	rjmp	.+656    	; 0x668a <execCommand+0x808>
			}
			break;
			
		case 'R':	// Control Reading ON/OFF
			if(comando.param1 == 1)
    63fa:	60 91 28 12 	lds	r22, 0x1228
    63fe:	70 91 29 12 	lds	r23, 0x1229
    6402:	80 91 2a 12 	lds	r24, 0x122A
    6406:	90 91 2b 12 	lds	r25, 0x122B
    640a:	20 e0       	ldi	r18, 0x00	; 0
    640c:	30 e0       	ldi	r19, 0x00	; 0
    640e:	40 e8       	ldi	r20, 0x80	; 128
    6410:	5f e3       	ldi	r21, 0x3F	; 63
    6412:	0e 94 78 3d 	call	0x7af0	; 0x7af0 <__cmpsf2>
    6416:	88 23       	and	r24, r24
    6418:	39 f4       	brne	.+14     	; 0x6428 <execCommand+0x5a6>
			{
				doReading = 1;
    641a:	81 e0       	ldi	r24, 0x01	; 1
    641c:	90 e0       	ldi	r25, 0x00	; 0
    641e:	90 93 d6 08 	sts	0x08D6, r25
    6422:	80 93 d5 08 	sts	0x08D5, r24
    6426:	0f c0       	rjmp	.+30     	; 0x6446 <execCommand+0x5c4>
				printf("R 1\r");
				//PORTC &= 0b1011111;
			}else
			{
				if(doControl == 0)
    6428:	80 91 e8 08 	lds	r24, 0x08E8
    642c:	90 91 e9 08 	lds	r25, 0x08E9
    6430:	00 97       	sbiw	r24, 0x00	; 0
    6432:	49 f4       	brne	.+18     	; 0x6446 <execCommand+0x5c4>
				{
					doReading = 0;
    6434:	10 92 d6 08 	sts	0x08D6, r1
    6438:	10 92 d5 08 	sts	0x08D5, r1
					printf("R 0\r");
    643c:	0f 92       	push	r0
    643e:	0f 92       	push	r0
    6440:	82 e8       	ldi	r24, 0x82	; 130
    6442:	98 e0       	ldi	r25, 0x08	; 8
    6444:	1a c1       	rjmp	.+564    	; 0x667a <execCommand+0x7f8>
					//PORTC |= 0b0100000;
				}else
				{
					printf("R 1\r");
    6446:	0f 92       	push	r0
    6448:	0f 92       	push	r0
    644a:	8d e7       	ldi	r24, 0x7D	; 125
    644c:	98 e0       	ldi	r25, 0x08	; 8
    644e:	0c c1       	rjmp	.+536    	; 0x6668 <execCommand+0x7e6>
				}
			}
			break;

		case 's':	// Set Speed of desired Servo
			SetSpeedPerc(comando.param1,comando.param2);
    6450:	60 91 28 12 	lds	r22, 0x1228
    6454:	70 91 29 12 	lds	r23, 0x1229
    6458:	80 91 2a 12 	lds	r24, 0x122A
    645c:	90 91 2b 12 	lds	r25, 0x122B
    6460:	0e 94 e7 3d 	call	0x7bce	; 0x7bce <__fixsfsi>
    6464:	dc 01       	movw	r26, r24
    6466:	cb 01       	movw	r24, r22
    6468:	40 91 2c 12 	lds	r20, 0x122C
    646c:	50 91 2d 12 	lds	r21, 0x122D
    6470:	60 91 2e 12 	lds	r22, 0x122E
    6474:	70 91 2f 12 	lds	r23, 0x122F
    6478:	0e 94 ef 03 	call	0x7de	; 0x7de <SetSpeedPerc>
    647c:	0c c1       	rjmp	.+536    	; 0x6696 <execCommand+0x814>
			break;
		

		
		case 'S':	// Get Status Report of every servo
			StatusReport();
    647e:	0e 94 e8 09 	call	0x13d0	; 0x13d0 <StatusReport>
    6482:	09 c1       	rjmp	.+530    	; 0x6696 <execCommand+0x814>
			break;
		
				
		case 't':	// Enables Arm Torque Control 
			if(comando.param1 ==1)
    6484:	60 91 28 12 	lds	r22, 0x1228
    6488:	70 91 29 12 	lds	r23, 0x1229
    648c:	80 91 2a 12 	lds	r24, 0x122A
    6490:	90 91 2b 12 	lds	r25, 0x122B
    6494:	20 e0       	ldi	r18, 0x00	; 0
    6496:	30 e0       	ldi	r19, 0x00	; 0
    6498:	40 e8       	ldi	r20, 0x80	; 128
    649a:	5f e3       	ldi	r21, 0x3F	; 63
    649c:	0e 94 78 3d 	call	0x7af0	; 0x7af0 <__cmpsf2>
    64a0:	07 e8       	ldi	r16, 0x87	; 135
    64a2:	18 e0       	ldi	r17, 0x08	; 8
    64a4:	88 23       	and	r24, r24
    64a6:	69 f4       	brne	.+26     	; 0x64c2 <execCommand+0x640>
			{
				
				ArmTorqueEnabled(comando.param1);
    64a8:	81 e0       	ldi	r24, 0x01	; 1
    64aa:	90 e0       	ldi	r25, 0x00	; 0
    64ac:	0e 94 03 06 	call	0xc06	; 0xc06 <ArmTorqueEnabled>
				printf("t 1\r");
    64b0:	0f 92       	push	r0
    64b2:	0f 92       	push	r0
    64b4:	ad b7       	in	r26, 0x3d	; 61
    64b6:	be b7       	in	r27, 0x3e	; 62
    64b8:	12 96       	adiw	r26, 0x02	; 2
    64ba:	1c 93       	st	X, r17
    64bc:	0e 93       	st	-X, r16
    64be:	11 97       	sbiw	r26, 0x01	; 1
    64c0:	e2 c0       	rjmp	.+452    	; 0x6686 <execCommand+0x804>

			}else
			{
				//SetdesiredQPosition(0,0,0,0,0,0,0);
				ArmTorqueEnabled(0);
    64c2:	80 e0       	ldi	r24, 0x00	; 0
    64c4:	90 e0       	ldi	r25, 0x00	; 0
    64c6:	0e 94 03 06 	call	0xc06	; 0xc06 <ArmTorqueEnabled>
				printf("t 1\r");
    64ca:	0f 92       	push	r0
    64cc:	0f 92       	push	r0
    64ce:	ed b7       	in	r30, 0x3d	; 61
    64d0:	fe b7       	in	r31, 0x3e	; 62
    64d2:	12 83       	std	Z+2, r17	; 0x02
    64d4:	01 83       	std	Z+1, r16	; 0x01
    64d6:	d7 c0       	rjmp	.+430    	; 0x6686 <execCommand+0x804>
			}
			break;
		
		case 'v':	// Gets Voltage
			Voltage=GetVoltage(0);
    64d8:	80 e0       	ldi	r24, 0x00	; 0
    64da:	90 e0       	ldi	r25, 0x00	; 0
    64dc:	0e 94 75 06 	call	0xcea	; 0xcea <GetVoltage>
    64e0:	60 93 80 09 	sts	0x0980, r22
    64e4:	70 93 81 09 	sts	0x0981, r23
    64e8:	80 93 82 09 	sts	0x0982, r24
    64ec:	90 93 83 09 	sts	0x0983, r25
			printf("v 1 %4.1f\r",Voltage);
    64f0:	00 d0       	rcall	.+0      	; 0x64f2 <execCommand+0x670>
    64f2:	00 d0       	rcall	.+0      	; 0x64f4 <execCommand+0x672>
    64f4:	2c e8       	ldi	r18, 0x8C	; 140
    64f6:	38 e0       	ldi	r19, 0x08	; 8
    64f8:	ad b7       	in	r26, 0x3d	; 61
    64fa:	be b7       	in	r27, 0x3e	; 62
    64fc:	12 96       	adiw	r26, 0x02	; 2
    64fe:	3c 93       	st	X, r19
    6500:	2e 93       	st	-X, r18
    6502:	11 97       	sbiw	r26, 0x01	; 1
    6504:	ed b7       	in	r30, 0x3d	; 61
    6506:	fe b7       	in	r31, 0x3e	; 62
    6508:	63 83       	std	Z+3, r22	; 0x03
    650a:	74 83       	std	Z+4, r23	; 0x04
    650c:	85 83       	std	Z+5, r24	; 0x05
    650e:	96 83       	std	Z+6, r25	; 0x06
    6510:	0e 94 63 44 	call	0x88c6	; 0x88c6 <printf>
			break;
    6514:	2d b7       	in	r18, 0x3d	; 61
    6516:	3e b7       	in	r19, 0x3e	; 62
    6518:	2a 5f       	subi	r18, 0xFA	; 250
    651a:	3f 4f       	sbci	r19, 0xFF	; 255
    651c:	0f b6       	in	r0, 0x3f	; 63
    651e:	f8 94       	cli
    6520:	3e bf       	out	0x3e, r19	; 62
    6522:	0f be       	out	0x3f, r0	; 63
    6524:	2d bf       	out	0x3d, r18	; 61
    6526:	b7 c0       	rjmp	.+366    	; 0x6696 <execCommand+0x814>

		
		case 'y':	// Enables Arm Torque Control 
			if(ServoTorqueEnabled(comando.param1,comando.param2,comando.param3,comando.param4,comando.param5,comando.param6,comando.param7)==1)
    6528:	60 91 28 12 	lds	r22, 0x1228
    652c:	70 91 29 12 	lds	r23, 0x1229
    6530:	80 91 2a 12 	lds	r24, 0x122A
    6534:	90 91 2b 12 	lds	r25, 0x122B
    6538:	0e 94 e7 3d 	call	0x7bce	; 0x7bce <__fixsfsi>
    653c:	7b 01       	movw	r14, r22
    653e:	8c 01       	movw	r16, r24
    6540:	60 91 2c 12 	lds	r22, 0x122C
    6544:	70 91 2d 12 	lds	r23, 0x122D
    6548:	80 91 2e 12 	lds	r24, 0x122E
    654c:	90 91 2f 12 	lds	r25, 0x122F
    6550:	0e 94 e7 3d 	call	0x7bce	; 0x7bce <__fixsfsi>
    6554:	5b 01       	movw	r10, r22
    6556:	6c 01       	movw	r12, r24
    6558:	60 91 30 12 	lds	r22, 0x1230
    655c:	70 91 31 12 	lds	r23, 0x1231
    6560:	80 91 32 12 	lds	r24, 0x1232
    6564:	90 91 33 12 	lds	r25, 0x1233
    6568:	0e 94 e7 3d 	call	0x7bce	; 0x7bce <__fixsfsi>
    656c:	3b 01       	movw	r6, r22
    656e:	4c 01       	movw	r8, r24
    6570:	60 91 34 12 	lds	r22, 0x1234
    6574:	70 91 35 12 	lds	r23, 0x1235
    6578:	80 91 36 12 	lds	r24, 0x1236
    657c:	90 91 37 12 	lds	r25, 0x1237
    6580:	0e 94 e7 3d 	call	0x7bce	; 0x7bce <__fixsfsi>
    6584:	69 83       	std	Y+1, r22	; 0x01
    6586:	7a 83       	std	Y+2, r23	; 0x02
    6588:	8b 83       	std	Y+3, r24	; 0x03
    658a:	9c 83       	std	Y+4, r25	; 0x04
    658c:	60 91 38 12 	lds	r22, 0x1238
    6590:	70 91 39 12 	lds	r23, 0x1239
    6594:	80 91 3a 12 	lds	r24, 0x123A
    6598:	90 91 3b 12 	lds	r25, 0x123B
    659c:	0e 94 e7 3d 	call	0x7bce	; 0x7bce <__fixsfsi>
    65a0:	6d 83       	std	Y+5, r22	; 0x05
    65a2:	7e 83       	std	Y+6, r23	; 0x06
    65a4:	8f 83       	std	Y+7, r24	; 0x07
    65a6:	98 87       	std	Y+8, r25	; 0x08
    65a8:	60 91 3c 12 	lds	r22, 0x123C
    65ac:	70 91 3d 12 	lds	r23, 0x123D
    65b0:	80 91 3e 12 	lds	r24, 0x123E
    65b4:	90 91 3f 12 	lds	r25, 0x123F
    65b8:	0e 94 e7 3d 	call	0x7bce	; 0x7bce <__fixsfsi>
    65bc:	69 87       	std	Y+9, r22	; 0x09
    65be:	7a 87       	std	Y+10, r23	; 0x0a
    65c0:	8b 87       	std	Y+11, r24	; 0x0b
    65c2:	9c 87       	std	Y+12, r25	; 0x0c
    65c4:	60 91 40 12 	lds	r22, 0x1240
    65c8:	70 91 41 12 	lds	r23, 0x1241
    65cc:	80 91 42 12 	lds	r24, 0x1242
    65d0:	90 91 43 12 	lds	r25, 0x1243
    65d4:	0e 94 e7 3d 	call	0x7bce	; 0x7bce <__fixsfsi>
    65d8:	1b 01       	movw	r2, r22
    65da:	2c 01       	movw	r4, r24
    65dc:	c7 01       	movw	r24, r14
    65de:	b5 01       	movw	r22, r10
    65e0:	a3 01       	movw	r20, r6
    65e2:	29 81       	ldd	r18, Y+1	; 0x01
    65e4:	3a 81       	ldd	r19, Y+2	; 0x02
    65e6:	0d 81       	ldd	r16, Y+5	; 0x05
    65e8:	1e 81       	ldd	r17, Y+6	; 0x06
    65ea:	e9 84       	ldd	r14, Y+9	; 0x09
    65ec:	fa 84       	ldd	r15, Y+10	; 0x0a
    65ee:	61 01       	movw	r12, r2
    65f0:	0e 94 25 06 	call	0xc4a	; 0xc4a <ServoTorqueEnabled>
    65f4:	81 30       	cpi	r24, 0x01	; 1
    65f6:	91 05       	cpc	r25, r1
    65f8:	29 f4       	brne	.+10     	; 0x6604 <execCommand+0x782>
			{
				printf("y 1\r");
    65fa:	0f 92       	push	r0
    65fc:	0f 92       	push	r0
    65fe:	87 e9       	ldi	r24, 0x97	; 151
    6600:	98 e0       	ldi	r25, 0x08	; 8
    6602:	3b c0       	rjmp	.+118    	; 0x667a <execCommand+0x7f8>
			}
			else
			{
				printf("y 0\r");
    6604:	0f 92       	push	r0
    6606:	0f 92       	push	r0
    6608:	8c e9       	ldi	r24, 0x9C	; 156
    660a:	98 e0       	ldi	r25, 0x08	; 8
    660c:	2d c0       	rjmp	.+90     	; 0x6668 <execCommand+0x7e6>
			}
			break;
        case 'x': //General Function to move the 4 motors on the hand
		    if(OpenHand(comando.param1,comando.param2,comando.param3,comando.param4))
    660e:	60 91 28 12 	lds	r22, 0x1228
    6612:	70 91 29 12 	lds	r23, 0x1229
    6616:	80 91 2a 12 	lds	r24, 0x122A
    661a:	90 91 2b 12 	lds	r25, 0x122B
    661e:	20 91 2c 12 	lds	r18, 0x122C
    6622:	30 91 2d 12 	lds	r19, 0x122D
    6626:	40 91 2e 12 	lds	r20, 0x122E
    662a:	50 91 2f 12 	lds	r21, 0x122F
    662e:	e0 90 30 12 	lds	r14, 0x1230
    6632:	f0 90 31 12 	lds	r15, 0x1231
    6636:	00 91 32 12 	lds	r16, 0x1232
    663a:	10 91 33 12 	lds	r17, 0x1233
    663e:	a0 90 34 12 	lds	r10, 0x1234
    6642:	b0 90 35 12 	lds	r11, 0x1235
    6646:	c0 90 36 12 	lds	r12, 0x1236
    664a:	d0 90 37 12 	lds	r13, 0x1237
    664e:	0e 94 bf 0c 	call	0x197e	; 0x197e <OpenHand>
    6652:	00 97       	sbiw	r24, 0x00	; 0
    6654:	29 f0       	breq	.+10     	; 0x6660 <execCommand+0x7de>
				printf("x 1\r");
    6656:	0f 92       	push	r0
    6658:	0f 92       	push	r0
    665a:	81 ea       	ldi	r24, 0xA1	; 161
    665c:	98 e0       	ldi	r25, 0x08	; 8
    665e:	0d c0       	rjmp	.+26     	; 0x667a <execCommand+0x7f8>
			else
				printf("x 0\r");
    6660:	0f 92       	push	r0
    6662:	0f 92       	push	r0
    6664:	86 ea       	ldi	r24, 0xA6	; 166
    6666:	98 e0       	ldi	r25, 0x08	; 8
    6668:	ed b7       	in	r30, 0x3d	; 61
    666a:	fe b7       	in	r31, 0x3e	; 62
    666c:	92 83       	std	Z+2, r25	; 0x02
    666e:	81 83       	std	Z+1, r24	; 0x01
    6670:	0a c0       	rjmp	.+20     	; 0x6686 <execCommand+0x804>
			
			break;
		case 'z': 
		    //ChangeBaud();
				printf("z 1\r");
    6672:	0f 92       	push	r0
    6674:	0f 92       	push	r0
    6676:	8b ea       	ldi	r24, 0xAB	; 171
    6678:	98 e0       	ldi	r25, 0x08	; 8
    667a:	ad b7       	in	r26, 0x3d	; 61
    667c:	be b7       	in	r27, 0x3e	; 62
    667e:	12 96       	adiw	r26, 0x02	; 2
    6680:	9c 93       	st	X, r25
    6682:	8e 93       	st	-X, r24
    6684:	11 97       	sbiw	r26, 0x01	; 1
    6686:	0e 94 63 44 	call	0x88c6	; 0x88c6 <printf>
			
			break;
    668a:	0f 90       	pop	r0
    668c:	0f 90       	pop	r0
    668e:	03 c0       	rjmp	.+6      	; 0x6696 <execCommand+0x814>
		
		default:
			return 0;
    6690:	20 e0       	ldi	r18, 0x00	; 0
    6692:	30 e0       	ldi	r19, 0x00	; 0
    6694:	02 c0       	rjmp	.+4      	; 0x669a <execCommand+0x818>
	}
	return 1;
    6696:	21 e0       	ldi	r18, 0x01	; 1
    6698:	30 e0       	ldi	r19, 0x00	; 0
}
    669a:	c9 01       	movw	r24, r18
    669c:	2c 96       	adiw	r28, 0x0c	; 12
    669e:	0f b6       	in	r0, 0x3f	; 63
    66a0:	f8 94       	cli
    66a2:	de bf       	out	0x3e, r29	; 62
    66a4:	0f be       	out	0x3f, r0	; 63
    66a6:	cd bf       	out	0x3d, r28	; 61
    66a8:	cf 91       	pop	r28
    66aa:	df 91       	pop	r29
    66ac:	1f 91       	pop	r17
    66ae:	0f 91       	pop	r16
    66b0:	ff 90       	pop	r15
    66b2:	ef 90       	pop	r14
    66b4:	df 90       	pop	r13
    66b6:	cf 90       	pop	r12
    66b8:	bf 90       	pop	r11
    66ba:	af 90       	pop	r10
    66bc:	9f 90       	pop	r9
    66be:	8f 90       	pop	r8
    66c0:	7f 90       	pop	r7
    66c2:	6f 90       	pop	r6
    66c4:	5f 90       	pop	r5
    66c6:	4f 90       	pop	r4
    66c8:	3f 90       	pop	r3
    66ca:	2f 90       	pop	r2
    66cc:	08 95       	ret

000066ce <is_digit>:
	return 1;
}

int is_digit(int c)
{
	if((c >= '0') && (c <= '9')) return 1;
    66ce:	c0 97       	sbiw	r24, 0x30	; 48
    66d0:	21 e0       	ldi	r18, 0x01	; 1
    66d2:	30 e0       	ldi	r19, 0x00	; 0
    66d4:	8a 30       	cpi	r24, 0x0A	; 10
    66d6:	91 05       	cpc	r25, r1
    66d8:	10 f0       	brcs	.+4      	; 0x66de <is_digit+0x10>
    66da:	20 e0       	ldi	r18, 0x00	; 0
    66dc:	30 e0       	ldi	r19, 0x00	; 0
	return 0;
}
    66de:	c9 01       	movw	r24, r18
    66e0:	08 95       	ret

000066e2 <serial_write>:

void serial_write( unsigned char *pData, int numbyte )
{
	int count;

	for( count=0; count<numbyte; count++ )
    66e2:	28 2f       	mov	r18, r24
    66e4:	39 2f       	mov	r19, r25
    66e6:	f9 01       	movw	r30, r18
    66e8:	80 e0       	ldi	r24, 0x00	; 0
    66ea:	90 e0       	ldi	r25, 0x00	; 0
    66ec:	08 c0       	rjmp	.+16     	; 0x66fe <serial_write+0x1c>
	{
		while(!bit_is_set(UCSR1A,5));
    66ee:	20 91 c8 00 	lds	r18, 0x00C8
    66f2:	25 ff       	sbrs	r18, 5
    66f4:	fc cf       	rjmp	.-8      	; 0x66ee <serial_write+0xc>
		UDR1 = pData[count];
    66f6:	21 91       	ld	r18, Z+
    66f8:	20 93 ce 00 	sts	0x00CE, r18

void serial_write( unsigned char *pData, int numbyte )
{
	int count;

	for( count=0; count<numbyte; count++ )
    66fc:	01 96       	adiw	r24, 0x01	; 1
    66fe:	86 17       	cp	r24, r22
    6700:	97 07       	cpc	r25, r23
    6702:	ac f3       	brlt	.-22     	; 0x66ee <serial_write+0xc>
	{
		while(!bit_is_set(UCSR1A,5));
		UDR1 = pData[count];
	}
}
    6704:	08 95       	ret

00006706 <std_putchar>:
		
	return data;
}

int std_putchar(char c)
{
    6706:	df 93       	push	r29
    6708:	cf 93       	push	r28
    670a:	0f 92       	push	r0
    670c:	0f 92       	push	r0
    670e:	cd b7       	in	r28, 0x3d	; 61
    6710:	de b7       	in	r29, 0x3e	; 62
    6712:	28 2f       	mov	r18, r24
    6714:	ce 01       	movw	r24, r28
    6716:	01 96       	adiw	r24, 0x01	; 1
	char tx[2];
	
    if( c == '\n' )
    6718:	2a 30       	cpi	r18, 0x0A	; 10
    671a:	31 f4       	brne	.+12     	; 0x6728 <std_putchar+0x22>
	{
        tx[0] = '\r';
    671c:	3d e0       	ldi	r19, 0x0D	; 13
    671e:	39 83       	std	Y+1, r19	; 0x01
		tx[1] = '\n';
    6720:	2a 83       	std	Y+2, r18	; 0x02
		serial_write( (unsigned char*)tx, 2 );
    6722:	62 e0       	ldi	r22, 0x02	; 2
    6724:	70 e0       	ldi	r23, 0x00	; 0
    6726:	03 c0       	rjmp	.+6      	; 0x672e <std_putchar+0x28>
	}
	else
	{
		tx[0] = c;
    6728:	29 83       	std	Y+1, r18	; 0x01
		serial_write( (unsigned char*)tx, 1 );
    672a:	61 e0       	ldi	r22, 0x01	; 1
    672c:	70 e0       	ldi	r23, 0x00	; 0
    672e:	0e 94 71 33 	call	0x66e2	; 0x66e2 <serial_write>
	}
 
    return 0;
}
    6732:	80 e0       	ldi	r24, 0x00	; 0
    6734:	90 e0       	ldi	r25, 0x00	; 0
    6736:	0f 90       	pop	r0
    6738:	0f 90       	pop	r0
    673a:	cf 91       	pop	r28
    673c:	df 91       	pop	r29
    673e:	08 95       	ret

00006740 <serial_get_qstate>:

int serial_get_qstate(void)
{
	short NumByte;
	
	if( bufferHead == bufferTail )
    6740:	90 91 7c 09 	lds	r25, 0x097C
    6744:	80 91 7d 09 	lds	r24, 0x097D
    6748:	98 17       	cp	r25, r24
    674a:	b1 f0       	breq	.+44     	; 0x6778 <serial_get_qstate+0x38>
		NumByte = 0;
	else if( bufferHead < bufferTail )
    674c:	90 91 7c 09 	lds	r25, 0x097C
    6750:	80 91 7d 09 	lds	r24, 0x097D
    6754:	98 17       	cp	r25, r24
    6756:	30 f4       	brcc	.+12     	; 0x6764 <serial_get_qstate+0x24>
		NumByte = bufferTail - bufferHead;
    6758:	20 91 7d 09 	lds	r18, 0x097D
    675c:	80 91 7c 09 	lds	r24, 0x097C
    6760:	30 e0       	ldi	r19, 0x00	; 0
    6762:	07 c0       	rjmp	.+14     	; 0x6772 <serial_get_qstate+0x32>
	else
		NumByte = BUFFER_SIZE - (bufferHead - bufferTail);
    6764:	20 91 7d 09 	lds	r18, 0x097D
    6768:	80 91 7c 09 	lds	r24, 0x097C
    676c:	30 e0       	ldi	r19, 0x00	; 0
    676e:	20 58       	subi	r18, 0x80	; 128
    6770:	3f 4f       	sbci	r19, 0xFF	; 255
    6772:	28 1b       	sub	r18, r24
    6774:	31 09       	sbc	r19, r1
    6776:	02 c0       	rjmp	.+4      	; 0x677c <serial_get_qstate+0x3c>
int serial_get_qstate(void)
{
	short NumByte;
	
	if( bufferHead == bufferTail )
		NumByte = 0;
    6778:	20 e0       	ldi	r18, 0x00	; 0
    677a:	30 e0       	ldi	r19, 0x00	; 0
		NumByte = bufferTail - bufferHead;
	else
		NumByte = BUFFER_SIZE - (bufferHead - bufferTail);
	
	return (int)NumByte;
}
    677c:	c9 01       	movw	r24, r18
    677e:	08 95       	ret

00006780 <serial_put_queue>:
void serial_put_queue( unsigned char data )
{
    6780:	1f 93       	push	r17
    6782:	18 2f       	mov	r17, r24

	if( serial_get_qstate() == (BUFFER_SIZE-1) )
    6784:	0e 94 a0 33 	call	0x6740	; 0x6740 <serial_get_qstate>
    6788:	8f 37       	cpi	r24, 0x7F	; 127
    678a:	91 05       	cpc	r25, r1
    678c:	91 f0       	breq	.+36     	; 0x67b2 <serial_put_queue+0x32>
		return;
	
	buffer[bufferTail] = data;
    678e:	e0 91 7d 09 	lds	r30, 0x097D
    6792:	f0 e0       	ldi	r31, 0x00	; 0
    6794:	e4 50       	subi	r30, 0x04	; 4
    6796:	f7 4f       	sbci	r31, 0xF7	; 247
    6798:	10 83       	st	Z, r17

	if( bufferTail == (BUFFER_SIZE-1) )
    679a:	80 91 7d 09 	lds	r24, 0x097D
    679e:	8f 37       	cpi	r24, 0x7F	; 127
    67a0:	19 f4       	brne	.+6      	; 0x67a8 <serial_put_queue+0x28>
		bufferTail = 0;
    67a2:	10 92 7d 09 	sts	0x097D, r1
    67a6:	05 c0       	rjmp	.+10     	; 0x67b2 <serial_put_queue+0x32>
	else
		bufferTail++;
    67a8:	80 91 7d 09 	lds	r24, 0x097D
    67ac:	8f 5f       	subi	r24, 0xFF	; 255
    67ae:	80 93 7d 09 	sts	0x097D, r24

		
}
    67b2:	1f 91       	pop	r17
    67b4:	08 95       	ret

000067b6 <serial_get_queue>:

unsigned char serial_get_queue(void)
{
	unsigned char data;
	
	if( bufferHead == bufferTail )
    67b6:	90 91 7c 09 	lds	r25, 0x097C
    67ba:	80 91 7d 09 	lds	r24, 0x097D
    67be:	98 17       	cp	r25, r24
    67c0:	99 f0       	breq	.+38     	; 0x67e8 <serial_get_queue+0x32>
		return 0xff;
		
	data = buffer[bufferHead];
    67c2:	e0 91 7c 09 	lds	r30, 0x097C
    67c6:	f0 e0       	ldi	r31, 0x00	; 0
    67c8:	e4 50       	subi	r30, 0x04	; 4
    67ca:	f7 4f       	sbci	r31, 0xF7	; 247
    67cc:	80 81       	ld	r24, Z
		
	if( bufferHead == (BUFFER_SIZE-1) )
    67ce:	90 91 7c 09 	lds	r25, 0x097C
    67d2:	9f 37       	cpi	r25, 0x7F	; 127
    67d4:	19 f4       	brne	.+6      	; 0x67dc <serial_get_queue+0x26>
		bufferHead = 0;
    67d6:	10 92 7c 09 	sts	0x097C, r1
    67da:	08 95       	ret
	else
		bufferHead++;
    67dc:	90 91 7c 09 	lds	r25, 0x097C
    67e0:	9f 5f       	subi	r25, 0xFF	; 255
    67e2:	90 93 7c 09 	sts	0x097C, r25
    67e6:	08 95       	ret
unsigned char serial_get_queue(void)
{
	unsigned char data;
	
	if( bufferHead == bufferTail )
		return 0xff;
    67e8:	8f ef       	ldi	r24, 0xFF	; 255
		bufferHead = 0;
	else
		bufferHead++;
		
	return data;
}
    67ea:	08 95       	ret

000067ec <std_getchar>:

int std_getchar(void)
{
    char rx;
	
	while( serial_get_qstate() == 0 );
    67ec:	0e 94 a0 33 	call	0x6740	; 0x6740 <serial_get_qstate>
    67f0:	00 97       	sbiw	r24, 0x00	; 0
    67f2:	e1 f3       	breq	.-8      	; 0x67ec <std_getchar>
	rx = serial_get_queue();
    67f4:	0e 94 db 33 	call	0x67b6	; 0x67b6 <serial_get_queue>
	
	if( rx == '\r' )
    67f8:	8d 30       	cpi	r24, 0x0D	; 13
    67fa:	09 f4       	brne	.+2      	; 0x67fe <std_getchar+0x12>
		rx = '\n';
    67fc:	8a e0       	ldi	r24, 0x0A	; 10

    return rx;
}
    67fe:	90 e0       	ldi	r25, 0x00	; 0
    6800:	08 95       	ret

00006802 <serial_read>:
		UDR1 = pData[count];
	}
}

unsigned char serial_read( unsigned char *pData, int numbyte )
{
    6802:	cf 92       	push	r12
    6804:	df 92       	push	r13
    6806:	ef 92       	push	r14
    6808:	ff 92       	push	r15
    680a:	0f 93       	push	r16
    680c:	1f 93       	push	r17
    680e:	cf 93       	push	r28
    6810:	df 93       	push	r29
    6812:	f8 2e       	mov	r15, r24
    6814:	e9 2e       	mov	r14, r25
    6816:	8b 01       	movw	r16, r22
	int count, numgetbyte;
	
	if( bufferHead == bufferTail )
    6818:	90 91 7c 09 	lds	r25, 0x097C
    681c:	80 91 7d 09 	lds	r24, 0x097D
    6820:	98 17       	cp	r25, r24
    6822:	e9 f0       	breq	.+58     	; 0x685e <serial_read+0x5c>
		return 0;
	
	numgetbyte = serial_get_qstate();
    6824:	0e 94 a0 33 	call	0x6740	; 0x6740 <serial_get_qstate>
    6828:	c8 2e       	mov	r12, r24
    682a:	e6 01       	movw	r28, r12
    682c:	6e 01       	movw	r12, r28
    682e:	d9 2e       	mov	r13, r25
    6830:	e6 01       	movw	r28, r12
    6832:	0c 15       	cp	r16, r12
    6834:	1d 05       	cpc	r17, r13
    6836:	0c f4       	brge	.+2      	; 0x683a <serial_read+0x38>
    6838:	e8 01       	movw	r28, r16
    683a:	c7 01       	movw	r24, r14
    683c:	e9 2e       	mov	r14, r25
    683e:	f8 2e       	mov	r15, r24
	if( numgetbyte > numbyte )
		numgetbyte = numbyte;
	
	for( count=0; count<numgetbyte; count++ )
    6840:	00 e0       	ldi	r16, 0x00	; 0
    6842:	10 e0       	ldi	r17, 0x00	; 0
    6844:	07 c0       	rjmp	.+14     	; 0x6854 <serial_read+0x52>
		pData[count] = serial_get_queue();
    6846:	0e 94 db 33 	call	0x67b6	; 0x67b6 <serial_get_queue>
    684a:	f7 01       	movw	r30, r14
    684c:	81 93       	st	Z+, r24
    684e:	7f 01       	movw	r14, r30
	
	numgetbyte = serial_get_qstate();
	if( numgetbyte > numbyte )
		numgetbyte = numbyte;
	
	for( count=0; count<numgetbyte; count++ )
    6850:	0f 5f       	subi	r16, 0xFF	; 255
    6852:	1f 4f       	sbci	r17, 0xFF	; 255
    6854:	0c 17       	cp	r16, r28
    6856:	1d 07       	cpc	r17, r29
    6858:	b4 f3       	brlt	.-20     	; 0x6846 <serial_read+0x44>
		pData[count] = serial_get_queue();
	
	return numgetbyte;
    685a:	8c 2f       	mov	r24, r28
    685c:	01 c0       	rjmp	.+2      	; 0x6860 <serial_read+0x5e>
unsigned char serial_read( unsigned char *pData, int numbyte )
{
	int count, numgetbyte;
	
	if( bufferHead == bufferTail )
		return 0;
    685e:	80 e0       	ldi	r24, 0x00	; 0
	
	for( count=0; count<numgetbyte; count++ )
		pData[count] = serial_get_queue();
	
	return numgetbyte;
}
    6860:	df 91       	pop	r29
    6862:	cf 91       	pop	r28
    6864:	1f 91       	pop	r17
    6866:	0f 91       	pop	r16
    6868:	ff 90       	pop	r15
    686a:	ef 90       	pop	r14
    686c:	df 90       	pop	r13
    686e:	cf 90       	pop	r12
    6870:	08 95       	ret

00006872 <Leds>:


void Leds()
{

	if(doLoop) PORTC &= 0b0111111;
    6872:	80 91 d3 08 	lds	r24, 0x08D3
    6876:	90 91 d4 08 	lds	r25, 0x08D4
    687a:	00 97       	sbiw	r24, 0x00	; 0
    687c:	21 f0       	breq	.+8      	; 0x6886 <Leds+0x14>
    687e:	88 b1       	in	r24, 0x08	; 8
    6880:	8f 73       	andi	r24, 0x3F	; 63
    6882:	88 b9       	out	0x08, r24	; 8
    6884:	01 c0       	rjmp	.+2      	; 0x6888 <Leds+0x16>
		else PORTC |= 0b1000000;
    6886:	46 9a       	sbi	0x08, 6	; 8

	if(doReading) PORTC &= 0b1011111;
    6888:	80 91 d5 08 	lds	r24, 0x08D5
    688c:	90 91 d6 08 	lds	r25, 0x08D6
    6890:	00 97       	sbiw	r24, 0x00	; 0
    6892:	21 f0       	breq	.+8      	; 0x689c <Leds+0x2a>
    6894:	88 b1       	in	r24, 0x08	; 8
    6896:	8f 75       	andi	r24, 0x5F	; 95
    6898:	88 b9       	out	0x08, r24	; 8
    689a:	01 c0       	rjmp	.+2      	; 0x689e <Leds+0x2c>
		else PORTC |= 0b0100000;
    689c:	45 9a       	sbi	0x08, 5	; 8

	if(doControl) PORTC &= 0b1101111;
    689e:	80 91 e8 08 	lds	r24, 0x08E8
    68a2:	90 91 e9 08 	lds	r25, 0x08E9
    68a6:	00 97       	sbiw	r24, 0x00	; 0
    68a8:	21 f0       	breq	.+8      	; 0x68b2 <Leds+0x40>
    68aa:	88 b1       	in	r24, 0x08	; 8
    68ac:	8f 76       	andi	r24, 0x6F	; 111
    68ae:	88 b9       	out	0x08, r24	; 8
    68b0:	01 c0       	rjmp	.+2      	; 0x68b4 <Leds+0x42>
		else PORTC |= 0b0010000;
    68b2:	44 9a       	sbi	0x08, 4	; 8

	if(count>5000)
    68b4:	80 91 84 09 	lds	r24, 0x0984
    68b8:	90 91 85 09 	lds	r25, 0x0985
    68bc:	23 e1       	ldi	r18, 0x13	; 19
    68be:	89 38       	cpi	r24, 0x89	; 137
    68c0:	92 07       	cpc	r25, r18
    68c2:	44 f0       	brlt	.+16     	; 0x68d4 <Leds+0x62>
	{
		PORTC ^= 0b0000010;
    68c4:	88 b1       	in	r24, 0x08	; 8
    68c6:	92 e0       	ldi	r25, 0x02	; 2
    68c8:	89 27       	eor	r24, r25
    68ca:	88 b9       	out	0x08, r24	; 8
		count = 0;
    68cc:	10 92 85 09 	sts	0x0985, r1
    68d0:	10 92 84 09 	sts	0x0984, r1
	}
	count++;
    68d4:	80 91 84 09 	lds	r24, 0x0984
    68d8:	90 91 85 09 	lds	r25, 0x0985
    68dc:	01 96       	adiw	r24, 0x01	; 1
    68de:	90 93 85 09 	sts	0x0985, r25
    68e2:	80 93 84 09 	sts	0x0984, r24
}
    68e6:	08 95       	ret

000068e8 <main>:
int count = 0;

void Leds();

int main(void)
{
    68e8:	cf 93       	push	r28
    68ea:	df 93       	push	r29
	//int Value = 0;
	
	DDRC  = 0x7F;
    68ec:	8f e7       	ldi	r24, 0x7F	; 127
    68ee:	87 b9       	out	0x07, r24	; 7
	PORTC = 0x7D;
    68f0:	8d e7       	ldi	r24, 0x7D	; 125
    68f2:	88 b9       	out	0x08, r24	; 8
	serial_initialize(57600);				// USART Initialize
    68f4:	60 e0       	ldi	r22, 0x00	; 0
    68f6:	71 ee       	ldi	r23, 0xE1	; 225
    68f8:	80 e0       	ldi	r24, 0x00	; 0
    68fa:	90 e0       	ldi	r25, 0x00	; 0
    68fc:	0e 94 4b 29 	call	0x5296	; 0x5296 <serial_initialize>
	//serial_initialize(250000);				// USART Initialize
	dxl_initialize( 0, 7 ); // Not using device index (Usar 7 = 250000, 1 = 1000000)
    6900:	80 e0       	ldi	r24, 0x00	; 0
    6902:	90 e0       	ldi	r25, 0x00	; 0
    6904:	67 e0       	ldi	r22, 0x07	; 7
    6906:	70 e0       	ldi	r23, 0x00	; 0
    6908:	0e 94 cf 36 	call	0x6d9e	; 0x6d9e <dxl_initialize>
	sei();
    690c:	78 94       	sei
	SetUpServos();
    690e:	0e 94 88 06 	call	0xd10	; 0xd10 <SetUpServos>
	SetConstants();
    6912:	0e 94 2e 0c 	call	0x185c	; 0x185c <SetConstants>
	SetKConstants();
    6916:	0e 94 b9 10 	call	0x2172	; 0x2172 <SetKConstants>

	printf("ARMS CONTROL\r" );
    691a:	0f 92       	push	r0
    691c:	0f 92       	push	r0
    691e:	80 eb       	ldi	r24, 0xB0	; 176
    6920:	98 e0       	ldi	r25, 0x08	; 8
    6922:	ed b7       	in	r30, 0x3d	; 61
    6924:	fe b7       	in	r31, 0x3e	; 62
    6926:	92 83       	std	Z+2, r25	; 0x02
    6928:	81 83       	std	Z+1, r24	; 0x01
    692a:	0e 94 63 44 	call	0x88c6	; 0x88c6 <printf>
    692e:	0f 90       	pop	r0
    6930:	0f 90       	pop	r0
	{
	
		
		if(cmdReady)
		{
			 if(!execCommand()) printf("Unknown command\r");
    6932:	ce eb       	ldi	r28, 0xBE	; 190
    6934:	d8 e0       	ldi	r29, 0x08	; 8

	while (1)
	{
	
		
		if(cmdReady)
    6936:	80 91 7e 09 	lds	r24, 0x097E
    693a:	90 91 7f 09 	lds	r25, 0x097F
    693e:	00 97       	sbiw	r24, 0x00	; 0
    6940:	71 f0       	breq	.+28     	; 0x695e <main+0x76>
		{
			 if(!execCommand()) printf("Unknown command\r");
    6942:	0e 94 41 2f 	call	0x5e82	; 0x5e82 <execCommand>
    6946:	00 97       	sbiw	r24, 0x00	; 0
    6948:	51 f4       	brne	.+20     	; 0x695e <main+0x76>
    694a:	0f 92       	push	r0
    694c:	0f 92       	push	r0
    694e:	ed b7       	in	r30, 0x3d	; 61
    6950:	fe b7       	in	r31, 0x3e	; 62
    6952:	d2 83       	std	Z+2, r29	; 0x02
    6954:	c1 83       	std	Z+1, r28	; 0x01
    6956:	0e 94 63 44 	call	0x88c6	; 0x88c6 <printf>
    695a:	0f 90       	pop	r0
    695c:	0f 90       	pop	r0
		}
	
	
		if(doLoop)
    695e:	80 91 d3 08 	lds	r24, 0x08D3
    6962:	90 91 d4 08 	lds	r25, 0x08D4
    6966:	00 97       	sbiw	r24, 0x00	; 0
    6968:	61 f0       	breq	.+24     	; 0x6982 <main+0x9a>
		{
			executeControl();
    696a:	0e 94 57 27 	call	0x4eae	; 0x4eae <executeControl>
			count = count + 100;
    696e:	80 91 84 09 	lds	r24, 0x0984
    6972:	90 91 85 09 	lds	r25, 0x0985
    6976:	8c 59       	subi	r24, 0x9C	; 156
    6978:	9f 4f       	sbci	r25, 0xFF	; 255
    697a:	90 93 85 09 	sts	0x0985, r25
    697e:	80 93 84 09 	sts	0x0984, r24
		}
	
		if(doGripper)
    6982:	80 91 f4 08 	lds	r24, 0x08F4
    6986:	90 91 f5 08 	lds	r25, 0x08F5
    698a:	00 97       	sbiw	r24, 0x00	; 0
    698c:	11 f0       	breq	.+4      	; 0x6992 <main+0xaa>
		{
			executeGripper();
    698e:	0e 94 03 0e 	call	0x1c06	; 0x1c06 <executeGripper>
    6992:	8f ed       	ldi	r24, 0xDF	; 223
    6994:	9e e2       	ldi	r25, 0x2E	; 46
    6996:	01 97       	sbiw	r24, 0x01	; 1
    6998:	f1 f7       	brne	.-4      	; 0x6996 <main+0xae>
    699a:	00 c0       	rjmp	.+0      	; 0x699c <main+0xb4>
    699c:	00 00       	nop
		}
		
		_delay_ms(3);
	

		Leds();
    699e:	0e 94 39 34 	call	0x6872	; 0x6872 <Leds>
	}
    69a2:	c9 cf       	rjmp	.-110    	; 0x6936 <main+0x4e>

000069a4 <dxl_get_result>:
    69a4:	80 91 e1 08 	lds	r24, 0x08E1
    69a8:	90 91 e2 08 	lds	r25, 0x08E2
    69ac:	08 95       	ret

000069ae <dxl_set_txpacket_id>:
    69ae:	80 93 8b 09 	sts	0x098B, r24
    69b2:	08 95       	ret

000069b4 <dxl_set_txpacket_instruction>:
    69b4:	80 93 8d 09 	sts	0x098D, r24
    69b8:	08 95       	ret

000069ba <dxl_set_txpacket_parameter>:
    69ba:	fc 01       	movw	r30, r24
    69bc:	e7 57       	subi	r30, 0x77	; 119
    69be:	f6 4f       	sbci	r31, 0xF6	; 246
    69c0:	65 83       	std	Z+5, r22	; 0x05
    69c2:	08 95       	ret

000069c4 <dxl_set_txpacket_length>:
    69c4:	80 93 8c 09 	sts	0x098C, r24
    69c8:	08 95       	ret

000069ca <dxl_get_rxpacket_error>:
    69ca:	20 e0       	ldi	r18, 0x00	; 0
    69cc:	30 e0       	ldi	r19, 0x00	; 0
    69ce:	90 91 2d 0a 	lds	r25, 0x0A2D
    69d2:	98 23       	and	r25, r24
    69d4:	11 f0       	breq	.+4      	; 0x69da <dxl_get_rxpacket_error+0x10>
    69d6:	21 e0       	ldi	r18, 0x01	; 1
    69d8:	30 e0       	ldi	r19, 0x00	; 0
    69da:	c9 01       	movw	r24, r18
    69dc:	08 95       	ret

000069de <dxl_get_rxpacket_length>:
    69de:	80 91 2c 0a 	lds	r24, 0x0A2C
    69e2:	90 e0       	ldi	r25, 0x00	; 0
    69e4:	08 95       	ret

000069e6 <dxl_get_rxpacket_parameter>:
    69e6:	fc 01       	movw	r30, r24
    69e8:	e7 5d       	subi	r30, 0xD7	; 215
    69ea:	f5 4f       	sbci	r31, 0xF5	; 245
    69ec:	85 81       	ldd	r24, Z+5	; 0x05
    69ee:	90 e0       	ldi	r25, 0x00	; 0
    69f0:	08 95       	ret

000069f2 <dxl_makeword>:
    69f2:	36 2f       	mov	r19, r22
    69f4:	20 e0       	ldi	r18, 0x00	; 0
    69f6:	28 0f       	add	r18, r24
    69f8:	39 1f       	adc	r19, r25
    69fa:	c9 01       	movw	r24, r18
    69fc:	08 95       	ret

000069fe <dxl_get_lowbyte>:
    69fe:	28 2f       	mov	r18, r24
    6a00:	30 e0       	ldi	r19, 0x00	; 0
    6a02:	c9 01       	movw	r24, r18
    6a04:	08 95       	ret

00006a06 <dxl_get_highbyte>:
    6a06:	80 70       	andi	r24, 0x00	; 0
    6a08:	89 2f       	mov	r24, r25
    6a0a:	90 e0       	ldi	r25, 0x00	; 0
    6a0c:	08 95       	ret

00006a0e <dxl_rx_packet>:
    6a0e:	0f 93       	push	r16
    6a10:	1f 93       	push	r17
    6a12:	cf 93       	push	r28
    6a14:	df 93       	push	r29
    6a16:	80 91 71 0a 	lds	r24, 0x0A71
    6a1a:	90 91 72 0a 	lds	r25, 0x0A72
    6a1e:	89 2b       	or	r24, r25
    6a20:	09 f4       	brne	.+2      	; 0x6a24 <dxl_rx_packet+0x16>
    6a22:	bb c0       	rjmp	.+374    	; 0x6b9a <dxl_rx_packet+0x18c>
    6a24:	80 91 8b 09 	lds	r24, 0x098B
    6a28:	8e 3f       	cpi	r24, 0xFE	; 254
    6a2a:	09 f4       	brne	.+2      	; 0x6a2e <dxl_rx_packet+0x20>
    6a2c:	ac c0       	rjmp	.+344    	; 0x6b86 <dxl_rx_packet+0x178>
    6a2e:	80 91 e1 08 	lds	r24, 0x08E1
    6a32:	90 91 e2 08 	lds	r25, 0x08E2
    6a36:	89 2b       	or	r24, r25
    6a38:	29 f4       	brne	.+10     	; 0x6a44 <dxl_rx_packet+0x36>
    6a3a:	10 92 70 0a 	sts	0x0A70, r1
    6a3e:	86 e0       	ldi	r24, 0x06	; 6
    6a40:	80 93 6f 0a 	sts	0x0A6F, r24
    6a44:	80 91 70 0a 	lds	r24, 0x0A70
    6a48:	90 e0       	ldi	r25, 0x00	; 0
    6a4a:	60 91 6f 0a 	lds	r22, 0x0A6F
    6a4e:	70 e0       	ldi	r23, 0x00	; 0
    6a50:	68 1b       	sub	r22, r24
    6a52:	79 0b       	sbc	r23, r25
    6a54:	87 5d       	subi	r24, 0xD7	; 215
    6a56:	95 4f       	sbci	r25, 0xF5	; 245
    6a58:	0e 94 86 38 	call	0x710c	; 0x710c <dxl_hal_rx>
    6a5c:	90 91 70 0a 	lds	r25, 0x0A70
    6a60:	98 0f       	add	r25, r24
    6a62:	90 93 70 0a 	sts	0x0A70, r25
    6a66:	80 91 6f 0a 	lds	r24, 0x0A6F
    6a6a:	98 17       	cp	r25, r24
    6a6c:	20 f4       	brcc	.+8      	; 0x6a76 <dxl_rx_packet+0x68>
    6a6e:	0e 94 90 37 	call	0x6f20	; 0x6f20 <dxl_hal_timeout>
    6a72:	01 97       	sbiw	r24, 0x01	; 1
    6a74:	71 f0       	breq	.+28     	; 0x6a92 <dxl_rx_packet+0x84>
    6a76:	70 91 70 0a 	lds	r23, 0x0A70
    6a7a:	47 2f       	mov	r20, r23
    6a7c:	50 e0       	ldi	r21, 0x00	; 0
    6a7e:	da 01       	movw	r26, r20
    6a80:	11 97       	sbiw	r26, 0x01	; 1
    6a82:	8a 01       	movw	r16, r20
    6a84:	02 50       	subi	r16, 0x02	; 2
    6a86:	10 40       	sbci	r17, 0x00	; 0
    6a88:	60 e0       	ldi	r22, 0x00	; 0
    6a8a:	ed 01       	movw	r28, r26
    6a8c:	c7 5d       	subi	r28, 0xD7	; 215
    6a8e:	d5 4f       	sbci	r29, 0xF5	; 245
    6a90:	18 c0       	rjmp	.+48     	; 0x6ac2 <dxl_rx_packet+0xb4>
    6a92:	80 91 70 0a 	lds	r24, 0x0A70
    6a96:	88 23       	and	r24, r24
    6a98:	09 f0       	breq	.+2      	; 0x6a9c <dxl_rx_packet+0x8e>
    6a9a:	72 c0       	rjmp	.+228    	; 0x6b80 <dxl_rx_packet+0x172>
    6a9c:	86 e0       	ldi	r24, 0x06	; 6
    6a9e:	90 e0       	ldi	r25, 0x00	; 0
    6aa0:	74 c0       	rjmp	.+232    	; 0x6b8a <dxl_rx_packet+0x17c>
    6aa2:	f9 01       	movw	r30, r18
    6aa4:	e7 5d       	subi	r30, 0xD7	; 215
    6aa6:	f5 4f       	sbci	r31, 0xF5	; 245
    6aa8:	80 81       	ld	r24, Z
    6aaa:	8f 3f       	cpi	r24, 0xFF	; 255
    6aac:	19 f4       	brne	.+6      	; 0x6ab4 <dxl_rx_packet+0xa6>
    6aae:	81 81       	ldd	r24, Z+1	; 0x01
    6ab0:	8f 3f       	cpi	r24, 0xFF	; 255
    6ab2:	61 f0       	breq	.+24     	; 0x6acc <dxl_rx_packet+0xbe>
    6ab4:	20 17       	cp	r18, r16
    6ab6:	31 07       	cpc	r19, r17
    6ab8:	19 f4       	brne	.+6      	; 0x6ac0 <dxl_rx_packet+0xb2>
    6aba:	88 81       	ld	r24, Y
    6abc:	8f 3f       	cpi	r24, 0xFF	; 255
    6abe:	31 f0       	breq	.+12     	; 0x6acc <dxl_rx_packet+0xbe>
    6ac0:	6f 5f       	subi	r22, 0xFF	; 255
    6ac2:	26 2f       	mov	r18, r22
    6ac4:	30 e0       	ldi	r19, 0x00	; 0
    6ac6:	2a 17       	cp	r18, r26
    6ac8:	3b 07       	cpc	r19, r27
    6aca:	5c f3       	brlt	.-42     	; 0x6aa2 <dxl_rx_packet+0x94>
    6acc:	66 23       	and	r22, r22
    6ace:	a1 f0       	breq	.+40     	; 0x6af8 <dxl_rx_packet+0xea>
    6ad0:	90 e0       	ldi	r25, 0x00	; 0
    6ad2:	42 1b       	sub	r20, r18
    6ad4:	53 0b       	sbc	r21, r19
    6ad6:	08 c0       	rjmp	.+16     	; 0x6ae8 <dxl_rx_packet+0xda>
    6ad8:	e7 5d       	subi	r30, 0xD7	; 215
    6ada:	f5 4f       	sbci	r31, 0xF5	; 245
    6adc:	df 01       	movw	r26, r30
    6ade:	a2 0f       	add	r26, r18
    6ae0:	b3 1f       	adc	r27, r19
    6ae2:	8c 91       	ld	r24, X
    6ae4:	80 83       	st	Z, r24
    6ae6:	9f 5f       	subi	r25, 0xFF	; 255
    6ae8:	e9 2f       	mov	r30, r25
    6aea:	f0 e0       	ldi	r31, 0x00	; 0
    6aec:	e4 17       	cp	r30, r20
    6aee:	f5 07       	cpc	r31, r21
    6af0:	9c f3       	brlt	.-26     	; 0x6ad8 <dxl_rx_packet+0xca>
    6af2:	76 1b       	sub	r23, r22
    6af4:	70 93 70 0a 	sts	0x0A70, r23
    6af8:	20 91 70 0a 	lds	r18, 0x0A70
    6afc:	80 91 6f 0a 	lds	r24, 0x0A6F
    6b00:	28 17       	cp	r18, r24
    6b02:	30 f1       	brcs	.+76     	; 0x6b50 <dxl_rx_packet+0x142>
    6b04:	90 91 8b 09 	lds	r25, 0x098B
    6b08:	80 91 2b 0a 	lds	r24, 0x0A2B
    6b0c:	98 17       	cp	r25, r24
    6b0e:	c1 f5       	brne	.+112    	; 0x6b80 <dxl_rx_packet+0x172>
    6b10:	60 91 2c 0a 	lds	r22, 0x0A2C
    6b14:	6c 5f       	subi	r22, 0xFC	; 252
    6b16:	60 93 6f 0a 	sts	0x0A6F, r22
    6b1a:	26 17       	cp	r18, r22
    6b1c:	90 f4       	brcc	.+36     	; 0x6b42 <dxl_rx_packet+0x134>
    6b1e:	82 2f       	mov	r24, r18
    6b20:	90 e0       	ldi	r25, 0x00	; 0
    6b22:	70 e0       	ldi	r23, 0x00	; 0
    6b24:	68 1b       	sub	r22, r24
    6b26:	79 0b       	sbc	r23, r25
    6b28:	87 5d       	subi	r24, 0xD7	; 215
    6b2a:	95 4f       	sbci	r25, 0xF5	; 245
    6b2c:	0e 94 86 38 	call	0x710c	; 0x710c <dxl_hal_rx>
    6b30:	90 91 70 0a 	lds	r25, 0x0A70
    6b34:	98 0f       	add	r25, r24
    6b36:	90 93 70 0a 	sts	0x0A70, r25
    6b3a:	80 91 6f 0a 	lds	r24, 0x0A6F
    6b3e:	98 17       	cp	r25, r24
    6b40:	38 f0       	brcs	.+14     	; 0x6b50 <dxl_rx_packet+0x142>
    6b42:	80 91 2c 0a 	lds	r24, 0x0A2C
    6b46:	a8 2f       	mov	r26, r24
    6b48:	b0 e0       	ldi	r27, 0x00	; 0
    6b4a:	20 e0       	ldi	r18, 0x00	; 0
    6b4c:	90 e0       	ldi	r25, 0x00	; 0
    6b4e:	0c c0       	rjmp	.+24     	; 0x6b68 <dxl_rx_packet+0x15a>
    6b50:	85 e0       	ldi	r24, 0x05	; 5
    6b52:	90 e0       	ldi	r25, 0x00	; 0
    6b54:	90 93 e2 08 	sts	0x08E2, r25
    6b58:	80 93 e1 08 	sts	0x08E1, r24
    6b5c:	1e c0       	rjmp	.+60     	; 0x6b9a <dxl_rx_packet+0x18c>
    6b5e:	e7 5d       	subi	r30, 0xD7	; 215
    6b60:	f5 4f       	sbci	r31, 0xF5	; 245
    6b62:	82 81       	ldd	r24, Z+2	; 0x02
    6b64:	98 0f       	add	r25, r24
    6b66:	2f 5f       	subi	r18, 0xFF	; 255
    6b68:	e2 2f       	mov	r30, r18
    6b6a:	f0 e0       	ldi	r31, 0x00	; 0
    6b6c:	ae 17       	cp	r26, r30
    6b6e:	bf 07       	cpc	r27, r31
    6b70:	b4 f7       	brge	.-20     	; 0x6b5e <dxl_rx_packet+0x150>
    6b72:	a7 5d       	subi	r26, 0xD7	; 215
    6b74:	b5 4f       	sbci	r27, 0xF5	; 245
    6b76:	90 95       	com	r25
    6b78:	13 96       	adiw	r26, 0x03	; 3
    6b7a:	8c 91       	ld	r24, X
    6b7c:	89 17       	cp	r24, r25
    6b7e:	19 f0       	breq	.+6      	; 0x6b86 <dxl_rx_packet+0x178>
    6b80:	87 e0       	ldi	r24, 0x07	; 7
    6b82:	90 e0       	ldi	r25, 0x00	; 0
    6b84:	02 c0       	rjmp	.+4      	; 0x6b8a <dxl_rx_packet+0x17c>
    6b86:	81 e0       	ldi	r24, 0x01	; 1
    6b88:	90 e0       	ldi	r25, 0x00	; 0
    6b8a:	90 93 e2 08 	sts	0x08E2, r25
    6b8e:	80 93 e1 08 	sts	0x08E1, r24
    6b92:	10 92 72 0a 	sts	0x0A72, r1
    6b96:	10 92 71 0a 	sts	0x0A71, r1
    6b9a:	df 91       	pop	r29
    6b9c:	cf 91       	pop	r28
    6b9e:	1f 91       	pop	r17
    6ba0:	0f 91       	pop	r16
    6ba2:	08 95       	ret

00006ba4 <dxl_tx_packet>:
    6ba4:	1f 93       	push	r17
    6ba6:	80 91 71 0a 	lds	r24, 0x0A71
    6baa:	90 91 72 0a 	lds	r25, 0x0A72
    6bae:	01 97       	sbiw	r24, 0x01	; 1
    6bb0:	09 f4       	brne	.+2      	; 0x6bb4 <dxl_tx_packet+0x10>
    6bb2:	60 c0       	rjmp	.+192    	; 0x6c74 <dxl_tx_packet+0xd0>
    6bb4:	81 e0       	ldi	r24, 0x01	; 1
    6bb6:	90 e0       	ldi	r25, 0x00	; 0
    6bb8:	90 93 72 0a 	sts	0x0A72, r25
    6bbc:	80 93 71 0a 	sts	0x0A71, r24
    6bc0:	80 91 8c 09 	lds	r24, 0x098C
    6bc4:	89 39       	cpi	r24, 0x99	; 153
    6bc6:	40 f4       	brcc	.+16     	; 0x6bd8 <dxl_tx_packet+0x34>
    6bc8:	90 91 8d 09 	lds	r25, 0x098D
    6bcc:	89 2f       	mov	r24, r25
    6bce:	81 50       	subi	r24, 0x01	; 1
    6bd0:	86 30       	cpi	r24, 0x06	; 6
    6bd2:	28 f0       	brcs	.+10     	; 0x6bde <dxl_tx_packet+0x3a>
    6bd4:	93 38       	cpi	r25, 0x83	; 131
    6bd6:	19 f0       	breq	.+6      	; 0x6bde <dxl_tx_packet+0x3a>
    6bd8:	84 e0       	ldi	r24, 0x04	; 4
    6bda:	90 e0       	ldi	r25, 0x00	; 0
    6bdc:	31 c0       	rjmp	.+98     	; 0x6c40 <dxl_tx_packet+0x9c>
    6bde:	8f ef       	ldi	r24, 0xFF	; 255
    6be0:	80 93 89 09 	sts	0x0989, r24
    6be4:	80 93 8a 09 	sts	0x098A, r24
    6be8:	80 91 8c 09 	lds	r24, 0x098C
    6bec:	a8 2f       	mov	r26, r24
    6bee:	b0 e0       	ldi	r27, 0x00	; 0
    6bf0:	20 e0       	ldi	r18, 0x00	; 0
    6bf2:	90 e0       	ldi	r25, 0x00	; 0
    6bf4:	05 c0       	rjmp	.+10     	; 0x6c00 <dxl_tx_packet+0x5c>
    6bf6:	e7 57       	subi	r30, 0x77	; 119
    6bf8:	f6 4f       	sbci	r31, 0xF6	; 246
    6bfa:	82 81       	ldd	r24, Z+2	; 0x02
    6bfc:	98 0f       	add	r25, r24
    6bfe:	2f 5f       	subi	r18, 0xFF	; 255
    6c00:	e2 2f       	mov	r30, r18
    6c02:	f0 e0       	ldi	r31, 0x00	; 0
    6c04:	ae 17       	cp	r26, r30
    6c06:	bf 07       	cpc	r27, r31
    6c08:	b4 f7       	brge	.-20     	; 0x6bf6 <dxl_tx_packet+0x52>
    6c0a:	a7 57       	subi	r26, 0x77	; 119
    6c0c:	b6 4f       	sbci	r27, 0xF6	; 246
    6c0e:	90 95       	com	r25
    6c10:	13 96       	adiw	r26, 0x03	; 3
    6c12:	9c 93       	st	X, r25
    6c14:	80 91 e1 08 	lds	r24, 0x08E1
    6c18:	90 91 e2 08 	lds	r25, 0x08E2
    6c1c:	06 97       	sbiw	r24, 0x06	; 6
    6c1e:	02 97       	sbiw	r24, 0x02	; 2
    6c20:	10 f4       	brcc	.+4      	; 0x6c26 <dxl_tx_packet+0x82>
    6c22:	0e 94 56 37 	call	0x6eac	; 0x6eac <dxl_hal_clear>
    6c26:	10 91 8c 09 	lds	r17, 0x098C
    6c2a:	1c 5f       	subi	r17, 0xFC	; 252
    6c2c:	89 e8       	ldi	r24, 0x89	; 137
    6c2e:	99 e0       	ldi	r25, 0x09	; 9
    6c30:	61 2f       	mov	r22, r17
    6c32:	70 e0       	ldi	r23, 0x00	; 0
    6c34:	0e 94 5b 37 	call	0x6eb6	; 0x6eb6 <dxl_hal_tx>
    6c38:	18 17       	cp	r17, r24
    6c3a:	59 f0       	breq	.+22     	; 0x6c52 <dxl_tx_packet+0xae>
    6c3c:	82 e0       	ldi	r24, 0x02	; 2
    6c3e:	90 e0       	ldi	r25, 0x00	; 0
    6c40:	90 93 e2 08 	sts	0x08E2, r25
    6c44:	80 93 e1 08 	sts	0x08E1, r24
    6c48:	10 92 72 0a 	sts	0x0A72, r1
    6c4c:	10 92 71 0a 	sts	0x0A71, r1
    6c50:	11 c0       	rjmp	.+34     	; 0x6c74 <dxl_tx_packet+0xd0>
    6c52:	80 91 8d 09 	lds	r24, 0x098D
    6c56:	82 30       	cpi	r24, 0x02	; 2
    6c58:	29 f4       	brne	.+10     	; 0x6c64 <dxl_tx_packet+0xc0>
    6c5a:	80 91 8f 09 	lds	r24, 0x098F
    6c5e:	90 e0       	ldi	r25, 0x00	; 0
    6c60:	06 96       	adiw	r24, 0x06	; 6
    6c62:	02 c0       	rjmp	.+4      	; 0x6c68 <dxl_tx_packet+0xc4>
    6c64:	86 e0       	ldi	r24, 0x06	; 6
    6c66:	90 e0       	ldi	r25, 0x00	; 0
    6c68:	0e 94 7f 37 	call	0x6efe	; 0x6efe <dxl_hal_set_timeout>
    6c6c:	10 92 e2 08 	sts	0x08E2, r1
    6c70:	10 92 e1 08 	sts	0x08E1, r1
    6c74:	1f 91       	pop	r17
    6c76:	08 95       	ret

00006c78 <dxl_txrx_packet>:
    6c78:	0e 94 d2 35 	call	0x6ba4	; 0x6ba4 <dxl_tx_packet>
    6c7c:	80 91 e1 08 	lds	r24, 0x08E1
    6c80:	90 91 e2 08 	lds	r25, 0x08E2
    6c84:	89 2b       	or	r24, r25
    6c86:	41 f4       	brne	.+16     	; 0x6c98 <dxl_txrx_packet+0x20>
    6c88:	0e 94 07 35 	call	0x6a0e	; 0x6a0e <dxl_rx_packet>
    6c8c:	80 91 e1 08 	lds	r24, 0x08E1
    6c90:	90 91 e2 08 	lds	r25, 0x08E2
    6c94:	05 97       	sbiw	r24, 0x05	; 5
    6c96:	c1 f3       	breq	.-16     	; 0x6c88 <dxl_txrx_packet+0x10>
    6c98:	08 95       	ret

00006c9a <dxl_write_word>:
    6c9a:	28 2f       	mov	r18, r24
    6c9c:	80 91 71 0a 	lds	r24, 0x0A71
    6ca0:	90 91 72 0a 	lds	r25, 0x0A72
    6ca4:	89 2b       	or	r24, r25
    6ca6:	99 f4       	brne	.+38     	; 0x6cce <dxl_write_word+0x34>
    6ca8:	20 93 8b 09 	sts	0x098B, r18
    6cac:	83 e0       	ldi	r24, 0x03	; 3
    6cae:	80 93 8d 09 	sts	0x098D, r24
    6cb2:	60 93 8e 09 	sts	0x098E, r22
    6cb6:	ca 01       	movw	r24, r20
    6cb8:	40 93 8f 09 	sts	0x098F, r20
    6cbc:	80 70       	andi	r24, 0x00	; 0
    6cbe:	90 93 90 09 	sts	0x0990, r25
    6cc2:	85 e0       	ldi	r24, 0x05	; 5
    6cc4:	80 93 8c 09 	sts	0x098C, r24
    6cc8:	0e 94 3c 36 	call	0x6c78	; 0x6c78 <dxl_txrx_packet>
    6ccc:	08 95       	ret
    6cce:	ff cf       	rjmp	.-2      	; 0x6cce <dxl_write_word+0x34>

00006cd0 <dxl_read_word>:
    6cd0:	28 2f       	mov	r18, r24
    6cd2:	80 91 71 0a 	lds	r24, 0x0A71
    6cd6:	90 91 72 0a 	lds	r25, 0x0A72
    6cda:	89 2b       	or	r24, r25
    6cdc:	b9 f4       	brne	.+46     	; 0x6d0c <dxl_read_word+0x3c>
    6cde:	20 93 8b 09 	sts	0x098B, r18
    6ce2:	82 e0       	ldi	r24, 0x02	; 2
    6ce4:	80 93 8d 09 	sts	0x098D, r24
    6ce8:	60 93 8e 09 	sts	0x098E, r22
    6cec:	80 93 8f 09 	sts	0x098F, r24
    6cf0:	84 e0       	ldi	r24, 0x04	; 4
    6cf2:	80 93 8c 09 	sts	0x098C, r24
    6cf6:	0e 94 3c 36 	call	0x6c78	; 0x6c78 <dxl_txrx_packet>
    6cfa:	30 91 2f 0a 	lds	r19, 0x0A2F
    6cfe:	20 e0       	ldi	r18, 0x00	; 0
    6d00:	80 91 2e 0a 	lds	r24, 0x0A2E
    6d04:	28 0f       	add	r18, r24
    6d06:	31 1d       	adc	r19, r1
    6d08:	c9 01       	movw	r24, r18
    6d0a:	08 95       	ret
    6d0c:	ff cf       	rjmp	.-2      	; 0x6d0c <dxl_read_word+0x3c>

00006d0e <dxl_write_byte>:
    6d0e:	28 2f       	mov	r18, r24
    6d10:	80 91 71 0a 	lds	r24, 0x0A71
    6d14:	90 91 72 0a 	lds	r25, 0x0A72
    6d18:	89 2b       	or	r24, r25
    6d1a:	79 f4       	brne	.+30     	; 0x6d3a <dxl_write_byte+0x2c>
    6d1c:	20 93 8b 09 	sts	0x098B, r18
    6d20:	83 e0       	ldi	r24, 0x03	; 3
    6d22:	80 93 8d 09 	sts	0x098D, r24
    6d26:	60 93 8e 09 	sts	0x098E, r22
    6d2a:	40 93 8f 09 	sts	0x098F, r20
    6d2e:	84 e0       	ldi	r24, 0x04	; 4
    6d30:	80 93 8c 09 	sts	0x098C, r24
    6d34:	0e 94 3c 36 	call	0x6c78	; 0x6c78 <dxl_txrx_packet>
    6d38:	08 95       	ret
    6d3a:	ff cf       	rjmp	.-2      	; 0x6d3a <dxl_write_byte+0x2c>

00006d3c <dxl_read_byte>:
    6d3c:	28 2f       	mov	r18, r24
    6d3e:	80 91 71 0a 	lds	r24, 0x0A71
    6d42:	90 91 72 0a 	lds	r25, 0x0A72
    6d46:	89 2b       	or	r24, r25
    6d48:	99 f4       	brne	.+38     	; 0x6d70 <dxl_read_byte+0x34>
    6d4a:	20 93 8b 09 	sts	0x098B, r18
    6d4e:	82 e0       	ldi	r24, 0x02	; 2
    6d50:	80 93 8d 09 	sts	0x098D, r24
    6d54:	60 93 8e 09 	sts	0x098E, r22
    6d58:	81 e0       	ldi	r24, 0x01	; 1
    6d5a:	80 93 8f 09 	sts	0x098F, r24
    6d5e:	84 e0       	ldi	r24, 0x04	; 4
    6d60:	80 93 8c 09 	sts	0x098C, r24
    6d64:	0e 94 3c 36 	call	0x6c78	; 0x6c78 <dxl_txrx_packet>
    6d68:	80 91 2e 0a 	lds	r24, 0x0A2E
    6d6c:	90 e0       	ldi	r25, 0x00	; 0
    6d6e:	08 95       	ret
    6d70:	ff cf       	rjmp	.-2      	; 0x6d70 <dxl_read_byte+0x34>

00006d72 <dxl_ping>:
    6d72:	28 2f       	mov	r18, r24
    6d74:	80 91 71 0a 	lds	r24, 0x0A71
    6d78:	90 91 72 0a 	lds	r25, 0x0A72
    6d7c:	89 2b       	or	r24, r25
    6d7e:	59 f4       	brne	.+22     	; 0x6d96 <dxl_ping+0x24>
    6d80:	20 93 8b 09 	sts	0x098B, r18
    6d84:	81 e0       	ldi	r24, 0x01	; 1
    6d86:	80 93 8d 09 	sts	0x098D, r24
    6d8a:	82 e0       	ldi	r24, 0x02	; 2
    6d8c:	80 93 8c 09 	sts	0x098C, r24
    6d90:	0e 94 3c 36 	call	0x6c78	; 0x6c78 <dxl_txrx_packet>
    6d94:	08 95       	ret
    6d96:	ff cf       	rjmp	.-2      	; 0x6d96 <dxl_ping+0x24>

00006d98 <dxl_terminate>:
    6d98:	0e 94 55 37 	call	0x6eaa	; 0x6eaa <dxl_hal_close>
    6d9c:	08 95       	ret

00006d9e <dxl_initialize>:
    6d9e:	0f 93       	push	r16
    6da0:	1f 93       	push	r17
    6da2:	8c 01       	movw	r16, r24
    6da4:	6f 5f       	subi	r22, 0xFF	; 255
    6da6:	7f 4f       	sbci	r23, 0xFF	; 255
    6da8:	88 27       	eor	r24, r24
    6daa:	77 fd       	sbrc	r23, 7
    6dac:	80 95       	com	r24
    6dae:	98 2f       	mov	r25, r24
    6db0:	0e 94 1a 3e 	call	0x7c34	; 0x7c34 <__floatsisf>
    6db4:	9b 01       	movw	r18, r22
    6db6:	ac 01       	movw	r20, r24
    6db8:	60 e0       	ldi	r22, 0x00	; 0
    6dba:	74 e2       	ldi	r23, 0x24	; 36
    6dbc:	84 ef       	ldi	r24, 0xF4	; 244
    6dbe:	99 e4       	ldi	r25, 0x49	; 73
    6dc0:	0e 94 7f 3d 	call	0x7afe	; 0x7afe <__divsf3>
    6dc4:	ab 01       	movw	r20, r22
    6dc6:	bc 01       	movw	r22, r24
    6dc8:	c8 01       	movw	r24, r16
    6dca:	0e 94 fc 36 	call	0x6df8	; 0x6df8 <dxl_hal_open>
    6dce:	89 2b       	or	r24, r25
    6dd0:	19 f4       	brne	.+6      	; 0x6dd8 <dxl_initialize+0x3a>
    6dd2:	20 e0       	ldi	r18, 0x00	; 0
    6dd4:	30 e0       	ldi	r19, 0x00	; 0
    6dd6:	0c c0       	rjmp	.+24     	; 0x6df0 <dxl_initialize+0x52>
    6dd8:	81 e0       	ldi	r24, 0x01	; 1
    6dda:	90 e0       	ldi	r25, 0x00	; 0
    6ddc:	90 93 e2 08 	sts	0x08E2, r25
    6de0:	80 93 e1 08 	sts	0x08E1, r24
    6de4:	10 92 72 0a 	sts	0x0A72, r1
    6de8:	10 92 71 0a 	sts	0x0A71, r1
    6dec:	21 e0       	ldi	r18, 0x01	; 1
    6dee:	30 e0       	ldi	r19, 0x00	; 0
    6df0:	c9 01       	movw	r24, r18
    6df2:	1f 91       	pop	r17
    6df4:	0f 91       	pop	r16
    6df6:	08 95       	ret

00006df8 <dxl_hal_open>:
    6df8:	ef 92       	push	r14
    6dfa:	ff 92       	push	r15
    6dfc:	0f 93       	push	r16
    6dfe:	1f 93       	push	r17
    6e00:	7a 01       	movw	r14, r20
    6e02:	8b 01       	movw	r16, r22
    6e04:	82 e4       	ldi	r24, 0x42	; 66
    6e06:	80 93 c0 00 	sts	0x00C0, r24
    6e0a:	88 e9       	ldi	r24, 0x98	; 152
    6e0c:	80 93 c1 00 	sts	0x00C1, r24
    6e10:	86 e0       	ldi	r24, 0x06	; 6
    6e12:	80 93 c2 00 	sts	0x00C2, r24
    6e16:	60 e0       	ldi	r22, 0x00	; 0
    6e18:	74 e2       	ldi	r23, 0x24	; 36
    6e1a:	84 ef       	ldi	r24, 0xF4	; 244
    6e1c:	99 e4       	ldi	r25, 0x49	; 73
    6e1e:	a8 01       	movw	r20, r16
    6e20:	97 01       	movw	r18, r14
    6e22:	0e 94 7f 3d 	call	0x7afe	; 0x7afe <__divsf3>
    6e26:	0e 94 ec 3d 	call	0x7bd8	; 0x7bd8 <__fixunssfsi>
    6e2a:	61 50       	subi	r22, 0x01	; 1
    6e2c:	70 40       	sbci	r23, 0x00	; 0
    6e2e:	70 93 c5 00 	sts	0x00C5, r23
    6e32:	60 93 c4 00 	sts	0x00C4, r22
    6e36:	60 e0       	ldi	r22, 0x00	; 0
    6e38:	74 e2       	ldi	r23, 0x24	; 36
    6e3a:	84 e7       	ldi	r24, 0x74	; 116
    6e3c:	99 e4       	ldi	r25, 0x49	; 73
    6e3e:	a8 01       	movw	r20, r16
    6e40:	97 01       	movw	r18, r14
    6e42:	0e 94 7f 3d 	call	0x7afe	; 0x7afe <__divsf3>
    6e46:	20 e0       	ldi	r18, 0x00	; 0
    6e48:	30 e0       	ldi	r19, 0x00	; 0
    6e4a:	40 e4       	ldi	r20, 0x40	; 64
    6e4c:	51 e4       	ldi	r21, 0x41	; 65
    6e4e:	0e 94 5f 3f 	call	0x7ebe	; 0x7ebe <__mulsf3>
    6e52:	60 93 e2 12 	sts	0x12E2, r22
    6e56:	70 93 e3 12 	sts	0x12E3, r23
    6e5a:	80 93 e4 12 	sts	0x12E4, r24
    6e5e:	90 93 e5 12 	sts	0x12E5, r25
    6e62:	20 91 e2 12 	lds	r18, 0x12E2
    6e66:	30 91 e3 12 	lds	r19, 0x12E3
    6e6a:	40 91 e4 12 	lds	r20, 0x12E4
    6e6e:	50 91 e5 12 	lds	r21, 0x12E5
    6e72:	60 e0       	ldi	r22, 0x00	; 0
    6e74:	70 e0       	ldi	r23, 0x00	; 0
    6e76:	8a e7       	ldi	r24, 0x7A	; 122
    6e78:	93 e4       	ldi	r25, 0x43	; 67
    6e7a:	0e 94 7f 3d 	call	0x7afe	; 0x7afe <__divsf3>
    6e7e:	0e 94 ec 3d 	call	0x7bd8	; 0x7bd8 <__fixunssfsi>
    6e82:	70 93 e1 12 	sts	0x12E1, r23
    6e86:	60 93 e0 12 	sts	0x12E0, r22
    6e8a:	72 98       	cbi	0x0e, 2	; 14
    6e8c:	73 9a       	sbi	0x0e, 3	; 14
    6e8e:	8f ef       	ldi	r24, 0xFF	; 255
    6e90:	80 93 c6 00 	sts	0x00C6, r24
    6e94:	10 92 73 0b 	sts	0x0B73, r1
    6e98:	10 92 74 0b 	sts	0x0B74, r1
    6e9c:	81 e0       	ldi	r24, 0x01	; 1
    6e9e:	90 e0       	ldi	r25, 0x00	; 0
    6ea0:	1f 91       	pop	r17
    6ea2:	0f 91       	pop	r16
    6ea4:	ff 90       	pop	r15
    6ea6:	ef 90       	pop	r14
    6ea8:	08 95       	ret

00006eaa <dxl_hal_close>:
    6eaa:	08 95       	ret

00006eac <dxl_hal_clear>:
    6eac:	80 91 74 0b 	lds	r24, 0x0B74
    6eb0:	80 93 73 0b 	sts	0x0B73, r24
    6eb4:	08 95       	ret

00006eb6 <dxl_hal_tx>:
    6eb6:	ac 01       	movw	r20, r24
    6eb8:	f8 94       	cli
    6eba:	73 98       	cbi	0x0e, 3	; 14
    6ebc:	72 9a       	sbi	0x0e, 2	; 14
    6ebe:	20 e0       	ldi	r18, 0x00	; 0
    6ec0:	30 e0       	ldi	r19, 0x00	; 0
    6ec2:	11 c0       	rjmp	.+34     	; 0x6ee6 <dxl_hal_tx+0x30>
    6ec4:	80 91 c0 00 	lds	r24, 0x00C0
    6ec8:	85 ff       	sbrs	r24, 5
    6eca:	fc cf       	rjmp	.-8      	; 0x6ec4 <dxl_hal_tx+0xe>
    6ecc:	80 91 c0 00 	lds	r24, 0x00C0
    6ed0:	80 64       	ori	r24, 0x40	; 64
    6ed2:	80 93 c0 00 	sts	0x00C0, r24
    6ed6:	fa 01       	movw	r30, r20
    6ed8:	e2 0f       	add	r30, r18
    6eda:	f3 1f       	adc	r31, r19
    6edc:	80 81       	ld	r24, Z
    6ede:	80 93 c6 00 	sts	0x00C6, r24
    6ee2:	2f 5f       	subi	r18, 0xFF	; 255
    6ee4:	3f 4f       	sbci	r19, 0xFF	; 255
    6ee6:	26 17       	cp	r18, r22
    6ee8:	37 07       	cpc	r19, r23
    6eea:	64 f3       	brlt	.-40     	; 0x6ec4 <dxl_hal_tx+0xe>
    6eec:	80 91 c0 00 	lds	r24, 0x00C0
    6ef0:	86 ff       	sbrs	r24, 6
    6ef2:	fc cf       	rjmp	.-8      	; 0x6eec <dxl_hal_tx+0x36>
    6ef4:	72 98       	cbi	0x0e, 2	; 14
    6ef6:	73 9a       	sbi	0x0e, 3	; 14
    6ef8:	78 94       	sei
    6efa:	c9 01       	movw	r24, r18
    6efc:	08 95       	ret

00006efe <dxl_hal_set_timeout>:
    6efe:	10 92 e9 12 	sts	0x12E9, r1
    6f02:	10 92 e8 12 	sts	0x12E8, r1
    6f06:	20 91 e0 12 	lds	r18, 0x12E0
    6f0a:	30 91 e1 12 	lds	r19, 0x12E1
    6f0e:	26 5f       	subi	r18, 0xF6	; 246
    6f10:	3f 4f       	sbci	r19, 0xFF	; 255
    6f12:	28 0f       	add	r18, r24
    6f14:	39 1f       	adc	r19, r25
    6f16:	30 93 e7 12 	sts	0x12E7, r19
    6f1a:	20 93 e6 12 	sts	0x12E6, r18
    6f1e:	08 95       	ret

00006f20 <dxl_hal_timeout>:
    6f20:	af 92       	push	r10
    6f22:	bf 92       	push	r11
    6f24:	cf 92       	push	r12
    6f26:	df 92       	push	r13
    6f28:	ef 92       	push	r14
    6f2a:	ff 92       	push	r15
    6f2c:	0f 93       	push	r16
    6f2e:	1f 93       	push	r17
    6f30:	80 91 e8 12 	lds	r24, 0x12E8
    6f34:	90 91 e9 12 	lds	r25, 0x12E9
    6f38:	01 96       	adiw	r24, 0x01	; 1
    6f3a:	90 93 e9 12 	sts	0x12E9, r25
    6f3e:	80 93 e8 12 	sts	0x12E8, r24
    6f42:	20 91 e8 12 	lds	r18, 0x12E8
    6f46:	30 91 e9 12 	lds	r19, 0x12E9
    6f4a:	80 91 e6 12 	lds	r24, 0x12E6
    6f4e:	90 91 e7 12 	lds	r25, 0x12E7
    6f52:	82 17       	cp	r24, r18
    6f54:	93 07       	cpc	r25, r19
    6f56:	18 f4       	brcc	.+6      	; 0x6f5e <dxl_hal_timeout+0x3e>
    6f58:	21 e0       	ldi	r18, 0x01	; 1
    6f5a:	30 e0       	ldi	r19, 0x00	; 0
    6f5c:	74 c0       	rjmp	.+232    	; 0x7046 <dxl_hal_timeout+0x126>
    6f5e:	a0 90 e2 12 	lds	r10, 0x12E2
    6f62:	b0 90 e3 12 	lds	r11, 0x12E3
    6f66:	c0 90 e4 12 	lds	r12, 0x12E4
    6f6a:	d0 90 e5 12 	lds	r13, 0x12E5
 */
void
_delay_us(double __us)
{
	uint8_t __ticks;
	double __tmp = ((F_CPU) / 3e6) * __us;
    6f6e:	c6 01       	movw	r24, r12
    6f70:	b5 01       	movw	r22, r10
    6f72:	2b ea       	ldi	r18, 0xAB	; 171
    6f74:	3a ea       	ldi	r19, 0xAA	; 170
    6f76:	4a ea       	ldi	r20, 0xAA	; 170
    6f78:	50 e4       	ldi	r21, 0x40	; 64
    6f7a:	0e 94 5f 3f 	call	0x7ebe	; 0x7ebe <__mulsf3>
    6f7e:	7b 01       	movw	r14, r22
    6f80:	8c 01       	movw	r16, r24
	if (__tmp < 1.0)
    6f82:	20 e0       	ldi	r18, 0x00	; 0
    6f84:	30 e0       	ldi	r19, 0x00	; 0
    6f86:	40 e8       	ldi	r20, 0x80	; 128
    6f88:	5f e3       	ldi	r21, 0x3F	; 63
    6f8a:	0e 94 78 3d 	call	0x7af0	; 0x7af0 <__cmpsf2>
    6f8e:	88 23       	and	r24, r24
    6f90:	14 f4       	brge	.+4      	; 0x6f96 <dxl_hal_timeout+0x76>
    6f92:	61 e0       	ldi	r22, 0x01	; 1
    6f94:	54 c0       	rjmp	.+168    	; 0x703e <dxl_hal_timeout+0x11e>
		__ticks = 1;
	else if (__tmp > 255)
    6f96:	c8 01       	movw	r24, r16
    6f98:	b7 01       	movw	r22, r14
    6f9a:	20 e0       	ldi	r18, 0x00	; 0
    6f9c:	30 e0       	ldi	r19, 0x00	; 0
    6f9e:	4f e7       	ldi	r20, 0x7F	; 127
    6fa0:	53 e4       	ldi	r21, 0x43	; 67
    6fa2:	0e 94 54 3f 	call	0x7ea8	; 0x7ea8 <__gesf2>
    6fa6:	18 16       	cp	r1, r24
    6fa8:	0c f0       	brlt	.+2      	; 0x6fac <dxl_hal_timeout+0x8c>
    6faa:	45 c0       	rjmp	.+138    	; 0x7036 <dxl_hal_timeout+0x116>
	{
		_delay_ms(__us / 1000.0);
    6fac:	c6 01       	movw	r24, r12
    6fae:	b5 01       	movw	r22, r10
    6fb0:	20 e0       	ldi	r18, 0x00	; 0
    6fb2:	30 e0       	ldi	r19, 0x00	; 0
    6fb4:	4a e7       	ldi	r20, 0x7A	; 122
    6fb6:	54 e4       	ldi	r21, 0x44	; 68
    6fb8:	0e 94 7f 3d 	call	0x7afe	; 0x7afe <__divsf3>
    6fbc:	5b 01       	movw	r10, r22
    6fbe:	6c 01       	movw	r12, r24
 */
void
_delay_ms(double __ms)
{
	uint16_t __ticks;
	double __tmp = ((F_CPU) / 4e3) * __ms;
    6fc0:	20 e0       	ldi	r18, 0x00	; 0
    6fc2:	30 e0       	ldi	r19, 0x00	; 0
    6fc4:	4a e7       	ldi	r20, 0x7A	; 122
    6fc6:	55 e4       	ldi	r21, 0x45	; 69
    6fc8:	0e 94 5f 3f 	call	0x7ebe	; 0x7ebe <__mulsf3>
    6fcc:	7b 01       	movw	r14, r22
    6fce:	8c 01       	movw	r16, r24
	if (__tmp < 1.0)
    6fd0:	20 e0       	ldi	r18, 0x00	; 0
    6fd2:	30 e0       	ldi	r19, 0x00	; 0
    6fd4:	40 e8       	ldi	r20, 0x80	; 128
    6fd6:	5f e3       	ldi	r21, 0x3F	; 63
    6fd8:	0e 94 78 3d 	call	0x7af0	; 0x7af0 <__cmpsf2>
    6fdc:	88 23       	and	r24, r24
    6fde:	1c f4       	brge	.+6      	; 0x6fe6 <dxl_hal_timeout+0xc6>
    6fe0:	61 e0       	ldi	r22, 0x01	; 1
    6fe2:	70 e0       	ldi	r23, 0x00	; 0
    6fe4:	24 c0       	rjmp	.+72     	; 0x702e <dxl_hal_timeout+0x10e>
		__ticks = 1;
	else if (__tmp > 65535)
    6fe6:	c8 01       	movw	r24, r16
    6fe8:	b7 01       	movw	r22, r14
    6fea:	20 e0       	ldi	r18, 0x00	; 0
    6fec:	3f ef       	ldi	r19, 0xFF	; 255
    6fee:	4f e7       	ldi	r20, 0x7F	; 127
    6ff0:	57 e4       	ldi	r21, 0x47	; 71
    6ff2:	0e 94 54 3f 	call	0x7ea8	; 0x7ea8 <__gesf2>
    6ff6:	18 16       	cp	r1, r24
    6ff8:	b4 f4       	brge	.+44     	; 0x7026 <dxl_hal_timeout+0x106>
	{
		//	__ticks = requested delay in 1/10 ms
		__ticks = (uint16_t) (__ms * 10.0);
    6ffa:	c6 01       	movw	r24, r12
    6ffc:	b5 01       	movw	r22, r10
    6ffe:	20 e0       	ldi	r18, 0x00	; 0
    7000:	30 e0       	ldi	r19, 0x00	; 0
    7002:	40 e2       	ldi	r20, 0x20	; 32
    7004:	51 e4       	ldi	r21, 0x41	; 65
    7006:	0e 94 5f 3f 	call	0x7ebe	; 0x7ebe <__mulsf3>
    700a:	0e 94 ec 3d 	call	0x7bd8	; 0x7bd8 <__fixunssfsi>
    milliseconds can be achieved.
 */
void
_delay_loop_2(uint16_t __count)
{
	__asm__ volatile (
    700e:	80 e9       	ldi	r24, 0x90	; 144
    7010:	91 e0       	ldi	r25, 0x01	; 1
    7012:	05 c0       	rjmp	.+10     	; 0x701e <dxl_hal_timeout+0xfe>
    7014:	fc 01       	movw	r30, r24
    7016:	31 97       	sbiw	r30, 0x01	; 1
    7018:	f1 f7       	brne	.-4      	; 0x7016 <dxl_hal_timeout+0xf6>
		while(__ticks)
		{
			// wait 1/10 ms
			_delay_loop_2(((F_CPU) / 4e3) / 10);
			__ticks --;
    701a:	61 50       	subi	r22, 0x01	; 1
    701c:	70 40       	sbci	r23, 0x00	; 0
		__ticks = 1;
	else if (__tmp > 65535)
	{
		//	__ticks = requested delay in 1/10 ms
		__ticks = (uint16_t) (__ms * 10.0);
		while(__ticks)
    701e:	61 15       	cp	r22, r1
    7020:	71 05       	cpc	r23, r1
    7022:	c1 f7       	brne	.-16     	; 0x7014 <dxl_hal_timeout+0xf4>
    7024:	0e c0       	rjmp	.+28     	; 0x7042 <dxl_hal_timeout+0x122>
			__ticks --;
		}
		return;
	}
	else
		__ticks = (uint16_t)__tmp;
    7026:	c8 01       	movw	r24, r16
    7028:	b7 01       	movw	r22, r14
    702a:	0e 94 ec 3d 	call	0x7bd8	; 0x7bd8 <__fixunssfsi>
    702e:	cb 01       	movw	r24, r22
    7030:	01 97       	sbiw	r24, 0x01	; 1
    7032:	f1 f7       	brne	.-4      	; 0x7030 <dxl_hal_timeout+0x110>
    7034:	06 c0       	rjmp	.+12     	; 0x7042 <dxl_hal_timeout+0x122>
	{
		_delay_ms(__us / 1000.0);
		return;
	}
	else
		__ticks = (uint8_t)__tmp;
    7036:	c8 01       	movw	r24, r16
    7038:	b7 01       	movw	r22, r14
    703a:	0e 94 ec 3d 	call	0x7bd8	; 0x7bd8 <__fixunssfsi>
    can be achieved.
*/
void
_delay_loop_1(uint8_t __count)
{
	__asm__ volatile (
    703e:	6a 95       	dec	r22
    7040:	f1 f7       	brne	.-4      	; 0x703e <dxl_hal_timeout+0x11e>
    7042:	20 e0       	ldi	r18, 0x00	; 0
    7044:	30 e0       	ldi	r19, 0x00	; 0
    7046:	c9 01       	movw	r24, r18
    7048:	1f 91       	pop	r17
    704a:	0f 91       	pop	r16
    704c:	ff 90       	pop	r15
    704e:	ef 90       	pop	r14
    7050:	df 90       	pop	r13
    7052:	cf 90       	pop	r12
    7054:	bf 90       	pop	r11
    7056:	af 90       	pop	r10
    7058:	08 95       	ret

0000705a <dxl_hal_get_qstate>:
    705a:	90 91 73 0b 	lds	r25, 0x0B73
    705e:	80 91 74 0b 	lds	r24, 0x0B74
    7062:	98 17       	cp	r25, r24
    7064:	19 f4       	brne	.+6      	; 0x706c <dxl_hal_get_qstate+0x12>
    7066:	20 e0       	ldi	r18, 0x00	; 0
    7068:	30 e0       	ldi	r19, 0x00	; 0
    706a:	17 c0       	rjmp	.+46     	; 0x709a <dxl_hal_get_qstate+0x40>
    706c:	90 91 73 0b 	lds	r25, 0x0B73
    7070:	80 91 74 0b 	lds	r24, 0x0B74
    7074:	98 17       	cp	r25, r24
    7076:	38 f4       	brcc	.+14     	; 0x7086 <dxl_hal_get_qstate+0x2c>
    7078:	80 91 74 0b 	lds	r24, 0x0B74
    707c:	90 91 73 0b 	lds	r25, 0x0B73
    7080:	28 2f       	mov	r18, r24
    7082:	30 e0       	ldi	r19, 0x00	; 0
    7084:	08 c0       	rjmp	.+16     	; 0x7096 <dxl_hal_get_qstate+0x3c>
    7086:	80 91 74 0b 	lds	r24, 0x0B74
    708a:	90 91 73 0b 	lds	r25, 0x0B73
    708e:	28 2f       	mov	r18, r24
    7090:	30 e0       	ldi	r19, 0x00	; 0
    7092:	20 50       	subi	r18, 0x00	; 0
    7094:	3f 4f       	sbci	r19, 0xFF	; 255
    7096:	29 1b       	sub	r18, r25
    7098:	31 09       	sbc	r19, r1
    709a:	c9 01       	movw	r24, r18
    709c:	08 95       	ret

0000709e <dxl_hal_put_queue>:
    709e:	1f 93       	push	r17
    70a0:	18 2f       	mov	r17, r24
    70a2:	0e 94 2d 38 	call	0x705a	; 0x705a <dxl_hal_get_qstate>
    70a6:	8f 3f       	cpi	r24, 0xFF	; 255
    70a8:	91 05       	cpc	r25, r1
    70aa:	91 f0       	breq	.+36     	; 0x70d0 <dxl_hal_put_queue+0x32>
    70ac:	e0 91 74 0b 	lds	r30, 0x0B74
    70b0:	f0 e0       	ldi	r31, 0x00	; 0
    70b2:	ed 58       	subi	r30, 0x8D	; 141
    70b4:	f5 4f       	sbci	r31, 0xF5	; 245
    70b6:	10 83       	st	Z, r17
    70b8:	80 91 74 0b 	lds	r24, 0x0B74
    70bc:	8f 3f       	cpi	r24, 0xFF	; 255
    70be:	19 f4       	brne	.+6      	; 0x70c6 <dxl_hal_put_queue+0x28>
    70c0:	10 92 74 0b 	sts	0x0B74, r1
    70c4:	05 c0       	rjmp	.+10     	; 0x70d0 <dxl_hal_put_queue+0x32>
    70c6:	80 91 74 0b 	lds	r24, 0x0B74
    70ca:	8f 5f       	subi	r24, 0xFF	; 255
    70cc:	80 93 74 0b 	sts	0x0B74, r24
    70d0:	1f 91       	pop	r17
    70d2:	08 95       	ret

000070d4 <dxl_hal_get_queue>:
    70d4:	90 91 73 0b 	lds	r25, 0x0B73
    70d8:	80 91 74 0b 	lds	r24, 0x0B74
    70dc:	98 17       	cp	r25, r24
    70de:	11 f4       	brne	.+4      	; 0x70e4 <dxl_hal_get_queue+0x10>
    70e0:	ef ef       	ldi	r30, 0xFF	; 255
    70e2:	12 c0       	rjmp	.+36     	; 0x7108 <dxl_hal_get_queue+0x34>
    70e4:	e0 91 73 0b 	lds	r30, 0x0B73
    70e8:	f0 e0       	ldi	r31, 0x00	; 0
    70ea:	ed 58       	subi	r30, 0x8D	; 141
    70ec:	f5 4f       	sbci	r31, 0xF5	; 245
    70ee:	e0 81       	ld	r30, Z
    70f0:	80 91 73 0b 	lds	r24, 0x0B73
    70f4:	8f 3f       	cpi	r24, 0xFF	; 255
    70f6:	19 f4       	brne	.+6      	; 0x70fe <dxl_hal_get_queue+0x2a>
    70f8:	10 92 73 0b 	sts	0x0B73, r1
    70fc:	05 c0       	rjmp	.+10     	; 0x7108 <dxl_hal_get_queue+0x34>
    70fe:	80 91 73 0b 	lds	r24, 0x0B73
    7102:	8f 5f       	subi	r24, 0xFF	; 255
    7104:	80 93 73 0b 	sts	0x0B73, r24
    7108:	8e 2f       	mov	r24, r30
    710a:	08 95       	ret

0000710c <dxl_hal_rx>:
    710c:	ef 92       	push	r14
    710e:	ff 92       	push	r15
    7110:	0f 93       	push	r16
    7112:	1f 93       	push	r17
    7114:	cf 93       	push	r28
    7116:	df 93       	push	r29
    7118:	7c 01       	movw	r14, r24
    711a:	eb 01       	movw	r28, r22
    711c:	90 91 73 0b 	lds	r25, 0x0B73
    7120:	80 91 74 0b 	lds	r24, 0x0B74
    7124:	98 17       	cp	r25, r24
    7126:	19 f4       	brne	.+6      	; 0x712e <dxl_hal_rx+0x22>
    7128:	00 e0       	ldi	r16, 0x00	; 0
    712a:	10 e0       	ldi	r17, 0x00	; 0
    712c:	14 c0       	rjmp	.+40     	; 0x7156 <dxl_hal_rx+0x4a>
    712e:	0e 94 2d 38 	call	0x705a	; 0x705a <dxl_hal_get_qstate>
    7132:	8c 01       	movw	r16, r24
    7134:	c8 17       	cp	r28, r24
    7136:	d9 07       	cpc	r29, r25
    7138:	0c f4       	brge	.+2      	; 0x713c <dxl_hal_rx+0x30>
    713a:	8e 01       	movw	r16, r28
    713c:	c0 e0       	ldi	r28, 0x00	; 0
    713e:	d0 e0       	ldi	r29, 0x00	; 0
    7140:	07 c0       	rjmp	.+14     	; 0x7150 <dxl_hal_rx+0x44>
    7142:	0e 94 6a 38 	call	0x70d4	; 0x70d4 <dxl_hal_get_queue>
    7146:	f7 01       	movw	r30, r14
    7148:	ec 0f       	add	r30, r28
    714a:	fd 1f       	adc	r31, r29
    714c:	80 83       	st	Z, r24
    714e:	21 96       	adiw	r28, 0x01	; 1
    7150:	c0 17       	cp	r28, r16
    7152:	d1 07       	cpc	r29, r17
    7154:	b4 f3       	brlt	.-20     	; 0x7142 <dxl_hal_rx+0x36>
    7156:	c8 01       	movw	r24, r16
    7158:	df 91       	pop	r29
    715a:	cf 91       	pop	r28
    715c:	1f 91       	pop	r17
    715e:	0f 91       	pop	r16
    7160:	ff 90       	pop	r15
    7162:	ef 90       	pop	r14
    7164:	08 95       	ret

00007166 <__vector_25>:
    7166:	1f 92       	push	r1
    7168:	0f 92       	push	r0
    716a:	0f b6       	in	r0, 0x3f	; 63
    716c:	0f 92       	push	r0
    716e:	0b b6       	in	r0, 0x3b	; 59
    7170:	0f 92       	push	r0
    7172:	11 24       	eor	r1, r1
    7174:	2f 93       	push	r18
    7176:	3f 93       	push	r19
    7178:	4f 93       	push	r20
    717a:	5f 93       	push	r21
    717c:	6f 93       	push	r22
    717e:	7f 93       	push	r23
    7180:	8f 93       	push	r24
    7182:	9f 93       	push	r25
    7184:	af 93       	push	r26
    7186:	bf 93       	push	r27
    7188:	ef 93       	push	r30
    718a:	ff 93       	push	r31
    718c:	80 91 c6 00 	lds	r24, 0x00C6
    7190:	0e 94 4f 38 	call	0x709e	; 0x709e <dxl_hal_put_queue>
    7194:	ff 91       	pop	r31
    7196:	ef 91       	pop	r30
    7198:	bf 91       	pop	r27
    719a:	af 91       	pop	r26
    719c:	9f 91       	pop	r25
    719e:	8f 91       	pop	r24
    71a0:	7f 91       	pop	r23
    71a2:	6f 91       	pop	r22
    71a4:	5f 91       	pop	r21
    71a6:	4f 91       	pop	r20
    71a8:	3f 91       	pop	r19
    71aa:	2f 91       	pop	r18
    71ac:	0f 90       	pop	r0
    71ae:	0b be       	out	0x3b, r0	; 59
    71b0:	0f 90       	pop	r0
    71b2:	0f be       	out	0x3f, r0	; 63
    71b4:	0f 90       	pop	r0
    71b6:	1f 90       	pop	r1
    71b8:	18 95       	reti

000071ba <vfprintf>:
    71ba:	2f 92       	push	r2
    71bc:	3f 92       	push	r3
    71be:	4f 92       	push	r4
    71c0:	5f 92       	push	r5
    71c2:	6f 92       	push	r6
    71c4:	7f 92       	push	r7
    71c6:	8f 92       	push	r8
    71c8:	9f 92       	push	r9
    71ca:	af 92       	push	r10
    71cc:	bf 92       	push	r11
    71ce:	cf 92       	push	r12
    71d0:	df 92       	push	r13
    71d2:	ef 92       	push	r14
    71d4:	ff 92       	push	r15
    71d6:	0f 93       	push	r16
    71d8:	1f 93       	push	r17
    71da:	df 93       	push	r29
    71dc:	cf 93       	push	r28
    71de:	cd b7       	in	r28, 0x3d	; 61
    71e0:	de b7       	in	r29, 0x3e	; 62
    71e2:	63 97       	sbiw	r28, 0x13	; 19
    71e4:	0f b6       	in	r0, 0x3f	; 63
    71e6:	f8 94       	cli
    71e8:	de bf       	out	0x3e, r29	; 62
    71ea:	0f be       	out	0x3f, r0	; 63
    71ec:	cd bf       	out	0x3d, r28	; 61
    71ee:	6c 01       	movw	r12, r24
    71f0:	7f 87       	std	Y+15, r23	; 0x0f
    71f2:	6e 87       	std	Y+14, r22	; 0x0e
    71f4:	fc 01       	movw	r30, r24
    71f6:	17 82       	std	Z+7, r1	; 0x07
    71f8:	16 82       	std	Z+6, r1	; 0x06
    71fa:	83 81       	ldd	r24, Z+3	; 0x03
    71fc:	81 fd       	sbrc	r24, 1
    71fe:	04 c0       	rjmp	.+8      	; 0x7208 <vfprintf+0x4e>
    7200:	6f c3       	rjmp	.+1758   	; 0x78e0 <vfprintf+0x726>
    7202:	4c 85       	ldd	r20, Y+12	; 0x0c
    7204:	5d 85       	ldd	r21, Y+13	; 0x0d
    7206:	04 c0       	rjmp	.+8      	; 0x7210 <vfprintf+0x56>
    7208:	1e 01       	movw	r2, r28
    720a:	08 94       	sec
    720c:	21 1c       	adc	r2, r1
    720e:	31 1c       	adc	r3, r1
    7210:	f6 01       	movw	r30, r12
    7212:	93 81       	ldd	r25, Z+3	; 0x03
    7214:	ee 85       	ldd	r30, Y+14	; 0x0e
    7216:	ff 85       	ldd	r31, Y+15	; 0x0f
    7218:	93 fd       	sbrc	r25, 3
    721a:	85 91       	lpm	r24, Z+
    721c:	93 ff       	sbrs	r25, 3
    721e:	81 91       	ld	r24, Z+
    7220:	ff 87       	std	Y+15, r31	; 0x0f
    7222:	ee 87       	std	Y+14, r30	; 0x0e
    7224:	88 23       	and	r24, r24
    7226:	09 f4       	brne	.+2      	; 0x722a <vfprintf+0x70>
    7228:	57 c3       	rjmp	.+1710   	; 0x78d8 <vfprintf+0x71e>
    722a:	85 32       	cpi	r24, 0x25	; 37
    722c:	41 f4       	brne	.+16     	; 0x723e <vfprintf+0x84>
    722e:	93 fd       	sbrc	r25, 3
    7230:	85 91       	lpm	r24, Z+
    7232:	93 ff       	sbrs	r25, 3
    7234:	81 91       	ld	r24, Z+
    7236:	ff 87       	std	Y+15, r31	; 0x0f
    7238:	ee 87       	std	Y+14, r30	; 0x0e
    723a:	85 32       	cpi	r24, 0x25	; 37
    723c:	59 f4       	brne	.+22     	; 0x7254 <vfprintf+0x9a>
    723e:	90 e0       	ldi	r25, 0x00	; 0
    7240:	b6 01       	movw	r22, r12
    7242:	4a 8b       	std	Y+18, r20	; 0x12
    7244:	5b 8b       	std	Y+19, r21	; 0x13
    7246:	0e 94 37 44 	call	0x886e	; 0x886e <fputc>
    724a:	4a 89       	ldd	r20, Y+18	; 0x12
    724c:	5b 89       	ldd	r21, Y+19	; 0x13
    724e:	5d 87       	std	Y+13, r21	; 0x0d
    7250:	4c 87       	std	Y+12, r20	; 0x0c
    7252:	d7 cf       	rjmp	.-82     	; 0x7202 <vfprintf+0x48>
    7254:	10 e0       	ldi	r17, 0x00	; 0
    7256:	ff 24       	eor	r15, r15
    7258:	00 e0       	ldi	r16, 0x00	; 0
    725a:	00 32       	cpi	r16, 0x20	; 32
    725c:	b0 f4       	brcc	.+44     	; 0x728a <vfprintf+0xd0>
    725e:	8b 32       	cpi	r24, 0x2B	; 43
    7260:	69 f0       	breq	.+26     	; 0x727c <vfprintf+0xc2>
    7262:	8c 32       	cpi	r24, 0x2C	; 44
    7264:	28 f4       	brcc	.+10     	; 0x7270 <vfprintf+0xb6>
    7266:	80 32       	cpi	r24, 0x20	; 32
    7268:	51 f0       	breq	.+20     	; 0x727e <vfprintf+0xc4>
    726a:	83 32       	cpi	r24, 0x23	; 35
    726c:	71 f4       	brne	.+28     	; 0x728a <vfprintf+0xd0>
    726e:	0b c0       	rjmp	.+22     	; 0x7286 <vfprintf+0xcc>
    7270:	8d 32       	cpi	r24, 0x2D	; 45
    7272:	39 f0       	breq	.+14     	; 0x7282 <vfprintf+0xc8>
    7274:	80 33       	cpi	r24, 0x30	; 48
    7276:	49 f4       	brne	.+18     	; 0x728a <vfprintf+0xd0>
    7278:	01 60       	ori	r16, 0x01	; 1
    727a:	2c c0       	rjmp	.+88     	; 0x72d4 <vfprintf+0x11a>
    727c:	02 60       	ori	r16, 0x02	; 2
    727e:	04 60       	ori	r16, 0x04	; 4
    7280:	29 c0       	rjmp	.+82     	; 0x72d4 <vfprintf+0x11a>
    7282:	08 60       	ori	r16, 0x08	; 8
    7284:	27 c0       	rjmp	.+78     	; 0x72d4 <vfprintf+0x11a>
    7286:	00 61       	ori	r16, 0x10	; 16
    7288:	25 c0       	rjmp	.+74     	; 0x72d4 <vfprintf+0x11a>
    728a:	07 fd       	sbrc	r16, 7
    728c:	2e c0       	rjmp	.+92     	; 0x72ea <vfprintf+0x130>
    728e:	28 2f       	mov	r18, r24
    7290:	20 53       	subi	r18, 0x30	; 48
    7292:	2a 30       	cpi	r18, 0x0A	; 10
    7294:	98 f4       	brcc	.+38     	; 0x72bc <vfprintf+0x102>
    7296:	06 ff       	sbrs	r16, 6
    7298:	08 c0       	rjmp	.+16     	; 0x72aa <vfprintf+0xf0>
    729a:	81 2f       	mov	r24, r17
    729c:	88 0f       	add	r24, r24
    729e:	18 2f       	mov	r17, r24
    72a0:	11 0f       	add	r17, r17
    72a2:	11 0f       	add	r17, r17
    72a4:	18 0f       	add	r17, r24
    72a6:	12 0f       	add	r17, r18
    72a8:	15 c0       	rjmp	.+42     	; 0x72d4 <vfprintf+0x11a>
    72aa:	8f 2d       	mov	r24, r15
    72ac:	88 0f       	add	r24, r24
    72ae:	f8 2e       	mov	r15, r24
    72b0:	ff 0c       	add	r15, r15
    72b2:	ff 0c       	add	r15, r15
    72b4:	f8 0e       	add	r15, r24
    72b6:	f2 0e       	add	r15, r18
    72b8:	00 62       	ori	r16, 0x20	; 32
    72ba:	0c c0       	rjmp	.+24     	; 0x72d4 <vfprintf+0x11a>
    72bc:	8e 32       	cpi	r24, 0x2E	; 46
    72be:	21 f4       	brne	.+8      	; 0x72c8 <vfprintf+0x10e>
    72c0:	06 fd       	sbrc	r16, 6
    72c2:	0a c3       	rjmp	.+1556   	; 0x78d8 <vfprintf+0x71e>
    72c4:	00 64       	ori	r16, 0x40	; 64
    72c6:	06 c0       	rjmp	.+12     	; 0x72d4 <vfprintf+0x11a>
    72c8:	8c 36       	cpi	r24, 0x6C	; 108
    72ca:	11 f4       	brne	.+4      	; 0x72d0 <vfprintf+0x116>
    72cc:	00 68       	ori	r16, 0x80	; 128
    72ce:	02 c0       	rjmp	.+4      	; 0x72d4 <vfprintf+0x11a>
    72d0:	88 36       	cpi	r24, 0x68	; 104
    72d2:	59 f4       	brne	.+22     	; 0x72ea <vfprintf+0x130>
    72d4:	ee 85       	ldd	r30, Y+14	; 0x0e
    72d6:	ff 85       	ldd	r31, Y+15	; 0x0f
    72d8:	93 fd       	sbrc	r25, 3
    72da:	85 91       	lpm	r24, Z+
    72dc:	93 ff       	sbrs	r25, 3
    72de:	81 91       	ld	r24, Z+
    72e0:	ff 87       	std	Y+15, r31	; 0x0f
    72e2:	ee 87       	std	Y+14, r30	; 0x0e
    72e4:	88 23       	and	r24, r24
    72e6:	09 f0       	breq	.+2      	; 0x72ea <vfprintf+0x130>
    72e8:	b8 cf       	rjmp	.-144    	; 0x725a <vfprintf+0xa0>
    72ea:	98 2f       	mov	r25, r24
    72ec:	95 54       	subi	r25, 0x45	; 69
    72ee:	93 30       	cpi	r25, 0x03	; 3
    72f0:	18 f4       	brcc	.+6      	; 0x72f8 <vfprintf+0x13e>
    72f2:	00 61       	ori	r16, 0x10	; 16
    72f4:	80 5e       	subi	r24, 0xE0	; 224
    72f6:	06 c0       	rjmp	.+12     	; 0x7304 <vfprintf+0x14a>
    72f8:	98 2f       	mov	r25, r24
    72fa:	95 56       	subi	r25, 0x65	; 101
    72fc:	93 30       	cpi	r25, 0x03	; 3
    72fe:	08 f0       	brcs	.+2      	; 0x7302 <vfprintf+0x148>
    7300:	9b c1       	rjmp	.+822    	; 0x7638 <vfprintf+0x47e>
    7302:	0f 7e       	andi	r16, 0xEF	; 239
    7304:	06 ff       	sbrs	r16, 6
    7306:	16 e0       	ldi	r17, 0x06	; 6
    7308:	6f e3       	ldi	r22, 0x3F	; 63
    730a:	e6 2e       	mov	r14, r22
    730c:	e0 22       	and	r14, r16
    730e:	85 36       	cpi	r24, 0x65	; 101
    7310:	19 f4       	brne	.+6      	; 0x7318 <vfprintf+0x15e>
    7312:	f0 e4       	ldi	r31, 0x40	; 64
    7314:	ef 2a       	or	r14, r31
    7316:	07 c0       	rjmp	.+14     	; 0x7326 <vfprintf+0x16c>
    7318:	86 36       	cpi	r24, 0x66	; 102
    731a:	19 f4       	brne	.+6      	; 0x7322 <vfprintf+0x168>
    731c:	20 e8       	ldi	r18, 0x80	; 128
    731e:	e2 2a       	or	r14, r18
    7320:	02 c0       	rjmp	.+4      	; 0x7326 <vfprintf+0x16c>
    7322:	11 11       	cpse	r17, r1
    7324:	11 50       	subi	r17, 0x01	; 1
    7326:	e7 fe       	sbrs	r14, 7
    7328:	06 c0       	rjmp	.+12     	; 0x7336 <vfprintf+0x17c>
    732a:	1c 33       	cpi	r17, 0x3C	; 60
    732c:	40 f4       	brcc	.+16     	; 0x733e <vfprintf+0x184>
    732e:	91 2e       	mov	r9, r17
    7330:	93 94       	inc	r9
    7332:	27 e0       	ldi	r18, 0x07	; 7
    7334:	0b c0       	rjmp	.+22     	; 0x734c <vfprintf+0x192>
    7336:	18 30       	cpi	r17, 0x08	; 8
    7338:	30 f4       	brcc	.+12     	; 0x7346 <vfprintf+0x18c>
    733a:	21 2f       	mov	r18, r17
    733c:	06 c0       	rjmp	.+12     	; 0x734a <vfprintf+0x190>
    733e:	27 e0       	ldi	r18, 0x07	; 7
    7340:	3c e3       	ldi	r19, 0x3C	; 60
    7342:	93 2e       	mov	r9, r19
    7344:	03 c0       	rjmp	.+6      	; 0x734c <vfprintf+0x192>
    7346:	27 e0       	ldi	r18, 0x07	; 7
    7348:	17 e0       	ldi	r17, 0x07	; 7
    734a:	99 24       	eor	r9, r9
    734c:	ca 01       	movw	r24, r20
    734e:	04 96       	adiw	r24, 0x04	; 4
    7350:	9d 87       	std	Y+13, r25	; 0x0d
    7352:	8c 87       	std	Y+12, r24	; 0x0c
    7354:	fa 01       	movw	r30, r20
    7356:	60 81       	ld	r22, Z
    7358:	71 81       	ldd	r23, Z+1	; 0x01
    735a:	82 81       	ldd	r24, Z+2	; 0x02
    735c:	93 81       	ldd	r25, Z+3	; 0x03
    735e:	a1 01       	movw	r20, r2
    7360:	09 2d       	mov	r16, r9
    7362:	0e 94 de 42 	call	0x85bc	; 0x85bc <__ftoa_engine>
    7366:	5c 01       	movw	r10, r24
    7368:	69 80       	ldd	r6, Y+1	; 0x01
    736a:	26 2d       	mov	r18, r6
    736c:	30 e0       	ldi	r19, 0x00	; 0
    736e:	39 8b       	std	Y+17, r19	; 0x11
    7370:	28 8b       	std	Y+16, r18	; 0x10
    7372:	60 fe       	sbrs	r6, 0
    7374:	03 c0       	rjmp	.+6      	; 0x737c <vfprintf+0x1c2>
    7376:	38 89       	ldd	r19, Y+16	; 0x10
    7378:	33 ff       	sbrs	r19, 3
    737a:	06 c0       	rjmp	.+12     	; 0x7388 <vfprintf+0x1ce>
    737c:	e1 fc       	sbrc	r14, 1
    737e:	06 c0       	rjmp	.+12     	; 0x738c <vfprintf+0x1d2>
    7380:	e2 fe       	sbrs	r14, 2
    7382:	06 c0       	rjmp	.+12     	; 0x7390 <vfprintf+0x1d6>
    7384:	00 e2       	ldi	r16, 0x20	; 32
    7386:	05 c0       	rjmp	.+10     	; 0x7392 <vfprintf+0x1d8>
    7388:	0d e2       	ldi	r16, 0x2D	; 45
    738a:	03 c0       	rjmp	.+6      	; 0x7392 <vfprintf+0x1d8>
    738c:	0b e2       	ldi	r16, 0x2B	; 43
    738e:	01 c0       	rjmp	.+2      	; 0x7392 <vfprintf+0x1d8>
    7390:	00 e0       	ldi	r16, 0x00	; 0
    7392:	88 89       	ldd	r24, Y+16	; 0x10
    7394:	99 89       	ldd	r25, Y+17	; 0x11
    7396:	8c 70       	andi	r24, 0x0C	; 12
    7398:	90 70       	andi	r25, 0x00	; 0
    739a:	00 97       	sbiw	r24, 0x00	; 0
    739c:	c1 f1       	breq	.+112    	; 0x740e <vfprintf+0x254>
    739e:	00 23       	and	r16, r16
    73a0:	11 f0       	breq	.+4      	; 0x73a6 <vfprintf+0x1ec>
    73a2:	84 e0       	ldi	r24, 0x04	; 4
    73a4:	01 c0       	rjmp	.+2      	; 0x73a8 <vfprintf+0x1ee>
    73a6:	83 e0       	ldi	r24, 0x03	; 3
    73a8:	8f 15       	cp	r24, r15
    73aa:	58 f4       	brcc	.+22     	; 0x73c2 <vfprintf+0x208>
    73ac:	f8 1a       	sub	r15, r24
    73ae:	e3 fc       	sbrc	r14, 3
    73b0:	09 c0       	rjmp	.+18     	; 0x73c4 <vfprintf+0x20a>
    73b2:	80 e2       	ldi	r24, 0x20	; 32
    73b4:	90 e0       	ldi	r25, 0x00	; 0
    73b6:	b6 01       	movw	r22, r12
    73b8:	0e 94 37 44 	call	0x886e	; 0x886e <fputc>
    73bc:	fa 94       	dec	r15
    73be:	c9 f7       	brne	.-14     	; 0x73b2 <vfprintf+0x1f8>
    73c0:	01 c0       	rjmp	.+2      	; 0x73c4 <vfprintf+0x20a>
    73c2:	ff 24       	eor	r15, r15
    73c4:	00 23       	and	r16, r16
    73c6:	29 f0       	breq	.+10     	; 0x73d2 <vfprintf+0x218>
    73c8:	80 2f       	mov	r24, r16
    73ca:	90 e0       	ldi	r25, 0x00	; 0
    73cc:	b6 01       	movw	r22, r12
    73ce:	0e 94 37 44 	call	0x886e	; 0x886e <fputc>
    73d2:	88 89       	ldd	r24, Y+16	; 0x10
    73d4:	83 fd       	sbrc	r24, 3
    73d6:	03 c0       	rjmp	.+6      	; 0x73de <vfprintf+0x224>
    73d8:	09 e4       	ldi	r16, 0x49	; 73
    73da:	12 e0       	ldi	r17, 0x02	; 2
    73dc:	0e c0       	rjmp	.+28     	; 0x73fa <vfprintf+0x240>
    73de:	05 e4       	ldi	r16, 0x45	; 69
    73e0:	12 e0       	ldi	r17, 0x02	; 2
    73e2:	0b c0       	rjmp	.+22     	; 0x73fa <vfprintf+0x240>
    73e4:	a1 14       	cp	r10, r1
    73e6:	b1 04       	cpc	r11, r1
    73e8:	09 f0       	breq	.+2      	; 0x73ec <vfprintf+0x232>
    73ea:	80 52       	subi	r24, 0x20	; 32
    73ec:	90 e0       	ldi	r25, 0x00	; 0
    73ee:	b6 01       	movw	r22, r12
    73f0:	0e 94 37 44 	call	0x886e	; 0x886e <fputc>
    73f4:	0f 5f       	subi	r16, 0xFF	; 255
    73f6:	1f 4f       	sbci	r17, 0xFF	; 255
    73f8:	05 c0       	rjmp	.+10     	; 0x7404 <vfprintf+0x24a>
    73fa:	ae 2c       	mov	r10, r14
    73fc:	bb 24       	eor	r11, r11
    73fe:	90 e1       	ldi	r25, 0x10	; 16
    7400:	a9 22       	and	r10, r25
    7402:	bb 24       	eor	r11, r11
    7404:	f8 01       	movw	r30, r16
    7406:	84 91       	lpm	r24, Z+
    7408:	88 23       	and	r24, r24
    740a:	61 f7       	brne	.-40     	; 0x73e4 <vfprintf+0x22a>
    740c:	62 c2       	rjmp	.+1220   	; 0x78d2 <vfprintf+0x718>
    740e:	e7 fe       	sbrs	r14, 7
    7410:	0e c0       	rjmp	.+28     	; 0x742e <vfprintf+0x274>
    7412:	9a 0c       	add	r9, r10
    7414:	f8 89       	ldd	r31, Y+16	; 0x10
    7416:	f4 ff       	sbrs	r31, 4
    7418:	04 c0       	rjmp	.+8      	; 0x7422 <vfprintf+0x268>
    741a:	8a 81       	ldd	r24, Y+2	; 0x02
    741c:	81 33       	cpi	r24, 0x31	; 49
    741e:	09 f4       	brne	.+2      	; 0x7422 <vfprintf+0x268>
    7420:	9a 94       	dec	r9
    7422:	19 14       	cp	r1, r9
    7424:	54 f5       	brge	.+84     	; 0x747a <vfprintf+0x2c0>
    7426:	29 2d       	mov	r18, r9
    7428:	29 30       	cpi	r18, 0x09	; 9
    742a:	50 f5       	brcc	.+84     	; 0x7480 <vfprintf+0x2c6>
    742c:	2d c0       	rjmp	.+90     	; 0x7488 <vfprintf+0x2ce>
    742e:	e6 fc       	sbrc	r14, 6
    7430:	2b c0       	rjmp	.+86     	; 0x7488 <vfprintf+0x2ce>
    7432:	81 2f       	mov	r24, r17
    7434:	90 e0       	ldi	r25, 0x00	; 0
    7436:	8a 15       	cp	r24, r10
    7438:	9b 05       	cpc	r25, r11
    743a:	4c f0       	brlt	.+18     	; 0x744e <vfprintf+0x294>
    743c:	3c ef       	ldi	r19, 0xFC	; 252
    743e:	a3 16       	cp	r10, r19
    7440:	3f ef       	ldi	r19, 0xFF	; 255
    7442:	b3 06       	cpc	r11, r19
    7444:	24 f0       	brlt	.+8      	; 0x744e <vfprintf+0x294>
    7446:	80 e8       	ldi	r24, 0x80	; 128
    7448:	e8 2a       	or	r14, r24
    744a:	01 c0       	rjmp	.+2      	; 0x744e <vfprintf+0x294>
    744c:	11 50       	subi	r17, 0x01	; 1
    744e:	11 23       	and	r17, r17
    7450:	49 f0       	breq	.+18     	; 0x7464 <vfprintf+0x2aa>
    7452:	e2 e0       	ldi	r30, 0x02	; 2
    7454:	f0 e0       	ldi	r31, 0x00	; 0
    7456:	ec 0f       	add	r30, r28
    7458:	fd 1f       	adc	r31, r29
    745a:	e1 0f       	add	r30, r17
    745c:	f1 1d       	adc	r31, r1
    745e:	80 81       	ld	r24, Z
    7460:	80 33       	cpi	r24, 0x30	; 48
    7462:	a1 f3       	breq	.-24     	; 0x744c <vfprintf+0x292>
    7464:	e7 fe       	sbrs	r14, 7
    7466:	10 c0       	rjmp	.+32     	; 0x7488 <vfprintf+0x2ce>
    7468:	91 2e       	mov	r9, r17
    746a:	93 94       	inc	r9
    746c:	81 2f       	mov	r24, r17
    746e:	90 e0       	ldi	r25, 0x00	; 0
    7470:	a8 16       	cp	r10, r24
    7472:	b9 06       	cpc	r11, r25
    7474:	44 f4       	brge	.+16     	; 0x7486 <vfprintf+0x2cc>
    7476:	1a 19       	sub	r17, r10
    7478:	07 c0       	rjmp	.+14     	; 0x7488 <vfprintf+0x2ce>
    747a:	99 24       	eor	r9, r9
    747c:	93 94       	inc	r9
    747e:	04 c0       	rjmp	.+8      	; 0x7488 <vfprintf+0x2ce>
    7480:	98 e0       	ldi	r25, 0x08	; 8
    7482:	99 2e       	mov	r9, r25
    7484:	01 c0       	rjmp	.+2      	; 0x7488 <vfprintf+0x2ce>
    7486:	10 e0       	ldi	r17, 0x00	; 0
    7488:	e7 fe       	sbrs	r14, 7
    748a:	07 c0       	rjmp	.+14     	; 0x749a <vfprintf+0x2e0>
    748c:	1a 14       	cp	r1, r10
    748e:	1b 04       	cpc	r1, r11
    7490:	3c f4       	brge	.+14     	; 0x74a0 <vfprintf+0x2e6>
    7492:	95 01       	movw	r18, r10
    7494:	2f 5f       	subi	r18, 0xFF	; 255
    7496:	3f 4f       	sbci	r19, 0xFF	; 255
    7498:	05 c0       	rjmp	.+10     	; 0x74a4 <vfprintf+0x2ea>
    749a:	25 e0       	ldi	r18, 0x05	; 5
    749c:	30 e0       	ldi	r19, 0x00	; 0
    749e:	02 c0       	rjmp	.+4      	; 0x74a4 <vfprintf+0x2ea>
    74a0:	21 e0       	ldi	r18, 0x01	; 1
    74a2:	30 e0       	ldi	r19, 0x00	; 0
    74a4:	00 23       	and	r16, r16
    74a6:	11 f0       	breq	.+4      	; 0x74ac <vfprintf+0x2f2>
    74a8:	2f 5f       	subi	r18, 0xFF	; 255
    74aa:	3f 4f       	sbci	r19, 0xFF	; 255
    74ac:	11 23       	and	r17, r17
    74ae:	29 f0       	breq	.+10     	; 0x74ba <vfprintf+0x300>
    74b0:	81 2f       	mov	r24, r17
    74b2:	90 e0       	ldi	r25, 0x00	; 0
    74b4:	01 96       	adiw	r24, 0x01	; 1
    74b6:	28 0f       	add	r18, r24
    74b8:	39 1f       	adc	r19, r25
    74ba:	8f 2d       	mov	r24, r15
    74bc:	90 e0       	ldi	r25, 0x00	; 0
    74be:	28 17       	cp	r18, r24
    74c0:	39 07       	cpc	r19, r25
    74c2:	14 f4       	brge	.+4      	; 0x74c8 <vfprintf+0x30e>
    74c4:	f2 1a       	sub	r15, r18
    74c6:	01 c0       	rjmp	.+2      	; 0x74ca <vfprintf+0x310>
    74c8:	ff 24       	eor	r15, r15
    74ca:	4e 2c       	mov	r4, r14
    74cc:	55 24       	eor	r5, r5
    74ce:	c2 01       	movw	r24, r4
    74d0:	89 70       	andi	r24, 0x09	; 9
    74d2:	90 70       	andi	r25, 0x00	; 0
    74d4:	00 97       	sbiw	r24, 0x00	; 0
    74d6:	49 f4       	brne	.+18     	; 0x74ea <vfprintf+0x330>
    74d8:	06 c0       	rjmp	.+12     	; 0x74e6 <vfprintf+0x32c>
    74da:	80 e2       	ldi	r24, 0x20	; 32
    74dc:	90 e0       	ldi	r25, 0x00	; 0
    74de:	b6 01       	movw	r22, r12
    74e0:	0e 94 37 44 	call	0x886e	; 0x886e <fputc>
    74e4:	fa 94       	dec	r15
    74e6:	ff 20       	and	r15, r15
    74e8:	c1 f7       	brne	.-16     	; 0x74da <vfprintf+0x320>
    74ea:	00 23       	and	r16, r16
    74ec:	29 f0       	breq	.+10     	; 0x74f8 <vfprintf+0x33e>
    74ee:	80 2f       	mov	r24, r16
    74f0:	90 e0       	ldi	r25, 0x00	; 0
    74f2:	b6 01       	movw	r22, r12
    74f4:	0e 94 37 44 	call	0x886e	; 0x886e <fputc>
    74f8:	43 fc       	sbrc	r4, 3
    74fa:	09 c0       	rjmp	.+18     	; 0x750e <vfprintf+0x354>
    74fc:	06 c0       	rjmp	.+12     	; 0x750a <vfprintf+0x350>
    74fe:	80 e3       	ldi	r24, 0x30	; 48
    7500:	90 e0       	ldi	r25, 0x00	; 0
    7502:	b6 01       	movw	r22, r12
    7504:	0e 94 37 44 	call	0x886e	; 0x886e <fputc>
    7508:	fa 94       	dec	r15
    750a:	ff 20       	and	r15, r15
    750c:	c1 f7       	brne	.-16     	; 0x74fe <vfprintf+0x344>
    750e:	e7 fe       	sbrs	r14, 7
    7510:	46 c0       	rjmp	.+140    	; 0x759e <vfprintf+0x3e4>
    7512:	35 01       	movw	r6, r10
    7514:	b7 fe       	sbrs	r11, 7
    7516:	02 c0       	rjmp	.+4      	; 0x751c <vfprintf+0x362>
    7518:	66 24       	eor	r6, r6
    751a:	77 24       	eor	r7, r7
    751c:	25 01       	movw	r4, r10
    751e:	08 94       	sec
    7520:	41 1c       	adc	r4, r1
    7522:	51 1c       	adc	r5, r1
    7524:	46 18       	sub	r4, r6
    7526:	57 08       	sbc	r5, r7
    7528:	42 0c       	add	r4, r2
    752a:	53 1c       	adc	r5, r3
    752c:	f5 01       	movw	r30, r10
    752e:	e9 19       	sub	r30, r9
    7530:	f1 09       	sbc	r31, r1
    7532:	4f 01       	movw	r8, r30
    7534:	81 2f       	mov	r24, r17
    7536:	90 e0       	ldi	r25, 0x00	; 0
    7538:	00 27       	eor	r16, r16
    753a:	11 27       	eor	r17, r17
    753c:	08 1b       	sub	r16, r24
    753e:	19 0b       	sbc	r17, r25
    7540:	ff ef       	ldi	r31, 0xFF	; 255
    7542:	6f 16       	cp	r6, r31
    7544:	ff ef       	ldi	r31, 0xFF	; 255
    7546:	7f 06       	cpc	r7, r31
    7548:	29 f4       	brne	.+10     	; 0x7554 <vfprintf+0x39a>
    754a:	8e e2       	ldi	r24, 0x2E	; 46
    754c:	90 e0       	ldi	r25, 0x00	; 0
    754e:	b6 01       	movw	r22, r12
    7550:	0e 94 37 44 	call	0x886e	; 0x886e <fputc>
    7554:	a6 14       	cp	r10, r6
    7556:	b7 04       	cpc	r11, r7
    7558:	34 f0       	brlt	.+12     	; 0x7566 <vfprintf+0x3ac>
    755a:	86 14       	cp	r8, r6
    755c:	97 04       	cpc	r9, r7
    755e:	1c f4       	brge	.+6      	; 0x7566 <vfprintf+0x3ac>
    7560:	f2 01       	movw	r30, r4
    7562:	80 81       	ld	r24, Z
    7564:	01 c0       	rjmp	.+2      	; 0x7568 <vfprintf+0x3ae>
    7566:	80 e3       	ldi	r24, 0x30	; 48
    7568:	08 94       	sec
    756a:	61 08       	sbc	r6, r1
    756c:	71 08       	sbc	r7, r1
    756e:	08 94       	sec
    7570:	41 1c       	adc	r4, r1
    7572:	51 1c       	adc	r5, r1
    7574:	60 16       	cp	r6, r16
    7576:	71 06       	cpc	r7, r17
    7578:	2c f0       	brlt	.+10     	; 0x7584 <vfprintf+0x3ca>
    757a:	90 e0       	ldi	r25, 0x00	; 0
    757c:	b6 01       	movw	r22, r12
    757e:	0e 94 37 44 	call	0x886e	; 0x886e <fputc>
    7582:	de cf       	rjmp	.-68     	; 0x7540 <vfprintf+0x386>
    7584:	6a 14       	cp	r6, r10
    7586:	7b 04       	cpc	r7, r11
    7588:	41 f4       	brne	.+16     	; 0x759a <vfprintf+0x3e0>
    758a:	9a 81       	ldd	r25, Y+2	; 0x02
    758c:	96 33       	cpi	r25, 0x36	; 54
    758e:	20 f4       	brcc	.+8      	; 0x7598 <vfprintf+0x3de>
    7590:	95 33       	cpi	r25, 0x35	; 53
    7592:	19 f4       	brne	.+6      	; 0x759a <vfprintf+0x3e0>
    7594:	f8 89       	ldd	r31, Y+16	; 0x10
    7596:	f4 ff       	sbrs	r31, 4
    7598:	81 e3       	ldi	r24, 0x31	; 49
    759a:	90 e0       	ldi	r25, 0x00	; 0
    759c:	49 c0       	rjmp	.+146    	; 0x7630 <vfprintf+0x476>
    759e:	8a 81       	ldd	r24, Y+2	; 0x02
    75a0:	81 33       	cpi	r24, 0x31	; 49
    75a2:	11 f0       	breq	.+4      	; 0x75a8 <vfprintf+0x3ee>
    75a4:	2f ee       	ldi	r18, 0xEF	; 239
    75a6:	62 22       	and	r6, r18
    75a8:	90 e0       	ldi	r25, 0x00	; 0
    75aa:	b6 01       	movw	r22, r12
    75ac:	0e 94 37 44 	call	0x886e	; 0x886e <fputc>
    75b0:	11 23       	and	r17, r17
    75b2:	89 f0       	breq	.+34     	; 0x75d6 <vfprintf+0x41c>
    75b4:	8e e2       	ldi	r24, 0x2E	; 46
    75b6:	90 e0       	ldi	r25, 0x00	; 0
    75b8:	b6 01       	movw	r22, r12
    75ba:	0e 94 37 44 	call	0x886e	; 0x886e <fputc>
    75be:	02 e0       	ldi	r16, 0x02	; 2
    75c0:	f1 01       	movw	r30, r2
    75c2:	e0 0f       	add	r30, r16
    75c4:	f1 1d       	adc	r31, r1
    75c6:	0f 5f       	subi	r16, 0xFF	; 255
    75c8:	80 81       	ld	r24, Z
    75ca:	90 e0       	ldi	r25, 0x00	; 0
    75cc:	b6 01       	movw	r22, r12
    75ce:	0e 94 37 44 	call	0x886e	; 0x886e <fputc>
    75d2:	11 50       	subi	r17, 0x01	; 1
    75d4:	a9 f7       	brne	.-22     	; 0x75c0 <vfprintf+0x406>
    75d6:	44 fe       	sbrs	r4, 4
    75d8:	03 c0       	rjmp	.+6      	; 0x75e0 <vfprintf+0x426>
    75da:	85 e4       	ldi	r24, 0x45	; 69
    75dc:	90 e0       	ldi	r25, 0x00	; 0
    75de:	02 c0       	rjmp	.+4      	; 0x75e4 <vfprintf+0x42a>
    75e0:	85 e6       	ldi	r24, 0x65	; 101
    75e2:	90 e0       	ldi	r25, 0x00	; 0
    75e4:	b6 01       	movw	r22, r12
    75e6:	0e 94 37 44 	call	0x886e	; 0x886e <fputc>
    75ea:	b7 fc       	sbrc	r11, 7
    75ec:	05 c0       	rjmp	.+10     	; 0x75f8 <vfprintf+0x43e>
    75ee:	a1 14       	cp	r10, r1
    75f0:	b1 04       	cpc	r11, r1
    75f2:	41 f4       	brne	.+16     	; 0x7604 <vfprintf+0x44a>
    75f4:	64 fe       	sbrs	r6, 4
    75f6:	06 c0       	rjmp	.+12     	; 0x7604 <vfprintf+0x44a>
    75f8:	b0 94       	com	r11
    75fa:	a1 94       	neg	r10
    75fc:	b1 08       	sbc	r11, r1
    75fe:	b3 94       	inc	r11
    7600:	8d e2       	ldi	r24, 0x2D	; 45
    7602:	01 c0       	rjmp	.+2      	; 0x7606 <vfprintf+0x44c>
    7604:	8b e2       	ldi	r24, 0x2B	; 43
    7606:	90 e0       	ldi	r25, 0x00	; 0
    7608:	b6 01       	movw	r22, r12
    760a:	0e 94 37 44 	call	0x886e	; 0x886e <fputc>
    760e:	80 e3       	ldi	r24, 0x30	; 48
    7610:	05 c0       	rjmp	.+10     	; 0x761c <vfprintf+0x462>
    7612:	8f 5f       	subi	r24, 0xFF	; 255
    7614:	e6 ef       	ldi	r30, 0xF6	; 246
    7616:	ff ef       	ldi	r31, 0xFF	; 255
    7618:	ae 0e       	add	r10, r30
    761a:	bf 1e       	adc	r11, r31
    761c:	fa e0       	ldi	r31, 0x0A	; 10
    761e:	af 16       	cp	r10, r31
    7620:	b1 04       	cpc	r11, r1
    7622:	bc f7       	brge	.-18     	; 0x7612 <vfprintf+0x458>
    7624:	90 e0       	ldi	r25, 0x00	; 0
    7626:	b6 01       	movw	r22, r12
    7628:	0e 94 37 44 	call	0x886e	; 0x886e <fputc>
    762c:	c5 01       	movw	r24, r10
    762e:	c0 96       	adiw	r24, 0x30	; 48
    7630:	b6 01       	movw	r22, r12
    7632:	0e 94 37 44 	call	0x886e	; 0x886e <fputc>
    7636:	4d c1       	rjmp	.+666    	; 0x78d2 <vfprintf+0x718>
    7638:	83 36       	cpi	r24, 0x63	; 99
    763a:	31 f0       	breq	.+12     	; 0x7648 <vfprintf+0x48e>
    763c:	83 37       	cpi	r24, 0x73	; 115
    763e:	89 f0       	breq	.+34     	; 0x7662 <vfprintf+0x4a8>
    7640:	83 35       	cpi	r24, 0x53	; 83
    7642:	09 f0       	breq	.+2      	; 0x7646 <vfprintf+0x48c>
    7644:	59 c0       	rjmp	.+178    	; 0x76f8 <vfprintf+0x53e>
    7646:	22 c0       	rjmp	.+68     	; 0x768c <vfprintf+0x4d2>
    7648:	9a 01       	movw	r18, r20
    764a:	2e 5f       	subi	r18, 0xFE	; 254
    764c:	3f 4f       	sbci	r19, 0xFF	; 255
    764e:	3d 87       	std	Y+13, r19	; 0x0d
    7650:	2c 87       	std	Y+12, r18	; 0x0c
    7652:	fa 01       	movw	r30, r20
    7654:	80 81       	ld	r24, Z
    7656:	89 83       	std	Y+1, r24	; 0x01
    7658:	31 01       	movw	r6, r2
    765a:	81 e0       	ldi	r24, 0x01	; 1
    765c:	a8 2e       	mov	r10, r24
    765e:	b1 2c       	mov	r11, r1
    7660:	13 c0       	rjmp	.+38     	; 0x7688 <vfprintf+0x4ce>
    7662:	9a 01       	movw	r18, r20
    7664:	2e 5f       	subi	r18, 0xFE	; 254
    7666:	3f 4f       	sbci	r19, 0xFF	; 255
    7668:	3d 87       	std	Y+13, r19	; 0x0d
    766a:	2c 87       	std	Y+12, r18	; 0x0c
    766c:	fa 01       	movw	r30, r20
    766e:	60 80       	ld	r6, Z
    7670:	71 80       	ldd	r7, Z+1	; 0x01
    7672:	06 ff       	sbrs	r16, 6
    7674:	03 c0       	rjmp	.+6      	; 0x767c <vfprintf+0x4c2>
    7676:	61 2f       	mov	r22, r17
    7678:	70 e0       	ldi	r23, 0x00	; 0
    767a:	02 c0       	rjmp	.+4      	; 0x7680 <vfprintf+0x4c6>
    767c:	6f ef       	ldi	r22, 0xFF	; 255
    767e:	7f ef       	ldi	r23, 0xFF	; 255
    7680:	c3 01       	movw	r24, r6
    7682:	0e 94 e1 43 	call	0x87c2	; 0x87c2 <strnlen>
    7686:	5c 01       	movw	r10, r24
    7688:	0f 77       	andi	r16, 0x7F	; 127
    768a:	14 c0       	rjmp	.+40     	; 0x76b4 <vfprintf+0x4fa>
    768c:	9a 01       	movw	r18, r20
    768e:	2e 5f       	subi	r18, 0xFE	; 254
    7690:	3f 4f       	sbci	r19, 0xFF	; 255
    7692:	3d 87       	std	Y+13, r19	; 0x0d
    7694:	2c 87       	std	Y+12, r18	; 0x0c
    7696:	fa 01       	movw	r30, r20
    7698:	60 80       	ld	r6, Z
    769a:	71 80       	ldd	r7, Z+1	; 0x01
    769c:	06 ff       	sbrs	r16, 6
    769e:	03 c0       	rjmp	.+6      	; 0x76a6 <vfprintf+0x4ec>
    76a0:	61 2f       	mov	r22, r17
    76a2:	70 e0       	ldi	r23, 0x00	; 0
    76a4:	02 c0       	rjmp	.+4      	; 0x76aa <vfprintf+0x4f0>
    76a6:	6f ef       	ldi	r22, 0xFF	; 255
    76a8:	7f ef       	ldi	r23, 0xFF	; 255
    76aa:	c3 01       	movw	r24, r6
    76ac:	0e 94 d6 43 	call	0x87ac	; 0x87ac <strnlen_P>
    76b0:	5c 01       	movw	r10, r24
    76b2:	00 68       	ori	r16, 0x80	; 128
    76b4:	03 fd       	sbrc	r16, 3
    76b6:	1c c0       	rjmp	.+56     	; 0x76f0 <vfprintf+0x536>
    76b8:	06 c0       	rjmp	.+12     	; 0x76c6 <vfprintf+0x50c>
    76ba:	80 e2       	ldi	r24, 0x20	; 32
    76bc:	90 e0       	ldi	r25, 0x00	; 0
    76be:	b6 01       	movw	r22, r12
    76c0:	0e 94 37 44 	call	0x886e	; 0x886e <fputc>
    76c4:	fa 94       	dec	r15
    76c6:	8f 2d       	mov	r24, r15
    76c8:	90 e0       	ldi	r25, 0x00	; 0
    76ca:	a8 16       	cp	r10, r24
    76cc:	b9 06       	cpc	r11, r25
    76ce:	a8 f3       	brcs	.-22     	; 0x76ba <vfprintf+0x500>
    76d0:	0f c0       	rjmp	.+30     	; 0x76f0 <vfprintf+0x536>
    76d2:	f3 01       	movw	r30, r6
    76d4:	07 fd       	sbrc	r16, 7
    76d6:	85 91       	lpm	r24, Z+
    76d8:	07 ff       	sbrs	r16, 7
    76da:	81 91       	ld	r24, Z+
    76dc:	3f 01       	movw	r6, r30
    76de:	90 e0       	ldi	r25, 0x00	; 0
    76e0:	b6 01       	movw	r22, r12
    76e2:	0e 94 37 44 	call	0x886e	; 0x886e <fputc>
    76e6:	f1 10       	cpse	r15, r1
    76e8:	fa 94       	dec	r15
    76ea:	08 94       	sec
    76ec:	a1 08       	sbc	r10, r1
    76ee:	b1 08       	sbc	r11, r1
    76f0:	a1 14       	cp	r10, r1
    76f2:	b1 04       	cpc	r11, r1
    76f4:	71 f7       	brne	.-36     	; 0x76d2 <vfprintf+0x518>
    76f6:	ed c0       	rjmp	.+474    	; 0x78d2 <vfprintf+0x718>
    76f8:	84 36       	cpi	r24, 0x64	; 100
    76fa:	11 f0       	breq	.+4      	; 0x7700 <vfprintf+0x546>
    76fc:	89 36       	cpi	r24, 0x69	; 105
    76fe:	61 f5       	brne	.+88     	; 0x7758 <vfprintf+0x59e>
    7700:	07 ff       	sbrs	r16, 7
    7702:	0b c0       	rjmp	.+22     	; 0x771a <vfprintf+0x560>
    7704:	9a 01       	movw	r18, r20
    7706:	2c 5f       	subi	r18, 0xFC	; 252
    7708:	3f 4f       	sbci	r19, 0xFF	; 255
    770a:	3d 87       	std	Y+13, r19	; 0x0d
    770c:	2c 87       	std	Y+12, r18	; 0x0c
    770e:	fa 01       	movw	r30, r20
    7710:	60 81       	ld	r22, Z
    7712:	71 81       	ldd	r23, Z+1	; 0x01
    7714:	82 81       	ldd	r24, Z+2	; 0x02
    7716:	93 81       	ldd	r25, Z+3	; 0x03
    7718:	0c c0       	rjmp	.+24     	; 0x7732 <vfprintf+0x578>
    771a:	9a 01       	movw	r18, r20
    771c:	2e 5f       	subi	r18, 0xFE	; 254
    771e:	3f 4f       	sbci	r19, 0xFF	; 255
    7720:	3d 87       	std	Y+13, r19	; 0x0d
    7722:	2c 87       	std	Y+12, r18	; 0x0c
    7724:	fa 01       	movw	r30, r20
    7726:	60 81       	ld	r22, Z
    7728:	71 81       	ldd	r23, Z+1	; 0x01
    772a:	88 27       	eor	r24, r24
    772c:	77 fd       	sbrc	r23, 7
    772e:	80 95       	com	r24
    7730:	98 2f       	mov	r25, r24
    7732:	0f 76       	andi	r16, 0x6F	; 111
    7734:	97 ff       	sbrs	r25, 7
    7736:	08 c0       	rjmp	.+16     	; 0x7748 <vfprintf+0x58e>
    7738:	90 95       	com	r25
    773a:	80 95       	com	r24
    773c:	70 95       	com	r23
    773e:	61 95       	neg	r22
    7740:	7f 4f       	sbci	r23, 0xFF	; 255
    7742:	8f 4f       	sbci	r24, 0xFF	; 255
    7744:	9f 4f       	sbci	r25, 0xFF	; 255
    7746:	00 68       	ori	r16, 0x80	; 128
    7748:	a1 01       	movw	r20, r2
    774a:	2a e0       	ldi	r18, 0x0A	; 10
    774c:	30 e0       	ldi	r19, 0x00	; 0
    774e:	0e 94 ac 44 	call	0x8958	; 0x8958 <__ultoa_invert>
    7752:	98 2e       	mov	r9, r24
    7754:	92 18       	sub	r9, r2
    7756:	41 c0       	rjmp	.+130    	; 0x77da <vfprintf+0x620>
    7758:	85 37       	cpi	r24, 0x75	; 117
    775a:	21 f4       	brne	.+8      	; 0x7764 <vfprintf+0x5aa>
    775c:	0f 7e       	andi	r16, 0xEF	; 239
    775e:	2a e0       	ldi	r18, 0x0A	; 10
    7760:	30 e0       	ldi	r19, 0x00	; 0
    7762:	20 c0       	rjmp	.+64     	; 0x77a4 <vfprintf+0x5ea>
    7764:	09 7f       	andi	r16, 0xF9	; 249
    7766:	8f 36       	cpi	r24, 0x6F	; 111
    7768:	a9 f0       	breq	.+42     	; 0x7794 <vfprintf+0x5da>
    776a:	80 37       	cpi	r24, 0x70	; 112
    776c:	20 f4       	brcc	.+8      	; 0x7776 <vfprintf+0x5bc>
    776e:	88 35       	cpi	r24, 0x58	; 88
    7770:	09 f0       	breq	.+2      	; 0x7774 <vfprintf+0x5ba>
    7772:	b2 c0       	rjmp	.+356    	; 0x78d8 <vfprintf+0x71e>
    7774:	0b c0       	rjmp	.+22     	; 0x778c <vfprintf+0x5d2>
    7776:	80 37       	cpi	r24, 0x70	; 112
    7778:	21 f0       	breq	.+8      	; 0x7782 <vfprintf+0x5c8>
    777a:	88 37       	cpi	r24, 0x78	; 120
    777c:	09 f0       	breq	.+2      	; 0x7780 <vfprintf+0x5c6>
    777e:	ac c0       	rjmp	.+344    	; 0x78d8 <vfprintf+0x71e>
    7780:	01 c0       	rjmp	.+2      	; 0x7784 <vfprintf+0x5ca>
    7782:	00 61       	ori	r16, 0x10	; 16
    7784:	04 ff       	sbrs	r16, 4
    7786:	09 c0       	rjmp	.+18     	; 0x779a <vfprintf+0x5e0>
    7788:	04 60       	ori	r16, 0x04	; 4
    778a:	07 c0       	rjmp	.+14     	; 0x779a <vfprintf+0x5e0>
    778c:	04 ff       	sbrs	r16, 4
    778e:	08 c0       	rjmp	.+16     	; 0x77a0 <vfprintf+0x5e6>
    7790:	06 60       	ori	r16, 0x06	; 6
    7792:	06 c0       	rjmp	.+12     	; 0x77a0 <vfprintf+0x5e6>
    7794:	28 e0       	ldi	r18, 0x08	; 8
    7796:	30 e0       	ldi	r19, 0x00	; 0
    7798:	05 c0       	rjmp	.+10     	; 0x77a4 <vfprintf+0x5ea>
    779a:	20 e1       	ldi	r18, 0x10	; 16
    779c:	30 e0       	ldi	r19, 0x00	; 0
    779e:	02 c0       	rjmp	.+4      	; 0x77a4 <vfprintf+0x5ea>
    77a0:	20 e1       	ldi	r18, 0x10	; 16
    77a2:	32 e0       	ldi	r19, 0x02	; 2
    77a4:	07 ff       	sbrs	r16, 7
    77a6:	0a c0       	rjmp	.+20     	; 0x77bc <vfprintf+0x602>
    77a8:	ca 01       	movw	r24, r20
    77aa:	04 96       	adiw	r24, 0x04	; 4
    77ac:	9d 87       	std	Y+13, r25	; 0x0d
    77ae:	8c 87       	std	Y+12, r24	; 0x0c
    77b0:	fa 01       	movw	r30, r20
    77b2:	60 81       	ld	r22, Z
    77b4:	71 81       	ldd	r23, Z+1	; 0x01
    77b6:	82 81       	ldd	r24, Z+2	; 0x02
    77b8:	93 81       	ldd	r25, Z+3	; 0x03
    77ba:	09 c0       	rjmp	.+18     	; 0x77ce <vfprintf+0x614>
    77bc:	ca 01       	movw	r24, r20
    77be:	02 96       	adiw	r24, 0x02	; 2
    77c0:	9d 87       	std	Y+13, r25	; 0x0d
    77c2:	8c 87       	std	Y+12, r24	; 0x0c
    77c4:	fa 01       	movw	r30, r20
    77c6:	60 81       	ld	r22, Z
    77c8:	71 81       	ldd	r23, Z+1	; 0x01
    77ca:	80 e0       	ldi	r24, 0x00	; 0
    77cc:	90 e0       	ldi	r25, 0x00	; 0
    77ce:	a1 01       	movw	r20, r2
    77d0:	0e 94 ac 44 	call	0x8958	; 0x8958 <__ultoa_invert>
    77d4:	98 2e       	mov	r9, r24
    77d6:	92 18       	sub	r9, r2
    77d8:	0f 77       	andi	r16, 0x7F	; 127
    77da:	06 ff       	sbrs	r16, 6
    77dc:	09 c0       	rjmp	.+18     	; 0x77f0 <vfprintf+0x636>
    77de:	0e 7f       	andi	r16, 0xFE	; 254
    77e0:	91 16       	cp	r9, r17
    77e2:	30 f4       	brcc	.+12     	; 0x77f0 <vfprintf+0x636>
    77e4:	04 ff       	sbrs	r16, 4
    77e6:	06 c0       	rjmp	.+12     	; 0x77f4 <vfprintf+0x63a>
    77e8:	02 fd       	sbrc	r16, 2
    77ea:	04 c0       	rjmp	.+8      	; 0x77f4 <vfprintf+0x63a>
    77ec:	0f 7e       	andi	r16, 0xEF	; 239
    77ee:	02 c0       	rjmp	.+4      	; 0x77f4 <vfprintf+0x63a>
    77f0:	e9 2c       	mov	r14, r9
    77f2:	01 c0       	rjmp	.+2      	; 0x77f6 <vfprintf+0x63c>
    77f4:	e1 2e       	mov	r14, r17
    77f6:	80 2f       	mov	r24, r16
    77f8:	90 e0       	ldi	r25, 0x00	; 0
    77fa:	04 ff       	sbrs	r16, 4
    77fc:	0c c0       	rjmp	.+24     	; 0x7816 <vfprintf+0x65c>
    77fe:	fe 01       	movw	r30, r28
    7800:	e9 0d       	add	r30, r9
    7802:	f1 1d       	adc	r31, r1
    7804:	20 81       	ld	r18, Z
    7806:	20 33       	cpi	r18, 0x30	; 48
    7808:	11 f4       	brne	.+4      	; 0x780e <vfprintf+0x654>
    780a:	09 7e       	andi	r16, 0xE9	; 233
    780c:	09 c0       	rjmp	.+18     	; 0x7820 <vfprintf+0x666>
    780e:	e3 94       	inc	r14
    7810:	02 ff       	sbrs	r16, 2
    7812:	06 c0       	rjmp	.+12     	; 0x7820 <vfprintf+0x666>
    7814:	04 c0       	rjmp	.+8      	; 0x781e <vfprintf+0x664>
    7816:	86 78       	andi	r24, 0x86	; 134
    7818:	90 70       	andi	r25, 0x00	; 0
    781a:	00 97       	sbiw	r24, 0x00	; 0
    781c:	09 f0       	breq	.+2      	; 0x7820 <vfprintf+0x666>
    781e:	e3 94       	inc	r14
    7820:	a0 2e       	mov	r10, r16
    7822:	bb 24       	eor	r11, r11
    7824:	03 fd       	sbrc	r16, 3
    7826:	14 c0       	rjmp	.+40     	; 0x7850 <vfprintf+0x696>
    7828:	00 ff       	sbrs	r16, 0
    782a:	0f c0       	rjmp	.+30     	; 0x784a <vfprintf+0x690>
    782c:	ef 14       	cp	r14, r15
    782e:	28 f4       	brcc	.+10     	; 0x783a <vfprintf+0x680>
    7830:	19 2d       	mov	r17, r9
    7832:	1f 0d       	add	r17, r15
    7834:	1e 19       	sub	r17, r14
    7836:	ef 2c       	mov	r14, r15
    7838:	08 c0       	rjmp	.+16     	; 0x784a <vfprintf+0x690>
    783a:	19 2d       	mov	r17, r9
    783c:	06 c0       	rjmp	.+12     	; 0x784a <vfprintf+0x690>
    783e:	80 e2       	ldi	r24, 0x20	; 32
    7840:	90 e0       	ldi	r25, 0x00	; 0
    7842:	b6 01       	movw	r22, r12
    7844:	0e 94 37 44 	call	0x886e	; 0x886e <fputc>
    7848:	e3 94       	inc	r14
    784a:	ef 14       	cp	r14, r15
    784c:	c0 f3       	brcs	.-16     	; 0x783e <vfprintf+0x684>
    784e:	04 c0       	rjmp	.+8      	; 0x7858 <vfprintf+0x69e>
    7850:	ef 14       	cp	r14, r15
    7852:	10 f4       	brcc	.+4      	; 0x7858 <vfprintf+0x69e>
    7854:	fe 18       	sub	r15, r14
    7856:	01 c0       	rjmp	.+2      	; 0x785a <vfprintf+0x6a0>
    7858:	ff 24       	eor	r15, r15
    785a:	a4 fe       	sbrs	r10, 4
    785c:	0f c0       	rjmp	.+30     	; 0x787c <vfprintf+0x6c2>
    785e:	80 e3       	ldi	r24, 0x30	; 48
    7860:	90 e0       	ldi	r25, 0x00	; 0
    7862:	b6 01       	movw	r22, r12
    7864:	0e 94 37 44 	call	0x886e	; 0x886e <fputc>
    7868:	a2 fe       	sbrs	r10, 2
    786a:	1f c0       	rjmp	.+62     	; 0x78aa <vfprintf+0x6f0>
    786c:	a1 fe       	sbrs	r10, 1
    786e:	03 c0       	rjmp	.+6      	; 0x7876 <vfprintf+0x6bc>
    7870:	88 e5       	ldi	r24, 0x58	; 88
    7872:	90 e0       	ldi	r25, 0x00	; 0
    7874:	10 c0       	rjmp	.+32     	; 0x7896 <vfprintf+0x6dc>
    7876:	88 e7       	ldi	r24, 0x78	; 120
    7878:	90 e0       	ldi	r25, 0x00	; 0
    787a:	0d c0       	rjmp	.+26     	; 0x7896 <vfprintf+0x6dc>
    787c:	c5 01       	movw	r24, r10
    787e:	86 78       	andi	r24, 0x86	; 134
    7880:	90 70       	andi	r25, 0x00	; 0
    7882:	00 97       	sbiw	r24, 0x00	; 0
    7884:	91 f0       	breq	.+36     	; 0x78aa <vfprintf+0x6f0>
    7886:	a1 fc       	sbrc	r10, 1
    7888:	02 c0       	rjmp	.+4      	; 0x788e <vfprintf+0x6d4>
    788a:	80 e2       	ldi	r24, 0x20	; 32
    788c:	01 c0       	rjmp	.+2      	; 0x7890 <vfprintf+0x6d6>
    788e:	8b e2       	ldi	r24, 0x2B	; 43
    7890:	07 fd       	sbrc	r16, 7
    7892:	8d e2       	ldi	r24, 0x2D	; 45
    7894:	90 e0       	ldi	r25, 0x00	; 0
    7896:	b6 01       	movw	r22, r12
    7898:	0e 94 37 44 	call	0x886e	; 0x886e <fputc>
    789c:	06 c0       	rjmp	.+12     	; 0x78aa <vfprintf+0x6f0>
    789e:	80 e3       	ldi	r24, 0x30	; 48
    78a0:	90 e0       	ldi	r25, 0x00	; 0
    78a2:	b6 01       	movw	r22, r12
    78a4:	0e 94 37 44 	call	0x886e	; 0x886e <fputc>
    78a8:	11 50       	subi	r17, 0x01	; 1
    78aa:	91 16       	cp	r9, r17
    78ac:	c0 f3       	brcs	.-16     	; 0x789e <vfprintf+0x6e4>
    78ae:	9a 94       	dec	r9
    78b0:	f1 01       	movw	r30, r2
    78b2:	e9 0d       	add	r30, r9
    78b4:	f1 1d       	adc	r31, r1
    78b6:	80 81       	ld	r24, Z
    78b8:	90 e0       	ldi	r25, 0x00	; 0
    78ba:	b6 01       	movw	r22, r12
    78bc:	0e 94 37 44 	call	0x886e	; 0x886e <fputc>
    78c0:	99 20       	and	r9, r9
    78c2:	a9 f7       	brne	.-22     	; 0x78ae <vfprintf+0x6f4>
    78c4:	06 c0       	rjmp	.+12     	; 0x78d2 <vfprintf+0x718>
    78c6:	80 e2       	ldi	r24, 0x20	; 32
    78c8:	90 e0       	ldi	r25, 0x00	; 0
    78ca:	b6 01       	movw	r22, r12
    78cc:	0e 94 37 44 	call	0x886e	; 0x886e <fputc>
    78d0:	fa 94       	dec	r15
    78d2:	ff 20       	and	r15, r15
    78d4:	c1 f7       	brne	.-16     	; 0x78c6 <vfprintf+0x70c>
    78d6:	95 cc       	rjmp	.-1750   	; 0x7202 <vfprintf+0x48>
    78d8:	f6 01       	movw	r30, r12
    78da:	26 81       	ldd	r18, Z+6	; 0x06
    78dc:	37 81       	ldd	r19, Z+7	; 0x07
    78de:	02 c0       	rjmp	.+4      	; 0x78e4 <vfprintf+0x72a>
    78e0:	2f ef       	ldi	r18, 0xFF	; 255
    78e2:	3f ef       	ldi	r19, 0xFF	; 255
    78e4:	c9 01       	movw	r24, r18
    78e6:	63 96       	adiw	r28, 0x13	; 19
    78e8:	0f b6       	in	r0, 0x3f	; 63
    78ea:	f8 94       	cli
    78ec:	de bf       	out	0x3e, r29	; 62
    78ee:	0f be       	out	0x3f, r0	; 63
    78f0:	cd bf       	out	0x3d, r28	; 61
    78f2:	cf 91       	pop	r28
    78f4:	df 91       	pop	r29
    78f6:	1f 91       	pop	r17
    78f8:	0f 91       	pop	r16
    78fa:	ff 90       	pop	r15
    78fc:	ef 90       	pop	r14
    78fe:	df 90       	pop	r13
    7900:	cf 90       	pop	r12
    7902:	bf 90       	pop	r11
    7904:	af 90       	pop	r10
    7906:	9f 90       	pop	r9
    7908:	8f 90       	pop	r8
    790a:	7f 90       	pop	r7
    790c:	6f 90       	pop	r6
    790e:	5f 90       	pop	r5
    7910:	4f 90       	pop	r4
    7912:	3f 90       	pop	r3
    7914:	2f 90       	pop	r2
    7916:	08 95       	ret

00007918 <acos>:
    7918:	9f 93       	push	r25
    791a:	9f 77       	andi	r25, 0x7F	; 127
    791c:	c6 d1       	rcall	.+908    	; 0x7caa <__fp_arccos>
    791e:	0f 90       	pop	r0
    7920:	00 20       	and	r0, r0
    7922:	3a f4       	brpl	.+14     	; 0x7932 <acos+0x1a>
    7924:	90 58       	subi	r25, 0x80	; 128
    7926:	a2 ea       	ldi	r26, 0xA2	; 162
    7928:	2a ed       	ldi	r18, 0xDA	; 218
    792a:	3f e0       	ldi	r19, 0x0F	; 15
    792c:	49 e4       	ldi	r20, 0x49	; 73
    792e:	50 e4       	ldi	r21, 0x40	; 64
    7930:	13 d0       	rcall	.+38     	; 0x7958 <__addsf3x>
    7932:	6f c2       	rjmp	.+1246   	; 0x7e12 <__fp_round>

00007934 <__subsf3>:
    7934:	50 58       	subi	r21, 0x80	; 128

00007936 <__addsf3>:
    7936:	bb 27       	eor	r27, r27
    7938:	aa 27       	eor	r26, r26
    793a:	0e d0       	rcall	.+28     	; 0x7958 <__addsf3x>
    793c:	6a c2       	rjmp	.+1236   	; 0x7e12 <__fp_round>
    793e:	33 d2       	rcall	.+1126   	; 0x7da6 <__fp_pscA>
    7940:	30 f0       	brcs	.+12     	; 0x794e <__addsf3+0x18>
    7942:	38 d2       	rcall	.+1136   	; 0x7db4 <__fp_pscB>
    7944:	20 f0       	brcs	.+8      	; 0x794e <__addsf3+0x18>
    7946:	31 f4       	brne	.+12     	; 0x7954 <__addsf3+0x1e>
    7948:	9f 3f       	cpi	r25, 0xFF	; 255
    794a:	11 f4       	brne	.+4      	; 0x7950 <__addsf3+0x1a>
    794c:	1e f4       	brtc	.+6      	; 0x7954 <__addsf3+0x1e>
    794e:	f2 c1       	rjmp	.+996    	; 0x7d34 <__fp_nan>
    7950:	0e f4       	brtc	.+2      	; 0x7954 <__addsf3+0x1e>
    7952:	e0 95       	com	r30
    7954:	e7 fb       	bst	r30, 7
    7956:	e8 c1       	rjmp	.+976    	; 0x7d28 <__fp_inf>

00007958 <__addsf3x>:
    7958:	e9 2f       	mov	r30, r25
    795a:	7d d2       	rcall	.+1274   	; 0x7e56 <__fp_split3>
    795c:	80 f3       	brcs	.-32     	; 0x793e <__addsf3+0x8>
    795e:	ba 17       	cp	r27, r26
    7960:	62 07       	cpc	r22, r18
    7962:	73 07       	cpc	r23, r19
    7964:	84 07       	cpc	r24, r20
    7966:	95 07       	cpc	r25, r21
    7968:	18 f0       	brcs	.+6      	; 0x7970 <__addsf3x+0x18>
    796a:	71 f4       	brne	.+28     	; 0x7988 <__addsf3x+0x30>
    796c:	9e f5       	brtc	.+102    	; 0x79d4 <__addsf3x+0x7c>
    796e:	95 c2       	rjmp	.+1322   	; 0x7e9a <__fp_zero>
    7970:	0e f4       	brtc	.+2      	; 0x7974 <__addsf3x+0x1c>
    7972:	e0 95       	com	r30
    7974:	0b 2e       	mov	r0, r27
    7976:	ba 2f       	mov	r27, r26
    7978:	a0 2d       	mov	r26, r0
    797a:	0b 01       	movw	r0, r22
    797c:	b9 01       	movw	r22, r18
    797e:	90 01       	movw	r18, r0
    7980:	0c 01       	movw	r0, r24
    7982:	ca 01       	movw	r24, r20
    7984:	a0 01       	movw	r20, r0
    7986:	11 24       	eor	r1, r1
    7988:	ff 27       	eor	r31, r31
    798a:	59 1b       	sub	r21, r25
    798c:	99 f0       	breq	.+38     	; 0x79b4 <__addsf3x+0x5c>
    798e:	59 3f       	cpi	r21, 0xF9	; 249
    7990:	50 f4       	brcc	.+20     	; 0x79a6 <__addsf3x+0x4e>
    7992:	50 3e       	cpi	r21, 0xE0	; 224
    7994:	68 f1       	brcs	.+90     	; 0x79f0 <__addsf3x+0x98>
    7996:	1a 16       	cp	r1, r26
    7998:	f0 40       	sbci	r31, 0x00	; 0
    799a:	a2 2f       	mov	r26, r18
    799c:	23 2f       	mov	r18, r19
    799e:	34 2f       	mov	r19, r20
    79a0:	44 27       	eor	r20, r20
    79a2:	58 5f       	subi	r21, 0xF8	; 248
    79a4:	f3 cf       	rjmp	.-26     	; 0x798c <__addsf3x+0x34>
    79a6:	46 95       	lsr	r20
    79a8:	37 95       	ror	r19
    79aa:	27 95       	ror	r18
    79ac:	a7 95       	ror	r26
    79ae:	f0 40       	sbci	r31, 0x00	; 0
    79b0:	53 95       	inc	r21
    79b2:	c9 f7       	brne	.-14     	; 0x79a6 <__addsf3x+0x4e>
    79b4:	7e f4       	brtc	.+30     	; 0x79d4 <__addsf3x+0x7c>
    79b6:	1f 16       	cp	r1, r31
    79b8:	ba 0b       	sbc	r27, r26
    79ba:	62 0b       	sbc	r22, r18
    79bc:	73 0b       	sbc	r23, r19
    79be:	84 0b       	sbc	r24, r20
    79c0:	ba f0       	brmi	.+46     	; 0x79f0 <__addsf3x+0x98>
    79c2:	91 50       	subi	r25, 0x01	; 1
    79c4:	a1 f0       	breq	.+40     	; 0x79ee <__addsf3x+0x96>
    79c6:	ff 0f       	add	r31, r31
    79c8:	bb 1f       	adc	r27, r27
    79ca:	66 1f       	adc	r22, r22
    79cc:	77 1f       	adc	r23, r23
    79ce:	88 1f       	adc	r24, r24
    79d0:	c2 f7       	brpl	.-16     	; 0x79c2 <__addsf3x+0x6a>
    79d2:	0e c0       	rjmp	.+28     	; 0x79f0 <__addsf3x+0x98>
    79d4:	ba 0f       	add	r27, r26
    79d6:	62 1f       	adc	r22, r18
    79d8:	73 1f       	adc	r23, r19
    79da:	84 1f       	adc	r24, r20
    79dc:	48 f4       	brcc	.+18     	; 0x79f0 <__addsf3x+0x98>
    79de:	87 95       	ror	r24
    79e0:	77 95       	ror	r23
    79e2:	67 95       	ror	r22
    79e4:	b7 95       	ror	r27
    79e6:	f7 95       	ror	r31
    79e8:	9e 3f       	cpi	r25, 0xFE	; 254
    79ea:	08 f0       	brcs	.+2      	; 0x79ee <__addsf3x+0x96>
    79ec:	b3 cf       	rjmp	.-154    	; 0x7954 <__addsf3+0x1e>
    79ee:	93 95       	inc	r25
    79f0:	88 0f       	add	r24, r24
    79f2:	08 f0       	brcs	.+2      	; 0x79f6 <__addsf3x+0x9e>
    79f4:	99 27       	eor	r25, r25
    79f6:	ee 0f       	add	r30, r30
    79f8:	97 95       	ror	r25
    79fa:	87 95       	ror	r24
    79fc:	08 95       	ret

000079fe <asin>:
    79fe:	9f 93       	push	r25
    7a00:	9f 77       	andi	r25, 0x7F	; 127
    7a02:	ee e3       	ldi	r30, 0x3E	; 62
    7a04:	89 37       	cpi	r24, 0x79	; 121
    7a06:	9e 07       	cpc	r25, r30
    7a08:	20 f4       	brcc	.+8      	; 0x7a12 <asin+0x14>
    7a0a:	ec e3       	ldi	r30, 0x3C	; 60
    7a0c:	f1 e0       	ldi	r31, 0x01	; 1
    7a0e:	ba d1       	rcall	.+884    	; 0x7d84 <__fp_powsodd>
    7a10:	09 c0       	rjmp	.+18     	; 0x7a24 <asin+0x26>
    7a12:	4b d1       	rcall	.+662    	; 0x7caa <__fp_arccos>
    7a14:	90 58       	subi	r25, 0x80	; 128
    7a16:	a2 ea       	ldi	r26, 0xA2	; 162
    7a18:	2a ed       	ldi	r18, 0xDA	; 218
    7a1a:	3f e0       	ldi	r19, 0x0F	; 15
    7a1c:	49 ec       	ldi	r20, 0xC9	; 201
    7a1e:	5f e3       	ldi	r21, 0x3F	; 63
    7a20:	9b df       	rcall	.-202    	; 0x7958 <__addsf3x>
    7a22:	f7 d1       	rcall	.+1006   	; 0x7e12 <__fp_round>
    7a24:	0f 90       	pop	r0
    7a26:	07 fc       	sbrc	r0, 7
    7a28:	90 58       	subi	r25, 0x80	; 128
    7a2a:	08 95       	ret
    7a2c:	bc d1       	rcall	.+888    	; 0x7da6 <__fp_pscA>
    7a2e:	58 f0       	brcs	.+22     	; 0x7a46 <asin+0x48>
    7a30:	80 e8       	ldi	r24, 0x80	; 128
    7a32:	91 e0       	ldi	r25, 0x01	; 1
    7a34:	09 f4       	brne	.+2      	; 0x7a38 <asin+0x3a>
    7a36:	9e ef       	ldi	r25, 0xFE	; 254
    7a38:	bd d1       	rcall	.+890    	; 0x7db4 <__fp_pscB>
    7a3a:	28 f0       	brcs	.+10     	; 0x7a46 <asin+0x48>
    7a3c:	40 e8       	ldi	r20, 0x80	; 128
    7a3e:	51 e0       	ldi	r21, 0x01	; 1
    7a40:	59 f4       	brne	.+22     	; 0x7a58 <atan2+0xe>
    7a42:	5e ef       	ldi	r21, 0xFE	; 254
    7a44:	09 c0       	rjmp	.+18     	; 0x7a58 <atan2+0xe>
    7a46:	76 c1       	rjmp	.+748    	; 0x7d34 <__fp_nan>
    7a48:	28 c2       	rjmp	.+1104   	; 0x7e9a <__fp_zero>

00007a4a <atan2>:
    7a4a:	e9 2f       	mov	r30, r25
    7a4c:	e0 78       	andi	r30, 0x80	; 128
    7a4e:	03 d2       	rcall	.+1030   	; 0x7e56 <__fp_split3>
    7a50:	68 f3       	brcs	.-38     	; 0x7a2c <asin+0x2e>
    7a52:	09 2e       	mov	r0, r25
    7a54:	05 2a       	or	r0, r21
    7a56:	c1 f3       	breq	.-16     	; 0x7a48 <asin+0x4a>
    7a58:	26 17       	cp	r18, r22
    7a5a:	37 07       	cpc	r19, r23
    7a5c:	48 07       	cpc	r20, r24
    7a5e:	59 07       	cpc	r21, r25
    7a60:	38 f0       	brcs	.+14     	; 0x7a70 <atan2+0x26>
    7a62:	0e 2e       	mov	r0, r30
    7a64:	07 f8       	bld	r0, 7
    7a66:	e0 25       	eor	r30, r0
    7a68:	69 f0       	breq	.+26     	; 0x7a84 <atan2+0x3a>
    7a6a:	e0 25       	eor	r30, r0
    7a6c:	e0 64       	ori	r30, 0x40	; 64
    7a6e:	0a c0       	rjmp	.+20     	; 0x7a84 <atan2+0x3a>
    7a70:	ef 63       	ori	r30, 0x3F	; 63
    7a72:	07 f8       	bld	r0, 7
    7a74:	00 94       	com	r0
    7a76:	07 fa       	bst	r0, 7
    7a78:	db 01       	movw	r26, r22
    7a7a:	b9 01       	movw	r22, r18
    7a7c:	9d 01       	movw	r18, r26
    7a7e:	dc 01       	movw	r26, r24
    7a80:	ca 01       	movw	r24, r20
    7a82:	ad 01       	movw	r20, r26
    7a84:	ef 93       	push	r30
    7a86:	4a d0       	rcall	.+148    	; 0x7b1c <__divsf3_pse>
    7a88:	c4 d1       	rcall	.+904    	; 0x7e12 <__fp_round>
    7a8a:	0a d0       	rcall	.+20     	; 0x7aa0 <atan>
    7a8c:	5f 91       	pop	r21
    7a8e:	55 23       	and	r21, r21
    7a90:	31 f0       	breq	.+12     	; 0x7a9e <atan2+0x54>
    7a92:	2b ed       	ldi	r18, 0xDB	; 219
    7a94:	3f e0       	ldi	r19, 0x0F	; 15
    7a96:	49 e4       	ldi	r20, 0x49	; 73
    7a98:	50 fd       	sbrc	r21, 0
    7a9a:	49 ec       	ldi	r20, 0xC9	; 201
    7a9c:	4c cf       	rjmp	.-360    	; 0x7936 <__addsf3>
    7a9e:	08 95       	ret

00007aa0 <atan>:
    7aa0:	df 93       	push	r29
    7aa2:	dd 27       	eor	r29, r29
    7aa4:	b9 2f       	mov	r27, r25
    7aa6:	bf 77       	andi	r27, 0x7F	; 127
    7aa8:	40 e8       	ldi	r20, 0x80	; 128
    7aaa:	5f e3       	ldi	r21, 0x3F	; 63
    7aac:	16 16       	cp	r1, r22
    7aae:	17 06       	cpc	r1, r23
    7ab0:	48 07       	cpc	r20, r24
    7ab2:	5b 07       	cpc	r21, r27
    7ab4:	10 f4       	brcc	.+4      	; 0x7aba <atan+0x1a>
    7ab6:	d9 2f       	mov	r29, r25
    7ab8:	fb d1       	rcall	.+1014   	; 0x7eb0 <inverse>
    7aba:	9f 93       	push	r25
    7abc:	8f 93       	push	r24
    7abe:	7f 93       	push	r23
    7ac0:	6f 93       	push	r22
    7ac2:	f4 d2       	rcall	.+1512   	; 0x80ac <square>
    7ac4:	e0 e5       	ldi	r30, 0x50	; 80
    7ac6:	f1 e0       	ldi	r31, 0x01	; 1
    7ac8:	38 d1       	rcall	.+624    	; 0x7d3a <__fp_powser>
    7aca:	a3 d1       	rcall	.+838    	; 0x7e12 <__fp_round>
    7acc:	2f 91       	pop	r18
    7ace:	3f 91       	pop	r19
    7ad0:	4f 91       	pop	r20
    7ad2:	5f 91       	pop	r21
    7ad4:	00 d2       	rcall	.+1024   	; 0x7ed6 <__mulsf3x>
    7ad6:	dd 23       	and	r29, r29
    7ad8:	49 f0       	breq	.+18     	; 0x7aec <atan+0x4c>
    7ada:	90 58       	subi	r25, 0x80	; 128
    7adc:	a2 ea       	ldi	r26, 0xA2	; 162
    7ade:	2a ed       	ldi	r18, 0xDA	; 218
    7ae0:	3f e0       	ldi	r19, 0x0F	; 15
    7ae2:	49 ec       	ldi	r20, 0xC9	; 201
    7ae4:	5f e3       	ldi	r21, 0x3F	; 63
    7ae6:	d0 78       	andi	r29, 0x80	; 128
    7ae8:	5d 27       	eor	r21, r29
    7aea:	36 df       	rcall	.-404    	; 0x7958 <__addsf3x>
    7aec:	df 91       	pop	r29
    7aee:	91 c1       	rjmp	.+802    	; 0x7e12 <__fp_round>

00007af0 <__cmpsf2>:
    7af0:	f7 d0       	rcall	.+494    	; 0x7ce0 <__fp_cmp>
    7af2:	08 f4       	brcc	.+2      	; 0x7af6 <__cmpsf2+0x6>
    7af4:	81 e0       	ldi	r24, 0x01	; 1
    7af6:	08 95       	ret

00007af8 <cos>:
    7af8:	65 d1       	rcall	.+714    	; 0x7dc4 <__fp_rempio2>
    7afa:	e3 95       	inc	r30
    7afc:	9b c1       	rjmp	.+822    	; 0x7e34 <__fp_sinus>

00007afe <__divsf3>:
    7afe:	0c d0       	rcall	.+24     	; 0x7b18 <__divsf3x>
    7b00:	88 c1       	rjmp	.+784    	; 0x7e12 <__fp_round>
    7b02:	58 d1       	rcall	.+688    	; 0x7db4 <__fp_pscB>
    7b04:	40 f0       	brcs	.+16     	; 0x7b16 <__divsf3+0x18>
    7b06:	4f d1       	rcall	.+670    	; 0x7da6 <__fp_pscA>
    7b08:	30 f0       	brcs	.+12     	; 0x7b16 <__divsf3+0x18>
    7b0a:	21 f4       	brne	.+8      	; 0x7b14 <__divsf3+0x16>
    7b0c:	5f 3f       	cpi	r21, 0xFF	; 255
    7b0e:	19 f0       	breq	.+6      	; 0x7b16 <__divsf3+0x18>
    7b10:	0b c1       	rjmp	.+534    	; 0x7d28 <__fp_inf>
    7b12:	51 11       	cpse	r21, r1
    7b14:	c3 c1       	rjmp	.+902    	; 0x7e9c <__fp_szero>
    7b16:	0e c1       	rjmp	.+540    	; 0x7d34 <__fp_nan>

00007b18 <__divsf3x>:
    7b18:	9e d1       	rcall	.+828    	; 0x7e56 <__fp_split3>
    7b1a:	98 f3       	brcs	.-26     	; 0x7b02 <__divsf3+0x4>

00007b1c <__divsf3_pse>:
    7b1c:	99 23       	and	r25, r25
    7b1e:	c9 f3       	breq	.-14     	; 0x7b12 <__divsf3+0x14>
    7b20:	55 23       	and	r21, r21
    7b22:	b1 f3       	breq	.-20     	; 0x7b10 <__divsf3+0x12>
    7b24:	95 1b       	sub	r25, r21
    7b26:	55 0b       	sbc	r21, r21
    7b28:	bb 27       	eor	r27, r27
    7b2a:	aa 27       	eor	r26, r26
    7b2c:	62 17       	cp	r22, r18
    7b2e:	73 07       	cpc	r23, r19
    7b30:	84 07       	cpc	r24, r20
    7b32:	38 f0       	brcs	.+14     	; 0x7b42 <__divsf3_pse+0x26>
    7b34:	9f 5f       	subi	r25, 0xFF	; 255
    7b36:	5f 4f       	sbci	r21, 0xFF	; 255
    7b38:	22 0f       	add	r18, r18
    7b3a:	33 1f       	adc	r19, r19
    7b3c:	44 1f       	adc	r20, r20
    7b3e:	aa 1f       	adc	r26, r26
    7b40:	a9 f3       	breq	.-22     	; 0x7b2c <__divsf3_pse+0x10>
    7b42:	33 d0       	rcall	.+102    	; 0x7baa <__divsf3_pse+0x8e>
    7b44:	0e 2e       	mov	r0, r30
    7b46:	3a f0       	brmi	.+14     	; 0x7b56 <__divsf3_pse+0x3a>
    7b48:	e0 e8       	ldi	r30, 0x80	; 128
    7b4a:	30 d0       	rcall	.+96     	; 0x7bac <__divsf3_pse+0x90>
    7b4c:	91 50       	subi	r25, 0x01	; 1
    7b4e:	50 40       	sbci	r21, 0x00	; 0
    7b50:	e6 95       	lsr	r30
    7b52:	00 1c       	adc	r0, r0
    7b54:	ca f7       	brpl	.-14     	; 0x7b48 <__divsf3_pse+0x2c>
    7b56:	29 d0       	rcall	.+82     	; 0x7baa <__divsf3_pse+0x8e>
    7b58:	fe 2f       	mov	r31, r30
    7b5a:	27 d0       	rcall	.+78     	; 0x7baa <__divsf3_pse+0x8e>
    7b5c:	66 0f       	add	r22, r22
    7b5e:	77 1f       	adc	r23, r23
    7b60:	88 1f       	adc	r24, r24
    7b62:	bb 1f       	adc	r27, r27
    7b64:	26 17       	cp	r18, r22
    7b66:	37 07       	cpc	r19, r23
    7b68:	48 07       	cpc	r20, r24
    7b6a:	ab 07       	cpc	r26, r27
    7b6c:	b0 e8       	ldi	r27, 0x80	; 128
    7b6e:	09 f0       	breq	.+2      	; 0x7b72 <__divsf3_pse+0x56>
    7b70:	bb 0b       	sbc	r27, r27
    7b72:	80 2d       	mov	r24, r0
    7b74:	bf 01       	movw	r22, r30
    7b76:	ff 27       	eor	r31, r31
    7b78:	93 58       	subi	r25, 0x83	; 131
    7b7a:	5f 4f       	sbci	r21, 0xFF	; 255
    7b7c:	2a f0       	brmi	.+10     	; 0x7b88 <__divsf3_pse+0x6c>
    7b7e:	9e 3f       	cpi	r25, 0xFE	; 254
    7b80:	51 05       	cpc	r21, r1
    7b82:	68 f0       	brcs	.+26     	; 0x7b9e <__divsf3_pse+0x82>
    7b84:	d1 c0       	rjmp	.+418    	; 0x7d28 <__fp_inf>
    7b86:	8a c1       	rjmp	.+788    	; 0x7e9c <__fp_szero>
    7b88:	5f 3f       	cpi	r21, 0xFF	; 255
    7b8a:	ec f3       	brlt	.-6      	; 0x7b86 <__divsf3_pse+0x6a>
    7b8c:	98 3e       	cpi	r25, 0xE8	; 232
    7b8e:	dc f3       	brlt	.-10     	; 0x7b86 <__divsf3_pse+0x6a>
    7b90:	86 95       	lsr	r24
    7b92:	77 95       	ror	r23
    7b94:	67 95       	ror	r22
    7b96:	b7 95       	ror	r27
    7b98:	f7 95       	ror	r31
    7b9a:	9f 5f       	subi	r25, 0xFF	; 255
    7b9c:	c9 f7       	brne	.-14     	; 0x7b90 <__divsf3_pse+0x74>
    7b9e:	88 0f       	add	r24, r24
    7ba0:	91 1d       	adc	r25, r1
    7ba2:	96 95       	lsr	r25
    7ba4:	87 95       	ror	r24
    7ba6:	97 f9       	bld	r25, 7
    7ba8:	08 95       	ret
    7baa:	e1 e0       	ldi	r30, 0x01	; 1
    7bac:	66 0f       	add	r22, r22
    7bae:	77 1f       	adc	r23, r23
    7bb0:	88 1f       	adc	r24, r24
    7bb2:	bb 1f       	adc	r27, r27
    7bb4:	62 17       	cp	r22, r18
    7bb6:	73 07       	cpc	r23, r19
    7bb8:	84 07       	cpc	r24, r20
    7bba:	ba 07       	cpc	r27, r26
    7bbc:	20 f0       	brcs	.+8      	; 0x7bc6 <__divsf3_pse+0xaa>
    7bbe:	62 1b       	sub	r22, r18
    7bc0:	73 0b       	sbc	r23, r19
    7bc2:	84 0b       	sbc	r24, r20
    7bc4:	ba 0b       	sbc	r27, r26
    7bc6:	ee 1f       	adc	r30, r30
    7bc8:	88 f7       	brcc	.-30     	; 0x7bac <__divsf3_pse+0x90>
    7bca:	e0 95       	com	r30
    7bcc:	08 95       	ret

00007bce <__fixsfsi>:
    7bce:	04 d0       	rcall	.+8      	; 0x7bd8 <__fixunssfsi>
    7bd0:	68 94       	set
    7bd2:	b1 11       	cpse	r27, r1
    7bd4:	63 c1       	rjmp	.+710    	; 0x7e9c <__fp_szero>
    7bd6:	08 95       	ret

00007bd8 <__fixunssfsi>:
    7bd8:	46 d1       	rcall	.+652    	; 0x7e66 <__fp_splitA>
    7bda:	88 f0       	brcs	.+34     	; 0x7bfe <__fixunssfsi+0x26>
    7bdc:	9f 57       	subi	r25, 0x7F	; 127
    7bde:	90 f0       	brcs	.+36     	; 0x7c04 <__fixunssfsi+0x2c>
    7be0:	b9 2f       	mov	r27, r25
    7be2:	99 27       	eor	r25, r25
    7be4:	b7 51       	subi	r27, 0x17	; 23
    7be6:	a0 f0       	brcs	.+40     	; 0x7c10 <__fixunssfsi+0x38>
    7be8:	d1 f0       	breq	.+52     	; 0x7c1e <__fixunssfsi+0x46>
    7bea:	66 0f       	add	r22, r22
    7bec:	77 1f       	adc	r23, r23
    7bee:	88 1f       	adc	r24, r24
    7bf0:	99 1f       	adc	r25, r25
    7bf2:	1a f0       	brmi	.+6      	; 0x7bfa <__fixunssfsi+0x22>
    7bf4:	ba 95       	dec	r27
    7bf6:	c9 f7       	brne	.-14     	; 0x7bea <__fixunssfsi+0x12>
    7bf8:	12 c0       	rjmp	.+36     	; 0x7c1e <__fixunssfsi+0x46>
    7bfa:	b1 30       	cpi	r27, 0x01	; 1
    7bfc:	81 f0       	breq	.+32     	; 0x7c1e <__fixunssfsi+0x46>
    7bfe:	4d d1       	rcall	.+666    	; 0x7e9a <__fp_zero>
    7c00:	b1 e0       	ldi	r27, 0x01	; 1
    7c02:	08 95       	ret
    7c04:	4a c1       	rjmp	.+660    	; 0x7e9a <__fp_zero>
    7c06:	67 2f       	mov	r22, r23
    7c08:	78 2f       	mov	r23, r24
    7c0a:	88 27       	eor	r24, r24
    7c0c:	b8 5f       	subi	r27, 0xF8	; 248
    7c0e:	39 f0       	breq	.+14     	; 0x7c1e <__fixunssfsi+0x46>
    7c10:	b9 3f       	cpi	r27, 0xF9	; 249
    7c12:	cc f3       	brlt	.-14     	; 0x7c06 <__fixunssfsi+0x2e>
    7c14:	86 95       	lsr	r24
    7c16:	77 95       	ror	r23
    7c18:	67 95       	ror	r22
    7c1a:	b3 95       	inc	r27
    7c1c:	d9 f7       	brne	.-10     	; 0x7c14 <__fixunssfsi+0x3c>
    7c1e:	3e f4       	brtc	.+14     	; 0x7c2e <__fixunssfsi+0x56>
    7c20:	90 95       	com	r25
    7c22:	80 95       	com	r24
    7c24:	70 95       	com	r23
    7c26:	61 95       	neg	r22
    7c28:	7f 4f       	sbci	r23, 0xFF	; 255
    7c2a:	8f 4f       	sbci	r24, 0xFF	; 255
    7c2c:	9f 4f       	sbci	r25, 0xFF	; 255
    7c2e:	08 95       	ret

00007c30 <__floatunsisf>:
    7c30:	e8 94       	clt
    7c32:	09 c0       	rjmp	.+18     	; 0x7c46 <__floatsisf+0x12>

00007c34 <__floatsisf>:
    7c34:	97 fb       	bst	r25, 7
    7c36:	3e f4       	brtc	.+14     	; 0x7c46 <__floatsisf+0x12>
    7c38:	90 95       	com	r25
    7c3a:	80 95       	com	r24
    7c3c:	70 95       	com	r23
    7c3e:	61 95       	neg	r22
    7c40:	7f 4f       	sbci	r23, 0xFF	; 255
    7c42:	8f 4f       	sbci	r24, 0xFF	; 255
    7c44:	9f 4f       	sbci	r25, 0xFF	; 255
    7c46:	99 23       	and	r25, r25
    7c48:	a9 f0       	breq	.+42     	; 0x7c74 <__floatsisf+0x40>
    7c4a:	f9 2f       	mov	r31, r25
    7c4c:	96 e9       	ldi	r25, 0x96	; 150
    7c4e:	bb 27       	eor	r27, r27
    7c50:	93 95       	inc	r25
    7c52:	f6 95       	lsr	r31
    7c54:	87 95       	ror	r24
    7c56:	77 95       	ror	r23
    7c58:	67 95       	ror	r22
    7c5a:	b7 95       	ror	r27
    7c5c:	f1 11       	cpse	r31, r1
    7c5e:	f8 cf       	rjmp	.-16     	; 0x7c50 <__floatsisf+0x1c>
    7c60:	fa f4       	brpl	.+62     	; 0x7ca0 <__floatsisf+0x6c>
    7c62:	bb 0f       	add	r27, r27
    7c64:	11 f4       	brne	.+4      	; 0x7c6a <__floatsisf+0x36>
    7c66:	60 ff       	sbrs	r22, 0
    7c68:	1b c0       	rjmp	.+54     	; 0x7ca0 <__floatsisf+0x6c>
    7c6a:	6f 5f       	subi	r22, 0xFF	; 255
    7c6c:	7f 4f       	sbci	r23, 0xFF	; 255
    7c6e:	8f 4f       	sbci	r24, 0xFF	; 255
    7c70:	9f 4f       	sbci	r25, 0xFF	; 255
    7c72:	16 c0       	rjmp	.+44     	; 0x7ca0 <__floatsisf+0x6c>
    7c74:	88 23       	and	r24, r24
    7c76:	11 f0       	breq	.+4      	; 0x7c7c <__floatsisf+0x48>
    7c78:	96 e9       	ldi	r25, 0x96	; 150
    7c7a:	11 c0       	rjmp	.+34     	; 0x7c9e <__floatsisf+0x6a>
    7c7c:	77 23       	and	r23, r23
    7c7e:	21 f0       	breq	.+8      	; 0x7c88 <__floatsisf+0x54>
    7c80:	9e e8       	ldi	r25, 0x8E	; 142
    7c82:	87 2f       	mov	r24, r23
    7c84:	76 2f       	mov	r23, r22
    7c86:	05 c0       	rjmp	.+10     	; 0x7c92 <__floatsisf+0x5e>
    7c88:	66 23       	and	r22, r22
    7c8a:	71 f0       	breq	.+28     	; 0x7ca8 <__floatsisf+0x74>
    7c8c:	96 e8       	ldi	r25, 0x86	; 134
    7c8e:	86 2f       	mov	r24, r22
    7c90:	70 e0       	ldi	r23, 0x00	; 0
    7c92:	60 e0       	ldi	r22, 0x00	; 0
    7c94:	2a f0       	brmi	.+10     	; 0x7ca0 <__floatsisf+0x6c>
    7c96:	9a 95       	dec	r25
    7c98:	66 0f       	add	r22, r22
    7c9a:	77 1f       	adc	r23, r23
    7c9c:	88 1f       	adc	r24, r24
    7c9e:	da f7       	brpl	.-10     	; 0x7c96 <__floatsisf+0x62>
    7ca0:	88 0f       	add	r24, r24
    7ca2:	96 95       	lsr	r25
    7ca4:	87 95       	ror	r24
    7ca6:	97 f9       	bld	r25, 7
    7ca8:	08 95       	ret

00007caa <__fp_arccos>:
    7caa:	df 93       	push	r29
    7cac:	cf 93       	push	r28
    7cae:	1f 93       	push	r17
    7cb0:	0f 93       	push	r16
    7cb2:	8b 01       	movw	r16, r22
    7cb4:	ec 01       	movw	r28, r24
    7cb6:	ed e7       	ldi	r30, 0x7D	; 125
    7cb8:	f1 e0       	ldi	r31, 0x01	; 1
    7cba:	3f d0       	rcall	.+126    	; 0x7d3a <__fp_powser>
    7cbc:	aa d0       	rcall	.+340    	; 0x7e12 <__fp_round>
    7cbe:	98 01       	movw	r18, r16
    7cc0:	ae 01       	movw	r20, r28
    7cc2:	8b 01       	movw	r16, r22
    7cc4:	ec 01       	movw	r28, r24
    7cc6:	60 e0       	ldi	r22, 0x00	; 0
    7cc8:	70 e0       	ldi	r23, 0x00	; 0
    7cca:	80 e8       	ldi	r24, 0x80	; 128
    7ccc:	9f e3       	ldi	r25, 0x3F	; 63
    7cce:	32 de       	rcall	.-924    	; 0x7934 <__subsf3>
    7cd0:	af d1       	rcall	.+862    	; 0x8030 <sqrt>
    7cd2:	98 01       	movw	r18, r16
    7cd4:	ae 01       	movw	r20, r28
    7cd6:	0f 91       	pop	r16
    7cd8:	1f 91       	pop	r17
    7cda:	cf 91       	pop	r28
    7cdc:	df 91       	pop	r29
    7cde:	fb c0       	rjmp	.+502    	; 0x7ed6 <__mulsf3x>

00007ce0 <__fp_cmp>:
    7ce0:	99 0f       	add	r25, r25
    7ce2:	00 08       	sbc	r0, r0
    7ce4:	55 0f       	add	r21, r21
    7ce6:	aa 0b       	sbc	r26, r26
    7ce8:	e0 e8       	ldi	r30, 0x80	; 128
    7cea:	fe ef       	ldi	r31, 0xFE	; 254
    7cec:	16 16       	cp	r1, r22
    7cee:	17 06       	cpc	r1, r23
    7cf0:	e8 07       	cpc	r30, r24
    7cf2:	f9 07       	cpc	r31, r25
    7cf4:	c0 f0       	brcs	.+48     	; 0x7d26 <__fp_cmp+0x46>
    7cf6:	12 16       	cp	r1, r18
    7cf8:	13 06       	cpc	r1, r19
    7cfa:	e4 07       	cpc	r30, r20
    7cfc:	f5 07       	cpc	r31, r21
    7cfe:	98 f0       	brcs	.+38     	; 0x7d26 <__fp_cmp+0x46>
    7d00:	62 1b       	sub	r22, r18
    7d02:	73 0b       	sbc	r23, r19
    7d04:	84 0b       	sbc	r24, r20
    7d06:	95 0b       	sbc	r25, r21
    7d08:	39 f4       	brne	.+14     	; 0x7d18 <__fp_cmp+0x38>
    7d0a:	0a 26       	eor	r0, r26
    7d0c:	61 f0       	breq	.+24     	; 0x7d26 <__fp_cmp+0x46>
    7d0e:	23 2b       	or	r18, r19
    7d10:	24 2b       	or	r18, r20
    7d12:	25 2b       	or	r18, r21
    7d14:	21 f4       	brne	.+8      	; 0x7d1e <__fp_cmp+0x3e>
    7d16:	08 95       	ret
    7d18:	0a 26       	eor	r0, r26
    7d1a:	09 f4       	brne	.+2      	; 0x7d1e <__fp_cmp+0x3e>
    7d1c:	a1 40       	sbci	r26, 0x01	; 1
    7d1e:	a6 95       	lsr	r26
    7d20:	8f ef       	ldi	r24, 0xFF	; 255
    7d22:	81 1d       	adc	r24, r1
    7d24:	81 1d       	adc	r24, r1
    7d26:	08 95       	ret

00007d28 <__fp_inf>:
    7d28:	97 f9       	bld	r25, 7
    7d2a:	9f 67       	ori	r25, 0x7F	; 127
    7d2c:	80 e8       	ldi	r24, 0x80	; 128
    7d2e:	70 e0       	ldi	r23, 0x00	; 0
    7d30:	60 e0       	ldi	r22, 0x00	; 0
    7d32:	08 95       	ret

00007d34 <__fp_nan>:
    7d34:	9f ef       	ldi	r25, 0xFF	; 255
    7d36:	80 ec       	ldi	r24, 0xC0	; 192
    7d38:	08 95       	ret

00007d3a <__fp_powser>:
    7d3a:	df 93       	push	r29
    7d3c:	cf 93       	push	r28
    7d3e:	1f 93       	push	r17
    7d40:	0f 93       	push	r16
    7d42:	ff 92       	push	r15
    7d44:	ef 92       	push	r14
    7d46:	df 92       	push	r13
    7d48:	7b 01       	movw	r14, r22
    7d4a:	8c 01       	movw	r16, r24
    7d4c:	68 94       	set
    7d4e:	05 c0       	rjmp	.+10     	; 0x7d5a <__fp_powser+0x20>
    7d50:	da 2e       	mov	r13, r26
    7d52:	ef 01       	movw	r28, r30
    7d54:	c0 d0       	rcall	.+384    	; 0x7ed6 <__mulsf3x>
    7d56:	fe 01       	movw	r30, r28
    7d58:	e8 94       	clt
    7d5a:	a5 91       	lpm	r26, Z+
    7d5c:	25 91       	lpm	r18, Z+
    7d5e:	35 91       	lpm	r19, Z+
    7d60:	45 91       	lpm	r20, Z+
    7d62:	55 91       	lpm	r21, Z+
    7d64:	ae f3       	brts	.-22     	; 0x7d50 <__fp_powser+0x16>
    7d66:	ef 01       	movw	r28, r30
    7d68:	f7 dd       	rcall	.-1042   	; 0x7958 <__addsf3x>
    7d6a:	fe 01       	movw	r30, r28
    7d6c:	97 01       	movw	r18, r14
    7d6e:	a8 01       	movw	r20, r16
    7d70:	da 94       	dec	r13
    7d72:	79 f7       	brne	.-34     	; 0x7d52 <__fp_powser+0x18>
    7d74:	df 90       	pop	r13
    7d76:	ef 90       	pop	r14
    7d78:	ff 90       	pop	r15
    7d7a:	0f 91       	pop	r16
    7d7c:	1f 91       	pop	r17
    7d7e:	cf 91       	pop	r28
    7d80:	df 91       	pop	r29
    7d82:	08 95       	ret

00007d84 <__fp_powsodd>:
    7d84:	9f 93       	push	r25
    7d86:	8f 93       	push	r24
    7d88:	7f 93       	push	r23
    7d8a:	6f 93       	push	r22
    7d8c:	ff 93       	push	r31
    7d8e:	ef 93       	push	r30
    7d90:	9b 01       	movw	r18, r22
    7d92:	ac 01       	movw	r20, r24
    7d94:	94 d0       	rcall	.+296    	; 0x7ebe <__mulsf3>
    7d96:	ef 91       	pop	r30
    7d98:	ff 91       	pop	r31
    7d9a:	cf df       	rcall	.-98     	; 0x7d3a <__fp_powser>
    7d9c:	2f 91       	pop	r18
    7d9e:	3f 91       	pop	r19
    7da0:	4f 91       	pop	r20
    7da2:	5f 91       	pop	r21
    7da4:	8c c0       	rjmp	.+280    	; 0x7ebe <__mulsf3>

00007da6 <__fp_pscA>:
    7da6:	00 24       	eor	r0, r0
    7da8:	0a 94       	dec	r0
    7daa:	16 16       	cp	r1, r22
    7dac:	17 06       	cpc	r1, r23
    7dae:	18 06       	cpc	r1, r24
    7db0:	09 06       	cpc	r0, r25
    7db2:	08 95       	ret

00007db4 <__fp_pscB>:
    7db4:	00 24       	eor	r0, r0
    7db6:	0a 94       	dec	r0
    7db8:	12 16       	cp	r1, r18
    7dba:	13 06       	cpc	r1, r19
    7dbc:	14 06       	cpc	r1, r20
    7dbe:	05 06       	cpc	r0, r21
    7dc0:	08 95       	ret
    7dc2:	b8 cf       	rjmp	.-144    	; 0x7d34 <__fp_nan>

00007dc4 <__fp_rempio2>:
    7dc4:	50 d0       	rcall	.+160    	; 0x7e66 <__fp_splitA>
    7dc6:	e8 f3       	brcs	.-6      	; 0x7dc2 <__fp_pscB+0xe>
    7dc8:	e8 94       	clt
    7dca:	e0 e0       	ldi	r30, 0x00	; 0
    7dcc:	bb 27       	eor	r27, r27
    7dce:	9f 57       	subi	r25, 0x7F	; 127
    7dd0:	f0 f0       	brcs	.+60     	; 0x7e0e <__fp_rempio2+0x4a>
    7dd2:	2a ed       	ldi	r18, 0xDA	; 218
    7dd4:	3f e0       	ldi	r19, 0x0F	; 15
    7dd6:	49 ec       	ldi	r20, 0xC9	; 201
    7dd8:	06 c0       	rjmp	.+12     	; 0x7de6 <__fp_rempio2+0x22>
    7dda:	ee 0f       	add	r30, r30
    7ddc:	bb 0f       	add	r27, r27
    7dde:	66 1f       	adc	r22, r22
    7de0:	77 1f       	adc	r23, r23
    7de2:	88 1f       	adc	r24, r24
    7de4:	28 f0       	brcs	.+10     	; 0x7df0 <__fp_rempio2+0x2c>
    7de6:	b2 3a       	cpi	r27, 0xA2	; 162
    7de8:	62 07       	cpc	r22, r18
    7dea:	73 07       	cpc	r23, r19
    7dec:	84 07       	cpc	r24, r20
    7dee:	28 f0       	brcs	.+10     	; 0x7dfa <__fp_rempio2+0x36>
    7df0:	b2 5a       	subi	r27, 0xA2	; 162
    7df2:	62 0b       	sbc	r22, r18
    7df4:	73 0b       	sbc	r23, r19
    7df6:	84 0b       	sbc	r24, r20
    7df8:	e3 95       	inc	r30
    7dfa:	9a 95       	dec	r25
    7dfc:	72 f7       	brpl	.-36     	; 0x7dda <__fp_rempio2+0x16>
    7dfe:	80 38       	cpi	r24, 0x80	; 128
    7e00:	30 f4       	brcc	.+12     	; 0x7e0e <__fp_rempio2+0x4a>
    7e02:	9a 95       	dec	r25
    7e04:	bb 0f       	add	r27, r27
    7e06:	66 1f       	adc	r22, r22
    7e08:	77 1f       	adc	r23, r23
    7e0a:	88 1f       	adc	r24, r24
    7e0c:	d2 f7       	brpl	.-12     	; 0x7e02 <__fp_rempio2+0x3e>
    7e0e:	90 48       	sbci	r25, 0x80	; 128
    7e10:	83 c1       	rjmp	.+774    	; 0x8118 <__fp_mpack_finite>

00007e12 <__fp_round>:
    7e12:	09 2e       	mov	r0, r25
    7e14:	03 94       	inc	r0
    7e16:	00 0c       	add	r0, r0
    7e18:	11 f4       	brne	.+4      	; 0x7e1e <__fp_round+0xc>
    7e1a:	88 23       	and	r24, r24
    7e1c:	52 f0       	brmi	.+20     	; 0x7e32 <__fp_round+0x20>
    7e1e:	bb 0f       	add	r27, r27
    7e20:	40 f4       	brcc	.+16     	; 0x7e32 <__fp_round+0x20>
    7e22:	bf 2b       	or	r27, r31
    7e24:	11 f4       	brne	.+4      	; 0x7e2a <__fp_round+0x18>
    7e26:	60 ff       	sbrs	r22, 0
    7e28:	04 c0       	rjmp	.+8      	; 0x7e32 <__fp_round+0x20>
    7e2a:	6f 5f       	subi	r22, 0xFF	; 255
    7e2c:	7f 4f       	sbci	r23, 0xFF	; 255
    7e2e:	8f 4f       	sbci	r24, 0xFF	; 255
    7e30:	9f 4f       	sbci	r25, 0xFF	; 255
    7e32:	08 95       	ret

00007e34 <__fp_sinus>:
    7e34:	ef 93       	push	r30
    7e36:	e0 ff       	sbrs	r30, 0
    7e38:	06 c0       	rjmp	.+12     	; 0x7e46 <__fp_sinus+0x12>
    7e3a:	a2 ea       	ldi	r26, 0xA2	; 162
    7e3c:	2a ed       	ldi	r18, 0xDA	; 218
    7e3e:	3f e0       	ldi	r19, 0x0F	; 15
    7e40:	49 ec       	ldi	r20, 0xC9	; 201
    7e42:	5f eb       	ldi	r21, 0xBF	; 191
    7e44:	89 dd       	rcall	.-1262   	; 0x7958 <__addsf3x>
    7e46:	e5 df       	rcall	.-54     	; 0x7e12 <__fp_round>
    7e48:	0f 90       	pop	r0
    7e4a:	03 94       	inc	r0
    7e4c:	01 fc       	sbrc	r0, 1
    7e4e:	90 58       	subi	r25, 0x80	; 128
    7e50:	e5 ea       	ldi	r30, 0xA5	; 165
    7e52:	f1 e0       	ldi	r31, 0x01	; 1
    7e54:	97 cf       	rjmp	.-210    	; 0x7d84 <__fp_powsodd>

00007e56 <__fp_split3>:
    7e56:	57 fd       	sbrc	r21, 7
    7e58:	90 58       	subi	r25, 0x80	; 128
    7e5a:	44 0f       	add	r20, r20
    7e5c:	55 1f       	adc	r21, r21
    7e5e:	59 f0       	breq	.+22     	; 0x7e76 <__fp_splitA+0x10>
    7e60:	5f 3f       	cpi	r21, 0xFF	; 255
    7e62:	71 f0       	breq	.+28     	; 0x7e80 <__fp_splitA+0x1a>
    7e64:	47 95       	ror	r20

00007e66 <__fp_splitA>:
    7e66:	88 0f       	add	r24, r24
    7e68:	97 fb       	bst	r25, 7
    7e6a:	99 1f       	adc	r25, r25
    7e6c:	61 f0       	breq	.+24     	; 0x7e86 <__fp_splitA+0x20>
    7e6e:	9f 3f       	cpi	r25, 0xFF	; 255
    7e70:	79 f0       	breq	.+30     	; 0x7e90 <__fp_splitA+0x2a>
    7e72:	87 95       	ror	r24
    7e74:	08 95       	ret
    7e76:	12 16       	cp	r1, r18
    7e78:	13 06       	cpc	r1, r19
    7e7a:	14 06       	cpc	r1, r20
    7e7c:	55 1f       	adc	r21, r21
    7e7e:	f2 cf       	rjmp	.-28     	; 0x7e64 <__fp_split3+0xe>
    7e80:	46 95       	lsr	r20
    7e82:	f1 df       	rcall	.-30     	; 0x7e66 <__fp_splitA>
    7e84:	08 c0       	rjmp	.+16     	; 0x7e96 <__fp_splitA+0x30>
    7e86:	16 16       	cp	r1, r22
    7e88:	17 06       	cpc	r1, r23
    7e8a:	18 06       	cpc	r1, r24
    7e8c:	99 1f       	adc	r25, r25
    7e8e:	f1 cf       	rjmp	.-30     	; 0x7e72 <__fp_splitA+0xc>
    7e90:	86 95       	lsr	r24
    7e92:	71 05       	cpc	r23, r1
    7e94:	61 05       	cpc	r22, r1
    7e96:	08 94       	sec
    7e98:	08 95       	ret

00007e9a <__fp_zero>:
    7e9a:	e8 94       	clt

00007e9c <__fp_szero>:
    7e9c:	bb 27       	eor	r27, r27
    7e9e:	66 27       	eor	r22, r22
    7ea0:	77 27       	eor	r23, r23
    7ea2:	cb 01       	movw	r24, r22
    7ea4:	97 f9       	bld	r25, 7
    7ea6:	08 95       	ret

00007ea8 <__gesf2>:
    7ea8:	1b df       	rcall	.-458    	; 0x7ce0 <__fp_cmp>
    7eaa:	08 f4       	brcc	.+2      	; 0x7eae <__gesf2+0x6>
    7eac:	8f ef       	ldi	r24, 0xFF	; 255
    7eae:	08 95       	ret

00007eb0 <inverse>:
    7eb0:	9b 01       	movw	r18, r22
    7eb2:	ac 01       	movw	r20, r24
    7eb4:	60 e0       	ldi	r22, 0x00	; 0
    7eb6:	70 e0       	ldi	r23, 0x00	; 0
    7eb8:	80 e8       	ldi	r24, 0x80	; 128
    7eba:	9f e3       	ldi	r25, 0x3F	; 63
    7ebc:	20 ce       	rjmp	.-960    	; 0x7afe <__divsf3>

00007ebe <__mulsf3>:
    7ebe:	0b d0       	rcall	.+22     	; 0x7ed6 <__mulsf3x>
    7ec0:	a8 cf       	rjmp	.-176    	; 0x7e12 <__fp_round>
    7ec2:	71 df       	rcall	.-286    	; 0x7da6 <__fp_pscA>
    7ec4:	28 f0       	brcs	.+10     	; 0x7ed0 <__mulsf3+0x12>
    7ec6:	76 df       	rcall	.-276    	; 0x7db4 <__fp_pscB>
    7ec8:	18 f0       	brcs	.+6      	; 0x7ed0 <__mulsf3+0x12>
    7eca:	95 23       	and	r25, r21
    7ecc:	09 f0       	breq	.+2      	; 0x7ed0 <__mulsf3+0x12>
    7ece:	2c cf       	rjmp	.-424    	; 0x7d28 <__fp_inf>
    7ed0:	31 cf       	rjmp	.-414    	; 0x7d34 <__fp_nan>
    7ed2:	11 24       	eor	r1, r1
    7ed4:	e3 cf       	rjmp	.-58     	; 0x7e9c <__fp_szero>

00007ed6 <__mulsf3x>:
    7ed6:	bf df       	rcall	.-130    	; 0x7e56 <__fp_split3>
    7ed8:	a0 f3       	brcs	.-24     	; 0x7ec2 <__mulsf3+0x4>

00007eda <__mulsf3_pse>:
    7eda:	95 9f       	mul	r25, r21
    7edc:	d1 f3       	breq	.-12     	; 0x7ed2 <__mulsf3+0x14>
    7ede:	95 0f       	add	r25, r21
    7ee0:	50 e0       	ldi	r21, 0x00	; 0
    7ee2:	55 1f       	adc	r21, r21
    7ee4:	62 9f       	mul	r22, r18
    7ee6:	f0 01       	movw	r30, r0
    7ee8:	72 9f       	mul	r23, r18
    7eea:	bb 27       	eor	r27, r27
    7eec:	f0 0d       	add	r31, r0
    7eee:	b1 1d       	adc	r27, r1
    7ef0:	63 9f       	mul	r22, r19
    7ef2:	aa 27       	eor	r26, r26
    7ef4:	f0 0d       	add	r31, r0
    7ef6:	b1 1d       	adc	r27, r1
    7ef8:	aa 1f       	adc	r26, r26
    7efa:	64 9f       	mul	r22, r20
    7efc:	66 27       	eor	r22, r22
    7efe:	b0 0d       	add	r27, r0
    7f00:	a1 1d       	adc	r26, r1
    7f02:	66 1f       	adc	r22, r22
    7f04:	82 9f       	mul	r24, r18
    7f06:	22 27       	eor	r18, r18
    7f08:	b0 0d       	add	r27, r0
    7f0a:	a1 1d       	adc	r26, r1
    7f0c:	62 1f       	adc	r22, r18
    7f0e:	73 9f       	mul	r23, r19
    7f10:	b0 0d       	add	r27, r0
    7f12:	a1 1d       	adc	r26, r1
    7f14:	62 1f       	adc	r22, r18
    7f16:	83 9f       	mul	r24, r19
    7f18:	a0 0d       	add	r26, r0
    7f1a:	61 1d       	adc	r22, r1
    7f1c:	22 1f       	adc	r18, r18
    7f1e:	74 9f       	mul	r23, r20
    7f20:	33 27       	eor	r19, r19
    7f22:	a0 0d       	add	r26, r0
    7f24:	61 1d       	adc	r22, r1
    7f26:	23 1f       	adc	r18, r19
    7f28:	84 9f       	mul	r24, r20
    7f2a:	60 0d       	add	r22, r0
    7f2c:	21 1d       	adc	r18, r1
    7f2e:	82 2f       	mov	r24, r18
    7f30:	76 2f       	mov	r23, r22
    7f32:	6a 2f       	mov	r22, r26
    7f34:	11 24       	eor	r1, r1
    7f36:	9f 57       	subi	r25, 0x7F	; 127
    7f38:	50 40       	sbci	r21, 0x00	; 0
    7f3a:	8a f0       	brmi	.+34     	; 0x7f5e <__mulsf3_pse+0x84>
    7f3c:	e1 f0       	breq	.+56     	; 0x7f76 <__mulsf3_pse+0x9c>
    7f3e:	88 23       	and	r24, r24
    7f40:	4a f0       	brmi	.+18     	; 0x7f54 <__mulsf3_pse+0x7a>
    7f42:	ee 0f       	add	r30, r30
    7f44:	ff 1f       	adc	r31, r31
    7f46:	bb 1f       	adc	r27, r27
    7f48:	66 1f       	adc	r22, r22
    7f4a:	77 1f       	adc	r23, r23
    7f4c:	88 1f       	adc	r24, r24
    7f4e:	91 50       	subi	r25, 0x01	; 1
    7f50:	50 40       	sbci	r21, 0x00	; 0
    7f52:	a9 f7       	brne	.-22     	; 0x7f3e <__mulsf3_pse+0x64>
    7f54:	9e 3f       	cpi	r25, 0xFE	; 254
    7f56:	51 05       	cpc	r21, r1
    7f58:	70 f0       	brcs	.+28     	; 0x7f76 <__mulsf3_pse+0x9c>
    7f5a:	e6 ce       	rjmp	.-564    	; 0x7d28 <__fp_inf>
    7f5c:	9f cf       	rjmp	.-194    	; 0x7e9c <__fp_szero>
    7f5e:	5f 3f       	cpi	r21, 0xFF	; 255
    7f60:	ec f3       	brlt	.-6      	; 0x7f5c <__mulsf3_pse+0x82>
    7f62:	98 3e       	cpi	r25, 0xE8	; 232
    7f64:	dc f3       	brlt	.-10     	; 0x7f5c <__mulsf3_pse+0x82>
    7f66:	86 95       	lsr	r24
    7f68:	77 95       	ror	r23
    7f6a:	67 95       	ror	r22
    7f6c:	b7 95       	ror	r27
    7f6e:	f7 95       	ror	r31
    7f70:	e7 95       	ror	r30
    7f72:	9f 5f       	subi	r25, 0xFF	; 255
    7f74:	c1 f7       	brne	.-16     	; 0x7f66 <__mulsf3_pse+0x8c>
    7f76:	fe 2b       	or	r31, r30
    7f78:	88 0f       	add	r24, r24
    7f7a:	91 1d       	adc	r25, r1
    7f7c:	96 95       	lsr	r25
    7f7e:	87 95       	ror	r24
    7f80:	97 f9       	bld	r25, 7
    7f82:	08 95       	ret

00007f84 <pow>:
    7f84:	fa 01       	movw	r30, r20
    7f86:	ee 0f       	add	r30, r30
    7f88:	ff 1f       	adc	r31, r31
    7f8a:	30 96       	adiw	r30, 0x00	; 0
    7f8c:	21 05       	cpc	r18, r1
    7f8e:	31 05       	cpc	r19, r1
    7f90:	99 f1       	breq	.+102    	; 0x7ff8 <pow+0x74>
    7f92:	61 15       	cp	r22, r1
    7f94:	71 05       	cpc	r23, r1
    7f96:	61 f4       	brne	.+24     	; 0x7fb0 <pow+0x2c>
    7f98:	80 38       	cpi	r24, 0x80	; 128
    7f9a:	bf e3       	ldi	r27, 0x3F	; 63
    7f9c:	9b 07       	cpc	r25, r27
    7f9e:	49 f1       	breq	.+82     	; 0x7ff2 <pow+0x6e>
    7fa0:	68 94       	set
    7fa2:	90 38       	cpi	r25, 0x80	; 128
    7fa4:	81 05       	cpc	r24, r1
    7fa6:	61 f0       	breq	.+24     	; 0x7fc0 <pow+0x3c>
    7fa8:	80 38       	cpi	r24, 0x80	; 128
    7faa:	bf ef       	ldi	r27, 0xFF	; 255
    7fac:	9b 07       	cpc	r25, r27
    7fae:	41 f0       	breq	.+16     	; 0x7fc0 <pow+0x3c>
    7fb0:	99 23       	and	r25, r25
    7fb2:	42 f5       	brpl	.+80     	; 0x8004 <pow+0x80>
    7fb4:	ff 3f       	cpi	r31, 0xFF	; 255
    7fb6:	e1 05       	cpc	r30, r1
    7fb8:	31 05       	cpc	r19, r1
    7fba:	21 05       	cpc	r18, r1
    7fbc:	11 f1       	breq	.+68     	; 0x8002 <pow+0x7e>
    7fbe:	e8 94       	clt
    7fc0:	08 94       	sec
    7fc2:	e7 95       	ror	r30
    7fc4:	d9 01       	movw	r26, r18
    7fc6:	aa 23       	and	r26, r26
    7fc8:	29 f4       	brne	.+10     	; 0x7fd4 <pow+0x50>
    7fca:	ab 2f       	mov	r26, r27
    7fcc:	be 2f       	mov	r27, r30
    7fce:	f8 5f       	subi	r31, 0xF8	; 248
    7fd0:	d0 f3       	brcs	.-12     	; 0x7fc6 <pow+0x42>
    7fd2:	10 c0       	rjmp	.+32     	; 0x7ff4 <pow+0x70>
    7fd4:	ff 5f       	subi	r31, 0xFF	; 255
    7fd6:	70 f4       	brcc	.+28     	; 0x7ff4 <pow+0x70>
    7fd8:	a6 95       	lsr	r26
    7fda:	e0 f7       	brcc	.-8      	; 0x7fd4 <pow+0x50>
    7fdc:	f7 39       	cpi	r31, 0x97	; 151
    7fde:	50 f0       	brcs	.+20     	; 0x7ff4 <pow+0x70>
    7fe0:	19 f0       	breq	.+6      	; 0x7fe8 <pow+0x64>
    7fe2:	ff 3a       	cpi	r31, 0xAF	; 175
    7fe4:	38 f4       	brcc	.+14     	; 0x7ff4 <pow+0x70>
    7fe6:	9f 77       	andi	r25, 0x7F	; 127
    7fe8:	9f 93       	push	r25
    7fea:	0c d0       	rcall	.+24     	; 0x8004 <pow+0x80>
    7fec:	0f 90       	pop	r0
    7fee:	07 fc       	sbrc	r0, 7
    7ff0:	90 58       	subi	r25, 0x80	; 128
    7ff2:	08 95       	ret
    7ff4:	3e f0       	brts	.+14     	; 0x8004 <pow+0x80>
    7ff6:	9e ce       	rjmp	.-708    	; 0x7d34 <__fp_nan>
    7ff8:	60 e0       	ldi	r22, 0x00	; 0
    7ffa:	70 e0       	ldi	r23, 0x00	; 0
    7ffc:	80 e8       	ldi	r24, 0x80	; 128
    7ffe:	9f e3       	ldi	r25, 0x3F	; 63
    8000:	08 95       	ret
    8002:	4f e7       	ldi	r20, 0x7F	; 127
    8004:	9f 77       	andi	r25, 0x7F	; 127
    8006:	5f 93       	push	r21
    8008:	4f 93       	push	r20
    800a:	3f 93       	push	r19
    800c:	2f 93       	push	r18
    800e:	d2 d0       	rcall	.+420    	; 0x81b4 <log>
    8010:	2f 91       	pop	r18
    8012:	3f 91       	pop	r19
    8014:	4f 91       	pop	r20
    8016:	5f 91       	pop	r21
    8018:	52 df       	rcall	.-348    	; 0x7ebe <__mulsf3>
    801a:	50 c0       	rjmp	.+160    	; 0x80bc <exp>

0000801c <sin>:
    801c:	9f 93       	push	r25
    801e:	d2 de       	rcall	.-604    	; 0x7dc4 <__fp_rempio2>
    8020:	0f 90       	pop	r0
    8022:	07 fc       	sbrc	r0, 7
    8024:	ee 5f       	subi	r30, 0xFE	; 254
    8026:	06 cf       	rjmp	.-500    	; 0x7e34 <__fp_sinus>
    8028:	11 f4       	brne	.+4      	; 0x802e <sin+0x12>
    802a:	0e f4       	brtc	.+2      	; 0x802e <sin+0x12>
    802c:	83 ce       	rjmp	.-762    	; 0x7d34 <__fp_nan>
    802e:	72 c0       	rjmp	.+228    	; 0x8114 <__fp_mpack>

00008030 <sqrt>:
    8030:	1a df       	rcall	.-460    	; 0x7e66 <__fp_splitA>
    8032:	d0 f3       	brcs	.-12     	; 0x8028 <sin+0xc>
    8034:	99 23       	and	r25, r25
    8036:	d9 f3       	breq	.-10     	; 0x802e <sin+0x12>
    8038:	ce f3       	brts	.-14     	; 0x802c <sin+0x10>
    803a:	9f 57       	subi	r25, 0x7F	; 127
    803c:	55 0b       	sbc	r21, r21
    803e:	87 ff       	sbrs	r24, 7
    8040:	77 d0       	rcall	.+238    	; 0x8130 <__fp_norm2>
    8042:	00 24       	eor	r0, r0
    8044:	a0 e6       	ldi	r26, 0x60	; 96
    8046:	40 ea       	ldi	r20, 0xA0	; 160
    8048:	90 01       	movw	r18, r0
    804a:	80 58       	subi	r24, 0x80	; 128
    804c:	56 95       	lsr	r21
    804e:	97 95       	ror	r25
    8050:	28 f4       	brcc	.+10     	; 0x805c <sqrt+0x2c>
    8052:	80 5c       	subi	r24, 0xC0	; 192
    8054:	66 0f       	add	r22, r22
    8056:	77 1f       	adc	r23, r23
    8058:	88 1f       	adc	r24, r24
    805a:	20 f0       	brcs	.+8      	; 0x8064 <sqrt+0x34>
    805c:	26 17       	cp	r18, r22
    805e:	37 07       	cpc	r19, r23
    8060:	48 07       	cpc	r20, r24
    8062:	30 f4       	brcc	.+12     	; 0x8070 <sqrt+0x40>
    8064:	62 1b       	sub	r22, r18
    8066:	73 0b       	sbc	r23, r19
    8068:	84 0b       	sbc	r24, r20
    806a:	20 29       	or	r18, r0
    806c:	31 29       	or	r19, r1
    806e:	4a 2b       	or	r20, r26
    8070:	a6 95       	lsr	r26
    8072:	17 94       	ror	r1
    8074:	07 94       	ror	r0
    8076:	20 25       	eor	r18, r0
    8078:	31 25       	eor	r19, r1
    807a:	4a 27       	eor	r20, r26
    807c:	58 f7       	brcc	.-42     	; 0x8054 <sqrt+0x24>
    807e:	66 0f       	add	r22, r22
    8080:	77 1f       	adc	r23, r23
    8082:	88 1f       	adc	r24, r24
    8084:	20 f0       	brcs	.+8      	; 0x808e <sqrt+0x5e>
    8086:	26 17       	cp	r18, r22
    8088:	37 07       	cpc	r19, r23
    808a:	48 07       	cpc	r20, r24
    808c:	30 f4       	brcc	.+12     	; 0x809a <sqrt+0x6a>
    808e:	62 0b       	sbc	r22, r18
    8090:	73 0b       	sbc	r23, r19
    8092:	84 0b       	sbc	r24, r20
    8094:	20 0d       	add	r18, r0
    8096:	31 1d       	adc	r19, r1
    8098:	41 1d       	adc	r20, r1
    809a:	a0 95       	com	r26
    809c:	81 f7       	brne	.-32     	; 0x807e <sqrt+0x4e>
    809e:	b9 01       	movw	r22, r18
    80a0:	84 2f       	mov	r24, r20
    80a2:	91 58       	subi	r25, 0x81	; 129
    80a4:	88 0f       	add	r24, r24
    80a6:	96 95       	lsr	r25
    80a8:	87 95       	ror	r24
    80aa:	08 95       	ret

000080ac <square>:
    80ac:	9b 01       	movw	r18, r22
    80ae:	ac 01       	movw	r20, r24
    80b0:	06 cf       	rjmp	.-500    	; 0x7ebe <__mulsf3>
    80b2:	19 f4       	brne	.+6      	; 0x80ba <square+0xe>
    80b4:	0e f0       	brts	.+2      	; 0x80b8 <square+0xc>
    80b6:	38 ce       	rjmp	.-912    	; 0x7d28 <__fp_inf>
    80b8:	f0 ce       	rjmp	.-544    	; 0x7e9a <__fp_zero>
    80ba:	3c ce       	rjmp	.-904    	; 0x7d34 <__fp_nan>

000080bc <exp>:
    80bc:	d4 de       	rcall	.-600    	; 0x7e66 <__fp_splitA>
    80be:	c8 f3       	brcs	.-14     	; 0x80b2 <square+0x6>
    80c0:	96 38       	cpi	r25, 0x86	; 134
    80c2:	c0 f7       	brcc	.-16     	; 0x80b4 <square+0x8>
    80c4:	07 f8       	bld	r0, 7
    80c6:	0f 92       	push	r0
    80c8:	e8 94       	clt
    80ca:	2b e3       	ldi	r18, 0x3B	; 59
    80cc:	3a ea       	ldi	r19, 0xAA	; 170
    80ce:	48 eb       	ldi	r20, 0xB8	; 184
    80d0:	5f e7       	ldi	r21, 0x7F	; 127
    80d2:	03 df       	rcall	.-506    	; 0x7eda <__mulsf3_pse>
    80d4:	0f 92       	push	r0
    80d6:	0f 92       	push	r0
    80d8:	0f 92       	push	r0
    80da:	4d b7       	in	r20, 0x3d	; 61
    80dc:	5e b7       	in	r21, 0x3e	; 62
    80de:	0f 92       	push	r0
    80e0:	a9 d0       	rcall	.+338    	; 0x8234 <modf>
    80e2:	e3 ec       	ldi	r30, 0xC3	; 195
    80e4:	f1 e0       	ldi	r31, 0x01	; 1
    80e6:	29 de       	rcall	.-942    	; 0x7d3a <__fp_powser>
    80e8:	4f 91       	pop	r20
    80ea:	5f 91       	pop	r21
    80ec:	ef 91       	pop	r30
    80ee:	ff 91       	pop	r31
    80f0:	e5 95       	asr	r30
    80f2:	ee 1f       	adc	r30, r30
    80f4:	ff 1f       	adc	r31, r31
    80f6:	49 f0       	breq	.+18     	; 0x810a <exp+0x4e>
    80f8:	fe 57       	subi	r31, 0x7E	; 126
    80fa:	e0 68       	ori	r30, 0x80	; 128
    80fc:	44 27       	eor	r20, r20
    80fe:	ee 0f       	add	r30, r30
    8100:	44 1f       	adc	r20, r20
    8102:	fa 95       	dec	r31
    8104:	e1 f7       	brne	.-8      	; 0x80fe <exp+0x42>
    8106:	41 95       	neg	r20
    8108:	55 0b       	sbc	r21, r21
    810a:	1b d0       	rcall	.+54     	; 0x8142 <ldexp>
    810c:	0f 90       	pop	r0
    810e:	07 fe       	sbrs	r0, 7
    8110:	cf ce       	rjmp	.-610    	; 0x7eb0 <inverse>
    8112:	08 95       	ret

00008114 <__fp_mpack>:
    8114:	9f 3f       	cpi	r25, 0xFF	; 255
    8116:	31 f0       	breq	.+12     	; 0x8124 <__fp_mpack_finite+0xc>

00008118 <__fp_mpack_finite>:
    8118:	91 50       	subi	r25, 0x01	; 1
    811a:	20 f4       	brcc	.+8      	; 0x8124 <__fp_mpack_finite+0xc>
    811c:	87 95       	ror	r24
    811e:	77 95       	ror	r23
    8120:	67 95       	ror	r22
    8122:	b7 95       	ror	r27
    8124:	88 0f       	add	r24, r24
    8126:	91 1d       	adc	r25, r1
    8128:	96 95       	lsr	r25
    812a:	87 95       	ror	r24
    812c:	97 f9       	bld	r25, 7
    812e:	08 95       	ret

00008130 <__fp_norm2>:
    8130:	91 50       	subi	r25, 0x01	; 1
    8132:	50 40       	sbci	r21, 0x00	; 0
    8134:	66 0f       	add	r22, r22
    8136:	77 1f       	adc	r23, r23
    8138:	88 1f       	adc	r24, r24
    813a:	d2 f7       	brpl	.-12     	; 0x8130 <__fp_norm2>
    813c:	08 95       	ret
    813e:	f4 cd       	rjmp	.-1048   	; 0x7d28 <__fp_inf>
    8140:	e9 cf       	rjmp	.-46     	; 0x8114 <__fp_mpack>

00008142 <ldexp>:
    8142:	91 de       	rcall	.-734    	; 0x7e66 <__fp_splitA>
    8144:	e8 f3       	brcs	.-6      	; 0x8140 <__fp_norm2+0x10>
    8146:	99 23       	and	r25, r25
    8148:	d9 f3       	breq	.-10     	; 0x8140 <__fp_norm2+0x10>
    814a:	94 0f       	add	r25, r20
    814c:	51 1d       	adc	r21, r1
    814e:	bb f3       	brvs	.-18     	; 0x813e <__fp_norm2+0xe>
    8150:	91 50       	subi	r25, 0x01	; 1
    8152:	50 40       	sbci	r21, 0x00	; 0
    8154:	94 f0       	brlt	.+36     	; 0x817a <ldexp+0x38>
    8156:	59 f0       	breq	.+22     	; 0x816e <ldexp+0x2c>
    8158:	88 23       	and	r24, r24
    815a:	32 f0       	brmi	.+12     	; 0x8168 <ldexp+0x26>
    815c:	66 0f       	add	r22, r22
    815e:	77 1f       	adc	r23, r23
    8160:	88 1f       	adc	r24, r24
    8162:	91 50       	subi	r25, 0x01	; 1
    8164:	50 40       	sbci	r21, 0x00	; 0
    8166:	c1 f7       	brne	.-16     	; 0x8158 <ldexp+0x16>
    8168:	9e 3f       	cpi	r25, 0xFE	; 254
    816a:	51 05       	cpc	r21, r1
    816c:	44 f7       	brge	.-48     	; 0x813e <__fp_norm2+0xe>
    816e:	88 0f       	add	r24, r24
    8170:	91 1d       	adc	r25, r1
    8172:	96 95       	lsr	r25
    8174:	87 95       	ror	r24
    8176:	97 f9       	bld	r25, 7
    8178:	08 95       	ret
    817a:	5f 3f       	cpi	r21, 0xFF	; 255
    817c:	ac f0       	brlt	.+42     	; 0x81a8 <ldexp+0x66>
    817e:	98 3e       	cpi	r25, 0xE8	; 232
    8180:	9c f0       	brlt	.+38     	; 0x81a8 <ldexp+0x66>
    8182:	bb 27       	eor	r27, r27
    8184:	86 95       	lsr	r24
    8186:	77 95       	ror	r23
    8188:	67 95       	ror	r22
    818a:	b7 95       	ror	r27
    818c:	08 f4       	brcc	.+2      	; 0x8190 <ldexp+0x4e>
    818e:	b1 60       	ori	r27, 0x01	; 1
    8190:	93 95       	inc	r25
    8192:	c1 f7       	brne	.-16     	; 0x8184 <ldexp+0x42>
    8194:	bb 0f       	add	r27, r27
    8196:	58 f7       	brcc	.-42     	; 0x816e <ldexp+0x2c>
    8198:	11 f4       	brne	.+4      	; 0x819e <ldexp+0x5c>
    819a:	60 ff       	sbrs	r22, 0
    819c:	e8 cf       	rjmp	.-48     	; 0x816e <ldexp+0x2c>
    819e:	6f 5f       	subi	r22, 0xFF	; 255
    81a0:	7f 4f       	sbci	r23, 0xFF	; 255
    81a2:	8f 4f       	sbci	r24, 0xFF	; 255
    81a4:	9f 4f       	sbci	r25, 0xFF	; 255
    81a6:	e3 cf       	rjmp	.-58     	; 0x816e <ldexp+0x2c>
    81a8:	79 ce       	rjmp	.-782    	; 0x7e9c <__fp_szero>
    81aa:	0e f0       	brts	.+2      	; 0x81ae <ldexp+0x6c>
    81ac:	b3 cf       	rjmp	.-154    	; 0x8114 <__fp_mpack>
    81ae:	c2 cd       	rjmp	.-1148   	; 0x7d34 <__fp_nan>
    81b0:	68 94       	set
    81b2:	ba cd       	rjmp	.-1164   	; 0x7d28 <__fp_inf>

000081b4 <log>:
    81b4:	58 de       	rcall	.-848    	; 0x7e66 <__fp_splitA>
    81b6:	c8 f3       	brcs	.-14     	; 0x81aa <ldexp+0x68>
    81b8:	99 23       	and	r25, r25
    81ba:	d1 f3       	breq	.-12     	; 0x81b0 <ldexp+0x6e>
    81bc:	c6 f3       	brts	.-16     	; 0x81ae <ldexp+0x6c>
    81be:	df 93       	push	r29
    81c0:	cf 93       	push	r28
    81c2:	1f 93       	push	r17
    81c4:	0f 93       	push	r16
    81c6:	ff 92       	push	r15
    81c8:	c9 2f       	mov	r28, r25
    81ca:	dd 27       	eor	r29, r29
    81cc:	88 23       	and	r24, r24
    81ce:	2a f0       	brmi	.+10     	; 0x81da <log+0x26>
    81d0:	21 97       	sbiw	r28, 0x01	; 1
    81d2:	66 0f       	add	r22, r22
    81d4:	77 1f       	adc	r23, r23
    81d6:	88 1f       	adc	r24, r24
    81d8:	da f7       	brpl	.-10     	; 0x81d0 <log+0x1c>
    81da:	20 e0       	ldi	r18, 0x00	; 0
    81dc:	30 e0       	ldi	r19, 0x00	; 0
    81de:	40 e8       	ldi	r20, 0x80	; 128
    81e0:	5f eb       	ldi	r21, 0xBF	; 191
    81e2:	9f e3       	ldi	r25, 0x3F	; 63
    81e4:	88 39       	cpi	r24, 0x98	; 152
    81e6:	20 f0       	brcs	.+8      	; 0x81f0 <log+0x3c>
    81e8:	80 3e       	cpi	r24, 0xE0	; 224
    81ea:	30 f0       	brcs	.+12     	; 0x81f8 <log+0x44>
    81ec:	21 96       	adiw	r28, 0x01	; 1
    81ee:	8f 77       	andi	r24, 0x7F	; 127
    81f0:	a2 db       	rcall	.-2236   	; 0x7936 <__addsf3>
    81f2:	eb ee       	ldi	r30, 0xEB	; 235
    81f4:	f1 e0       	ldi	r31, 0x01	; 1
    81f6:	03 c0       	rjmp	.+6      	; 0x81fe <log+0x4a>
    81f8:	9e db       	rcall	.-2244   	; 0x7936 <__addsf3>
    81fa:	e8 e1       	ldi	r30, 0x18	; 24
    81fc:	f2 e0       	ldi	r31, 0x02	; 2
    81fe:	9d dd       	rcall	.-1222   	; 0x7d3a <__fp_powser>
    8200:	8b 01       	movw	r16, r22
    8202:	be 01       	movw	r22, r28
    8204:	ec 01       	movw	r28, r24
    8206:	fb 2e       	mov	r15, r27
    8208:	6f 57       	subi	r22, 0x7F	; 127
    820a:	71 09       	sbc	r23, r1
    820c:	75 95       	asr	r23
    820e:	77 1f       	adc	r23, r23
    8210:	88 0b       	sbc	r24, r24
    8212:	99 0b       	sbc	r25, r25
    8214:	0f dd       	rcall	.-1506   	; 0x7c34 <__floatsisf>
    8216:	28 e1       	ldi	r18, 0x18	; 24
    8218:	32 e7       	ldi	r19, 0x72	; 114
    821a:	41 e3       	ldi	r20, 0x31	; 49
    821c:	5f e3       	ldi	r21, 0x3F	; 63
    821e:	5b de       	rcall	.-842    	; 0x7ed6 <__mulsf3x>
    8220:	af 2d       	mov	r26, r15
    8222:	98 01       	movw	r18, r16
    8224:	ae 01       	movw	r20, r28
    8226:	ff 90       	pop	r15
    8228:	0f 91       	pop	r16
    822a:	1f 91       	pop	r17
    822c:	cf 91       	pop	r28
    822e:	df 91       	pop	r29
    8230:	93 db       	rcall	.-2266   	; 0x7958 <__addsf3x>
    8232:	ef cd       	rjmp	.-1058   	; 0x7e12 <__fp_round>

00008234 <modf>:
    8234:	fa 01       	movw	r30, r20
    8236:	dc 01       	movw	r26, r24
    8238:	aa 0f       	add	r26, r26
    823a:	bb 1f       	adc	r27, r27
    823c:	9b 01       	movw	r18, r22
    823e:	ac 01       	movw	r20, r24
    8240:	bf 57       	subi	r27, 0x7F	; 127
    8242:	28 f4       	brcc	.+10     	; 0x824e <modf+0x1a>
    8244:	22 27       	eor	r18, r18
    8246:	33 27       	eor	r19, r19
    8248:	44 27       	eor	r20, r20
    824a:	50 78       	andi	r21, 0x80	; 128
    824c:	1f c0       	rjmp	.+62     	; 0x828c <modf+0x58>
    824e:	b7 51       	subi	r27, 0x17	; 23
    8250:	88 f4       	brcc	.+34     	; 0x8274 <modf+0x40>
    8252:	ab 2f       	mov	r26, r27
    8254:	00 24       	eor	r0, r0
    8256:	46 95       	lsr	r20
    8258:	37 95       	ror	r19
    825a:	27 95       	ror	r18
    825c:	01 1c       	adc	r0, r1
    825e:	a3 95       	inc	r26
    8260:	d2 f3       	brmi	.-12     	; 0x8256 <modf+0x22>
    8262:	00 20       	and	r0, r0
    8264:	69 f0       	breq	.+26     	; 0x8280 <modf+0x4c>
    8266:	22 0f       	add	r18, r18
    8268:	33 1f       	adc	r19, r19
    826a:	44 1f       	adc	r20, r20
    826c:	b3 95       	inc	r27
    826e:	da f3       	brmi	.-10     	; 0x8266 <modf+0x32>
    8270:	0d d0       	rcall	.+26     	; 0x828c <modf+0x58>
    8272:	60 cb       	rjmp	.-2368   	; 0x7934 <__subsf3>
    8274:	61 30       	cpi	r22, 0x01	; 1
    8276:	71 05       	cpc	r23, r1
    8278:	a0 e8       	ldi	r26, 0x80	; 128
    827a:	8a 07       	cpc	r24, r26
    827c:	b9 46       	sbci	r27, 0x69	; 105
    827e:	30 f4       	brcc	.+12     	; 0x828c <modf+0x58>
    8280:	9b 01       	movw	r18, r22
    8282:	ac 01       	movw	r20, r24
    8284:	66 27       	eor	r22, r22
    8286:	77 27       	eor	r23, r23
    8288:	88 27       	eor	r24, r24
    828a:	90 78       	andi	r25, 0x80	; 128
    828c:	30 96       	adiw	r30, 0x00	; 0
    828e:	21 f0       	breq	.+8      	; 0x8298 <modf+0x64>
    8290:	20 83       	st	Z, r18
    8292:	31 83       	std	Z+1, r19	; 0x01
    8294:	42 83       	std	Z+2, r20	; 0x02
    8296:	53 83       	std	Z+3, r21	; 0x03
    8298:	08 95       	ret

0000829a <strtod>:
    829a:	6f 92       	push	r6
    829c:	7f 92       	push	r7
    829e:	8f 92       	push	r8
    82a0:	9f 92       	push	r9
    82a2:	af 92       	push	r10
    82a4:	bf 92       	push	r11
    82a6:	cf 92       	push	r12
    82a8:	df 92       	push	r13
    82aa:	ef 92       	push	r14
    82ac:	ff 92       	push	r15
    82ae:	0f 93       	push	r16
    82b0:	1f 93       	push	r17
    82b2:	df 93       	push	r29
    82b4:	cf 93       	push	r28
    82b6:	0f 92       	push	r0
    82b8:	cd b7       	in	r28, 0x3d	; 61
    82ba:	de b7       	in	r29, 0x3e	; 62
    82bc:	5b 01       	movw	r10, r22
    82be:	61 15       	cp	r22, r1
    82c0:	71 05       	cpc	r23, r1
    82c2:	21 f0       	breq	.+8      	; 0x82cc <strtod+0x32>
    82c4:	db 01       	movw	r26, r22
    82c6:	8c 93       	st	X, r24
    82c8:	11 96       	adiw	r26, 0x01	; 1
    82ca:	9c 93       	st	X, r25
    82cc:	48 2f       	mov	r20, r24
    82ce:	59 2f       	mov	r21, r25
    82d0:	6a 01       	movw	r12, r20
    82d2:	f6 01       	movw	r30, r12
    82d4:	e1 90       	ld	r14, Z+
    82d6:	6f 01       	movw	r12, r30
    82d8:	8f 01       	movw	r16, r30
    82da:	8e 2d       	mov	r24, r14
    82dc:	90 e0       	ldi	r25, 0x00	; 0
    82de:	0e 94 b6 43 	call	0x876c	; 0x876c <isspace>
    82e2:	00 97       	sbiw	r24, 0x00	; 0
    82e4:	b1 f7       	brne	.-20     	; 0x82d2 <strtod+0x38>
    82e6:	fe 2d       	mov	r31, r14
    82e8:	fd 32       	cpi	r31, 0x2D	; 45
    82ea:	29 f4       	brne	.+10     	; 0x82f6 <strtod+0x5c>
    82ec:	d6 01       	movw	r26, r12
    82ee:	ed 90       	ld	r14, X+
    82f0:	8d 01       	movw	r16, r26
    82f2:	21 e0       	ldi	r18, 0x01	; 1
    82f4:	07 c0       	rjmp	.+14     	; 0x8304 <strtod+0x6a>
    82f6:	be 2d       	mov	r27, r14
    82f8:	bb 32       	cpi	r27, 0x2B	; 43
    82fa:	19 f4       	brne	.+6      	; 0x8302 <strtod+0x68>
    82fc:	f6 01       	movw	r30, r12
    82fe:	e1 90       	ld	r14, Z+
    8300:	8f 01       	movw	r16, r30
    8302:	20 e0       	ldi	r18, 0x00	; 0
    8304:	68 01       	movw	r12, r16
    8306:	08 94       	sec
    8308:	c1 08       	sbc	r12, r1
    830a:	d1 08       	sbc	r13, r1
    830c:	c6 01       	movw	r24, r12
    830e:	6d e4       	ldi	r22, 0x4D	; 77
    8310:	72 e0       	ldi	r23, 0x02	; 2
    8312:	43 e0       	ldi	r20, 0x03	; 3
    8314:	50 e0       	ldi	r21, 0x00	; 0
    8316:	29 83       	std	Y+1, r18	; 0x01
    8318:	0e 94 be 43 	call	0x877c	; 0x877c <strncasecmp_P>
    831c:	29 81       	ldd	r18, Y+1	; 0x01
    831e:	00 97       	sbiw	r24, 0x00	; 0
    8320:	11 f5       	brne	.+68     	; 0x8366 <strtod+0xcc>
    8322:	72 e0       	ldi	r23, 0x02	; 2
    8324:	e7 2e       	mov	r14, r23
    8326:	f1 2c       	mov	r15, r1
    8328:	e0 0e       	add	r14, r16
    832a:	f1 1e       	adc	r15, r17
    832c:	c7 01       	movw	r24, r14
    832e:	60 e5       	ldi	r22, 0x50	; 80
    8330:	72 e0       	ldi	r23, 0x02	; 2
    8332:	45 e0       	ldi	r20, 0x05	; 5
    8334:	50 e0       	ldi	r21, 0x00	; 0
    8336:	0e 94 be 43 	call	0x877c	; 0x877c <strncasecmp_P>
    833a:	29 81       	ldd	r18, Y+1	; 0x01
    833c:	00 97       	sbiw	r24, 0x00	; 0
    833e:	29 f4       	brne	.+10     	; 0x834a <strtod+0xb0>
    8340:	67 e0       	ldi	r22, 0x07	; 7
    8342:	e6 2e       	mov	r14, r22
    8344:	f1 2c       	mov	r15, r1
    8346:	e0 0e       	add	r14, r16
    8348:	f1 1e       	adc	r15, r17
    834a:	a1 14       	cp	r10, r1
    834c:	b1 04       	cpc	r11, r1
    834e:	21 f0       	breq	.+8      	; 0x8358 <strtod+0xbe>
    8350:	d5 01       	movw	r26, r10
    8352:	11 96       	adiw	r26, 0x01	; 1
    8354:	fc 92       	st	X, r15
    8356:	ee 92       	st	-X, r14
    8358:	20 ff       	sbrs	r18, 0
    835a:	0f c1       	rjmp	.+542    	; 0x857a <strtod+0x2e0>
    835c:	30 e0       	ldi	r19, 0x00	; 0
    835e:	20 e0       	ldi	r18, 0x00	; 0
    8360:	90 e8       	ldi	r25, 0x80	; 128
    8362:	8f ef       	ldi	r24, 0xFF	; 255
    8364:	12 c1       	rjmp	.+548    	; 0x858a <strtod+0x2f0>
    8366:	c6 01       	movw	r24, r12
    8368:	65 e5       	ldi	r22, 0x55	; 85
    836a:	72 e0       	ldi	r23, 0x02	; 2
    836c:	43 e0       	ldi	r20, 0x03	; 3
    836e:	50 e0       	ldi	r21, 0x00	; 0
    8370:	29 83       	std	Y+1, r18	; 0x01
    8372:	0e 94 be 43 	call	0x877c	; 0x877c <strncasecmp_P>
    8376:	29 81       	ldd	r18, Y+1	; 0x01
    8378:	00 97       	sbiw	r24, 0x00	; 0
    837a:	31 f0       	breq	.+12     	; 0x8388 <strtod+0xee>
    837c:	60 e0       	ldi	r22, 0x00	; 0
    837e:	70 e0       	ldi	r23, 0x00	; 0
    8380:	cb 01       	movw	r24, r22
    8382:	66 24       	eor	r6, r6
    8384:	77 24       	eor	r7, r7
    8386:	0a c0       	rjmp	.+20     	; 0x839c <strtod+0x102>
    8388:	a1 14       	cp	r10, r1
    838a:	b1 04       	cpc	r11, r1
    838c:	09 f4       	brne	.+2      	; 0x8390 <strtod+0xf6>
    838e:	f9 c0       	rjmp	.+498    	; 0x8582 <strtod+0x2e8>
    8390:	0e 5f       	subi	r16, 0xFE	; 254
    8392:	1f 4f       	sbci	r17, 0xFF	; 255
    8394:	f5 01       	movw	r30, r10
    8396:	11 83       	std	Z+1, r17	; 0x01
    8398:	00 83       	st	Z, r16
    839a:	f3 c0       	rjmp	.+486    	; 0x8582 <strtod+0x2e8>
    839c:	3e 2d       	mov	r19, r14
    839e:	30 53       	subi	r19, 0x30	; 48
    83a0:	3a 30       	cpi	r19, 0x0A	; 10
    83a2:	a0 f5       	brcc	.+104    	; 0x840c <strtod+0x172>
    83a4:	22 60       	ori	r18, 0x02	; 2
    83a6:	e2 2f       	mov	r30, r18
    83a8:	f0 e0       	ldi	r31, 0x00	; 0
    83aa:	af 01       	movw	r20, r30
    83ac:	48 70       	andi	r20, 0x08	; 8
    83ae:	50 70       	andi	r21, 0x00	; 0
    83b0:	22 ff       	sbrs	r18, 2
    83b2:	07 c0       	rjmp	.+14     	; 0x83c2 <strtod+0x128>
    83b4:	41 15       	cp	r20, r1
    83b6:	51 05       	cpc	r21, r1
    83b8:	71 f5       	brne	.+92     	; 0x8416 <strtod+0x17c>
    83ba:	08 94       	sec
    83bc:	61 1c       	adc	r6, r1
    83be:	71 1c       	adc	r7, r1
    83c0:	2a c0       	rjmp	.+84     	; 0x8416 <strtod+0x17c>
    83c2:	41 15       	cp	r20, r1
    83c4:	51 05       	cpc	r21, r1
    83c6:	19 f0       	breq	.+6      	; 0x83ce <strtod+0x134>
    83c8:	08 94       	sec
    83ca:	61 08       	sbc	r6, r1
    83cc:	71 08       	sbc	r7, r1
    83ce:	6b 01       	movw	r12, r22
    83d0:	7c 01       	movw	r14, r24
    83d2:	52 e0       	ldi	r21, 0x02	; 2
    83d4:	cc 0c       	add	r12, r12
    83d6:	dd 1c       	adc	r13, r13
    83d8:	ee 1c       	adc	r14, r14
    83da:	ff 1c       	adc	r15, r15
    83dc:	5a 95       	dec	r21
    83de:	d1 f7       	brne	.-12     	; 0x83d4 <strtod+0x13a>
    83e0:	6c 0d       	add	r22, r12
    83e2:	7d 1d       	adc	r23, r13
    83e4:	8e 1d       	adc	r24, r14
    83e6:	9f 1d       	adc	r25, r15
    83e8:	66 0f       	add	r22, r22
    83ea:	77 1f       	adc	r23, r23
    83ec:	88 1f       	adc	r24, r24
    83ee:	99 1f       	adc	r25, r25
    83f0:	63 0f       	add	r22, r19
    83f2:	71 1d       	adc	r23, r1
    83f4:	81 1d       	adc	r24, r1
    83f6:	91 1d       	adc	r25, r1
    83f8:	68 39       	cpi	r22, 0x98	; 152
    83fa:	f9 e9       	ldi	r31, 0x99	; 153
    83fc:	7f 07       	cpc	r23, r31
    83fe:	f9 e9       	ldi	r31, 0x99	; 153
    8400:	8f 07       	cpc	r24, r31
    8402:	f9 e1       	ldi	r31, 0x19	; 25
    8404:	9f 07       	cpc	r25, r31
    8406:	38 f0       	brcs	.+14     	; 0x8416 <strtod+0x17c>
    8408:	24 60       	ori	r18, 0x04	; 4
    840a:	05 c0       	rjmp	.+10     	; 0x8416 <strtod+0x17c>
    840c:	3e 3f       	cpi	r19, 0xFE	; 254
    840e:	39 f4       	brne	.+14     	; 0x841e <strtod+0x184>
    8410:	23 fd       	sbrc	r18, 3
    8412:	3f c0       	rjmp	.+126    	; 0x8492 <strtod+0x1f8>
    8414:	28 60       	ori	r18, 0x08	; 8
    8416:	d8 01       	movw	r26, r16
    8418:	ed 90       	ld	r14, X+
    841a:	8d 01       	movw	r16, r26
    841c:	bf cf       	rjmp	.-130    	; 0x839c <strtod+0x102>
    841e:	35 33       	cpi	r19, 0x35	; 53
    8420:	11 f0       	breq	.+4      	; 0x8426 <strtod+0x18c>
    8422:	35 31       	cpi	r19, 0x15	; 21
    8424:	b1 f5       	brne	.+108    	; 0x8492 <strtod+0x1f8>
    8426:	f8 01       	movw	r30, r16
    8428:	31 91       	ld	r19, Z+
    842a:	3d 32       	cpi	r19, 0x2D	; 45
    842c:	11 f4       	brne	.+4      	; 0x8432 <strtod+0x198>
    842e:	20 61       	ori	r18, 0x10	; 16
    8430:	02 c0       	rjmp	.+4      	; 0x8436 <strtod+0x19c>
    8432:	3b 32       	cpi	r19, 0x2B	; 43
    8434:	41 f4       	brne	.+16     	; 0x8446 <strtod+0x1ac>
    8436:	d8 01       	movw	r26, r16
    8438:	11 96       	adiw	r26, 0x01	; 1
    843a:	3c 91       	ld	r19, X
    843c:	11 97       	sbiw	r26, 0x01	; 1
    843e:	31 96       	adiw	r30, 0x01	; 1
    8440:	42 e0       	ldi	r20, 0x02	; 2
    8442:	50 e0       	ldi	r21, 0x00	; 0
    8444:	02 c0       	rjmp	.+4      	; 0x844a <strtod+0x1b0>
    8446:	41 e0       	ldi	r20, 0x01	; 1
    8448:	50 e0       	ldi	r21, 0x00	; 0
    844a:	30 53       	subi	r19, 0x30	; 48
    844c:	3a 30       	cpi	r19, 0x0A	; 10
    844e:	20 f0       	brcs	.+8      	; 0x8458 <strtod+0x1be>
    8450:	8f 01       	movw	r16, r30
    8452:	04 1b       	sub	r16, r20
    8454:	15 0b       	sbc	r17, r21
    8456:	1d c0       	rjmp	.+58     	; 0x8492 <strtod+0x1f8>
    8458:	40 e0       	ldi	r20, 0x00	; 0
    845a:	50 e0       	ldi	r21, 0x00	; 0
    845c:	bc e0       	ldi	r27, 0x0C	; 12
    845e:	40 38       	cpi	r20, 0x80	; 128
    8460:	5b 07       	cpc	r21, r27
    8462:	5c f4       	brge	.+22     	; 0x847a <strtod+0x1e0>
    8464:	da 01       	movw	r26, r20
    8466:	aa 0f       	add	r26, r26
    8468:	bb 1f       	adc	r27, r27
    846a:	aa 0f       	add	r26, r26
    846c:	bb 1f       	adc	r27, r27
    846e:	4a 0f       	add	r20, r26
    8470:	5b 1f       	adc	r21, r27
    8472:	44 0f       	add	r20, r20
    8474:	55 1f       	adc	r21, r21
    8476:	43 0f       	add	r20, r19
    8478:	51 1d       	adc	r21, r1
    847a:	31 91       	ld	r19, Z+
    847c:	30 53       	subi	r19, 0x30	; 48
    847e:	8f 01       	movw	r16, r30
    8480:	3a 30       	cpi	r19, 0x0A	; 10
    8482:	60 f3       	brcs	.-40     	; 0x845c <strtod+0x1c2>
    8484:	24 ff       	sbrs	r18, 4
    8486:	03 c0       	rjmp	.+6      	; 0x848e <strtod+0x1f4>
    8488:	50 95       	com	r21
    848a:	41 95       	neg	r20
    848c:	5f 4f       	sbci	r21, 0xFF	; 255
    848e:	64 0e       	add	r6, r20
    8490:	75 1e       	adc	r7, r21
    8492:	c2 2e       	mov	r12, r18
    8494:	dd 24       	eor	r13, r13
    8496:	21 ff       	sbrs	r18, 1
    8498:	08 c0       	rjmp	.+16     	; 0x84aa <strtod+0x210>
    849a:	a1 14       	cp	r10, r1
    849c:	b1 04       	cpc	r11, r1
    849e:	29 f0       	breq	.+10     	; 0x84aa <strtod+0x210>
    84a0:	01 50       	subi	r16, 0x01	; 1
    84a2:	10 40       	sbci	r17, 0x00	; 0
    84a4:	f5 01       	movw	r30, r10
    84a6:	11 83       	std	Z+1, r17	; 0x01
    84a8:	00 83       	st	Z, r16
    84aa:	0e 94 18 3e 	call	0x7c30	; 0x7c30 <__floatunsisf>
    84ae:	7b 01       	movw	r14, r22
    84b0:	8c 01       	movw	r16, r24
    84b2:	f3 e0       	ldi	r31, 0x03	; 3
    84b4:	cf 22       	and	r12, r31
    84b6:	dd 24       	eor	r13, r13
    84b8:	33 e0       	ldi	r19, 0x03	; 3
    84ba:	c3 16       	cp	r12, r19
    84bc:	d1 04       	cpc	r13, r1
    84be:	21 f4       	brne	.+8      	; 0x84c8 <strtod+0x22e>
    84c0:	17 fb       	bst	r17, 7
    84c2:	10 95       	com	r17
    84c4:	17 f9       	bld	r17, 7
    84c6:	10 95       	com	r17
    84c8:	c8 01       	movw	r24, r16
    84ca:	b7 01       	movw	r22, r14
    84cc:	20 e0       	ldi	r18, 0x00	; 0
    84ce:	30 e0       	ldi	r19, 0x00	; 0
    84d0:	a9 01       	movw	r20, r18
    84d2:	0e 94 78 3d 	call	0x7af0	; 0x7af0 <__cmpsf2>
    84d6:	88 23       	and	r24, r24
    84d8:	09 f4       	brne	.+2      	; 0x84dc <strtod+0x242>
    84da:	4a c0       	rjmp	.+148    	; 0x8570 <strtod+0x2d6>
    84dc:	77 fe       	sbrs	r7, 7
    84de:	09 c0       	rjmp	.+18     	; 0x84f2 <strtod+0x258>
    84e0:	4c e6       	ldi	r20, 0x6C	; 108
    84e2:	c4 2e       	mov	r12, r20
    84e4:	42 e0       	ldi	r20, 0x02	; 2
    84e6:	d4 2e       	mov	r13, r20
    84e8:	70 94       	com	r7
    84ea:	61 94       	neg	r6
    84ec:	71 08       	sbc	r7, r1
    84ee:	73 94       	inc	r7
    84f0:	04 c0       	rjmp	.+8      	; 0x84fa <strtod+0x260>
    84f2:	34 e8       	ldi	r19, 0x84	; 132
    84f4:	c3 2e       	mov	r12, r19
    84f6:	32 e0       	ldi	r19, 0x02	; 2
    84f8:	d3 2e       	mov	r13, r19
    84fa:	26 e0       	ldi	r18, 0x06	; 6
    84fc:	82 2e       	mov	r8, r18
    84fe:	91 2c       	mov	r9, r1
    8500:	90 e2       	ldi	r25, 0x20	; 32
    8502:	a9 2e       	mov	r10, r25
    8504:	b1 2c       	mov	r11, r1
    8506:	0f c0       	rjmp	.+30     	; 0x8526 <strtod+0x28c>
    8508:	f6 01       	movw	r30, r12
    850a:	25 91       	lpm	r18, Z+
    850c:	35 91       	lpm	r19, Z+
    850e:	45 91       	lpm	r20, Z+
    8510:	54 91       	lpm	r21, Z+
    8512:	c8 01       	movw	r24, r16
    8514:	b7 01       	movw	r22, r14
    8516:	0e 94 5f 3f 	call	0x7ebe	; 0x7ebe <__mulsf3>
    851a:	e6 2e       	mov	r14, r22
    851c:	f7 2e       	mov	r15, r23
    851e:	08 2f       	mov	r16, r24
    8520:	19 2f       	mov	r17, r25
    8522:	6a 18       	sub	r6, r10
    8524:	7b 08       	sbc	r7, r11
    8526:	6a 14       	cp	r6, r10
    8528:	7b 04       	cpc	r7, r11
    852a:	74 f7       	brge	.-36     	; 0x8508 <strtod+0x26e>
    852c:	b5 94       	asr	r11
    852e:	a7 94       	ror	r10
    8530:	08 94       	sec
    8532:	81 08       	sbc	r8, r1
    8534:	91 08       	sbc	r9, r1
    8536:	81 14       	cp	r8, r1
    8538:	91 04       	cpc	r9, r1
    853a:	29 f0       	breq	.+10     	; 0x8546 <strtod+0x2ac>
    853c:	8c ef       	ldi	r24, 0xFC	; 252
    853e:	9f ef       	ldi	r25, 0xFF	; 255
    8540:	c8 0e       	add	r12, r24
    8542:	d9 1e       	adc	r13, r25
    8544:	f0 cf       	rjmp	.-32     	; 0x8526 <strtod+0x28c>
    8546:	b7 01       	movw	r22, r14
    8548:	c8 01       	movw	r24, r16
    854a:	28 2f       	mov	r18, r24
    854c:	22 0f       	add	r18, r18
    854e:	29 2f       	mov	r18, r25
    8550:	22 1f       	adc	r18, r18
    8552:	2f 3f       	cpi	r18, 0xFF	; 255
    8554:	39 f0       	breq	.+14     	; 0x8564 <strtod+0x2ca>
    8556:	20 e0       	ldi	r18, 0x00	; 0
    8558:	30 e0       	ldi	r19, 0x00	; 0
    855a:	a9 01       	movw	r20, r18
    855c:	0e 94 78 3d 	call	0x7af0	; 0x7af0 <__cmpsf2>
    8560:	88 23       	and	r24, r24
    8562:	31 f4       	brne	.+12     	; 0x8570 <strtod+0x2d6>
    8564:	82 e2       	ldi	r24, 0x22	; 34
    8566:	90 e0       	ldi	r25, 0x00	; 0
    8568:	90 93 db 12 	sts	0x12DB, r25
    856c:	80 93 da 12 	sts	0x12DA, r24
    8570:	3e 2d       	mov	r19, r14
    8572:	2f 2d       	mov	r18, r15
    8574:	90 2f       	mov	r25, r16
    8576:	81 2f       	mov	r24, r17
    8578:	08 c0       	rjmp	.+16     	; 0x858a <strtod+0x2f0>
    857a:	30 e0       	ldi	r19, 0x00	; 0
    857c:	20 e0       	ldi	r18, 0x00	; 0
    857e:	90 e8       	ldi	r25, 0x80	; 128
    8580:	03 c0       	rjmp	.+6      	; 0x8588 <strtod+0x2ee>
    8582:	30 e0       	ldi	r19, 0x00	; 0
    8584:	20 e0       	ldi	r18, 0x00	; 0
    8586:	90 ec       	ldi	r25, 0xC0	; 192
    8588:	8f e7       	ldi	r24, 0x7F	; 127
    858a:	f9 01       	movw	r30, r18
    858c:	ac 01       	movw	r20, r24
    858e:	6f 2f       	mov	r22, r31
    8590:	72 2f       	mov	r23, r18
    8592:	85 2f       	mov	r24, r21
    8594:	94 2f       	mov	r25, r20
    8596:	0f 90       	pop	r0
    8598:	cf 91       	pop	r28
    859a:	df 91       	pop	r29
    859c:	1f 91       	pop	r17
    859e:	0f 91       	pop	r16
    85a0:	ff 90       	pop	r15
    85a2:	ef 90       	pop	r14
    85a4:	df 90       	pop	r13
    85a6:	cf 90       	pop	r12
    85a8:	bf 90       	pop	r11
    85aa:	af 90       	pop	r10
    85ac:	9f 90       	pop	r9
    85ae:	8f 90       	pop	r8
    85b0:	7f 90       	pop	r7
    85b2:	6f 90       	pop	r6
    85b4:	08 95       	ret

000085b6 <exit>:
    85b6:	f8 94       	cli
    85b8:	0c 94 6c 46 	jmp	0x8cd8	; 0x8cd8 <_exit>

000085bc <__ftoa_engine>:
    85bc:	28 30       	cpi	r18, 0x08	; 8
    85be:	08 f0       	brcs	.+2      	; 0x85c2 <__ftoa_engine+0x6>
    85c0:	27 e0       	ldi	r18, 0x07	; 7
    85c2:	33 27       	eor	r19, r19
    85c4:	da 01       	movw	r26, r20
    85c6:	99 0f       	add	r25, r25
    85c8:	31 1d       	adc	r19, r1
    85ca:	87 fd       	sbrc	r24, 7
    85cc:	91 60       	ori	r25, 0x01	; 1
    85ce:	00 96       	adiw	r24, 0x00	; 0
    85d0:	61 05       	cpc	r22, r1
    85d2:	71 05       	cpc	r23, r1
    85d4:	39 f4       	brne	.+14     	; 0x85e4 <__ftoa_engine+0x28>
    85d6:	32 60       	ori	r19, 0x02	; 2
    85d8:	2e 5f       	subi	r18, 0xFE	; 254
    85da:	3d 93       	st	X+, r19
    85dc:	30 e3       	ldi	r19, 0x30	; 48
    85de:	2a 95       	dec	r18
    85e0:	e1 f7       	brne	.-8      	; 0x85da <__ftoa_engine+0x1e>
    85e2:	08 95       	ret
    85e4:	9f 3f       	cpi	r25, 0xFF	; 255
    85e6:	30 f0       	brcs	.+12     	; 0x85f4 <__ftoa_engine+0x38>
    85e8:	80 38       	cpi	r24, 0x80	; 128
    85ea:	71 05       	cpc	r23, r1
    85ec:	61 05       	cpc	r22, r1
    85ee:	09 f0       	breq	.+2      	; 0x85f2 <__ftoa_engine+0x36>
    85f0:	3c 5f       	subi	r19, 0xFC	; 252
    85f2:	3c 5f       	subi	r19, 0xFC	; 252
    85f4:	3d 93       	st	X+, r19
    85f6:	91 30       	cpi	r25, 0x01	; 1
    85f8:	08 f0       	brcs	.+2      	; 0x85fc <__ftoa_engine+0x40>
    85fa:	80 68       	ori	r24, 0x80	; 128
    85fc:	91 1d       	adc	r25, r1
    85fe:	df 93       	push	r29
    8600:	cf 93       	push	r28
    8602:	1f 93       	push	r17
    8604:	0f 93       	push	r16
    8606:	ff 92       	push	r15
    8608:	ef 92       	push	r14
    860a:	19 2f       	mov	r17, r25
    860c:	98 7f       	andi	r25, 0xF8	; 248
    860e:	96 95       	lsr	r25
    8610:	e9 2f       	mov	r30, r25
    8612:	96 95       	lsr	r25
    8614:	96 95       	lsr	r25
    8616:	e9 0f       	add	r30, r25
    8618:	ff 27       	eor	r31, r31
    861a:	ee 51       	subi	r30, 0x1E	; 30
    861c:	fd 4f       	sbci	r31, 0xFD	; 253
    861e:	99 27       	eor	r25, r25
    8620:	33 27       	eor	r19, r19
    8622:	ee 24       	eor	r14, r14
    8624:	ff 24       	eor	r15, r15
    8626:	a7 01       	movw	r20, r14
    8628:	e7 01       	movw	r28, r14
    862a:	05 90       	lpm	r0, Z+
    862c:	08 94       	sec
    862e:	07 94       	ror	r0
    8630:	28 f4       	brcc	.+10     	; 0x863c <__ftoa_engine+0x80>
    8632:	36 0f       	add	r19, r22
    8634:	e7 1e       	adc	r14, r23
    8636:	f8 1e       	adc	r15, r24
    8638:	49 1f       	adc	r20, r25
    863a:	51 1d       	adc	r21, r1
    863c:	66 0f       	add	r22, r22
    863e:	77 1f       	adc	r23, r23
    8640:	88 1f       	adc	r24, r24
    8642:	99 1f       	adc	r25, r25
    8644:	06 94       	lsr	r0
    8646:	a1 f7       	brne	.-24     	; 0x8630 <__ftoa_engine+0x74>
    8648:	05 90       	lpm	r0, Z+
    864a:	07 94       	ror	r0
    864c:	28 f4       	brcc	.+10     	; 0x8658 <__ftoa_engine+0x9c>
    864e:	e7 0e       	add	r14, r23
    8650:	f8 1e       	adc	r15, r24
    8652:	49 1f       	adc	r20, r25
    8654:	56 1f       	adc	r21, r22
    8656:	c1 1d       	adc	r28, r1
    8658:	77 0f       	add	r23, r23
    865a:	88 1f       	adc	r24, r24
    865c:	99 1f       	adc	r25, r25
    865e:	66 1f       	adc	r22, r22
    8660:	06 94       	lsr	r0
    8662:	a1 f7       	brne	.-24     	; 0x864c <__ftoa_engine+0x90>
    8664:	05 90       	lpm	r0, Z+
    8666:	07 94       	ror	r0
    8668:	28 f4       	brcc	.+10     	; 0x8674 <__ftoa_engine+0xb8>
    866a:	f8 0e       	add	r15, r24
    866c:	49 1f       	adc	r20, r25
    866e:	56 1f       	adc	r21, r22
    8670:	c7 1f       	adc	r28, r23
    8672:	d1 1d       	adc	r29, r1
    8674:	88 0f       	add	r24, r24
    8676:	99 1f       	adc	r25, r25
    8678:	66 1f       	adc	r22, r22
    867a:	77 1f       	adc	r23, r23
    867c:	06 94       	lsr	r0
    867e:	a1 f7       	brne	.-24     	; 0x8668 <__ftoa_engine+0xac>
    8680:	05 90       	lpm	r0, Z+
    8682:	07 94       	ror	r0
    8684:	20 f4       	brcc	.+8      	; 0x868e <__ftoa_engine+0xd2>
    8686:	49 0f       	add	r20, r25
    8688:	56 1f       	adc	r21, r22
    868a:	c7 1f       	adc	r28, r23
    868c:	d8 1f       	adc	r29, r24
    868e:	99 0f       	add	r25, r25
    8690:	66 1f       	adc	r22, r22
    8692:	77 1f       	adc	r23, r23
    8694:	88 1f       	adc	r24, r24
    8696:	06 94       	lsr	r0
    8698:	a9 f7       	brne	.-22     	; 0x8684 <__ftoa_engine+0xc8>
    869a:	84 91       	lpm	r24, Z+
    869c:	10 95       	com	r17
    869e:	17 70       	andi	r17, 0x07	; 7
    86a0:	41 f0       	breq	.+16     	; 0x86b2 <__ftoa_engine+0xf6>
    86a2:	d6 95       	lsr	r29
    86a4:	c7 95       	ror	r28
    86a6:	57 95       	ror	r21
    86a8:	47 95       	ror	r20
    86aa:	f7 94       	ror	r15
    86ac:	e7 94       	ror	r14
    86ae:	1a 95       	dec	r17
    86b0:	c1 f7       	brne	.-16     	; 0x86a2 <__ftoa_engine+0xe6>
    86b2:	e8 e8       	ldi	r30, 0x88	; 136
    86b4:	f2 e0       	ldi	r31, 0x02	; 2
    86b6:	68 94       	set
    86b8:	15 90       	lpm	r1, Z+
    86ba:	15 91       	lpm	r17, Z+
    86bc:	35 91       	lpm	r19, Z+
    86be:	65 91       	lpm	r22, Z+
    86c0:	95 91       	lpm	r25, Z+
    86c2:	05 90       	lpm	r0, Z+
    86c4:	7f e2       	ldi	r23, 0x2F	; 47
    86c6:	73 95       	inc	r23
    86c8:	e1 18       	sub	r14, r1
    86ca:	f1 0a       	sbc	r15, r17
    86cc:	43 0b       	sbc	r20, r19
    86ce:	56 0b       	sbc	r21, r22
    86d0:	c9 0b       	sbc	r28, r25
    86d2:	d0 09       	sbc	r29, r0
    86d4:	c0 f7       	brcc	.-16     	; 0x86c6 <__ftoa_engine+0x10a>
    86d6:	e1 0c       	add	r14, r1
    86d8:	f1 1e       	adc	r15, r17
    86da:	43 1f       	adc	r20, r19
    86dc:	56 1f       	adc	r21, r22
    86de:	c9 1f       	adc	r28, r25
    86e0:	d0 1d       	adc	r29, r0
    86e2:	7e f4       	brtc	.+30     	; 0x8702 <__ftoa_engine+0x146>
    86e4:	70 33       	cpi	r23, 0x30	; 48
    86e6:	11 f4       	brne	.+4      	; 0x86ec <__ftoa_engine+0x130>
    86e8:	8a 95       	dec	r24
    86ea:	e6 cf       	rjmp	.-52     	; 0x86b8 <__ftoa_engine+0xfc>
    86ec:	e8 94       	clt
    86ee:	01 50       	subi	r16, 0x01	; 1
    86f0:	30 f0       	brcs	.+12     	; 0x86fe <__ftoa_engine+0x142>
    86f2:	08 0f       	add	r16, r24
    86f4:	0a f4       	brpl	.+2      	; 0x86f8 <__ftoa_engine+0x13c>
    86f6:	00 27       	eor	r16, r16
    86f8:	02 17       	cp	r16, r18
    86fa:	08 f4       	brcc	.+2      	; 0x86fe <__ftoa_engine+0x142>
    86fc:	20 2f       	mov	r18, r16
    86fe:	23 95       	inc	r18
    8700:	02 2f       	mov	r16, r18
    8702:	7a 33       	cpi	r23, 0x3A	; 58
    8704:	28 f0       	brcs	.+10     	; 0x8710 <__ftoa_engine+0x154>
    8706:	79 e3       	ldi	r23, 0x39	; 57
    8708:	7d 93       	st	X+, r23
    870a:	2a 95       	dec	r18
    870c:	e9 f7       	brne	.-6      	; 0x8708 <__ftoa_engine+0x14c>
    870e:	10 c0       	rjmp	.+32     	; 0x8730 <__ftoa_engine+0x174>
    8710:	7d 93       	st	X+, r23
    8712:	2a 95       	dec	r18
    8714:	89 f6       	brne	.-94     	; 0x86b8 <__ftoa_engine+0xfc>
    8716:	06 94       	lsr	r0
    8718:	97 95       	ror	r25
    871a:	67 95       	ror	r22
    871c:	37 95       	ror	r19
    871e:	17 95       	ror	r17
    8720:	17 94       	ror	r1
    8722:	e1 18       	sub	r14, r1
    8724:	f1 0a       	sbc	r15, r17
    8726:	43 0b       	sbc	r20, r19
    8728:	56 0b       	sbc	r21, r22
    872a:	c9 0b       	sbc	r28, r25
    872c:	d0 09       	sbc	r29, r0
    872e:	98 f0       	brcs	.+38     	; 0x8756 <__ftoa_engine+0x19a>
    8730:	23 95       	inc	r18
    8732:	7e 91       	ld	r23, -X
    8734:	73 95       	inc	r23
    8736:	7a 33       	cpi	r23, 0x3A	; 58
    8738:	08 f0       	brcs	.+2      	; 0x873c <__ftoa_engine+0x180>
    873a:	70 e3       	ldi	r23, 0x30	; 48
    873c:	7c 93       	st	X, r23
    873e:	20 13       	cpse	r18, r16
    8740:	b8 f7       	brcc	.-18     	; 0x8730 <__ftoa_engine+0x174>
    8742:	7e 91       	ld	r23, -X
    8744:	70 61       	ori	r23, 0x10	; 16
    8746:	7d 93       	st	X+, r23
    8748:	30 f0       	brcs	.+12     	; 0x8756 <__ftoa_engine+0x19a>
    874a:	83 95       	inc	r24
    874c:	71 e3       	ldi	r23, 0x31	; 49
    874e:	7d 93       	st	X+, r23
    8750:	70 e3       	ldi	r23, 0x30	; 48
    8752:	2a 95       	dec	r18
    8754:	e1 f7       	brne	.-8      	; 0x874e <__ftoa_engine+0x192>
    8756:	11 24       	eor	r1, r1
    8758:	ef 90       	pop	r14
    875a:	ff 90       	pop	r15
    875c:	0f 91       	pop	r16
    875e:	1f 91       	pop	r17
    8760:	cf 91       	pop	r28
    8762:	df 91       	pop	r29
    8764:	99 27       	eor	r25, r25
    8766:	87 fd       	sbrc	r24, 7
    8768:	90 95       	com	r25
    876a:	08 95       	ret

0000876c <isspace>:
    876c:	91 11       	cpse	r25, r1
    876e:	aa c2       	rjmp	.+1364   	; 0x8cc4 <__ctype_isfalse>
    8770:	80 32       	cpi	r24, 0x20	; 32
    8772:	19 f0       	breq	.+6      	; 0x877a <isspace+0xe>
    8774:	89 50       	subi	r24, 0x09	; 9
    8776:	85 50       	subi	r24, 0x05	; 5
    8778:	d0 f7       	brcc	.-12     	; 0x876e <isspace+0x2>
    877a:	08 95       	ret

0000877c <strncasecmp_P>:
    877c:	fb 01       	movw	r30, r22
    877e:	dc 01       	movw	r26, r24
    8780:	41 50       	subi	r20, 0x01	; 1
    8782:	50 40       	sbci	r21, 0x00	; 0
    8784:	88 f0       	brcs	.+34     	; 0x87a8 <strncasecmp_P+0x2c>
    8786:	8d 91       	ld	r24, X+
    8788:	81 34       	cpi	r24, 0x41	; 65
    878a:	1c f0       	brlt	.+6      	; 0x8792 <strncasecmp_P+0x16>
    878c:	8b 35       	cpi	r24, 0x5B	; 91
    878e:	0c f4       	brge	.+2      	; 0x8792 <strncasecmp_P+0x16>
    8790:	80 5e       	subi	r24, 0xE0	; 224
    8792:	65 91       	lpm	r22, Z+
    8794:	61 34       	cpi	r22, 0x41	; 65
    8796:	1c f0       	brlt	.+6      	; 0x879e <strncasecmp_P+0x22>
    8798:	6b 35       	cpi	r22, 0x5B	; 91
    879a:	0c f4       	brge	.+2      	; 0x879e <strncasecmp_P+0x22>
    879c:	60 5e       	subi	r22, 0xE0	; 224
    879e:	86 1b       	sub	r24, r22
    87a0:	61 11       	cpse	r22, r1
    87a2:	71 f3       	breq	.-36     	; 0x8780 <strncasecmp_P+0x4>
    87a4:	99 0b       	sbc	r25, r25
    87a6:	08 95       	ret
    87a8:	88 1b       	sub	r24, r24
    87aa:	fc cf       	rjmp	.-8      	; 0x87a4 <strncasecmp_P+0x28>

000087ac <strnlen_P>:
    87ac:	fc 01       	movw	r30, r24
    87ae:	05 90       	lpm	r0, Z+
    87b0:	61 50       	subi	r22, 0x01	; 1
    87b2:	70 40       	sbci	r23, 0x00	; 0
    87b4:	01 10       	cpse	r0, r1
    87b6:	d8 f7       	brcc	.-10     	; 0x87ae <strnlen_P+0x2>
    87b8:	80 95       	com	r24
    87ba:	90 95       	com	r25
    87bc:	8e 0f       	add	r24, r30
    87be:	9f 1f       	adc	r25, r31
    87c0:	08 95       	ret

000087c2 <strnlen>:
    87c2:	fc 01       	movw	r30, r24
    87c4:	61 50       	subi	r22, 0x01	; 1
    87c6:	70 40       	sbci	r23, 0x00	; 0
    87c8:	01 90       	ld	r0, Z+
    87ca:	01 10       	cpse	r0, r1
    87cc:	d8 f7       	brcc	.-10     	; 0x87c4 <strnlen+0x2>
    87ce:	80 95       	com	r24
    87d0:	90 95       	com	r25
    87d2:	8e 0f       	add	r24, r30
    87d4:	9f 1f       	adc	r25, r31
    87d6:	08 95       	ret

000087d8 <fdevopen>:
    87d8:	0f 93       	push	r16
    87da:	1f 93       	push	r17
    87dc:	cf 93       	push	r28
    87de:	df 93       	push	r29
    87e0:	8c 01       	movw	r16, r24
    87e2:	eb 01       	movw	r28, r22
    87e4:	00 97       	sbiw	r24, 0x00	; 0
    87e6:	11 f4       	brne	.+4      	; 0x87ec <fdevopen+0x14>
    87e8:	20 97       	sbiw	r28, 0x00	; 0
    87ea:	c9 f1       	breq	.+114    	; 0x885e <fdevopen+0x86>
    87ec:	81 e0       	ldi	r24, 0x01	; 1
    87ee:	90 e0       	ldi	r25, 0x00	; 0
    87f0:	6e e0       	ldi	r22, 0x0E	; 14
    87f2:	70 e0       	ldi	r23, 0x00	; 0
    87f4:	0e 94 0a 45 	call	0x8a14	; 0x8a14 <calloc>
    87f8:	fc 01       	movw	r30, r24
    87fa:	9c 01       	movw	r18, r24
    87fc:	00 97       	sbiw	r24, 0x00	; 0
    87fe:	89 f1       	breq	.+98     	; 0x8862 <fdevopen+0x8a>
    8800:	80 e8       	ldi	r24, 0x80	; 128
    8802:	83 83       	std	Z+3, r24	; 0x03
    8804:	20 97       	sbiw	r28, 0x00	; 0
    8806:	71 f0       	breq	.+28     	; 0x8824 <fdevopen+0x4c>
    8808:	d3 87       	std	Z+11, r29	; 0x0b
    880a:	c2 87       	std	Z+10, r28	; 0x0a
    880c:	81 e8       	ldi	r24, 0x81	; 129
    880e:	83 83       	std	Z+3, r24	; 0x03
    8810:	80 91 d4 12 	lds	r24, 0x12D4
    8814:	90 91 d5 12 	lds	r25, 0x12D5
    8818:	00 97       	sbiw	r24, 0x00	; 0
    881a:	21 f4       	brne	.+8      	; 0x8824 <fdevopen+0x4c>
    881c:	f0 93 d5 12 	sts	0x12D5, r31
    8820:	e0 93 d4 12 	sts	0x12D4, r30
    8824:	01 15       	cp	r16, r1
    8826:	11 05       	cpc	r17, r1
    8828:	e1 f0       	breq	.+56     	; 0x8862 <fdevopen+0x8a>
    882a:	11 87       	std	Z+9, r17	; 0x09
    882c:	00 87       	std	Z+8, r16	; 0x08
    882e:	83 81       	ldd	r24, Z+3	; 0x03
    8830:	82 60       	ori	r24, 0x02	; 2
    8832:	83 83       	std	Z+3, r24	; 0x03
    8834:	80 91 d6 12 	lds	r24, 0x12D6
    8838:	90 91 d7 12 	lds	r25, 0x12D7
    883c:	00 97       	sbiw	r24, 0x00	; 0
    883e:	89 f4       	brne	.+34     	; 0x8862 <fdevopen+0x8a>
    8840:	f0 93 d7 12 	sts	0x12D7, r31
    8844:	e0 93 d6 12 	sts	0x12D6, r30
    8848:	80 91 d8 12 	lds	r24, 0x12D8
    884c:	90 91 d9 12 	lds	r25, 0x12D9
    8850:	00 97       	sbiw	r24, 0x00	; 0
    8852:	39 f4       	brne	.+14     	; 0x8862 <fdevopen+0x8a>
    8854:	f0 93 d9 12 	sts	0x12D9, r31
    8858:	e0 93 d8 12 	sts	0x12D8, r30
    885c:	02 c0       	rjmp	.+4      	; 0x8862 <fdevopen+0x8a>
    885e:	20 e0       	ldi	r18, 0x00	; 0
    8860:	30 e0       	ldi	r19, 0x00	; 0
    8862:	c9 01       	movw	r24, r18
    8864:	df 91       	pop	r29
    8866:	cf 91       	pop	r28
    8868:	1f 91       	pop	r17
    886a:	0f 91       	pop	r16
    886c:	08 95       	ret

0000886e <fputc>:
    886e:	0f 93       	push	r16
    8870:	1f 93       	push	r17
    8872:	cf 93       	push	r28
    8874:	df 93       	push	r29
    8876:	8c 01       	movw	r16, r24
    8878:	eb 01       	movw	r28, r22
    887a:	8b 81       	ldd	r24, Y+3	; 0x03
    887c:	81 ff       	sbrs	r24, 1
    887e:	1b c0       	rjmp	.+54     	; 0x88b6 <fputc+0x48>
    8880:	82 ff       	sbrs	r24, 2
    8882:	0d c0       	rjmp	.+26     	; 0x889e <fputc+0x30>
    8884:	2e 81       	ldd	r18, Y+6	; 0x06
    8886:	3f 81       	ldd	r19, Y+7	; 0x07
    8888:	8c 81       	ldd	r24, Y+4	; 0x04
    888a:	9d 81       	ldd	r25, Y+5	; 0x05
    888c:	28 17       	cp	r18, r24
    888e:	39 07       	cpc	r19, r25
    8890:	64 f4       	brge	.+24     	; 0x88aa <fputc+0x3c>
    8892:	e8 81       	ld	r30, Y
    8894:	f9 81       	ldd	r31, Y+1	; 0x01
    8896:	01 93       	st	Z+, r16
    8898:	f9 83       	std	Y+1, r31	; 0x01
    889a:	e8 83       	st	Y, r30
    889c:	06 c0       	rjmp	.+12     	; 0x88aa <fputc+0x3c>
    889e:	e8 85       	ldd	r30, Y+8	; 0x08
    88a0:	f9 85       	ldd	r31, Y+9	; 0x09
    88a2:	80 2f       	mov	r24, r16
    88a4:	19 95       	eicall
    88a6:	00 97       	sbiw	r24, 0x00	; 0
    88a8:	31 f4       	brne	.+12     	; 0x88b6 <fputc+0x48>
    88aa:	8e 81       	ldd	r24, Y+6	; 0x06
    88ac:	9f 81       	ldd	r25, Y+7	; 0x07
    88ae:	01 96       	adiw	r24, 0x01	; 1
    88b0:	9f 83       	std	Y+7, r25	; 0x07
    88b2:	8e 83       	std	Y+6, r24	; 0x06
    88b4:	02 c0       	rjmp	.+4      	; 0x88ba <fputc+0x4c>
    88b6:	0f ef       	ldi	r16, 0xFF	; 255
    88b8:	1f ef       	ldi	r17, 0xFF	; 255
    88ba:	c8 01       	movw	r24, r16
    88bc:	df 91       	pop	r29
    88be:	cf 91       	pop	r28
    88c0:	1f 91       	pop	r17
    88c2:	0f 91       	pop	r16
    88c4:	08 95       	ret

000088c6 <printf>:
    88c6:	df 93       	push	r29
    88c8:	cf 93       	push	r28
    88ca:	cd b7       	in	r28, 0x3d	; 61
    88cc:	de b7       	in	r29, 0x3e	; 62
    88ce:	fe 01       	movw	r30, r28
    88d0:	36 96       	adiw	r30, 0x06	; 6
    88d2:	61 91       	ld	r22, Z+
    88d4:	71 91       	ld	r23, Z+
    88d6:	80 91 d6 12 	lds	r24, 0x12D6
    88da:	90 91 d7 12 	lds	r25, 0x12D7
    88de:	af 01       	movw	r20, r30
    88e0:	0e 94 dd 38 	call	0x71ba	; 0x71ba <vfprintf>
    88e4:	cf 91       	pop	r28
    88e6:	df 91       	pop	r29
    88e8:	08 95       	ret

000088ea <puts>:
    88ea:	ef 92       	push	r14
    88ec:	ff 92       	push	r15
    88ee:	0f 93       	push	r16
    88f0:	1f 93       	push	r17
    88f2:	cf 93       	push	r28
    88f4:	df 93       	push	r29
    88f6:	8c 01       	movw	r16, r24
    88f8:	e0 91 d6 12 	lds	r30, 0x12D6
    88fc:	f0 91 d7 12 	lds	r31, 0x12D7
    8900:	83 81       	ldd	r24, Z+3	; 0x03
    8902:	81 ff       	sbrs	r24, 1
    8904:	1f c0       	rjmp	.+62     	; 0x8944 <puts+0x5a>
    8906:	c0 e0       	ldi	r28, 0x00	; 0
    8908:	d0 e0       	ldi	r29, 0x00	; 0
    890a:	0a c0       	rjmp	.+20     	; 0x8920 <puts+0x36>
    890c:	db 01       	movw	r26, r22
    890e:	18 96       	adiw	r26, 0x08	; 8
    8910:	ed 91       	ld	r30, X+
    8912:	fc 91       	ld	r31, X
    8914:	19 97       	sbiw	r26, 0x09	; 9
    8916:	19 95       	eicall
    8918:	00 97       	sbiw	r24, 0x00	; 0
    891a:	11 f0       	breq	.+4      	; 0x8920 <puts+0x36>
    891c:	cf ef       	ldi	r28, 0xFF	; 255
    891e:	df ef       	ldi	r29, 0xFF	; 255
    8920:	f8 01       	movw	r30, r16
    8922:	81 91       	ld	r24, Z+
    8924:	8f 01       	movw	r16, r30
    8926:	60 91 d6 12 	lds	r22, 0x12D6
    892a:	70 91 d7 12 	lds	r23, 0x12D7
    892e:	88 23       	and	r24, r24
    8930:	69 f7       	brne	.-38     	; 0x890c <puts+0x22>
    8932:	db 01       	movw	r26, r22
    8934:	18 96       	adiw	r26, 0x08	; 8
    8936:	ed 91       	ld	r30, X+
    8938:	fc 91       	ld	r31, X
    893a:	19 97       	sbiw	r26, 0x09	; 9
    893c:	8a e0       	ldi	r24, 0x0A	; 10
    893e:	19 95       	eicall
    8940:	00 97       	sbiw	r24, 0x00	; 0
    8942:	11 f0       	breq	.+4      	; 0x8948 <puts+0x5e>
    8944:	cf ef       	ldi	r28, 0xFF	; 255
    8946:	df ef       	ldi	r29, 0xFF	; 255
    8948:	ce 01       	movw	r24, r28
    894a:	df 91       	pop	r29
    894c:	cf 91       	pop	r28
    894e:	1f 91       	pop	r17
    8950:	0f 91       	pop	r16
    8952:	ff 90       	pop	r15
    8954:	ef 90       	pop	r14
    8956:	08 95       	ret

00008958 <__ultoa_invert>:
    8958:	fa 01       	movw	r30, r20
    895a:	aa 27       	eor	r26, r26
    895c:	28 30       	cpi	r18, 0x08	; 8
    895e:	51 f1       	breq	.+84     	; 0x89b4 <__ultoa_invert+0x5c>
    8960:	20 31       	cpi	r18, 0x10	; 16
    8962:	81 f1       	breq	.+96     	; 0x89c4 <__ultoa_invert+0x6c>
    8964:	e8 94       	clt
    8966:	6f 93       	push	r22
    8968:	6e 7f       	andi	r22, 0xFE	; 254
    896a:	6e 5f       	subi	r22, 0xFE	; 254
    896c:	7f 4f       	sbci	r23, 0xFF	; 255
    896e:	8f 4f       	sbci	r24, 0xFF	; 255
    8970:	9f 4f       	sbci	r25, 0xFF	; 255
    8972:	af 4f       	sbci	r26, 0xFF	; 255
    8974:	b1 e0       	ldi	r27, 0x01	; 1
    8976:	3e d0       	rcall	.+124    	; 0x89f4 <__ultoa_invert+0x9c>
    8978:	b4 e0       	ldi	r27, 0x04	; 4
    897a:	3c d0       	rcall	.+120    	; 0x89f4 <__ultoa_invert+0x9c>
    897c:	67 0f       	add	r22, r23
    897e:	78 1f       	adc	r23, r24
    8980:	89 1f       	adc	r24, r25
    8982:	9a 1f       	adc	r25, r26
    8984:	a1 1d       	adc	r26, r1
    8986:	68 0f       	add	r22, r24
    8988:	79 1f       	adc	r23, r25
    898a:	8a 1f       	adc	r24, r26
    898c:	91 1d       	adc	r25, r1
    898e:	a1 1d       	adc	r26, r1
    8990:	6a 0f       	add	r22, r26
    8992:	71 1d       	adc	r23, r1
    8994:	81 1d       	adc	r24, r1
    8996:	91 1d       	adc	r25, r1
    8998:	a1 1d       	adc	r26, r1
    899a:	20 d0       	rcall	.+64     	; 0x89dc <__ultoa_invert+0x84>
    899c:	09 f4       	brne	.+2      	; 0x89a0 <__ultoa_invert+0x48>
    899e:	68 94       	set
    89a0:	3f 91       	pop	r19
    89a2:	2a e0       	ldi	r18, 0x0A	; 10
    89a4:	26 9f       	mul	r18, r22
    89a6:	11 24       	eor	r1, r1
    89a8:	30 19       	sub	r19, r0
    89aa:	30 5d       	subi	r19, 0xD0	; 208
    89ac:	31 93       	st	Z+, r19
    89ae:	de f6       	brtc	.-74     	; 0x8966 <__ultoa_invert+0xe>
    89b0:	cf 01       	movw	r24, r30
    89b2:	08 95       	ret
    89b4:	46 2f       	mov	r20, r22
    89b6:	47 70       	andi	r20, 0x07	; 7
    89b8:	40 5d       	subi	r20, 0xD0	; 208
    89ba:	41 93       	st	Z+, r20
    89bc:	b3 e0       	ldi	r27, 0x03	; 3
    89be:	0f d0       	rcall	.+30     	; 0x89de <__ultoa_invert+0x86>
    89c0:	c9 f7       	brne	.-14     	; 0x89b4 <__ultoa_invert+0x5c>
    89c2:	f6 cf       	rjmp	.-20     	; 0x89b0 <__ultoa_invert+0x58>
    89c4:	46 2f       	mov	r20, r22
    89c6:	4f 70       	andi	r20, 0x0F	; 15
    89c8:	40 5d       	subi	r20, 0xD0	; 208
    89ca:	4a 33       	cpi	r20, 0x3A	; 58
    89cc:	18 f0       	brcs	.+6      	; 0x89d4 <__ultoa_invert+0x7c>
    89ce:	49 5d       	subi	r20, 0xD9	; 217
    89d0:	31 fd       	sbrc	r19, 1
    89d2:	40 52       	subi	r20, 0x20	; 32
    89d4:	41 93       	st	Z+, r20
    89d6:	02 d0       	rcall	.+4      	; 0x89dc <__ultoa_invert+0x84>
    89d8:	a9 f7       	brne	.-22     	; 0x89c4 <__ultoa_invert+0x6c>
    89da:	ea cf       	rjmp	.-44     	; 0x89b0 <__ultoa_invert+0x58>
    89dc:	b4 e0       	ldi	r27, 0x04	; 4
    89de:	a6 95       	lsr	r26
    89e0:	97 95       	ror	r25
    89e2:	87 95       	ror	r24
    89e4:	77 95       	ror	r23
    89e6:	67 95       	ror	r22
    89e8:	ba 95       	dec	r27
    89ea:	c9 f7       	brne	.-14     	; 0x89de <__ultoa_invert+0x86>
    89ec:	00 97       	sbiw	r24, 0x00	; 0
    89ee:	61 05       	cpc	r22, r1
    89f0:	71 05       	cpc	r23, r1
    89f2:	08 95       	ret
    89f4:	9b 01       	movw	r18, r22
    89f6:	ac 01       	movw	r20, r24
    89f8:	0a 2e       	mov	r0, r26
    89fa:	06 94       	lsr	r0
    89fc:	57 95       	ror	r21
    89fe:	47 95       	ror	r20
    8a00:	37 95       	ror	r19
    8a02:	27 95       	ror	r18
    8a04:	ba 95       	dec	r27
    8a06:	c9 f7       	brne	.-14     	; 0x89fa <__ultoa_invert+0xa2>
    8a08:	62 0f       	add	r22, r18
    8a0a:	73 1f       	adc	r23, r19
    8a0c:	84 1f       	adc	r24, r20
    8a0e:	95 1f       	adc	r25, r21
    8a10:	a0 1d       	adc	r26, r0
    8a12:	08 95       	ret

00008a14 <calloc>:
    8a14:	ef 92       	push	r14
    8a16:	ff 92       	push	r15
    8a18:	0f 93       	push	r16
    8a1a:	1f 93       	push	r17
    8a1c:	cf 93       	push	r28
    8a1e:	df 93       	push	r29
    8a20:	68 9f       	mul	r22, r24
    8a22:	80 01       	movw	r16, r0
    8a24:	69 9f       	mul	r22, r25
    8a26:	10 0d       	add	r17, r0
    8a28:	78 9f       	mul	r23, r24
    8a2a:	10 0d       	add	r17, r0
    8a2c:	11 24       	eor	r1, r1
    8a2e:	c8 01       	movw	r24, r16
    8a30:	0e 94 2f 45 	call	0x8a5e	; 0x8a5e <malloc>
    8a34:	e8 2e       	mov	r14, r24
    8a36:	e7 01       	movw	r28, r14
    8a38:	7e 01       	movw	r14, r28
    8a3a:	f9 2e       	mov	r15, r25
    8a3c:	e7 01       	movw	r28, r14
    8a3e:	20 97       	sbiw	r28, 0x00	; 0
    8a40:	31 f0       	breq	.+12     	; 0x8a4e <calloc+0x3a>
    8a42:	8e 2d       	mov	r24, r14
    8a44:	60 e0       	ldi	r22, 0x00	; 0
    8a46:	70 e0       	ldi	r23, 0x00	; 0
    8a48:	a8 01       	movw	r20, r16
    8a4a:	0e 94 65 46 	call	0x8cca	; 0x8cca <memset>
    8a4e:	ce 01       	movw	r24, r28
    8a50:	df 91       	pop	r29
    8a52:	cf 91       	pop	r28
    8a54:	1f 91       	pop	r17
    8a56:	0f 91       	pop	r16
    8a58:	ff 90       	pop	r15
    8a5a:	ef 90       	pop	r14
    8a5c:	08 95       	ret

00008a5e <malloc>:
    8a5e:	cf 93       	push	r28
    8a60:	df 93       	push	r29
    8a62:	82 30       	cpi	r24, 0x02	; 2
    8a64:	91 05       	cpc	r25, r1
    8a66:	10 f4       	brcc	.+4      	; 0x8a6c <malloc+0xe>
    8a68:	82 e0       	ldi	r24, 0x02	; 2
    8a6a:	90 e0       	ldi	r25, 0x00	; 0
    8a6c:	e0 91 de 12 	lds	r30, 0x12DE
    8a70:	f0 91 df 12 	lds	r31, 0x12DF
    8a74:	40 e0       	ldi	r20, 0x00	; 0
    8a76:	50 e0       	ldi	r21, 0x00	; 0
    8a78:	20 e0       	ldi	r18, 0x00	; 0
    8a7a:	30 e0       	ldi	r19, 0x00	; 0
    8a7c:	26 c0       	rjmp	.+76     	; 0x8aca <malloc+0x6c>
    8a7e:	60 81       	ld	r22, Z
    8a80:	71 81       	ldd	r23, Z+1	; 0x01
    8a82:	68 17       	cp	r22, r24
    8a84:	79 07       	cpc	r23, r25
    8a86:	e0 f0       	brcs	.+56     	; 0x8ac0 <malloc+0x62>
    8a88:	68 17       	cp	r22, r24
    8a8a:	79 07       	cpc	r23, r25
    8a8c:	81 f4       	brne	.+32     	; 0x8aae <malloc+0x50>
    8a8e:	82 81       	ldd	r24, Z+2	; 0x02
    8a90:	93 81       	ldd	r25, Z+3	; 0x03
    8a92:	21 15       	cp	r18, r1
    8a94:	31 05       	cpc	r19, r1
    8a96:	31 f0       	breq	.+12     	; 0x8aa4 <malloc+0x46>
    8a98:	d9 01       	movw	r26, r18
    8a9a:	13 96       	adiw	r26, 0x03	; 3
    8a9c:	9c 93       	st	X, r25
    8a9e:	8e 93       	st	-X, r24
    8aa0:	12 97       	sbiw	r26, 0x02	; 2
    8aa2:	2b c0       	rjmp	.+86     	; 0x8afa <malloc+0x9c>
    8aa4:	90 93 df 12 	sts	0x12DF, r25
    8aa8:	80 93 de 12 	sts	0x12DE, r24
    8aac:	26 c0       	rjmp	.+76     	; 0x8afa <malloc+0x9c>
    8aae:	41 15       	cp	r20, r1
    8ab0:	51 05       	cpc	r21, r1
    8ab2:	19 f0       	breq	.+6      	; 0x8aba <malloc+0x5c>
    8ab4:	64 17       	cp	r22, r20
    8ab6:	75 07       	cpc	r23, r21
    8ab8:	18 f4       	brcc	.+6      	; 0x8ac0 <malloc+0x62>
    8aba:	ab 01       	movw	r20, r22
    8abc:	e9 01       	movw	r28, r18
    8abe:	df 01       	movw	r26, r30
    8ac0:	9f 01       	movw	r18, r30
    8ac2:	72 81       	ldd	r23, Z+2	; 0x02
    8ac4:	63 81       	ldd	r22, Z+3	; 0x03
    8ac6:	e7 2f       	mov	r30, r23
    8ac8:	f6 2f       	mov	r31, r22
    8aca:	30 97       	sbiw	r30, 0x00	; 0
    8acc:	c1 f6       	brne	.-80     	; 0x8a7e <malloc+0x20>
    8ace:	41 15       	cp	r20, r1
    8ad0:	51 05       	cpc	r21, r1
    8ad2:	01 f1       	breq	.+64     	; 0x8b14 <malloc+0xb6>
    8ad4:	48 1b       	sub	r20, r24
    8ad6:	59 0b       	sbc	r21, r25
    8ad8:	44 30       	cpi	r20, 0x04	; 4
    8ada:	51 05       	cpc	r21, r1
    8adc:	80 f4       	brcc	.+32     	; 0x8afe <malloc+0xa0>
    8ade:	12 96       	adiw	r26, 0x02	; 2
    8ae0:	8d 91       	ld	r24, X+
    8ae2:	9c 91       	ld	r25, X
    8ae4:	13 97       	sbiw	r26, 0x03	; 3
    8ae6:	20 97       	sbiw	r28, 0x00	; 0
    8ae8:	19 f0       	breq	.+6      	; 0x8af0 <malloc+0x92>
    8aea:	9b 83       	std	Y+3, r25	; 0x03
    8aec:	8a 83       	std	Y+2, r24	; 0x02
    8aee:	04 c0       	rjmp	.+8      	; 0x8af8 <malloc+0x9a>
    8af0:	90 93 df 12 	sts	0x12DF, r25
    8af4:	80 93 de 12 	sts	0x12DE, r24
    8af8:	fd 01       	movw	r30, r26
    8afa:	32 96       	adiw	r30, 0x02	; 2
    8afc:	46 c0       	rjmp	.+140    	; 0x8b8a <malloc+0x12c>
    8afe:	fd 01       	movw	r30, r26
    8b00:	e4 0f       	add	r30, r20
    8b02:	f5 1f       	adc	r31, r21
    8b04:	81 93       	st	Z+, r24
    8b06:	91 93       	st	Z+, r25
    8b08:	42 50       	subi	r20, 0x02	; 2
    8b0a:	50 40       	sbci	r21, 0x00	; 0
    8b0c:	11 96       	adiw	r26, 0x01	; 1
    8b0e:	5c 93       	st	X, r21
    8b10:	4e 93       	st	-X, r20
    8b12:	3b c0       	rjmp	.+118    	; 0x8b8a <malloc+0x12c>
    8b14:	20 91 dc 12 	lds	r18, 0x12DC
    8b18:	30 91 dd 12 	lds	r19, 0x12DD
    8b1c:	21 15       	cp	r18, r1
    8b1e:	31 05       	cpc	r19, r1
    8b20:	41 f4       	brne	.+16     	; 0x8b32 <malloc+0xd4>
    8b22:	20 91 dd 08 	lds	r18, 0x08DD
    8b26:	30 91 de 08 	lds	r19, 0x08DE
    8b2a:	30 93 dd 12 	sts	0x12DD, r19
    8b2e:	20 93 dc 12 	sts	0x12DC, r18
    8b32:	20 91 df 08 	lds	r18, 0x08DF
    8b36:	30 91 e0 08 	lds	r19, 0x08E0
    8b3a:	21 15       	cp	r18, r1
    8b3c:	31 05       	cpc	r19, r1
    8b3e:	41 f4       	brne	.+16     	; 0x8b50 <malloc+0xf2>
    8b40:	2d b7       	in	r18, 0x3d	; 61
    8b42:	3e b7       	in	r19, 0x3e	; 62
    8b44:	40 91 db 08 	lds	r20, 0x08DB
    8b48:	50 91 dc 08 	lds	r21, 0x08DC
    8b4c:	24 1b       	sub	r18, r20
    8b4e:	35 0b       	sbc	r19, r21
    8b50:	e0 91 dc 12 	lds	r30, 0x12DC
    8b54:	f0 91 dd 12 	lds	r31, 0x12DD
    8b58:	e2 17       	cp	r30, r18
    8b5a:	f3 07       	cpc	r31, r19
    8b5c:	a0 f4       	brcc	.+40     	; 0x8b86 <malloc+0x128>
    8b5e:	2e 1b       	sub	r18, r30
    8b60:	3f 0b       	sbc	r19, r31
    8b62:	28 17       	cp	r18, r24
    8b64:	39 07       	cpc	r19, r25
    8b66:	78 f0       	brcs	.+30     	; 0x8b86 <malloc+0x128>
    8b68:	ac 01       	movw	r20, r24
    8b6a:	4e 5f       	subi	r20, 0xFE	; 254
    8b6c:	5f 4f       	sbci	r21, 0xFF	; 255
    8b6e:	24 17       	cp	r18, r20
    8b70:	35 07       	cpc	r19, r21
    8b72:	48 f0       	brcs	.+18     	; 0x8b86 <malloc+0x128>
    8b74:	4e 0f       	add	r20, r30
    8b76:	5f 1f       	adc	r21, r31
    8b78:	50 93 dd 12 	sts	0x12DD, r21
    8b7c:	40 93 dc 12 	sts	0x12DC, r20
    8b80:	81 93       	st	Z+, r24
    8b82:	91 93       	st	Z+, r25
    8b84:	02 c0       	rjmp	.+4      	; 0x8b8a <malloc+0x12c>
    8b86:	e0 e0       	ldi	r30, 0x00	; 0
    8b88:	f0 e0       	ldi	r31, 0x00	; 0
    8b8a:	cf 01       	movw	r24, r30
    8b8c:	df 91       	pop	r29
    8b8e:	cf 91       	pop	r28
    8b90:	08 95       	ret

00008b92 <free>:
    8b92:	cf 93       	push	r28
    8b94:	df 93       	push	r29
    8b96:	00 97       	sbiw	r24, 0x00	; 0
    8b98:	09 f4       	brne	.+2      	; 0x8b9c <free+0xa>
    8b9a:	91 c0       	rjmp	.+290    	; 0x8cbe <free+0x12c>
    8b9c:	fc 01       	movw	r30, r24
    8b9e:	32 97       	sbiw	r30, 0x02	; 2
    8ba0:	13 82       	std	Z+3, r1	; 0x03
    8ba2:	12 82       	std	Z+2, r1	; 0x02
    8ba4:	60 91 de 12 	lds	r22, 0x12DE
    8ba8:	70 91 df 12 	lds	r23, 0x12DF
    8bac:	61 15       	cp	r22, r1
    8bae:	71 05       	cpc	r23, r1
    8bb0:	81 f4       	brne	.+32     	; 0x8bd2 <free+0x40>
    8bb2:	20 81       	ld	r18, Z
    8bb4:	31 81       	ldd	r19, Z+1	; 0x01
    8bb6:	28 0f       	add	r18, r24
    8bb8:	39 1f       	adc	r19, r25
    8bba:	80 91 dc 12 	lds	r24, 0x12DC
    8bbe:	90 91 dd 12 	lds	r25, 0x12DD
    8bc2:	82 17       	cp	r24, r18
    8bc4:	93 07       	cpc	r25, r19
    8bc6:	99 f5       	brne	.+102    	; 0x8c2e <free+0x9c>
    8bc8:	f0 93 dd 12 	sts	0x12DD, r31
    8bcc:	e0 93 dc 12 	sts	0x12DC, r30
    8bd0:	76 c0       	rjmp	.+236    	; 0x8cbe <free+0x12c>
    8bd2:	db 01       	movw	r26, r22
    8bd4:	80 e0       	ldi	r24, 0x00	; 0
    8bd6:	90 e0       	ldi	r25, 0x00	; 0
    8bd8:	02 c0       	rjmp	.+4      	; 0x8bde <free+0x4c>
    8bda:	cd 01       	movw	r24, r26
    8bdc:	d9 01       	movw	r26, r18
    8bde:	ae 17       	cp	r26, r30
    8be0:	bf 07       	cpc	r27, r31
    8be2:	48 f4       	brcc	.+18     	; 0x8bf6 <free+0x64>
    8be4:	12 96       	adiw	r26, 0x02	; 2
    8be6:	2d 91       	ld	r18, X+
    8be8:	3c 91       	ld	r19, X
    8bea:	13 97       	sbiw	r26, 0x03	; 3
    8bec:	21 15       	cp	r18, r1
    8bee:	31 05       	cpc	r19, r1
    8bf0:	a1 f7       	brne	.-24     	; 0x8bda <free+0x48>
    8bf2:	cd 01       	movw	r24, r26
    8bf4:	21 c0       	rjmp	.+66     	; 0x8c38 <free+0xa6>
    8bf6:	b3 83       	std	Z+3, r27	; 0x03
    8bf8:	a2 83       	std	Z+2, r26	; 0x02
    8bfa:	ef 01       	movw	r28, r30
    8bfc:	49 91       	ld	r20, Y+
    8bfe:	59 91       	ld	r21, Y+
    8c00:	9e 01       	movw	r18, r28
    8c02:	24 0f       	add	r18, r20
    8c04:	35 1f       	adc	r19, r21
    8c06:	a2 17       	cp	r26, r18
    8c08:	b3 07       	cpc	r27, r19
    8c0a:	79 f4       	brne	.+30     	; 0x8c2a <free+0x98>
    8c0c:	2d 91       	ld	r18, X+
    8c0e:	3c 91       	ld	r19, X
    8c10:	11 97       	sbiw	r26, 0x01	; 1
    8c12:	24 0f       	add	r18, r20
    8c14:	35 1f       	adc	r19, r21
    8c16:	2e 5f       	subi	r18, 0xFE	; 254
    8c18:	3f 4f       	sbci	r19, 0xFF	; 255
    8c1a:	31 83       	std	Z+1, r19	; 0x01
    8c1c:	20 83       	st	Z, r18
    8c1e:	12 96       	adiw	r26, 0x02	; 2
    8c20:	2d 91       	ld	r18, X+
    8c22:	3c 91       	ld	r19, X
    8c24:	13 97       	sbiw	r26, 0x03	; 3
    8c26:	33 83       	std	Z+3, r19	; 0x03
    8c28:	22 83       	std	Z+2, r18	; 0x02
    8c2a:	00 97       	sbiw	r24, 0x00	; 0
    8c2c:	29 f4       	brne	.+10     	; 0x8c38 <free+0xa6>
    8c2e:	f0 93 df 12 	sts	0x12DF, r31
    8c32:	e0 93 de 12 	sts	0x12DE, r30
    8c36:	43 c0       	rjmp	.+134    	; 0x8cbe <free+0x12c>
    8c38:	dc 01       	movw	r26, r24
    8c3a:	13 96       	adiw	r26, 0x03	; 3
    8c3c:	fc 93       	st	X, r31
    8c3e:	ee 93       	st	-X, r30
    8c40:	12 97       	sbiw	r26, 0x02	; 2
    8c42:	4d 91       	ld	r20, X+
    8c44:	5d 91       	ld	r21, X+
    8c46:	a4 0f       	add	r26, r20
    8c48:	b5 1f       	adc	r27, r21
    8c4a:	ea 17       	cp	r30, r26
    8c4c:	fb 07       	cpc	r31, r27
    8c4e:	69 f4       	brne	.+26     	; 0x8c6a <free+0xd8>
    8c50:	20 81       	ld	r18, Z
    8c52:	31 81       	ldd	r19, Z+1	; 0x01
    8c54:	24 0f       	add	r18, r20
    8c56:	35 1f       	adc	r19, r21
    8c58:	2e 5f       	subi	r18, 0xFE	; 254
    8c5a:	3f 4f       	sbci	r19, 0xFF	; 255
    8c5c:	ec 01       	movw	r28, r24
    8c5e:	39 83       	std	Y+1, r19	; 0x01
    8c60:	28 83       	st	Y, r18
    8c62:	22 81       	ldd	r18, Z+2	; 0x02
    8c64:	33 81       	ldd	r19, Z+3	; 0x03
    8c66:	3b 83       	std	Y+3, r19	; 0x03
    8c68:	2a 83       	std	Y+2, r18	; 0x02
    8c6a:	e0 e0       	ldi	r30, 0x00	; 0
    8c6c:	f0 e0       	ldi	r31, 0x00	; 0
    8c6e:	02 c0       	rjmp	.+4      	; 0x8c74 <free+0xe2>
    8c70:	fb 01       	movw	r30, r22
    8c72:	bc 01       	movw	r22, r24
    8c74:	db 01       	movw	r26, r22
    8c76:	12 96       	adiw	r26, 0x02	; 2
    8c78:	8d 91       	ld	r24, X+
    8c7a:	9c 91       	ld	r25, X
    8c7c:	13 97       	sbiw	r26, 0x03	; 3
    8c7e:	00 97       	sbiw	r24, 0x00	; 0
    8c80:	b9 f7       	brne	.-18     	; 0x8c70 <free+0xde>
    8c82:	9b 01       	movw	r18, r22
    8c84:	2e 5f       	subi	r18, 0xFE	; 254
    8c86:	3f 4f       	sbci	r19, 0xFF	; 255
    8c88:	8d 91       	ld	r24, X+
    8c8a:	9c 91       	ld	r25, X
    8c8c:	11 97       	sbiw	r26, 0x01	; 1
    8c8e:	82 0f       	add	r24, r18
    8c90:	93 1f       	adc	r25, r19
    8c92:	40 91 dc 12 	lds	r20, 0x12DC
    8c96:	50 91 dd 12 	lds	r21, 0x12DD
    8c9a:	48 17       	cp	r20, r24
    8c9c:	59 07       	cpc	r21, r25
    8c9e:	79 f4       	brne	.+30     	; 0x8cbe <free+0x12c>
    8ca0:	30 97       	sbiw	r30, 0x00	; 0
    8ca2:	29 f4       	brne	.+10     	; 0x8cae <free+0x11c>
    8ca4:	10 92 df 12 	sts	0x12DF, r1
    8ca8:	10 92 de 12 	sts	0x12DE, r1
    8cac:	02 c0       	rjmp	.+4      	; 0x8cb2 <free+0x120>
    8cae:	13 82       	std	Z+3, r1	; 0x03
    8cb0:	12 82       	std	Z+2, r1	; 0x02
    8cb2:	22 50       	subi	r18, 0x02	; 2
    8cb4:	30 40       	sbci	r19, 0x00	; 0
    8cb6:	30 93 dd 12 	sts	0x12DD, r19
    8cba:	20 93 dc 12 	sts	0x12DC, r18
    8cbe:	df 91       	pop	r29
    8cc0:	cf 91       	pop	r28
    8cc2:	08 95       	ret

00008cc4 <__ctype_isfalse>:
    8cc4:	99 27       	eor	r25, r25
    8cc6:	88 27       	eor	r24, r24

00008cc8 <__ctype_istrue>:
    8cc8:	08 95       	ret

00008cca <memset>:
    8cca:	dc 01       	movw	r26, r24
    8ccc:	01 c0       	rjmp	.+2      	; 0x8cd0 <memset+0x6>
    8cce:	6d 93       	st	X+, r22
    8cd0:	41 50       	subi	r20, 0x01	; 1
    8cd2:	50 40       	sbci	r21, 0x00	; 0
    8cd4:	e0 f7       	brcc	.-8      	; 0x8cce <memset+0x4>
    8cd6:	08 95       	ret

00008cd8 <_exit>:
    8cd8:	ff cf       	rjmp	.-2      	; 0x8cd8 <_exit>
